
fs_server:     file format elf64-littleaarch64


Disassembly of section .text:

0000000000000000 <main>:
    Ipc_read,
    Ipc_write,
    Ipc_fsize);

int main(int argc, char* argv[])
{
       0:	a9bd7bfd 	stp	x29, x30, [sp, #-48]!
    printf("MemFS Start\n");
       4:	b0000060 	adrp	x0, d000 <__ascii_wctomb+0x30>
       8:	91342000 	add	x0, x0, #0xd08
{
       c:	910003fd 	mov	x29, sp
      10:	f9000bf3 	str	x19, [sp, #16]
    printf("MemFS Start\n");
      14:	94001083 	bl	4220 <printf>
    sys_state_info info;
    get_memblock_info(&info);
      18:	910083e0 	add	x0, sp, #0x20
      1c:	94001405 	bl	5030 <get_memblock_info>

    int len = info.memblock_info.memblock_end - info.memblock_info.memblock_start;
      20:	a9424fe1 	ldp	x1, x19, [sp, #32]
    mmap(FS_IMG_ADDR, info.memblock_info.memblock_start, len, false);
      24:	52800003 	mov	w3, #0x0                   	// #0
      28:	d2ac0000 	mov	x0, #0x60000000            	// #1610612736
    int len = info.memblock_info.memblock_end - info.memblock_info.memblock_start;
      2c:	4b010273 	sub	w19, w19, w1
    mmap(FS_IMG_ADDR, info.memblock_info.memblock_start, len, false);
      30:	2a1303e2 	mov	w2, w19
      34:	9400142f 	bl	50f0 <mmap>

    MemFsInit((uintptr_t)FS_IMG_ADDR, (uint32_t)len);
      38:	2a1303e1 	mov	w1, w19
      3c:	d2ac0000 	mov	x0, #0x60000000            	// #1610612736
      40:	94000718 	bl	1ca0 <MemFsInit>

    if (register_server("MemFS") < 0) {
      44:	b0000060 	adrp	x0, d000 <__ascii_wctomb+0x30>
      48:	91346000 	add	x0, x0, #0xd18
      4c:	940013d9 	bl	4fb0 <register_server>
      50:	37f80140 	tbnz	w0, #31, 78 <main+0x78>
        printf("register server name: %s failed.\n", "MemFs");
        exit(1);
    }
    ipc_server_loop(&IpcFsServer);
      54:	d0000060 	adrp	x0, e000 <__func__.0+0x280>
      58:	9128a000 	add	x0, x0, #0xa28
      5c:	94001221 	bl	48e0 <ipc_server_loop>

    // never reached
    exit(0);
      60:	52800000 	mov	w0, #0x0                   	// #0
      64:	940013bb 	bl	4f50 <exit>
    return 0;
}
      68:	52800000 	mov	w0, #0x0                   	// #0
      6c:	f9400bf3 	ldr	x19, [sp, #16]
      70:	a8c37bfd 	ldp	x29, x30, [sp], #48
      74:	d65f03c0 	ret
        printf("register server name: %s failed.\n", "MemFs");
      78:	b0000061 	adrp	x1, d000 <__ascii_wctomb+0x30>
      7c:	91348021 	add	x1, x1, #0xd20
      80:	b0000060 	adrp	x0, d000 <__ascii_wctomb+0x30>
      84:	9134a000 	add	x0, x0, #0xd28
      88:	94001066 	bl	4220 <printf>
        exit(1);
      8c:	52800020 	mov	w0, #0x1                   	// #1
      90:	940013b0 	bl	4f50 <exit>
      94:	17fffff0 	b	54 <main+0x54>
      98:	d503201f 	nop
      9c:	d503201f 	nop

00000000000000a0 <deregister_tm_clones>:
      a0:	90000080 	adrp	x0, 10000 <__malloc_av_+0x4b8>
      a4:	910dc000 	add	x0, x0, #0x370
      a8:	90000081 	adrp	x1, 10000 <__malloc_av_+0x4b8>
      ac:	910dc021 	add	x1, x1, #0x370
      b0:	eb00003f 	cmp	x1, x0
      b4:	540000c0 	b.eq	cc <deregister_tm_clones+0x2c>  // b.none
      b8:	b0000061 	adrp	x1, d000 <__ascii_wctomb+0x30>
      bc:	f944dc21 	ldr	x1, [x1, #2488]
      c0:	b4000061 	cbz	x1, cc <deregister_tm_clones+0x2c>
      c4:	aa0103f0 	mov	x16, x1
      c8:	d61f0200 	br	x16
      cc:	d65f03c0 	ret

00000000000000d0 <register_tm_clones>:
      d0:	90000080 	adrp	x0, 10000 <__malloc_av_+0x4b8>
      d4:	910dc000 	add	x0, x0, #0x370
      d8:	90000081 	adrp	x1, 10000 <__malloc_av_+0x4b8>
      dc:	910dc021 	add	x1, x1, #0x370
      e0:	cb000021 	sub	x1, x1, x0
      e4:	d37ffc22 	lsr	x2, x1, #63
      e8:	8b810c41 	add	x1, x2, x1, asr #3
      ec:	9341fc21 	asr	x1, x1, #1
      f0:	b40000c1 	cbz	x1, 108 <register_tm_clones+0x38>
      f4:	b0000062 	adrp	x2, d000 <__ascii_wctomb+0x30>
      f8:	f944e042 	ldr	x2, [x2, #2496]
      fc:	b4000062 	cbz	x2, 108 <register_tm_clones+0x38>
     100:	aa0203f0 	mov	x16, x2
     104:	d61f0200 	br	x16
     108:	d65f03c0 	ret
     10c:	d503201f 	nop

0000000000000110 <__do_global_dtors_aux>:
     110:	a9be7bfd 	stp	x29, x30, [sp, #-32]!
     114:	910003fd 	mov	x29, sp
     118:	f9000bf3 	str	x19, [sp, #16]
     11c:	90000093 	adrp	x19, 10000 <__malloc_av_+0x4b8>
     120:	394dc260 	ldrb	w0, [x19, #880]
     124:	35000140 	cbnz	w0, 14c <__do_global_dtors_aux+0x3c>
     128:	97ffffde 	bl	a0 <deregister_tm_clones>
     12c:	b0000060 	adrp	x0, d000 <__ascii_wctomb+0x30>
     130:	f944e400 	ldr	x0, [x0, #2504]
     134:	b4000080 	cbz	x0, 144 <__do_global_dtors_aux+0x34>
     138:	d0000060 	adrp	x0, e000 <__func__.0+0x280>
     13c:	91283000 	add	x0, x0, #0xa0c
     140:	d503201f 	nop
     144:	52800020 	mov	w0, #0x1                   	// #1
     148:	390dc260 	strb	w0, [x19, #880]
     14c:	f9400bf3 	ldr	x19, [sp, #16]
     150:	a8c27bfd 	ldp	x29, x30, [sp], #32
     154:	d65f03c0 	ret
     158:	d503201f 	nop
     15c:	d503201f 	nop

0000000000000160 <frame_dummy>:
     160:	b0000060 	adrp	x0, d000 <__ascii_wctomb+0x30>
     164:	f944e800 	ldr	x0, [x0, #2512]
     168:	b4000140 	cbz	x0, 190 <frame_dummy+0x30>
     16c:	a9bf7bfd 	stp	x29, x30, [sp, #-16]!
     170:	90000081 	adrp	x1, 10000 <__malloc_av_+0x4b8>
     174:	d0000060 	adrp	x0, e000 <__func__.0+0x280>
     178:	910003fd 	mov	x29, sp
     17c:	910de021 	add	x1, x1, #0x378
     180:	91283000 	add	x0, x0, #0xa0c
     184:	d503201f 	nop
     188:	a8c17bfd 	ldp	x29, x30, [sp], #16
     18c:	17ffffd1 	b	d0 <register_tm_clones>
     190:	17ffffd0 	b	d0 <register_tm_clones>
     194:	d503201f 	nop

0000000000000198 <_mainCRTStartup>:
     198:	58000281 	ldr	x1, 1e8 <_cpu_init_hook+0x4>
     19c:	927cec20 	and	x0, x1, #0xfffffffffffffff0
     1a0:	9100001f 	mov	sp, x0
     1a4:	d280001d 	mov	x29, #0x0                   	// #0
     1a8:	a9bf77fd 	stp	x29, x29, [sp, #-16]!
     1ac:	910003fd 	mov	x29, sp
     1b0:	9400000d 	bl	1e4 <_cpu_init_hook>
     1b4:	580001e0 	ldr	x0, 1f0 <_cpu_init_hook+0xc>
     1b8:	52800001 	mov	w1, #0x0                   	// #0
     1bc:	580001e2 	ldr	x2, 1f8 <_cpu_init_hook+0x14>
     1c0:	cb000042 	sub	x2, x2, x0
     1c4:	9400175f 	bl	5f40 <memset>
     1c8:	580001c0 	ldr	x0, 200 <_cpu_init_hook+0x1c>
     1cc:	94001641 	bl	5ad0 <atexit>
     1d0:	9400169c 	bl	5c40 <__libc_init_array>
     1d4:	d2800000 	mov	x0, #0x0                   	// #0
     1d8:	d2800001 	mov	x1, #0x0                   	// #0
     1dc:	97ffff89 	bl	0 <main>
     1e0:	1400135c 	b	4f50 <exit>

00000000000001e4 <_cpu_init_hook>:
     1e4:	d65f03c0 	ret
	...
     1f0:	00010370 	.word	0x00010370
     1f4:	00000000 	.word	0x00000000
     1f8:	000a89a0 	.word	0x000a89a0
     1fc:	00000000 	.word	0x00000000
     200:	00005af0 	.word	0x00005af0
     204:	00000000 	.word	0x00000000
     208:	d503201f 	.word	0xd503201f
     20c:	d503201f 	.word	0xd503201f

0000000000000210 <get_session_cwd>:
{
     210:	a9bc7bfd 	stp	x29, x30, [sp, #-64]!
     214:	910003fd 	mov	x29, sp
     218:	f9001bf7 	str	x23, [sp, #48]
     21c:	90000080 	adrp	x0, 10000 <__malloc_av_+0x4b8>
     220:	9116c017 	add	x23, x0, #0x5b0
     224:	a90153f3 	stp	x19, x20, [sp, #16]
     228:	aa1703f4 	mov	x20, x23
    for (int i = 0; i < MAX_SUPPORT_SESSION; i++) {
     22c:	52800013 	mov	w19, #0x0                   	// #0
{
     230:	a9025bf5 	stp	x21, x22, [sp, #32]
    int free_idx = -1;
     234:	12800016 	mov	w22, #0xffffffff            	// #-1
     238:	1400000a 	b	260 <get_session_cwd+0x50>
        if (free_idx == -1 && session_cwd[i].session_id == 0) {
     23c:	310006df 	cmn	w22, #0x1
     240:	54000081 	b.ne	250 <get_session_cwd+0x40>  // b.any
     244:	b9400280 	ldr	w0, [x20]
     248:	7100001f 	cmp	w0, #0x0
     24c:	1a9312d6 	csel	w22, w22, w19, ne  // ne = any
    for (int i = 0; i < MAX_SUPPORT_SESSION; i++) {
     250:	11000673 	add	w19, w19, #0x1
     254:	91004294 	add	x20, x20, #0x10
     258:	7140067f 	cmp	w19, #0x1, lsl #12
     25c:	54000160 	b.eq	288 <get_session_cwd+0x78>  // b.none
        if (session_cwd[i].session_id == cur_session_id()) {
     260:	b9400295 	ldr	w21, [x20]
     264:	9400118b 	bl	4890 <cur_session_id>
     268:	6b0002bf 	cmp	w21, w0
     26c:	54fffe81 	b.ne	23c <get_session_cwd+0x2c>  // b.any
            return &session_cwd[i];
     270:	8b33d2e0 	add	x0, x23, w19, sxtw #4
}
     274:	a94153f3 	ldp	x19, x20, [sp, #16]
     278:	a9425bf5 	ldp	x21, x22, [sp, #32]
     27c:	f9401bf7 	ldr	x23, [sp, #48]
     280:	a8c47bfd 	ldp	x29, x30, [sp], #64
     284:	d65f03c0 	ret
    if (free_idx == -1) {
     288:	310006df 	cmn	w22, #0x1
     28c:	54000200 	b.eq	2cc <get_session_cwd+0xbc>  // b.none
    session_cwd[free_idx].session_id = cur_session_id();
     290:	937c7ed6 	sbfiz	x22, x22, #4, #32
     294:	9400117f 	bl	4890 <cur_session_id>
     298:	8b1602f3 	add	x19, x23, x22
     29c:	2a0003e1 	mov	w1, w0
    session_cwd[free_idx].Inode = InodeGet(ROOT_INUM);
     2a0:	52800020 	mov	w0, #0x1                   	// #1
    session_cwd[free_idx].session_id = cur_session_id();
     2a4:	b8366ae1 	str	w1, [x23, x22]
    session_cwd[free_idx].Inode = InodeGet(ROOT_INUM);
     2a8:	94000692 	bl	1cf0 <InodeGet>
     2ac:	aa0003e1 	mov	x1, x0
     2b0:	f9000661 	str	x1, [x19, #8]
    return &session_cwd[free_idx];
     2b4:	aa1303e0 	mov	x0, x19
}
     2b8:	a94153f3 	ldp	x19, x20, [sp, #16]
     2bc:	a9425bf5 	ldp	x21, x22, [sp, #32]
     2c0:	f9401bf7 	ldr	x23, [sp, #48]
     2c4:	a8c47bfd 	ldp	x29, x30, [sp], #64
     2c8:	d65f03c0 	ret
        printf("Connect Session reaches max value.\n");
     2cc:	b0000060 	adrp	x0, d000 <__ascii_wctomb+0x30>
     2d0:	91276000 	add	x0, x0, #0x9d8
     2d4:	94000fd3 	bl	4220 <printf>
        return NULL;
     2d8:	d2800000 	mov	x0, #0x0                   	// #0
     2dc:	17ffffe6 	b	274 <get_session_cwd+0x64>

00000000000002e0 <ipc_serve_Ipc_close>:
IPC_SERVER_INTERFACE(Ipc_close, 1);
     2e0:	a9bd7bfd 	stp	x29, x30, [sp, #-48]!
     2e4:	910003fd 	mov	x29, sp
     2e8:	f9000bf3 	str	x19, [sp, #16]
     2ec:	aa0003f3 	mov	x19, x0
/// @param msg
/// @param arg_num start with 0 for first arg
/// @return
__attribute__((__always_inline__)) static inline void* ipc_msg_get_nth_arg_buf(struct IpcMsg* msg, int arg_num)
{
    if (IPCMSG_ARG_INFO(msg, arg_num)->null_ptr == 1) {
     2f0:	39404000 	ldrb	w0, [x0, #16]
     2f4:	370003a0 	tbnz	w0, #0, 368 <ipc_serve_Ipc_close+0x88>
        return NULL;
    }

    return (void*)((char*)msg + IPCMSG_ARG_INFO(msg, arg_num)->offset);
     2f8:	79401a60 	ldrh	w0, [x19, #12]
    FreeFileDescriptor(*fd);
     2fc:	b8606a60 	ldr	w0, [x19, x0]
     300:	94000924 	bl	2790 <FreeFileDescriptor>
IPC_SERVER_INTERFACE(Ipc_close, 1);
     304:	b9002fff 	str	wzr, [sp, #44]
     308:	9400116a 	bl	48b0 <is_cur_session_delayed>
     30c:	72001c1f 	tst	w0, #0xff
     310:	54000141 	b.ne	338 <ipc_serve_Ipc_close+0x58>  // b.any
/// @brief set return val of ipc call after serve, used by server
/// @param msg
/// @param ret_val
__attribute__((__always_inline__)) static inline void ipc_msg_set_return(struct IpcMsg* msg, int32_t* ret_val)
{
    assert(msg->header.valid == 1);
     314:	39400260 	ldrb	w0, [x19]
     318:	36000180 	tbz	w0, #0, 348 <ipc_serve_Ipc_close+0x68>
    memcpy(&msg->header.ret_val, ret_val, sizeof(msg->header.ret_val));
     31c:	9100b3e1 	add	x1, sp, #0x2c
     320:	91002260 	add	x0, x19, #0x8
     324:	d2800082 	mov	x2, #0x4                   	// #4
     328:	94001676 	bl	5d00 <memcpy>
     32c:	39400260 	ldrb	w0, [x19]
     330:	321f0000 	orr	w0, w0, #0x2
     334:	39000260 	strb	w0, [x19]
     338:	52800000 	mov	w0, #0x0                   	// #0
     33c:	f9400bf3 	ldr	x19, [sp, #16]
     340:	a8c37bfd 	ldp	x29, x30, [sp], #48
     344:	d65f03c0 	ret
    assert(msg->header.valid == 1);
     348:	b0000063 	adrp	x3, d000 <__ascii_wctomb+0x30>
     34c:	b0000062 	adrp	x2, d000 <__ascii_wctomb+0x30>
     350:	b0000060 	adrp	x0, d000 <__ascii_wctomb+0x30>
     354:	91280063 	add	x3, x3, #0xa00
     358:	91354042 	add	x2, x2, #0xd50
     35c:	91286000 	add	x0, x0, #0xa18
     360:	52801101 	mov	w1, #0x88                  	// #136
     364:	940015bb 	bl	5a50 <__assert_func>
    FreeFileDescriptor(*fd);
     368:	d2800000 	mov	x0, #0x0                   	// #0
     36c:	b9400000 	ldr	w0, [x0]
     370:	d4207d00 	brk	#0x3e8
     374:	d503201f 	nop
     378:	d503201f 	nop
     37c:	d503201f 	nop

0000000000000380 <ipc_serve_Ipc_fsize>:
IPC_SERVER_INTERFACE(Ipc_fsize, 1);
     380:	a9bd7bfd 	stp	x29, x30, [sp, #-48]!
     384:	910003fd 	mov	x29, sp
     388:	f9000bf3 	str	x19, [sp, #16]
     38c:	aa0003f3 	mov	x19, x0
    if (IPCMSG_ARG_INFO(msg, arg_num)->null_ptr == 1) {
     390:	39404000 	ldrb	w0, [x0, #16]
     394:	370005c0 	tbnz	w0, #0, 44c <ipc_serve_Ipc_fsize+0xcc>
    return (void*)((char*)msg + IPCMSG_ARG_INFO(msg, arg_num)->offset);
     398:	79401a60 	ldrh	w0, [x19, #12]
    struct FileDescriptor* fdp = GetFileDescriptor(*fd);
     39c:	b8606a60 	ldr	w0, [x19, x0]
     3a0:	940008ec 	bl	2750 <GetFileDescriptor>
    if (!fdp) {
     3a4:	b40003a0 	cbz	x0, 418 <ipc_serve_Ipc_fsize+0x98>
    struct Inode* ip = fdp->data;
     3a8:	f9404001 	ldr	x1, [x0, #128]
    if (ip->type != FS_FILE) {
     3ac:	b9400422 	ldr	w2, [x1, #4]
     3b0:	7100085f 	cmp	w2, #0x2
     3b4:	54000261 	b.ne	400 <ipc_serve_Ipc_fsize+0x80>  // b.any
    return ip->size;
     3b8:	b9400820 	ldr	w0, [x1, #8]
IPC_SERVER_INTERFACE(Ipc_fsize, 1);
     3bc:	b9002fe0 	str	w0, [sp, #44]
     3c0:	9400113c 	bl	48b0 <is_cur_session_delayed>
     3c4:	72001c1f 	tst	w0, #0xff
     3c8:	54000141 	b.ne	3f0 <ipc_serve_Ipc_fsize+0x70>  // b.any
    assert(msg->header.valid == 1);
     3cc:	39400260 	ldrb	w0, [x19]
     3d0:	360002e0 	tbz	w0, #0, 42c <ipc_serve_Ipc_fsize+0xac>
    memcpy(&msg->header.ret_val, ret_val, sizeof(msg->header.ret_val));
     3d4:	9100b3e1 	add	x1, sp, #0x2c
     3d8:	91002260 	add	x0, x19, #0x8
     3dc:	d2800082 	mov	x2, #0x4                   	// #4
     3e0:	94001648 	bl	5d00 <memcpy>
     3e4:	39400260 	ldrb	w0, [x19]
     3e8:	321f0000 	orr	w0, w0, #0x2
     3ec:	39000260 	strb	w0, [x19]
     3f0:	52800000 	mov	w0, #0x0                   	// #0
     3f4:	f9400bf3 	ldr	x19, [sp, #16]
     3f8:	a8c37bfd 	ldp	x29, x30, [sp], #48
     3fc:	d65f03c0 	ret
        printf("read: %s Is not a file\n", fdp->path);
     400:	aa0003e1 	mov	x1, x0
     404:	b0000060 	adrp	x0, d000 <__ascii_wctomb+0x30>
     408:	912a0000 	add	x0, x0, #0xa80
     40c:	94000f85 	bl	4220 <printf>
        return -1;
     410:	12800000 	mov	w0, #0xffffffff            	// #-1
     414:	17ffffea 	b	3bc <ipc_serve_Ipc_fsize+0x3c>
        printf("read: fd invalid\n");
     418:	b0000060 	adrp	x0, d000 <__ascii_wctomb+0x30>
     41c:	9129a000 	add	x0, x0, #0xa68
     420:	94000f80 	bl	4220 <printf>
        return -1;
     424:	12800000 	mov	w0, #0xffffffff            	// #-1
     428:	17ffffe5 	b	3bc <ipc_serve_Ipc_fsize+0x3c>
    assert(msg->header.valid == 1);
     42c:	b0000063 	adrp	x3, d000 <__ascii_wctomb+0x30>
     430:	b0000062 	adrp	x2, d000 <__ascii_wctomb+0x30>
     434:	b0000060 	adrp	x0, d000 <__ascii_wctomb+0x30>
     438:	91280063 	add	x3, x3, #0xa00
     43c:	91354042 	add	x2, x2, #0xd50
     440:	91286000 	add	x0, x0, #0xa18
     444:	52801101 	mov	w1, #0x88                  	// #136
     448:	94001582 	bl	5a50 <__assert_func>
    struct FileDescriptor* fdp = GetFileDescriptor(*fd);
     44c:	d2800000 	mov	x0, #0x0                   	// #0
     450:	b9400000 	ldr	w0, [x0]
     454:	d4207d00 	brk	#0x3e8
     458:	d503201f 	nop
     45c:	d503201f 	nop

0000000000000460 <ipc_do_serve_Ipc_ls>:
{
     460:	a9bb7bfd 	stp	x29, x30, [sp, #-80]!
     464:	910003fd 	mov	x29, sp
     468:	a90153f3 	stp	x19, x20, [sp, #16]
     46c:	aa0003f3 	mov	x19, x0
     470:	f90013f5 	str	x21, [sp, #32]
    if (*path == '/') {
     474:	39400000 	ldrb	w0, [x0]
     478:	7100bc1f 	cmp	w0, #0x2f
     47c:	540005e0 	b.eq	538 <ipc_do_serve_Ipc_ls+0xd8>  // b.none
        struct CwdPair* cwd = get_session_cwd();
     480:	97ffff64 	bl	210 <get_session_cwd>
        if (!cwd) {
     484:	b40006e0 	cbz	x0, 560 <ipc_do_serve_Ipc_ls+0x100>
        dp = cwd->Inode;
     488:	f9400415 	ldr	x21, [x0, #8]
    if (!(ip = InodeSeek(dp, path))) {
     48c:	aa1303e1 	mov	x1, x19
     490:	aa1503e0 	mov	x0, x21
     494:	9400085f 	bl	2610 <InodeSeek>
     498:	aa0003f4 	mov	x20, x0
     49c:	b40006c0 	cbz	x0, 574 <ipc_do_serve_Ipc_ls+0x114>
    if (ip->type != FS_DIRECTORY) {
     4a0:	b9400400 	ldr	w0, [x0, #4]
     4a4:	7100041f 	cmp	w0, #0x1
     4a8:	54000501 	b.ne	548 <ipc_do_serve_Ipc_ls+0xe8>  // b.any
    for (off = 0; off < ip->size; off += sizeof(de)) {
     4ac:	b9400a80 	ldr	w0, [x20, #8]
        printf("%s\n", de.name);
     4b0:	b0000075 	adrp	x21, d000 <__ascii_wctomb+0x30>
     4b4:	912bc2b5 	add	x21, x21, #0xaf0
    for (off = 0; off < ip->size; off += sizeof(de)) {
     4b8:	52800013 	mov	w19, #0x0                   	// #0
     4bc:	35000140 	cbnz	w0, 4e4 <ipc_do_serve_Ipc_ls+0x84>
     4c0:	14000019 	b	524 <ipc_do_serve_Ipc_ls+0xc4>
        if (de.inum == 0) {
     4c4:	794063e2 	ldrh	w2, [sp, #48]
        printf("%s\n", de.name);
     4c8:	9100cbe1 	add	x1, sp, #0x32
     4cc:	aa1503e0 	mov	x0, x21
        if (de.inum == 0) {
     4d0:	34000042 	cbz	w2, 4d8 <ipc_do_serve_Ipc_ls+0x78>
        printf("%s\n", de.name);
     4d4:	94000f53 	bl	4220 <printf>
    for (off = 0; off < ip->size; off += sizeof(de)) {
     4d8:	b9400a80 	ldr	w0, [x20, #8]
     4dc:	6b13001f 	cmp	w0, w19
     4e0:	54000229 	b.ls	524 <ipc_do_serve_Ipc_ls+0xc4>  // b.plast
        if (InodeRead(ip, (char*)&de, off, sizeof(de)) != sizeof(de)) {
     4e4:	2a1303e2 	mov	w2, w19
     4e8:	9100c3e1 	add	x1, sp, #0x30
     4ec:	aa1403e0 	mov	x0, x20
     4f0:	52800403 	mov	w3, #0x20                  	// #32
    for (off = 0; off < ip->size; off += sizeof(de)) {
     4f4:	11008273 	add	w19, w19, #0x20
        if (InodeRead(ip, (char*)&de, off, sizeof(de)) != sizeof(de)) {
     4f8:	9400060a 	bl	1d20 <InodeRead>
     4fc:	7100801f 	cmp	w0, #0x20
     500:	54fffe20 	b.eq	4c4 <ipc_do_serve_Ipc_ls+0x64>  // b.none
            printf("ls:read dir entry failed\n");
     504:	b0000060 	adrp	x0, d000 <__ascii_wctomb+0x30>
     508:	912c4000 	add	x0, x0, #0xb10
     50c:	94000f45 	bl	4220 <printf>
            return -1;
     510:	12800000 	mov	w0, #0xffffffff            	// #-1
}
     514:	a94153f3 	ldp	x19, x20, [sp, #16]
     518:	f94013f5 	ldr	x21, [sp, #32]
     51c:	a8c57bfd 	ldp	x29, x30, [sp], #80
     520:	d65f03c0 	ret
    return 0;
     524:	52800000 	mov	w0, #0x0                   	// #0
}
     528:	a94153f3 	ldp	x19, x20, [sp, #16]
     52c:	f94013f5 	ldr	x21, [sp, #32]
     530:	a8c57bfd 	ldp	x29, x30, [sp], #80
     534:	d65f03c0 	ret
        dp = InodeGet(ROOT_INUM);
     538:	52800020 	mov	w0, #0x1                   	// #1
     53c:	940005ed 	bl	1cf0 <InodeGet>
     540:	aa0003f5 	mov	x21, x0
     544:	17ffffd2 	b	48c <ipc_do_serve_Ipc_ls+0x2c>
        printf("ls: not a dir, ip: %d\n", ip->inum);
     548:	b9400281 	ldr	w1, [x20]
     54c:	b0000060 	adrp	x0, d000 <__ascii_wctomb+0x30>
     550:	912be000 	add	x0, x0, #0xaf8
     554:	94000f33 	bl	4220 <printf>
        return -1;
     558:	12800000 	mov	w0, #0xffffffff            	// #-1
     55c:	17fffff3 	b	528 <ipc_do_serve_Ipc_ls+0xc8>
            printf("ls:find current work dir failed\n");
     560:	b0000060 	adrp	x0, d000 <__ascii_wctomb+0x30>
     564:	912a6000 	add	x0, x0, #0xa98
     568:	94000f2e 	bl	4220 <printf>
            return -1;
     56c:	12800000 	mov	w0, #0xffffffff            	// #-1
     570:	17ffffee 	b	528 <ipc_do_serve_Ipc_ls+0xc8>
        printf("ls: find target Inode failed, dp: %p(%d), path: %s\n", dp, dp->inum, path);
     574:	b94002a2 	ldr	w2, [x21]
     578:	aa1303e3 	mov	x3, x19
     57c:	aa1503e1 	mov	x1, x21
     580:	b0000060 	adrp	x0, d000 <__ascii_wctomb+0x30>
     584:	912b0000 	add	x0, x0, #0xac0
     588:	94000f26 	bl	4220 <printf>
        return -1;
     58c:	12800000 	mov	w0, #0xffffffff            	// #-1
     590:	17ffffe6 	b	528 <ipc_do_serve_Ipc_ls+0xc8>
     594:	d503201f 	nop
     598:	d503201f 	nop
     59c:	d503201f 	nop

00000000000005a0 <ipc_serve_Ipc_ls>:
IPC_SERVER_INTERFACE(Ipc_ls, 1);
     5a0:	a9bd7bfd 	stp	x29, x30, [sp, #-48]!
     5a4:	910003fd 	mov	x29, sp
     5a8:	f9000bf3 	str	x19, [sp, #16]
     5ac:	aa0003f3 	mov	x19, x0
    if (IPCMSG_ARG_INFO(msg, arg_num)->null_ptr == 1) {
     5b0:	39404000 	ldrb	w0, [x0, #16]
     5b4:	370002a0 	tbnz	w0, #0, 608 <ipc_serve_Ipc_ls+0x68>
    return (void*)((char*)msg + IPCMSG_ARG_INFO(msg, arg_num)->offset);
     5b8:	79401a60 	ldrh	w0, [x19, #12]
     5bc:	8b000260 	add	x0, x19, x0
     5c0:	97ffffa8 	bl	460 <ipc_do_serve_Ipc_ls>
     5c4:	b9002fe0 	str	w0, [sp, #44]
     5c8:	940010ba 	bl	48b0 <is_cur_session_delayed>
     5cc:	72001c1f 	tst	w0, #0xff
     5d0:	54000141 	b.ne	5f8 <ipc_serve_Ipc_ls+0x58>  // b.any
    assert(msg->header.valid == 1);
     5d4:	39400260 	ldrb	w0, [x19]
     5d8:	360001c0 	tbz	w0, #0, 610 <ipc_serve_Ipc_ls+0x70>
    memcpy(&msg->header.ret_val, ret_val, sizeof(msg->header.ret_val));
     5dc:	9100b3e1 	add	x1, sp, #0x2c
     5e0:	91002260 	add	x0, x19, #0x8
     5e4:	d2800082 	mov	x2, #0x4                   	// #4
     5e8:	940015c6 	bl	5d00 <memcpy>
     5ec:	39400260 	ldrb	w0, [x19]
     5f0:	321f0000 	orr	w0, w0, #0x2
     5f4:	39000260 	strb	w0, [x19]
     5f8:	52800000 	mov	w0, #0x0                   	// #0
     5fc:	f9400bf3 	ldr	x19, [sp, #16]
     600:	a8c37bfd 	ldp	x29, x30, [sp], #48
     604:	d65f03c0 	ret
        return NULL;
     608:	d2800000 	mov	x0, #0x0                   	// #0
     60c:	17ffffed 	b	5c0 <ipc_serve_Ipc_ls+0x20>
    assert(msg->header.valid == 1);
     610:	b0000063 	adrp	x3, d000 <__ascii_wctomb+0x30>
     614:	b0000062 	adrp	x2, d000 <__ascii_wctomb+0x30>
     618:	b0000060 	adrp	x0, d000 <__ascii_wctomb+0x30>
     61c:	91280063 	add	x3, x3, #0xa00
     620:	91354042 	add	x2, x2, #0xd50
     624:	91286000 	add	x0, x0, #0xa18
     628:	52801101 	mov	w1, #0x88                  	// #136
     62c:	94001509 	bl	5a50 <__assert_func>

0000000000000630 <ipc_do_serve_Ipc_cd>:
{
     630:	a9be7bfd 	stp	x29, x30, [sp, #-32]!
     634:	910003fd 	mov	x29, sp
     638:	a90153f3 	stp	x19, x20, [sp, #16]
     63c:	aa0003f4 	mov	x20, x0
    cwd = get_session_cwd();
     640:	97fffef4 	bl	210 <get_session_cwd>
    if (!cwd) {
     644:	b4000340 	cbz	x0, 6ac <ipc_do_serve_Ipc_cd+0x7c>
     648:	aa0003f3 	mov	x19, x0
    if (*path == '/') {
     64c:	39400280 	ldrb	w0, [x20]
     650:	7100bc1f 	cmp	w0, #0x2f
     654:	540001c0 	b.eq	68c <ipc_do_serve_Ipc_cd+0x5c>  // b.none
        dp = cwd->Inode;
     658:	f9400660 	ldr	x0, [x19, #8]
    if (!(ip = InodeSeek(dp, path))) {
     65c:	aa1403e1 	mov	x1, x20
     660:	940007ec 	bl	2610 <InodeSeek>
     664:	aa0003e1 	mov	x1, x0
     668:	b40002c0 	cbz	x0, 6c0 <ipc_do_serve_Ipc_cd+0x90>
    if (ip->type != FS_DIRECTORY) {
     66c:	b9400400 	ldr	w0, [x0, #4]
     670:	7100041f 	cmp	w0, #0x1
     674:	54000121 	b.ne	698 <ipc_do_serve_Ipc_cd+0x68>  // b.any
    return 0;
     678:	52800000 	mov	w0, #0x0                   	// #0
    cwd->Inode = ip;
     67c:	f9000661 	str	x1, [x19, #8]
}
     680:	a94153f3 	ldp	x19, x20, [sp, #16]
     684:	a8c27bfd 	ldp	x29, x30, [sp], #32
     688:	d65f03c0 	ret
        dp = InodeGet(ROOT_INUM);
     68c:	52800020 	mov	w0, #0x1                   	// #1
     690:	94000598 	bl	1cf0 <InodeGet>
     694:	17fffff2 	b	65c <ipc_do_serve_Ipc_cd+0x2c>
        printf("cd:not a dir\n");
     698:	b0000060 	adrp	x0, d000 <__ascii_wctomb+0x30>
     69c:	912de000 	add	x0, x0, #0xb78
     6a0:	94000ee0 	bl	4220 <printf>
        return -1;
     6a4:	12800000 	mov	w0, #0xffffffff            	// #-1
     6a8:	17fffff6 	b	680 <ipc_do_serve_Ipc_cd+0x50>
        printf("cd:find current work dir failed\n");
     6ac:	b0000060 	adrp	x0, d000 <__ascii_wctomb+0x30>
     6b0:	912cc000 	add	x0, x0, #0xb30
     6b4:	94000edb 	bl	4220 <printf>
        return -1;
     6b8:	12800000 	mov	w0, #0xffffffff            	// #-1
     6bc:	17fffff1 	b	680 <ipc_do_serve_Ipc_cd+0x50>
        printf("cd:find target Inode failed\n");
     6c0:	b0000060 	adrp	x0, d000 <__ascii_wctomb+0x30>
     6c4:	912d6000 	add	x0, x0, #0xb58
     6c8:	94000ed6 	bl	4220 <printf>
        return -1;
     6cc:	12800000 	mov	w0, #0xffffffff            	// #-1
     6d0:	17ffffec 	b	680 <ipc_do_serve_Ipc_cd+0x50>
     6d4:	d503201f 	nop
     6d8:	d503201f 	nop
     6dc:	d503201f 	nop

00000000000006e0 <ipc_serve_Ipc_cd>:
IPC_SERVER_INTERFACE(Ipc_cd, 1);
     6e0:	a9bd7bfd 	stp	x29, x30, [sp, #-48]!
     6e4:	910003fd 	mov	x29, sp
     6e8:	f9000bf3 	str	x19, [sp, #16]
     6ec:	aa0003f3 	mov	x19, x0
    if (IPCMSG_ARG_INFO(msg, arg_num)->null_ptr == 1) {
     6f0:	39404000 	ldrb	w0, [x0, #16]
     6f4:	370002a0 	tbnz	w0, #0, 748 <ipc_serve_Ipc_cd+0x68>
    return (void*)((char*)msg + IPCMSG_ARG_INFO(msg, arg_num)->offset);
     6f8:	79401a60 	ldrh	w0, [x19, #12]
     6fc:	8b000260 	add	x0, x19, x0
     700:	97ffffcc 	bl	630 <ipc_do_serve_Ipc_cd>
     704:	b9002fe0 	str	w0, [sp, #44]
     708:	9400106a 	bl	48b0 <is_cur_session_delayed>
     70c:	72001c1f 	tst	w0, #0xff
     710:	54000141 	b.ne	738 <ipc_serve_Ipc_cd+0x58>  // b.any
    assert(msg->header.valid == 1);
     714:	39400260 	ldrb	w0, [x19]
     718:	360001c0 	tbz	w0, #0, 750 <ipc_serve_Ipc_cd+0x70>
    memcpy(&msg->header.ret_val, ret_val, sizeof(msg->header.ret_val));
     71c:	9100b3e1 	add	x1, sp, #0x2c
     720:	91002260 	add	x0, x19, #0x8
     724:	d2800082 	mov	x2, #0x4                   	// #4
     728:	94001576 	bl	5d00 <memcpy>
     72c:	39400260 	ldrb	w0, [x19]
     730:	321f0000 	orr	w0, w0, #0x2
     734:	39000260 	strb	w0, [x19]
     738:	52800000 	mov	w0, #0x0                   	// #0
     73c:	f9400bf3 	ldr	x19, [sp, #16]
     740:	a8c37bfd 	ldp	x29, x30, [sp], #48
     744:	d65f03c0 	ret
        return NULL;
     748:	d2800000 	mov	x0, #0x0                   	// #0
     74c:	17ffffed 	b	700 <ipc_serve_Ipc_cd+0x20>
    assert(msg->header.valid == 1);
     750:	b0000063 	adrp	x3, d000 <__ascii_wctomb+0x30>
     754:	b0000062 	adrp	x2, d000 <__ascii_wctomb+0x30>
     758:	b0000060 	adrp	x0, d000 <__ascii_wctomb+0x30>
     75c:	91280063 	add	x3, x3, #0xa00
     760:	91354042 	add	x2, x2, #0xd50
     764:	91286000 	add	x0, x0, #0xa18
     768:	52801101 	mov	w1, #0x88                  	// #136
     76c:	940014b9 	bl	5a50 <__assert_func>

0000000000000770 <ipc_do_serve_Ipc_mkdir>:
{
     770:	a9bc7bfd 	stp	x29, x30, [sp, #-64]!
     774:	910003fd 	mov	x29, sp
     778:	a90153f3 	stp	x19, x20, [sp, #16]
     77c:	aa0003f3 	mov	x19, x0
    if (*path == '/') {
     780:	39400000 	ldrb	w0, [x0]
     784:	7100bc1f 	cmp	w0, #0x2f
     788:	54000340 	b.eq	7f0 <ipc_do_serve_Ipc_mkdir+0x80>  // b.none
        struct CwdPair* cwd = get_session_cwd();
     78c:	97fffea1 	bl	210 <get_session_cwd>
        if (!cwd) {
     790:	b4000580 	cbz	x0, 840 <ipc_do_serve_Ipc_mkdir+0xd0>
        dp = cwd->Inode;
     794:	f9400414 	ldr	x20, [x0, #8]
    if ((ip = InodeSeek(dp, path)) != NULL) {
     798:	aa1303e1 	mov	x1, x19
     79c:	aa1403e0 	mov	x0, x20
     7a0:	9400079c 	bl	2610 <InodeSeek>
     7a4:	b50002e0 	cbnz	x0, 800 <ipc_do_serve_Ipc_mkdir+0x90>
    if (!(ip = InodeParentSeek(dp, path, name))) {
     7a8:	aa1403e0 	mov	x0, x20
     7ac:	910083e2 	add	x2, sp, #0x20
     7b0:	aa1303e1 	mov	x1, x19
    char name[DIR_NAME_SIZE] = { 0 };
     7b4:	a9027fff 	stp	xzr, xzr, [sp, #32]
     7b8:	f9001bff 	str	xzr, [sp, #48]
     7bc:	b9003bff 	str	wzr, [sp, #56]
     7c0:	79007bff 	strh	wzr, [sp, #60]
    if (!(ip = InodeParentSeek(dp, path, name))) {
     7c4:	940007bb 	bl	26b0 <InodeParentSeek>
     7c8:	b4000260 	cbz	x0, 814 <ipc_do_serve_Ipc_mkdir+0xa4>
    if (InodeCreate(ip, name, FS_DIRECTORY) == 0) {
     7cc:	910083e1 	add	x1, sp, #0x20
     7d0:	52800022 	mov	w2, #0x1                   	// #1
     7d4:	9400068b 	bl	2200 <InodeCreate>
     7d8:	aa0003e1 	mov	x1, x0
    return 0;
     7dc:	52800000 	mov	w0, #0x0                   	// #0
    if (InodeCreate(ip, name, FS_DIRECTORY) == 0) {
     7e0:	b4000241 	cbz	x1, 828 <ipc_do_serve_Ipc_mkdir+0xb8>
}
     7e4:	a94153f3 	ldp	x19, x20, [sp, #16]
     7e8:	a8c47bfd 	ldp	x29, x30, [sp], #64
     7ec:	d65f03c0 	ret
        dp = InodeGet(ROOT_INUM);
     7f0:	52800020 	mov	w0, #0x1                   	// #1
     7f4:	9400053f 	bl	1cf0 <InodeGet>
     7f8:	aa0003f4 	mov	x20, x0
     7fc:	17ffffe7 	b	798 <ipc_do_serve_Ipc_mkdir+0x28>
        printf("target Inode existed\n");
     800:	b0000060 	adrp	x0, d000 <__ascii_wctomb+0x30>
     804:	912ea000 	add	x0, x0, #0xba8
     808:	94000e86 	bl	4220 <printf>
        return -1;
     80c:	12800000 	mov	w0, #0xffffffff            	// #-1
     810:	17fffff5 	b	7e4 <ipc_do_serve_Ipc_mkdir+0x74>
        printf("target parent Inode is not existed\n");
     814:	b0000060 	adrp	x0, d000 <__ascii_wctomb+0x30>
     818:	912f0000 	add	x0, x0, #0xbc0
     81c:	94000e81 	bl	4220 <printf>
        return -1;
     820:	12800000 	mov	w0, #0xffffffff            	// #-1
     824:	17fffff0 	b	7e4 <ipc_do_serve_Ipc_mkdir+0x74>
        printf("create target Inode %s failed\n", path);
     828:	aa1303e1 	mov	x1, x19
     82c:	b0000060 	adrp	x0, d000 <__ascii_wctomb+0x30>
     830:	912fa000 	add	x0, x0, #0xbe8
     834:	94000e7b 	bl	4220 <printf>
        return -1;
     838:	12800000 	mov	w0, #0xffffffff            	// #-1
     83c:	17ffffea 	b	7e4 <ipc_do_serve_Ipc_mkdir+0x74>
            printf("find current work dir failed\n");
     840:	b0000060 	adrp	x0, d000 <__ascii_wctomb+0x30>
     844:	912e2000 	add	x0, x0, #0xb88
     848:	94000e76 	bl	4220 <printf>
            return -1;
     84c:	12800000 	mov	w0, #0xffffffff            	// #-1
     850:	17ffffe5 	b	7e4 <ipc_do_serve_Ipc_mkdir+0x74>
     854:	d503201f 	nop
     858:	d503201f 	nop
     85c:	d503201f 	nop

0000000000000860 <ipc_serve_Ipc_mkdir>:
IPC_SERVER_INTERFACE(Ipc_mkdir, 1);
     860:	a9bd7bfd 	stp	x29, x30, [sp, #-48]!
     864:	910003fd 	mov	x29, sp
     868:	f9000bf3 	str	x19, [sp, #16]
     86c:	aa0003f3 	mov	x19, x0
    if (IPCMSG_ARG_INFO(msg, arg_num)->null_ptr == 1) {
     870:	39404000 	ldrb	w0, [x0, #16]
     874:	370002a0 	tbnz	w0, #0, 8c8 <ipc_serve_Ipc_mkdir+0x68>
    return (void*)((char*)msg + IPCMSG_ARG_INFO(msg, arg_num)->offset);
     878:	79401a60 	ldrh	w0, [x19, #12]
     87c:	8b000260 	add	x0, x19, x0
     880:	97ffffbc 	bl	770 <ipc_do_serve_Ipc_mkdir>
     884:	b9002fe0 	str	w0, [sp, #44]
     888:	9400100a 	bl	48b0 <is_cur_session_delayed>
     88c:	72001c1f 	tst	w0, #0xff
     890:	54000141 	b.ne	8b8 <ipc_serve_Ipc_mkdir+0x58>  // b.any
    assert(msg->header.valid == 1);
     894:	39400260 	ldrb	w0, [x19]
     898:	360001c0 	tbz	w0, #0, 8d0 <ipc_serve_Ipc_mkdir+0x70>
    memcpy(&msg->header.ret_val, ret_val, sizeof(msg->header.ret_val));
     89c:	9100b3e1 	add	x1, sp, #0x2c
     8a0:	91002260 	add	x0, x19, #0x8
     8a4:	d2800082 	mov	x2, #0x4                   	// #4
     8a8:	94001516 	bl	5d00 <memcpy>
     8ac:	39400260 	ldrb	w0, [x19]
     8b0:	321f0000 	orr	w0, w0, #0x2
     8b4:	39000260 	strb	w0, [x19]
     8b8:	52800000 	mov	w0, #0x0                   	// #0
     8bc:	f9400bf3 	ldr	x19, [sp, #16]
     8c0:	a8c37bfd 	ldp	x29, x30, [sp], #48
     8c4:	d65f03c0 	ret
        return NULL;
     8c8:	d2800000 	mov	x0, #0x0                   	// #0
     8cc:	17ffffed 	b	880 <ipc_serve_Ipc_mkdir+0x20>
    assert(msg->header.valid == 1);
     8d0:	b0000063 	adrp	x3, d000 <__ascii_wctomb+0x30>
     8d4:	b0000062 	adrp	x2, d000 <__ascii_wctomb+0x30>
     8d8:	b0000060 	adrp	x0, d000 <__ascii_wctomb+0x30>
     8dc:	91280063 	add	x3, x3, #0xa00
     8e0:	91354042 	add	x2, x2, #0xd50
     8e4:	91286000 	add	x0, x0, #0xa18
     8e8:	52801101 	mov	w1, #0x88                  	// #136
     8ec:	94001459 	bl	5a50 <__assert_func>

00000000000008f0 <ipc_do_serve_Ipc_delete>:
{
     8f0:	a9bc7bfd 	stp	x29, x30, [sp, #-64]!
     8f4:	910003fd 	mov	x29, sp
     8f8:	f9000bf3 	str	x19, [sp, #16]
     8fc:	aa0003f3 	mov	x19, x0
    if (*path == '/') {
     900:	39400000 	ldrb	w0, [x0]
     904:	7100bc1f 	cmp	w0, #0x2f
     908:	54000280 	b.eq	958 <ipc_do_serve_Ipc_delete+0x68>  // b.none
        struct CwdPair* cwd = get_session_cwd();
     90c:	97fffe41 	bl	210 <get_session_cwd>
        if (!cwd) {
     910:	b40003e0 	cbz	x0, 98c <ipc_do_serve_Ipc_delete+0x9c>
        dp = cwd->Inode;
     914:	f9400400 	ldr	x0, [x0, #8]
    if (!(ip = InodeParentSeek(dp, path, name))) {
     918:	aa1303e1 	mov	x1, x19
     91c:	910083e2 	add	x2, sp, #0x20
    char name[DIR_NAME_SIZE] = { 0 };
     920:	a9027fff 	stp	xzr, xzr, [sp, #32]
     924:	f9001bff 	str	xzr, [sp, #48]
     928:	b9003bff 	str	wzr, [sp, #56]
     92c:	79007bff 	strh	wzr, [sp, #60]
    if (!(ip = InodeParentSeek(dp, path, name))) {
     930:	94000760 	bl	26b0 <InodeParentSeek>
     934:	b4000180 	cbz	x0, 964 <ipc_do_serve_Ipc_delete+0x74>
    if (InodeDelete(ip, name) < 0) {
     938:	910083e1 	add	x1, sp, #0x20
     93c:	940006e5 	bl	24d0 <InodeDelete>
     940:	2a0003e1 	mov	w1, w0
    return 0;
     944:	52800000 	mov	w0, #0x0                   	// #0
    if (InodeDelete(ip, name) < 0) {
     948:	37f80181 	tbnz	w1, #31, 978 <ipc_do_serve_Ipc_delete+0x88>
}
     94c:	f9400bf3 	ldr	x19, [sp, #16]
     950:	a8c47bfd 	ldp	x29, x30, [sp], #64
     954:	d65f03c0 	ret
        dp = InodeGet(ROOT_INUM);
     958:	52800020 	mov	w0, #0x1                   	// #1
     95c:	940004e5 	bl	1cf0 <InodeGet>
     960:	17ffffee 	b	918 <ipc_do_serve_Ipc_delete+0x28>
        printf("delete:target file parent not existed\n");
     964:	b0000060 	adrp	x0, d000 <__ascii_wctomb+0x30>
     968:	9130c000 	add	x0, x0, #0xc30
     96c:	94000e2d 	bl	4220 <printf>
        return -1;
     970:	12800000 	mov	w0, #0xffffffff            	// #-1
     974:	17fffff6 	b	94c <ipc_do_serve_Ipc_delete+0x5c>
        printf("delete:target file not existed\n");
     978:	b0000060 	adrp	x0, d000 <__ascii_wctomb+0x30>
     97c:	91316000 	add	x0, x0, #0xc58
     980:	94000e28 	bl	4220 <printf>
        return -1;
     984:	12800000 	mov	w0, #0xffffffff            	// #-1
     988:	17fffff1 	b	94c <ipc_do_serve_Ipc_delete+0x5c>
            printf("delete:find current work dir failed\n");
     98c:	b0000060 	adrp	x0, d000 <__ascii_wctomb+0x30>
     990:	91302000 	add	x0, x0, #0xc08
     994:	94000e23 	bl	4220 <printf>
            return -1;
     998:	12800000 	mov	w0, #0xffffffff            	// #-1
     99c:	17ffffec 	b	94c <ipc_do_serve_Ipc_delete+0x5c>

00000000000009a0 <ipc_serve_Ipc_delete>:
IPC_SERVER_INTERFACE(Ipc_delete, 1);
     9a0:	a9bd7bfd 	stp	x29, x30, [sp, #-48]!
     9a4:	910003fd 	mov	x29, sp
     9a8:	f9000bf3 	str	x19, [sp, #16]
     9ac:	aa0003f3 	mov	x19, x0
    if (IPCMSG_ARG_INFO(msg, arg_num)->null_ptr == 1) {
     9b0:	39404000 	ldrb	w0, [x0, #16]
     9b4:	370002a0 	tbnz	w0, #0, a08 <ipc_serve_Ipc_delete+0x68>
    return (void*)((char*)msg + IPCMSG_ARG_INFO(msg, arg_num)->offset);
     9b8:	79401a60 	ldrh	w0, [x19, #12]
     9bc:	8b000260 	add	x0, x19, x0
     9c0:	97ffffcc 	bl	8f0 <ipc_do_serve_Ipc_delete>
     9c4:	b9002fe0 	str	w0, [sp, #44]
     9c8:	94000fba 	bl	48b0 <is_cur_session_delayed>
     9cc:	72001c1f 	tst	w0, #0xff
     9d0:	54000141 	b.ne	9f8 <ipc_serve_Ipc_delete+0x58>  // b.any
    assert(msg->header.valid == 1);
     9d4:	39400260 	ldrb	w0, [x19]
     9d8:	360001c0 	tbz	w0, #0, a10 <ipc_serve_Ipc_delete+0x70>
    memcpy(&msg->header.ret_val, ret_val, sizeof(msg->header.ret_val));
     9dc:	9100b3e1 	add	x1, sp, #0x2c
     9e0:	91002260 	add	x0, x19, #0x8
     9e4:	d2800082 	mov	x2, #0x4                   	// #4
     9e8:	940014c6 	bl	5d00 <memcpy>
     9ec:	39400260 	ldrb	w0, [x19]
     9f0:	321f0000 	orr	w0, w0, #0x2
     9f4:	39000260 	strb	w0, [x19]
     9f8:	52800000 	mov	w0, #0x0                   	// #0
     9fc:	f9400bf3 	ldr	x19, [sp, #16]
     a00:	a8c37bfd 	ldp	x29, x30, [sp], #48
     a04:	d65f03c0 	ret
        return NULL;
     a08:	d2800000 	mov	x0, #0x0                   	// #0
     a0c:	17ffffed 	b	9c0 <ipc_serve_Ipc_delete+0x20>
    assert(msg->header.valid == 1);
     a10:	b0000063 	adrp	x3, d000 <__ascii_wctomb+0x30>
     a14:	b0000062 	adrp	x2, d000 <__ascii_wctomb+0x30>
     a18:	b0000060 	adrp	x0, d000 <__ascii_wctomb+0x30>
     a1c:	91280063 	add	x3, x3, #0xa00
     a20:	91354042 	add	x2, x2, #0xd50
     a24:	91286000 	add	x0, x0, #0xa18
     a28:	52801101 	mov	w1, #0x88                  	// #136
     a2c:	94001409 	bl	5a50 <__assert_func>

0000000000000a30 <ipc_do_serve_Ipc_cat>:
{
     a30:	a9bd7bfd 	stp	x29, x30, [sp, #-48]!
     a34:	910003fd 	mov	x29, sp
     a38:	a9025bf5 	stp	x21, x22, [sp, #32]
    buffer[BLOCK_SIZE] = '\0';
     a3c:	90000095 	adrp	x21, 10000 <__malloc_av_+0x4b8>
     a40:	910ea2b5 	add	x21, x21, #0x3a8
{
     a44:	a90153f3 	stp	x19, x20, [sp, #16]
     a48:	aa0003f3 	mov	x19, x0
    buffer[BLOCK_SIZE] = '\0';
     a4c:	390802bf 	strb	wzr, [x21, #512]
    if (*path == '/') {
     a50:	39400000 	ldrb	w0, [x0]
     a54:	7100bc1f 	cmp	w0, #0x2f
     a58:	54000580 	b.eq	b08 <ipc_do_serve_Ipc_cat+0xd8>  // b.none
        struct CwdPair* cwd = get_session_cwd();
     a5c:	97fffded 	bl	210 <get_session_cwd>
        if (!cwd) {
     a60:	b4000660 	cbz	x0, b2c <ipc_do_serve_Ipc_cat+0xfc>
        dp = cwd->Inode;
     a64:	f9400400 	ldr	x0, [x0, #8]
    if (!(ip = InodeSeek(dp, path))) {
     a68:	aa1303e1 	mov	x1, x19
     a6c:	940006e9 	bl	2610 <InodeSeek>
     a70:	aa0003f4 	mov	x20, x0
     a74:	b4000660 	cbz	x0, b40 <ipc_do_serve_Ipc_cat+0x110>
    if (ip->type != FS_FILE) {
     a78:	b9400400 	ldr	w0, [x0, #4]
     a7c:	7100081f 	cmp	w0, #0x2
     a80:	540004a1 	b.ne	b14 <ipc_do_serve_Ipc_cat+0xe4>  // b.any
    for (off = 0; off < ip->size; off += BLOCK_SIZE) {
     a84:	b9400a80 	ldr	w0, [x20, #8]
        printf("%s", buffer);
     a88:	b0000076 	adrp	x22, d000 <__ascii_wctomb+0x30>
     a8c:	9132c2d6 	add	x22, x22, #0xcb0
    for (off = 0; off < ip->size; off += BLOCK_SIZE) {
     a90:	52800013 	mov	w19, #0x0                   	// #0
     a94:	350000c0 	cbnz	w0, aac <ipc_do_serve_Ipc_cat+0x7c>
     a98:	14000017 	b	af4 <ipc_do_serve_Ipc_cat+0xc4>
        printf("%s", buffer);
     a9c:	94000de1 	bl	4220 <printf>
    for (off = 0; off < ip->size; off += BLOCK_SIZE) {
     aa0:	b9400a80 	ldr	w0, [x20, #8]
     aa4:	6b13001f 	cmp	w0, w19
     aa8:	54000269 	b.ls	af4 <ipc_do_serve_Ipc_cat+0xc4>  // b.plast
        if (InodeRead(ip, buffer, off, BLOCK_SIZE) < 0) {
     aac:	2a1303e2 	mov	w2, w19
     ab0:	aa1503e1 	mov	x1, x21
     ab4:	52804003 	mov	w3, #0x200                 	// #512
     ab8:	aa1403e0 	mov	x0, x20
    for (off = 0; off < ip->size; off += BLOCK_SIZE) {
     abc:	0b030273 	add	w19, w19, w3
        if (InodeRead(ip, buffer, off, BLOCK_SIZE) < 0) {
     ac0:	94000498 	bl	1d20 <InodeRead>
        printf("%s", buffer);
     ac4:	aa1503e1 	mov	x1, x21
        if (InodeRead(ip, buffer, off, BLOCK_SIZE) < 0) {
     ac8:	2a0003e2 	mov	w2, w0
        printf("%s", buffer);
     acc:	aa1603e0 	mov	x0, x22
        if (InodeRead(ip, buffer, off, BLOCK_SIZE) < 0) {
     ad0:	36fffe62 	tbz	w2, #31, a9c <ipc_do_serve_Ipc_cat+0x6c>
            printf("cat: read file data failed\n");
     ad4:	b0000060 	adrp	x0, d000 <__ascii_wctomb+0x30>
     ad8:	91324000 	add	x0, x0, #0xc90
     adc:	94000dd1 	bl	4220 <printf>
    return 0;
     ae0:	52800000 	mov	w0, #0x0                   	// #0
}
     ae4:	a94153f3 	ldp	x19, x20, [sp, #16]
     ae8:	a9425bf5 	ldp	x21, x22, [sp, #32]
     aec:	a8c37bfd 	ldp	x29, x30, [sp], #48
     af0:	d65f03c0 	ret
    return 0;
     af4:	52800000 	mov	w0, #0x0                   	// #0
}
     af8:	a94153f3 	ldp	x19, x20, [sp, #16]
     afc:	a9425bf5 	ldp	x21, x22, [sp, #32]
     b00:	a8c37bfd 	ldp	x29, x30, [sp], #48
     b04:	d65f03c0 	ret
        dp = InodeGet(ROOT_INUM);
     b08:	52800020 	mov	w0, #0x1                   	// #1
     b0c:	94000479 	bl	1cf0 <InodeGet>
     b10:	17ffffd6 	b	a68 <ipc_do_serve_Ipc_cat+0x38>
        printf("cat: %s Is not a file\n", path);
     b14:	aa1303e1 	mov	x1, x19
     b18:	b0000060 	adrp	x0, d000 <__ascii_wctomb+0x30>
     b1c:	9131e000 	add	x0, x0, #0xc78
     b20:	94000dc0 	bl	4220 <printf>
        return -1;
     b24:	12800000 	mov	w0, #0xffffffff            	// #-1
     b28:	17fffff4 	b	af8 <ipc_do_serve_Ipc_cat+0xc8>
            printf("delete:find current work dir failed\n");
     b2c:	b0000060 	adrp	x0, d000 <__ascii_wctomb+0x30>
     b30:	91302000 	add	x0, x0, #0xc08
     b34:	94000dbb 	bl	4220 <printf>
            return -1;
     b38:	12800000 	mov	w0, #0xffffffff            	// #-1
     b3c:	17ffffef 	b	af8 <ipc_do_serve_Ipc_cat+0xc8>
        printf("delete:target file not existed\n");
     b40:	b0000060 	adrp	x0, d000 <__ascii_wctomb+0x30>
     b44:	91316000 	add	x0, x0, #0xc58
     b48:	94000db6 	bl	4220 <printf>
        return -1;
     b4c:	12800000 	mov	w0, #0xffffffff            	// #-1
     b50:	17ffffea 	b	af8 <ipc_do_serve_Ipc_cat+0xc8>
     b54:	d503201f 	nop
     b58:	d503201f 	nop
     b5c:	d503201f 	nop

0000000000000b60 <ipc_serve_Ipc_cat>:
IPC_SERVER_INTERFACE(Ipc_cat, 1);
     b60:	a9bd7bfd 	stp	x29, x30, [sp, #-48]!
     b64:	910003fd 	mov	x29, sp
     b68:	f9000bf3 	str	x19, [sp, #16]
     b6c:	aa0003f3 	mov	x19, x0
    if (IPCMSG_ARG_INFO(msg, arg_num)->null_ptr == 1) {
     b70:	39404000 	ldrb	w0, [x0, #16]
     b74:	370002a0 	tbnz	w0, #0, bc8 <ipc_serve_Ipc_cat+0x68>
    return (void*)((char*)msg + IPCMSG_ARG_INFO(msg, arg_num)->offset);
     b78:	79401a60 	ldrh	w0, [x19, #12]
     b7c:	8b000260 	add	x0, x19, x0
     b80:	97ffffac 	bl	a30 <ipc_do_serve_Ipc_cat>
     b84:	b9002fe0 	str	w0, [sp, #44]
     b88:	94000f4a 	bl	48b0 <is_cur_session_delayed>
     b8c:	72001c1f 	tst	w0, #0xff
     b90:	54000141 	b.ne	bb8 <ipc_serve_Ipc_cat+0x58>  // b.any
    assert(msg->header.valid == 1);
     b94:	39400260 	ldrb	w0, [x19]
     b98:	360001c0 	tbz	w0, #0, bd0 <ipc_serve_Ipc_cat+0x70>
    memcpy(&msg->header.ret_val, ret_val, sizeof(msg->header.ret_val));
     b9c:	9100b3e1 	add	x1, sp, #0x2c
     ba0:	91002260 	add	x0, x19, #0x8
     ba4:	d2800082 	mov	x2, #0x4                   	// #4
     ba8:	94001456 	bl	5d00 <memcpy>
     bac:	39400260 	ldrb	w0, [x19]
     bb0:	321f0000 	orr	w0, w0, #0x2
     bb4:	39000260 	strb	w0, [x19]
     bb8:	52800000 	mov	w0, #0x0                   	// #0
     bbc:	f9400bf3 	ldr	x19, [sp, #16]
     bc0:	a8c37bfd 	ldp	x29, x30, [sp], #48
     bc4:	d65f03c0 	ret
        return NULL;
     bc8:	d2800000 	mov	x0, #0x0                   	// #0
     bcc:	17ffffed 	b	b80 <ipc_serve_Ipc_cat+0x20>
    assert(msg->header.valid == 1);
     bd0:	b0000063 	adrp	x3, d000 <__ascii_wctomb+0x30>
     bd4:	b0000062 	adrp	x2, d000 <__ascii_wctomb+0x30>
     bd8:	b0000060 	adrp	x0, d000 <__ascii_wctomb+0x30>
     bdc:	91280063 	add	x3, x3, #0xa00
     be0:	91354042 	add	x2, x2, #0xd50
     be4:	91286000 	add	x0, x0, #0xa18
     be8:	52801101 	mov	w1, #0x88                  	// #136
     bec:	94001399 	bl	5a50 <__assert_func>

0000000000000bf0 <ipc_do_serve_Ipc_open>:
{
     bf0:	a9bd7bfd 	stp	x29, x30, [sp, #-48]!
     bf4:	910003fd 	mov	x29, sp
     bf8:	a90153f3 	stp	x19, x20, [sp, #16]
     bfc:	aa0003f3 	mov	x19, x0
    fd = AllocFileDescriptor();
     c00:	940006f0 	bl	27c0 <AllocFileDescriptor>
    if (fd < 0) {
     c04:	37f803c0 	tbnz	w0, #31, c7c <ipc_do_serve_Ipc_open+0x8c>
     c08:	2a0003f4 	mov	w20, w0
    fdp = GetFileDescriptor(fd);
     c0c:	a9025bf5 	stp	x21, x22, [sp, #32]
     c10:	940006d0 	bl	2750 <GetFileDescriptor>
    if (*path == '/') {
     c14:	39400261 	ldrb	w1, [x19]
    fdp = GetFileDescriptor(fd);
     c18:	aa0003f6 	mov	x22, x0
    if (*path == '/') {
     c1c:	7100bc3f 	cmp	w1, #0x2f
     c20:	54000280 	b.eq	c70 <ipc_do_serve_Ipc_open+0x80>  // b.none
        struct CwdPair* cwd = get_session_cwd();
     c24:	97fffd7b 	bl	210 <get_session_cwd>
        if (!cwd) {
     c28:	b4000420 	cbz	x0, cac <ipc_do_serve_Ipc_open+0xbc>
        dp = cwd->Inode;
     c2c:	f9400400 	ldr	x0, [x0, #8]
    if ((ip = InodeSeek(dp, path)) == NULL) {
     c30:	aa1303e1 	mov	x1, x19
     c34:	94000677 	bl	2610 <InodeSeek>
     c38:	aa0003f5 	mov	x21, x0
     c3c:	b40002a0 	cbz	x0, c90 <ipc_do_serve_Ipc_open+0xa0>
    strncpy(fdp->path, path, strlen(path) + 1);
     c40:	aa1303e0 	mov	x0, x19
     c44:	9400157f 	bl	6240 <strlen>
     c48:	aa1303e1 	mov	x1, x19
     c4c:	91000402 	add	x2, x0, #0x1
     c50:	aa1603e0 	mov	x0, x22
     c54:	94001643 	bl	6560 <strncpy>
    fdp->data = ip;
     c58:	f90042d5 	str	x21, [x22, #128]
     c5c:	a9425bf5 	ldp	x21, x22, [sp, #32]
}
     c60:	2a1403e0 	mov	w0, w20
     c64:	a94153f3 	ldp	x19, x20, [sp, #16]
     c68:	a8c37bfd 	ldp	x29, x30, [sp], #48
     c6c:	d65f03c0 	ret
        dp = InodeGet(ROOT_INUM);
     c70:	52800020 	mov	w0, #0x1                   	// #1
     c74:	9400041f 	bl	1cf0 <InodeGet>
     c78:	17ffffee 	b	c30 <ipc_do_serve_Ipc_open+0x40>
        printf("open: alloc a new fd failed\n");
     c7c:	b0000060 	adrp	x0, d000 <__ascii_wctomb+0x30>
     c80:	9132e000 	add	x0, x0, #0xcb8
        return -1;
     c84:	12800014 	mov	w20, #0xffffffff            	// #-1
        printf("open: alloc a new fd failed\n");
     c88:	94000d66 	bl	4220 <printf>
        return -1;
     c8c:	17fffff5 	b	c60 <ipc_do_serve_Ipc_open+0x70>
        printf("open: find target Inode failed, path is %s\n", path);
     c90:	aa1303e1 	mov	x1, x19
     c94:	b0000060 	adrp	x0, d000 <__ascii_wctomb+0x30>
        return -1;
     c98:	12800014 	mov	w20, #0xffffffff            	// #-1
        printf("open: find target Inode failed, path is %s\n", path);
     c9c:	91336000 	add	x0, x0, #0xcd8
     ca0:	94000d60 	bl	4220 <printf>
        return -1;
     ca4:	a9425bf5 	ldp	x21, x22, [sp, #32]
     ca8:	17ffffee 	b	c60 <ipc_do_serve_Ipc_open+0x70>
            printf("ls:find current work dir failed\n");
     cac:	b0000060 	adrp	x0, d000 <__ascii_wctomb+0x30>
     cb0:	912a6000 	add	x0, x0, #0xa98
            return -1;
     cb4:	12800014 	mov	w20, #0xffffffff            	// #-1
            printf("ls:find current work dir failed\n");
     cb8:	94000d5a 	bl	4220 <printf>
            return -1;
     cbc:	a9425bf5 	ldp	x21, x22, [sp, #32]
     cc0:	17ffffe8 	b	c60 <ipc_do_serve_Ipc_open+0x70>
     cc4:	d503201f 	nop
     cc8:	d503201f 	nop
     ccc:	d503201f 	nop

0000000000000cd0 <ipc_serve_Ipc_open>:
IPC_SERVER_INTERFACE(Ipc_open, 1);
     cd0:	a9bd7bfd 	stp	x29, x30, [sp, #-48]!
     cd4:	910003fd 	mov	x29, sp
     cd8:	f9000bf3 	str	x19, [sp, #16]
     cdc:	aa0003f3 	mov	x19, x0
    if (IPCMSG_ARG_INFO(msg, arg_num)->null_ptr == 1) {
     ce0:	39404000 	ldrb	w0, [x0, #16]
     ce4:	370002a0 	tbnz	w0, #0, d38 <ipc_serve_Ipc_open+0x68>
    return (void*)((char*)msg + IPCMSG_ARG_INFO(msg, arg_num)->offset);
     ce8:	79401a60 	ldrh	w0, [x19, #12]
     cec:	8b000260 	add	x0, x19, x0
     cf0:	97ffffc0 	bl	bf0 <ipc_do_serve_Ipc_open>
     cf4:	b9002fe0 	str	w0, [sp, #44]
     cf8:	94000eee 	bl	48b0 <is_cur_session_delayed>
     cfc:	72001c1f 	tst	w0, #0xff
     d00:	54000141 	b.ne	d28 <ipc_serve_Ipc_open+0x58>  // b.any
    assert(msg->header.valid == 1);
     d04:	39400260 	ldrb	w0, [x19]
     d08:	360001c0 	tbz	w0, #0, d40 <ipc_serve_Ipc_open+0x70>
    memcpy(&msg->header.ret_val, ret_val, sizeof(msg->header.ret_val));
     d0c:	9100b3e1 	add	x1, sp, #0x2c
     d10:	91002260 	add	x0, x19, #0x8
     d14:	d2800082 	mov	x2, #0x4                   	// #4
     d18:	940013fa 	bl	5d00 <memcpy>
     d1c:	39400260 	ldrb	w0, [x19]
     d20:	321f0000 	orr	w0, w0, #0x2
     d24:	39000260 	strb	w0, [x19]
     d28:	52800000 	mov	w0, #0x0                   	// #0
     d2c:	f9400bf3 	ldr	x19, [sp, #16]
     d30:	a8c37bfd 	ldp	x29, x30, [sp], #48
     d34:	d65f03c0 	ret
        return NULL;
     d38:	d2800000 	mov	x0, #0x0                   	// #0
     d3c:	17ffffed 	b	cf0 <ipc_serve_Ipc_open+0x20>
    assert(msg->header.valid == 1);
     d40:	b0000063 	adrp	x3, d000 <__ascii_wctomb+0x30>
     d44:	b0000062 	adrp	x2, d000 <__ascii_wctomb+0x30>
     d48:	b0000060 	adrp	x0, d000 <__ascii_wctomb+0x30>
     d4c:	91280063 	add	x3, x3, #0xa00
     d50:	91354042 	add	x2, x2, #0xd50
     d54:	91286000 	add	x0, x0, #0xa18
     d58:	52801101 	mov	w1, #0x88                  	// #136
     d5c:	9400133d 	bl	5a50 <__assert_func>

0000000000000d60 <ipc_do_serve_Ipc_close>:
{
     d60:	a9bf7bfd 	stp	x29, x30, [sp, #-16]!
     d64:	910003fd 	mov	x29, sp
    FreeFileDescriptor(*fd);
     d68:	b9400000 	ldr	w0, [x0]
     d6c:	94000689 	bl	2790 <FreeFileDescriptor>
}
     d70:	52800000 	mov	w0, #0x0                   	// #0
     d74:	a8c17bfd 	ldp	x29, x30, [sp], #16
     d78:	d65f03c0 	ret
     d7c:	d503201f 	nop

0000000000000d80 <ipc_do_serve_Ipc_read>:
{
     d80:	a9bd7bfd 	stp	x29, x30, [sp, #-48]!
     d84:	910003fd 	mov	x29, sp
     d88:	a90153f3 	stp	x19, x20, [sp, #16]
     d8c:	aa0103f4 	mov	x20, x1
     d90:	aa0203f3 	mov	x19, x2
     d94:	f90013f5 	str	x21, [sp, #32]
     d98:	aa0303f5 	mov	x21, x3
    struct FileDescriptor* fdp = GetFileDescriptor(*fd);
     d9c:	b9400000 	ldr	w0, [x0]
     da0:	9400066c 	bl	2750 <GetFileDescriptor>
    if (!fdp) {
     da4:	b40002a0 	cbz	x0, df8 <ipc_do_serve_Ipc_read+0x78>
     da8:	aa0003e1 	mov	x1, x0
    struct Inode* ip = fdp->data;
     dac:	f9404000 	ldr	x0, [x0, #128]
    if (ip->type != FS_FILE) {
     db0:	b9400402 	ldr	w2, [x0, #4]
     db4:	7100085f 	cmp	w2, #0x2
     db8:	54000101 	b.ne	dd8 <ipc_do_serve_Ipc_read+0x58>  // b.any
    int cur_read_len = InodeRead(ip, dst, *offset, *len);
     dbc:	b9400262 	ldr	w2, [x19]
     dc0:	aa1403e1 	mov	x1, x20
     dc4:	b94002a3 	ldr	w3, [x21]
}
     dc8:	a94153f3 	ldp	x19, x20, [sp, #16]
     dcc:	f94013f5 	ldr	x21, [sp, #32]
     dd0:	a8c37bfd 	ldp	x29, x30, [sp], #48
    int cur_read_len = InodeRead(ip, dst, *offset, *len);
     dd4:	140003d3 	b	1d20 <InodeRead>
        printf("read: %s Is not a file\n", fdp->path);
     dd8:	b0000060 	adrp	x0, d000 <__ascii_wctomb+0x30>
     ddc:	912a0000 	add	x0, x0, #0xa80
     de0:	94000d10 	bl	4220 <printf>
}
     de4:	12800000 	mov	w0, #0xffffffff            	// #-1
     de8:	a94153f3 	ldp	x19, x20, [sp, #16]
     dec:	f94013f5 	ldr	x21, [sp, #32]
     df0:	a8c37bfd 	ldp	x29, x30, [sp], #48
     df4:	d65f03c0 	ret
        printf("read: fd invalid\n");
     df8:	b0000060 	adrp	x0, d000 <__ascii_wctomb+0x30>
     dfc:	9129a000 	add	x0, x0, #0xa68
     e00:	94000d08 	bl	4220 <printf>
        return -1;
     e04:	17fffff8 	b	de4 <ipc_do_serve_Ipc_read+0x64>
     e08:	d503201f 	nop
     e0c:	d503201f 	nop

0000000000000e10 <ipc_serve_Ipc_read>:
IPC_SERVER_INTERFACE(Ipc_read, 4);
     e10:	a9bb7bfd 	stp	x29, x30, [sp, #-80]!
     e14:	910003fd 	mov	x29, sp
     e18:	f9000bf3 	str	x19, [sp, #16]
     e1c:	aa0003f3 	mov	x19, x0
     e20:	91003261 	add	x1, x19, #0xc
     e24:	9100c3e0 	add	x0, sp, #0x30
     e28:	91009263 	add	x3, x19, #0x24
    if (IPCMSG_ARG_INFO(msg, arg_num)->null_ptr == 1) {
     e2c:	39401022 	ldrb	w2, [x1, #4]
     e30:	37000362 	tbnz	w2, #0, e9c <ipc_serve_Ipc_read+0x8c>
    return (void*)((char*)msg + IPCMSG_ARG_INFO(msg, arg_num)->offset);
     e34:	79400022 	ldrh	w2, [x1]
     e38:	8b020262 	add	x2, x19, x2
     e3c:	f8008402 	str	x2, [x0], #8
     e40:	91001821 	add	x1, x1, #0x6
     e44:	eb03003f 	cmp	x1, x3
     e48:	54ffff21 	b.ne	e2c <ipc_serve_Ipc_read+0x1c>  // b.any
     e4c:	a94307e0 	ldp	x0, x1, [sp, #48]
     e50:	a9440fe2 	ldp	x2, x3, [sp, #64]
     e54:	97ffffcb 	bl	d80 <ipc_do_serve_Ipc_read>
     e58:	b9002fe0 	str	w0, [sp, #44]
     e5c:	94000e95 	bl	48b0 <is_cur_session_delayed>
     e60:	72001c1f 	tst	w0, #0xff
     e64:	54000141 	b.ne	e8c <ipc_serve_Ipc_read+0x7c>  // b.any
    assert(msg->header.valid == 1);
     e68:	39400260 	ldrb	w0, [x19]
     e6c:	360001c0 	tbz	w0, #0, ea4 <ipc_serve_Ipc_read+0x94>
    memcpy(&msg->header.ret_val, ret_val, sizeof(msg->header.ret_val));
     e70:	9100b3e1 	add	x1, sp, #0x2c
     e74:	91002260 	add	x0, x19, #0x8
     e78:	d2800082 	mov	x2, #0x4                   	// #4
     e7c:	940013a1 	bl	5d00 <memcpy>
     e80:	39400260 	ldrb	w0, [x19]
     e84:	321f0000 	orr	w0, w0, #0x2
     e88:	39000260 	strb	w0, [x19]
     e8c:	52800000 	mov	w0, #0x0                   	// #0
     e90:	f9400bf3 	ldr	x19, [sp, #16]
     e94:	a8c57bfd 	ldp	x29, x30, [sp], #80
     e98:	d65f03c0 	ret
        return NULL;
     e9c:	d2800002 	mov	x2, #0x0                   	// #0
     ea0:	17ffffe7 	b	e3c <ipc_serve_Ipc_read+0x2c>
    assert(msg->header.valid == 1);
     ea4:	b0000063 	adrp	x3, d000 <__ascii_wctomb+0x30>
     ea8:	b0000062 	adrp	x2, d000 <__ascii_wctomb+0x30>
     eac:	b0000060 	adrp	x0, d000 <__ascii_wctomb+0x30>
     eb0:	91280063 	add	x3, x3, #0xa00
     eb4:	91354042 	add	x2, x2, #0xd50
     eb8:	91286000 	add	x0, x0, #0xa18
     ebc:	52801101 	mov	w1, #0x88                  	// #136
     ec0:	940012e4 	bl	5a50 <__assert_func>
     ec4:	d503201f 	nop
     ec8:	d503201f 	nop
     ecc:	d503201f 	nop

0000000000000ed0 <ipc_do_serve_Ipc_write>:
{
     ed0:	a9bd7bfd 	stp	x29, x30, [sp, #-48]!
     ed4:	910003fd 	mov	x29, sp
     ed8:	a90153f3 	stp	x19, x20, [sp, #16]
     edc:	aa0103f4 	mov	x20, x1
     ee0:	aa0203f3 	mov	x19, x2
     ee4:	f90013f5 	str	x21, [sp, #32]
     ee8:	aa0303f5 	mov	x21, x3
    struct FileDescriptor* fdp = GetFileDescriptor(*fd);
     eec:	b9400000 	ldr	w0, [x0]
     ef0:	94000618 	bl	2750 <GetFileDescriptor>
    if (!fdp) {
     ef4:	b40002a0 	cbz	x0, f48 <ipc_do_serve_Ipc_write+0x78>
     ef8:	aa0003e1 	mov	x1, x0
    struct Inode* ip = fdp->data;
     efc:	f9404000 	ldr	x0, [x0, #128]
    if (ip->type != FS_FILE) {
     f00:	b9400402 	ldr	w2, [x0, #4]
     f04:	7100085f 	cmp	w2, #0x2
     f08:	54000101 	b.ne	f28 <ipc_do_serve_Ipc_write+0x58>  // b.any
    int cur_write_len = InodeWrite(ip, src, *offset, *len);
     f0c:	b9400262 	ldr	w2, [x19]
     f10:	aa1403e1 	mov	x1, x20
     f14:	b94002a3 	ldr	w3, [x21]
}
     f18:	a94153f3 	ldp	x19, x20, [sp, #16]
     f1c:	f94013f5 	ldr	x21, [sp, #32]
     f20:	a8c37bfd 	ldp	x29, x30, [sp], #48
    int cur_write_len = InodeWrite(ip, src, *offset, *len);
     f24:	14000417 	b	1f80 <InodeWrite>
        printf("read: %s Is not a file\n", fdp->path);
     f28:	b0000060 	adrp	x0, d000 <__ascii_wctomb+0x30>
     f2c:	912a0000 	add	x0, x0, #0xa80
     f30:	94000cbc 	bl	4220 <printf>
}
     f34:	12800000 	mov	w0, #0xffffffff            	// #-1
     f38:	a94153f3 	ldp	x19, x20, [sp, #16]
     f3c:	f94013f5 	ldr	x21, [sp, #32]
     f40:	a8c37bfd 	ldp	x29, x30, [sp], #48
     f44:	d65f03c0 	ret
        printf("read: fd invalid\n");
     f48:	b0000060 	adrp	x0, d000 <__ascii_wctomb+0x30>
     f4c:	9129a000 	add	x0, x0, #0xa68
     f50:	94000cb4 	bl	4220 <printf>
        return -1;
     f54:	17fffff8 	b	f34 <ipc_do_serve_Ipc_write+0x64>
     f58:	d503201f 	nop
     f5c:	d503201f 	nop

0000000000000f60 <ipc_serve_Ipc_write>:
IPC_SERVER_INTERFACE(Ipc_write, 4);
     f60:	a9bb7bfd 	stp	x29, x30, [sp, #-80]!
     f64:	910003fd 	mov	x29, sp
     f68:	f9000bf3 	str	x19, [sp, #16]
     f6c:	aa0003f3 	mov	x19, x0
     f70:	91003261 	add	x1, x19, #0xc
     f74:	9100c3e0 	add	x0, sp, #0x30
     f78:	91009263 	add	x3, x19, #0x24
    if (IPCMSG_ARG_INFO(msg, arg_num)->null_ptr == 1) {
     f7c:	39401022 	ldrb	w2, [x1, #4]
     f80:	37000362 	tbnz	w2, #0, fec <ipc_serve_Ipc_write+0x8c>
    return (void*)((char*)msg + IPCMSG_ARG_INFO(msg, arg_num)->offset);
     f84:	79400022 	ldrh	w2, [x1]
     f88:	8b020262 	add	x2, x19, x2
     f8c:	f8008402 	str	x2, [x0], #8
     f90:	91001821 	add	x1, x1, #0x6
     f94:	eb03003f 	cmp	x1, x3
     f98:	54ffff21 	b.ne	f7c <ipc_serve_Ipc_write+0x1c>  // b.any
     f9c:	a94307e0 	ldp	x0, x1, [sp, #48]
     fa0:	a9440fe2 	ldp	x2, x3, [sp, #64]
     fa4:	97ffffcb 	bl	ed0 <ipc_do_serve_Ipc_write>
     fa8:	b9002fe0 	str	w0, [sp, #44]
     fac:	94000e41 	bl	48b0 <is_cur_session_delayed>
     fb0:	72001c1f 	tst	w0, #0xff
     fb4:	54000141 	b.ne	fdc <ipc_serve_Ipc_write+0x7c>  // b.any
    assert(msg->header.valid == 1);
     fb8:	39400260 	ldrb	w0, [x19]
     fbc:	360001c0 	tbz	w0, #0, ff4 <ipc_serve_Ipc_write+0x94>
    memcpy(&msg->header.ret_val, ret_val, sizeof(msg->header.ret_val));
     fc0:	9100b3e1 	add	x1, sp, #0x2c
     fc4:	91002260 	add	x0, x19, #0x8
     fc8:	d2800082 	mov	x2, #0x4                   	// #4
     fcc:	9400134d 	bl	5d00 <memcpy>
     fd0:	39400260 	ldrb	w0, [x19]
     fd4:	321f0000 	orr	w0, w0, #0x2
     fd8:	39000260 	strb	w0, [x19]
     fdc:	52800000 	mov	w0, #0x0                   	// #0
     fe0:	f9400bf3 	ldr	x19, [sp, #16]
     fe4:	a8c57bfd 	ldp	x29, x30, [sp], #80
     fe8:	d65f03c0 	ret
        return NULL;
     fec:	d2800002 	mov	x2, #0x0                   	// #0
     ff0:	17ffffe7 	b	f8c <ipc_serve_Ipc_write+0x2c>
    assert(msg->header.valid == 1);
     ff4:	b0000063 	adrp	x3, d000 <__ascii_wctomb+0x30>
     ff8:	b0000062 	adrp	x2, d000 <__ascii_wctomb+0x30>
     ffc:	b0000060 	adrp	x0, d000 <__ascii_wctomb+0x30>
    1000:	91280063 	add	x3, x3, #0xa00
    1004:	91354042 	add	x2, x2, #0xd50
    1008:	91286000 	add	x0, x0, #0xa18
    100c:	52801101 	mov	w1, #0x88                  	// #136
    1010:	94001290 	bl	5a50 <__assert_func>
    1014:	d503201f 	nop
    1018:	d503201f 	nop
    101c:	d503201f 	nop

0000000000001020 <ipc_do_serve_Ipc_fsize>:
{
    1020:	a9bf7bfd 	stp	x29, x30, [sp, #-16]!
    1024:	910003fd 	mov	x29, sp
    struct FileDescriptor* fdp = GetFileDescriptor(*fd);
    1028:	b9400000 	ldr	w0, [x0]
    102c:	940005c9 	bl	2750 <GetFileDescriptor>
    if (!fdp) {
    1030:	b40001c0 	cbz	x0, 1068 <ipc_do_serve_Ipc_fsize+0x48>
    struct Inode* ip = fdp->data;
    1034:	f9404001 	ldr	x1, [x0, #128]
    if (ip->type != FS_FILE) {
    1038:	b9400422 	ldr	w2, [x1, #4]
    103c:	7100085f 	cmp	w2, #0x2
    1040:	54000081 	b.ne	1050 <ipc_do_serve_Ipc_fsize+0x30>  // b.any
    return ip->size;
    1044:	b9400820 	ldr	w0, [x1, #8]
}
    1048:	a8c17bfd 	ldp	x29, x30, [sp], #16
    104c:	d65f03c0 	ret
        printf("read: %s Is not a file\n", fdp->path);
    1050:	aa0003e1 	mov	x1, x0
    1054:	90000060 	adrp	x0, d000 <__ascii_wctomb+0x30>
    1058:	912a0000 	add	x0, x0, #0xa80
    105c:	94000c71 	bl	4220 <printf>
        return -1;
    1060:	12800000 	mov	w0, #0xffffffff            	// #-1
    1064:	17fffff9 	b	1048 <ipc_do_serve_Ipc_fsize+0x28>
        printf("read: fd invalid\n");
    1068:	90000060 	adrp	x0, d000 <__ascii_wctomb+0x30>
    106c:	9129a000 	add	x0, x0, #0xa68
    1070:	94000c6c 	bl	4220 <printf>
        return -1;
    1074:	12800000 	mov	w0, #0xffffffff            	// #-1
    1078:	17fffff4 	b	1048 <ipc_do_serve_Ipc_fsize+0x28>
    107c:	d503201f 	nop

0000000000001080 <ls>:
 * MERCHANTABILITY OR FIT FOR A PARTICULAR PURPOSE.
 * See the Mulan PSL v2 for more details.
 */
#include "libfs.h"

IPC_INTERFACE(Ipc_ls, 1, path, strlen(path) + 1);
    1080:	b40006c0 	cbz	x0, 1158 <ls+0xd8>
int ls(struct Session* session, char* path)
{
    1084:	a9bc7bfd 	stp	x29, x30, [sp, #-64]!
    1088:	910003fd 	mov	x29, sp
    108c:	a90153f3 	stp	x19, x20, [sp, #16]
    1090:	aa0103f4 	mov	x20, x1
    1094:	f90013f5 	str	x21, [sp, #32]
    1098:	aa0003f5 	mov	x21, x0
IPC_INTERFACE(Ipc_ls, 1, path, strlen(path) + 1);
    109c:	aa0103e0 	mov	x0, x1
    10a0:	94001468 	bl	6240 <strlen>
    10a4:	11000403 	add	w3, w0, #0x1
    10a8:	9100e3e2 	add	x2, sp, #0x38
    10ac:	52800021 	mov	w1, #0x1                   	// #1
    10b0:	aa1503e0 	mov	x0, x21
    10b4:	b9003be3 	str	w3, [sp, #56]
    10b8:	94000d1a 	bl	4520 <new_ipc_msg>
    10bc:	aa0003f3 	mov	x19, x0
    10c0:	aa1403e0 	mov	x0, x20
    10c4:	9400145f 	bl	6240 <strlen>
    10c8:	aa1403e2 	mov	x2, x20
    10cc:	11000403 	add	w3, w0, #0x1
    10d0:	52800001 	mov	w1, #0x0                   	// #0
    10d4:	aa1303e0 	mov	x0, x19
    10d8:	94000d52 	bl	4620 <ipc_msg_set_nth_arg>
__attribute__((__always_inline__)) static inline bool ipc_msg_set_opcode(struct IpcMsg* msg, int opcode)
{
    if (opcode < 0 || opcode > UINT8_MAX) {
        return false;
    }
    msg->header.opcode = opcode;
    10dc:	52800020 	mov	w0, #0x1                   	// #1
    10e0:	39000660 	strb	w0, [x19, #1]
    10e4:	aa1303e0 	mov	x0, x19
    10e8:	94000dbe 	bl	47e0 <ipc_msg_send_wait>
    10ec:	aa1403e0 	mov	x0, x20
    10f0:	94001454 	bl	6240 <strlen>
    10f4:	aa1403e2 	mov	x2, x20
    10f8:	11000403 	add	w3, w0, #0x1
    10fc:	52800001 	mov	w1, #0x0                   	// #0
    1100:	aa1303e0 	mov	x0, x19
    1104:	94000d7f 	bl	4700 <ipc_msg_get_nth_arg>
    1108:	b9003bff 	str	wzr, [sp, #56]
    assert(msg->header.done == 1);
    110c:	39400260 	ldrb	w0, [x19]
    1110:	36080280 	tbz	w0, #1, 1160 <ls+0xe0>
    memcpy(ret_val, &msg->header.ret_val, sizeof(msg->header.ret_val));
    1114:	91002261 	add	x1, x19, #0x8
    1118:	d2800082 	mov	x2, #0x4                   	// #4
    111c:	9100e3e0 	add	x0, sp, #0x38
    1120:	940012f8 	bl	5d00 <memcpy>
/// @brief delete first msg in session
/// @param session
/// @return
__attribute__((__always_inline__)) static inline bool ipc_session_forward(struct Session* session)
{
    struct IpcMsg* msg = IPCSESSION_MSG(session);
    1124:	b9800aa0 	ldrsw	x0, [x21, #8]
    1128:	f9400aa1 	ldr	x1, [x21, #16]
    112c:	8b000022 	add	x2, x1, x0
    if (msg->header.init != 1) {
    1130:	38606820 	ldrb	w0, [x1, x0]
    1134:	36100080 	tbz	w0, #2, 1144 <ls+0xc4>
        return false;
    }
    return session_free_buf(session, msg->header.len);
    1138:	79400441 	ldrh	w1, [x2, #2]
    113c:	aa1503e0 	mov	x0, x21
    1140:	94000eb4 	bl	4c10 <session_free_buf>
    1144:	b9403be0 	ldr	w0, [sp, #56]
    return IPC_CALL(Ipc_ls)(session, path);
}
    1148:	a94153f3 	ldp	x19, x20, [sp, #16]
    114c:	f94013f5 	ldr	x21, [sp, #32]
    1150:	a8c47bfd 	ldp	x29, x30, [sp], #64
    1154:	d65f03c0 	ret
IPC_INTERFACE(Ipc_ls, 1, path, strlen(path) + 1);
    1158:	12800000 	mov	w0, #0xffffffff            	// #-1
}
    115c:	d65f03c0 	ret
    assert(msg->header.done == 1);
    1160:	90000063 	adrp	x3, d000 <__ascii_wctomb+0x30>
    1164:	90000062 	adrp	x2, d000 <__ascii_wctomb+0x30>
    1168:	90000060 	adrp	x0, d000 <__ascii_wctomb+0x30>
    116c:	9135a063 	add	x3, x3, #0xd68
    1170:	91360042 	add	x2, x2, #0xd80
    1174:	91286000 	add	x0, x0, #0xa18
    1178:	52800fc1 	mov	w1, #0x7e                  	// #126
    117c:	94001235 	bl	5a50 <__assert_func>

0000000000001180 <cd>:

IPC_INTERFACE(Ipc_cd, 1, path, strlen(path) + 1);
    1180:	b40006c0 	cbz	x0, 1258 <cd+0xd8>
int cd(struct Session* session, char* path)
{
    1184:	a9bc7bfd 	stp	x29, x30, [sp, #-64]!
    1188:	910003fd 	mov	x29, sp
    118c:	a90153f3 	stp	x19, x20, [sp, #16]
    1190:	aa0103f4 	mov	x20, x1
    1194:	f90013f5 	str	x21, [sp, #32]
    1198:	aa0003f5 	mov	x21, x0
IPC_INTERFACE(Ipc_cd, 1, path, strlen(path) + 1);
    119c:	aa0103e0 	mov	x0, x1
    11a0:	94001428 	bl	6240 <strlen>
    11a4:	11000403 	add	w3, w0, #0x1
    11a8:	9100e3e2 	add	x2, sp, #0x38
    11ac:	52800021 	mov	w1, #0x1                   	// #1
    11b0:	aa1503e0 	mov	x0, x21
    11b4:	b9003be3 	str	w3, [sp, #56]
    11b8:	94000cda 	bl	4520 <new_ipc_msg>
    11bc:	aa0003f3 	mov	x19, x0
    11c0:	aa1403e0 	mov	x0, x20
    11c4:	9400141f 	bl	6240 <strlen>
    11c8:	aa1403e2 	mov	x2, x20
    11cc:	11000403 	add	w3, w0, #0x1
    11d0:	52800001 	mov	w1, #0x0                   	// #0
    11d4:	aa1303e0 	mov	x0, x19
    11d8:	94000d12 	bl	4620 <ipc_msg_set_nth_arg>
    msg->header.opcode = opcode;
    11dc:	52800040 	mov	w0, #0x2                   	// #2
    11e0:	39000660 	strb	w0, [x19, #1]
    11e4:	aa1303e0 	mov	x0, x19
    11e8:	94000d7e 	bl	47e0 <ipc_msg_send_wait>
    11ec:	aa1403e0 	mov	x0, x20
    11f0:	94001414 	bl	6240 <strlen>
    11f4:	aa1403e2 	mov	x2, x20
    11f8:	11000403 	add	w3, w0, #0x1
    11fc:	52800001 	mov	w1, #0x0                   	// #0
    1200:	aa1303e0 	mov	x0, x19
    1204:	94000d3f 	bl	4700 <ipc_msg_get_nth_arg>
    1208:	b9003bff 	str	wzr, [sp, #56]
    assert(msg->header.done == 1);
    120c:	39400260 	ldrb	w0, [x19]
    1210:	36080280 	tbz	w0, #1, 1260 <cd+0xe0>
    memcpy(ret_val, &msg->header.ret_val, sizeof(msg->header.ret_val));
    1214:	91002261 	add	x1, x19, #0x8
    1218:	d2800082 	mov	x2, #0x4                   	// #4
    121c:	9100e3e0 	add	x0, sp, #0x38
    1220:	940012b8 	bl	5d00 <memcpy>
    struct IpcMsg* msg = IPCSESSION_MSG(session);
    1224:	b9800aa0 	ldrsw	x0, [x21, #8]
    1228:	f9400aa1 	ldr	x1, [x21, #16]
    122c:	8b000022 	add	x2, x1, x0
    if (msg->header.init != 1) {
    1230:	38606820 	ldrb	w0, [x1, x0]
    1234:	36100080 	tbz	w0, #2, 1244 <cd+0xc4>
    return session_free_buf(session, msg->header.len);
    1238:	79400441 	ldrh	w1, [x2, #2]
    123c:	aa1503e0 	mov	x0, x21
    1240:	94000e74 	bl	4c10 <session_free_buf>
    1244:	b9403be0 	ldr	w0, [sp, #56]
    return IPC_CALL(Ipc_cd)(session, path);
}
    1248:	a94153f3 	ldp	x19, x20, [sp, #16]
    124c:	f94013f5 	ldr	x21, [sp, #32]
    1250:	a8c47bfd 	ldp	x29, x30, [sp], #64
    1254:	d65f03c0 	ret
IPC_INTERFACE(Ipc_cd, 1, path, strlen(path) + 1);
    1258:	12800000 	mov	w0, #0xffffffff            	// #-1
}
    125c:	d65f03c0 	ret
    assert(msg->header.done == 1);
    1260:	90000063 	adrp	x3, d000 <__ascii_wctomb+0x30>
    1264:	90000062 	adrp	x2, d000 <__ascii_wctomb+0x30>
    1268:	90000060 	adrp	x0, d000 <__ascii_wctomb+0x30>
    126c:	9135a063 	add	x3, x3, #0xd68
    1270:	91360042 	add	x2, x2, #0xd80
    1274:	91286000 	add	x0, x0, #0xa18
    1278:	52800fc1 	mov	w1, #0x7e                  	// #126
    127c:	940011f5 	bl	5a50 <__assert_func>

0000000000001280 <mkdir>:

IPC_INTERFACE(Ipc_mkdir, 1, path, strlen(path) + 1);
    1280:	b40006c0 	cbz	x0, 1358 <mkdir+0xd8>
int mkdir(struct Session* session, char* path)
{
    1284:	a9bc7bfd 	stp	x29, x30, [sp, #-64]!
    1288:	910003fd 	mov	x29, sp
    128c:	a90153f3 	stp	x19, x20, [sp, #16]
    1290:	aa0103f4 	mov	x20, x1
    1294:	f90013f5 	str	x21, [sp, #32]
    1298:	aa0003f5 	mov	x21, x0
IPC_INTERFACE(Ipc_mkdir, 1, path, strlen(path) + 1);
    129c:	aa0103e0 	mov	x0, x1
    12a0:	940013e8 	bl	6240 <strlen>
    12a4:	11000403 	add	w3, w0, #0x1
    12a8:	9100e3e2 	add	x2, sp, #0x38
    12ac:	52800021 	mov	w1, #0x1                   	// #1
    12b0:	aa1503e0 	mov	x0, x21
    12b4:	b9003be3 	str	w3, [sp, #56]
    12b8:	94000c9a 	bl	4520 <new_ipc_msg>
    12bc:	aa0003f3 	mov	x19, x0
    12c0:	aa1403e0 	mov	x0, x20
    12c4:	940013df 	bl	6240 <strlen>
    12c8:	aa1403e2 	mov	x2, x20
    12cc:	11000403 	add	w3, w0, #0x1
    12d0:	52800001 	mov	w1, #0x0                   	// #0
    12d4:	aa1303e0 	mov	x0, x19
    12d8:	94000cd2 	bl	4620 <ipc_msg_set_nth_arg>
    msg->header.opcode = opcode;
    12dc:	52800060 	mov	w0, #0x3                   	// #3
    12e0:	39000660 	strb	w0, [x19, #1]
    12e4:	aa1303e0 	mov	x0, x19
    12e8:	94000d3e 	bl	47e0 <ipc_msg_send_wait>
    12ec:	aa1403e0 	mov	x0, x20
    12f0:	940013d4 	bl	6240 <strlen>
    12f4:	aa1403e2 	mov	x2, x20
    12f8:	11000403 	add	w3, w0, #0x1
    12fc:	52800001 	mov	w1, #0x0                   	// #0
    1300:	aa1303e0 	mov	x0, x19
    1304:	94000cff 	bl	4700 <ipc_msg_get_nth_arg>
    1308:	b9003bff 	str	wzr, [sp, #56]
    assert(msg->header.done == 1);
    130c:	39400260 	ldrb	w0, [x19]
    1310:	36080280 	tbz	w0, #1, 1360 <mkdir+0xe0>
    memcpy(ret_val, &msg->header.ret_val, sizeof(msg->header.ret_val));
    1314:	91002261 	add	x1, x19, #0x8
    1318:	d2800082 	mov	x2, #0x4                   	// #4
    131c:	9100e3e0 	add	x0, sp, #0x38
    1320:	94001278 	bl	5d00 <memcpy>
    struct IpcMsg* msg = IPCSESSION_MSG(session);
    1324:	b9800aa0 	ldrsw	x0, [x21, #8]
    1328:	f9400aa1 	ldr	x1, [x21, #16]
    132c:	8b000022 	add	x2, x1, x0
    if (msg->header.init != 1) {
    1330:	38606820 	ldrb	w0, [x1, x0]
    1334:	36100080 	tbz	w0, #2, 1344 <mkdir+0xc4>
    return session_free_buf(session, msg->header.len);
    1338:	79400441 	ldrh	w1, [x2, #2]
    133c:	aa1503e0 	mov	x0, x21
    1340:	94000e34 	bl	4c10 <session_free_buf>
    1344:	b9403be0 	ldr	w0, [sp, #56]
    return IPC_CALL(Ipc_mkdir)(session, path);
}
    1348:	a94153f3 	ldp	x19, x20, [sp, #16]
    134c:	f94013f5 	ldr	x21, [sp, #32]
    1350:	a8c47bfd 	ldp	x29, x30, [sp], #64
    1354:	d65f03c0 	ret
IPC_INTERFACE(Ipc_mkdir, 1, path, strlen(path) + 1);
    1358:	12800000 	mov	w0, #0xffffffff            	// #-1
}
    135c:	d65f03c0 	ret
    assert(msg->header.done == 1);
    1360:	90000063 	adrp	x3, d000 <__ascii_wctomb+0x30>
    1364:	90000062 	adrp	x2, d000 <__ascii_wctomb+0x30>
    1368:	90000060 	adrp	x0, d000 <__ascii_wctomb+0x30>
    136c:	9135a063 	add	x3, x3, #0xd68
    1370:	91360042 	add	x2, x2, #0xd80
    1374:	91286000 	add	x0, x0, #0xa18
    1378:	52800fc1 	mov	w1, #0x7e                  	// #126
    137c:	940011b5 	bl	5a50 <__assert_func>

0000000000001380 <rm>:

IPC_INTERFACE(Ipc_delete, 1, path, strlen(path) + 1);
    1380:	b40006c0 	cbz	x0, 1458 <rm+0xd8>
int rm(struct Session* session, char* path)
{
    1384:	a9bc7bfd 	stp	x29, x30, [sp, #-64]!
    1388:	910003fd 	mov	x29, sp
    138c:	a90153f3 	stp	x19, x20, [sp, #16]
    1390:	aa0103f4 	mov	x20, x1
    1394:	f90013f5 	str	x21, [sp, #32]
    1398:	aa0003f5 	mov	x21, x0
IPC_INTERFACE(Ipc_delete, 1, path, strlen(path) + 1);
    139c:	aa0103e0 	mov	x0, x1
    13a0:	940013a8 	bl	6240 <strlen>
    13a4:	11000403 	add	w3, w0, #0x1
    13a8:	9100e3e2 	add	x2, sp, #0x38
    13ac:	52800021 	mov	w1, #0x1                   	// #1
    13b0:	aa1503e0 	mov	x0, x21
    13b4:	b9003be3 	str	w3, [sp, #56]
    13b8:	94000c5a 	bl	4520 <new_ipc_msg>
    13bc:	aa0003f3 	mov	x19, x0
    13c0:	aa1403e0 	mov	x0, x20
    13c4:	9400139f 	bl	6240 <strlen>
    13c8:	aa1403e2 	mov	x2, x20
    13cc:	11000403 	add	w3, w0, #0x1
    13d0:	52800001 	mov	w1, #0x0                   	// #0
    13d4:	aa1303e0 	mov	x0, x19
    13d8:	94000c92 	bl	4620 <ipc_msg_set_nth_arg>
    msg->header.opcode = opcode;
    13dc:	52800080 	mov	w0, #0x4                   	// #4
    13e0:	39000660 	strb	w0, [x19, #1]
    13e4:	aa1303e0 	mov	x0, x19
    13e8:	94000cfe 	bl	47e0 <ipc_msg_send_wait>
    13ec:	aa1403e0 	mov	x0, x20
    13f0:	94001394 	bl	6240 <strlen>
    13f4:	aa1403e2 	mov	x2, x20
    13f8:	11000403 	add	w3, w0, #0x1
    13fc:	52800001 	mov	w1, #0x0                   	// #0
    1400:	aa1303e0 	mov	x0, x19
    1404:	94000cbf 	bl	4700 <ipc_msg_get_nth_arg>
    1408:	b9003bff 	str	wzr, [sp, #56]
    assert(msg->header.done == 1);
    140c:	39400260 	ldrb	w0, [x19]
    1410:	36080280 	tbz	w0, #1, 1460 <rm+0xe0>
    memcpy(ret_val, &msg->header.ret_val, sizeof(msg->header.ret_val));
    1414:	91002261 	add	x1, x19, #0x8
    1418:	d2800082 	mov	x2, #0x4                   	// #4
    141c:	9100e3e0 	add	x0, sp, #0x38
    1420:	94001238 	bl	5d00 <memcpy>
    struct IpcMsg* msg = IPCSESSION_MSG(session);
    1424:	b9800aa0 	ldrsw	x0, [x21, #8]
    1428:	f9400aa1 	ldr	x1, [x21, #16]
    142c:	8b000022 	add	x2, x1, x0
    if (msg->header.init != 1) {
    1430:	38606820 	ldrb	w0, [x1, x0]
    1434:	36100080 	tbz	w0, #2, 1444 <rm+0xc4>
    return session_free_buf(session, msg->header.len);
    1438:	79400441 	ldrh	w1, [x2, #2]
    143c:	aa1503e0 	mov	x0, x21
    1440:	94000df4 	bl	4c10 <session_free_buf>
    1444:	b9403be0 	ldr	w0, [sp, #56]
    return IPC_CALL(Ipc_delete)(session, path);
}
    1448:	a94153f3 	ldp	x19, x20, [sp, #16]
    144c:	f94013f5 	ldr	x21, [sp, #32]
    1450:	a8c47bfd 	ldp	x29, x30, [sp], #64
    1454:	d65f03c0 	ret
IPC_INTERFACE(Ipc_delete, 1, path, strlen(path) + 1);
    1458:	12800000 	mov	w0, #0xffffffff            	// #-1
}
    145c:	d65f03c0 	ret
    assert(msg->header.done == 1);
    1460:	90000063 	adrp	x3, d000 <__ascii_wctomb+0x30>
    1464:	90000062 	adrp	x2, d000 <__ascii_wctomb+0x30>
    1468:	90000060 	adrp	x0, d000 <__ascii_wctomb+0x30>
    146c:	9135a063 	add	x3, x3, #0xd68
    1470:	91360042 	add	x2, x2, #0xd80
    1474:	91286000 	add	x0, x0, #0xa18
    1478:	52800fc1 	mov	w1, #0x7e                  	// #126
    147c:	94001175 	bl	5a50 <__assert_func>

0000000000001480 <cat>:

IPC_INTERFACE(Ipc_cat, 1, path, strlen(path) + 1);
    1480:	b40006c0 	cbz	x0, 1558 <cat+0xd8>
int cat(struct Session* session, char* path)
{
    1484:	a9bc7bfd 	stp	x29, x30, [sp, #-64]!
    1488:	910003fd 	mov	x29, sp
    148c:	a90153f3 	stp	x19, x20, [sp, #16]
    1490:	aa0103f4 	mov	x20, x1
    1494:	f90013f5 	str	x21, [sp, #32]
    1498:	aa0003f5 	mov	x21, x0
IPC_INTERFACE(Ipc_cat, 1, path, strlen(path) + 1);
    149c:	aa0103e0 	mov	x0, x1
    14a0:	94001368 	bl	6240 <strlen>
    14a4:	11000403 	add	w3, w0, #0x1
    14a8:	9100e3e2 	add	x2, sp, #0x38
    14ac:	52800021 	mov	w1, #0x1                   	// #1
    14b0:	aa1503e0 	mov	x0, x21
    14b4:	b9003be3 	str	w3, [sp, #56]
    14b8:	94000c1a 	bl	4520 <new_ipc_msg>
    14bc:	aa0003f3 	mov	x19, x0
    14c0:	aa1403e0 	mov	x0, x20
    14c4:	9400135f 	bl	6240 <strlen>
    14c8:	aa1403e2 	mov	x2, x20
    14cc:	11000403 	add	w3, w0, #0x1
    14d0:	52800001 	mov	w1, #0x0                   	// #0
    14d4:	aa1303e0 	mov	x0, x19
    14d8:	94000c52 	bl	4620 <ipc_msg_set_nth_arg>
    msg->header.opcode = opcode;
    14dc:	528000a0 	mov	w0, #0x5                   	// #5
    14e0:	39000660 	strb	w0, [x19, #1]
    14e4:	aa1303e0 	mov	x0, x19
    14e8:	94000cbe 	bl	47e0 <ipc_msg_send_wait>
    14ec:	aa1403e0 	mov	x0, x20
    14f0:	94001354 	bl	6240 <strlen>
    14f4:	aa1403e2 	mov	x2, x20
    14f8:	11000403 	add	w3, w0, #0x1
    14fc:	52800001 	mov	w1, #0x0                   	// #0
    1500:	aa1303e0 	mov	x0, x19
    1504:	94000c7f 	bl	4700 <ipc_msg_get_nth_arg>
    1508:	b9003bff 	str	wzr, [sp, #56]
    assert(msg->header.done == 1);
    150c:	39400260 	ldrb	w0, [x19]
    1510:	36080280 	tbz	w0, #1, 1560 <cat+0xe0>
    memcpy(ret_val, &msg->header.ret_val, sizeof(msg->header.ret_val));
    1514:	91002261 	add	x1, x19, #0x8
    1518:	d2800082 	mov	x2, #0x4                   	// #4
    151c:	9100e3e0 	add	x0, sp, #0x38
    1520:	940011f8 	bl	5d00 <memcpy>
    struct IpcMsg* msg = IPCSESSION_MSG(session);
    1524:	b9800aa0 	ldrsw	x0, [x21, #8]
    1528:	f9400aa1 	ldr	x1, [x21, #16]
    152c:	8b000022 	add	x2, x1, x0
    if (msg->header.init != 1) {
    1530:	38606820 	ldrb	w0, [x1, x0]
    1534:	36100080 	tbz	w0, #2, 1544 <cat+0xc4>
    return session_free_buf(session, msg->header.len);
    1538:	79400441 	ldrh	w1, [x2, #2]
    153c:	aa1503e0 	mov	x0, x21
    1540:	94000db4 	bl	4c10 <session_free_buf>
    1544:	b9403be0 	ldr	w0, [sp, #56]
    return IPC_CALL(Ipc_cat)(session, path);
}
    1548:	a94153f3 	ldp	x19, x20, [sp, #16]
    154c:	f94013f5 	ldr	x21, [sp, #32]
    1550:	a8c47bfd 	ldp	x29, x30, [sp], #64
    1554:	d65f03c0 	ret
IPC_INTERFACE(Ipc_cat, 1, path, strlen(path) + 1);
    1558:	12800000 	mov	w0, #0xffffffff            	// #-1
}
    155c:	d65f03c0 	ret
    assert(msg->header.done == 1);
    1560:	90000063 	adrp	x3, d000 <__ascii_wctomb+0x30>
    1564:	90000062 	adrp	x2, d000 <__ascii_wctomb+0x30>
    1568:	90000060 	adrp	x0, d000 <__ascii_wctomb+0x30>
    156c:	9135a063 	add	x3, x3, #0xd68
    1570:	91360042 	add	x2, x2, #0xd80
    1574:	91286000 	add	x0, x0, #0xa18
    1578:	52800fc1 	mov	w1, #0x7e                  	// #126
    157c:	94001135 	bl	5a50 <__assert_func>

0000000000001580 <open>:

IPC_INTERFACE(Ipc_open, 1, path, strlen(path) + 1);
    1580:	b40006c0 	cbz	x0, 1658 <open+0xd8>
int open(struct Session* session, char* path)
{
    1584:	a9bc7bfd 	stp	x29, x30, [sp, #-64]!
    1588:	910003fd 	mov	x29, sp
    158c:	a90153f3 	stp	x19, x20, [sp, #16]
    1590:	aa0103f4 	mov	x20, x1
    1594:	f90013f5 	str	x21, [sp, #32]
    1598:	aa0003f5 	mov	x21, x0
IPC_INTERFACE(Ipc_open, 1, path, strlen(path) + 1);
    159c:	aa0103e0 	mov	x0, x1
    15a0:	94001328 	bl	6240 <strlen>
    15a4:	11000403 	add	w3, w0, #0x1
    15a8:	9100e3e2 	add	x2, sp, #0x38
    15ac:	52800021 	mov	w1, #0x1                   	// #1
    15b0:	aa1503e0 	mov	x0, x21
    15b4:	b9003be3 	str	w3, [sp, #56]
    15b8:	94000bda 	bl	4520 <new_ipc_msg>
    15bc:	aa0003f3 	mov	x19, x0
    15c0:	aa1403e0 	mov	x0, x20
    15c4:	9400131f 	bl	6240 <strlen>
    15c8:	aa1403e2 	mov	x2, x20
    15cc:	11000403 	add	w3, w0, #0x1
    15d0:	52800001 	mov	w1, #0x0                   	// #0
    15d4:	aa1303e0 	mov	x0, x19
    15d8:	94000c12 	bl	4620 <ipc_msg_set_nth_arg>
    msg->header.opcode = opcode;
    15dc:	528000c0 	mov	w0, #0x6                   	// #6
    15e0:	39000660 	strb	w0, [x19, #1]
    15e4:	aa1303e0 	mov	x0, x19
    15e8:	94000c7e 	bl	47e0 <ipc_msg_send_wait>
    15ec:	aa1403e0 	mov	x0, x20
    15f0:	94001314 	bl	6240 <strlen>
    15f4:	aa1403e2 	mov	x2, x20
    15f8:	11000403 	add	w3, w0, #0x1
    15fc:	52800001 	mov	w1, #0x0                   	// #0
    1600:	aa1303e0 	mov	x0, x19
    1604:	94000c3f 	bl	4700 <ipc_msg_get_nth_arg>
    1608:	b9003bff 	str	wzr, [sp, #56]
    assert(msg->header.done == 1);
    160c:	39400260 	ldrb	w0, [x19]
    1610:	36080280 	tbz	w0, #1, 1660 <open+0xe0>
    memcpy(ret_val, &msg->header.ret_val, sizeof(msg->header.ret_val));
    1614:	91002261 	add	x1, x19, #0x8
    1618:	d2800082 	mov	x2, #0x4                   	// #4
    161c:	9100e3e0 	add	x0, sp, #0x38
    1620:	940011b8 	bl	5d00 <memcpy>
    struct IpcMsg* msg = IPCSESSION_MSG(session);
    1624:	b9800aa0 	ldrsw	x0, [x21, #8]
    1628:	f9400aa1 	ldr	x1, [x21, #16]
    162c:	8b000022 	add	x2, x1, x0
    if (msg->header.init != 1) {
    1630:	38606820 	ldrb	w0, [x1, x0]
    1634:	36100080 	tbz	w0, #2, 1644 <open+0xc4>
    return session_free_buf(session, msg->header.len);
    1638:	79400441 	ldrh	w1, [x2, #2]
    163c:	aa1503e0 	mov	x0, x21
    1640:	94000d74 	bl	4c10 <session_free_buf>
    1644:	b9403be0 	ldr	w0, [sp, #56]
    return IPC_CALL(Ipc_open)(session, path);
}
    1648:	a94153f3 	ldp	x19, x20, [sp, #16]
    164c:	f94013f5 	ldr	x21, [sp, #32]
    1650:	a8c47bfd 	ldp	x29, x30, [sp], #64
    1654:	d65f03c0 	ret
IPC_INTERFACE(Ipc_open, 1, path, strlen(path) + 1);
    1658:	12800000 	mov	w0, #0xffffffff            	// #-1
}
    165c:	d65f03c0 	ret
    assert(msg->header.done == 1);
    1660:	90000063 	adrp	x3, d000 <__ascii_wctomb+0x30>
    1664:	90000062 	adrp	x2, d000 <__ascii_wctomb+0x30>
    1668:	90000060 	adrp	x0, d000 <__ascii_wctomb+0x30>
    166c:	9135a063 	add	x3, x3, #0xd68
    1670:	91360042 	add	x2, x2, #0xd80
    1674:	91286000 	add	x0, x0, #0xa18
    1678:	52800fc1 	mov	w1, #0x7e                  	// #126
    167c:	940010f5 	bl	5a50 <__assert_func>

0000000000001680 <close>:

IPC_INTERFACE(Ipc_close, 1, fd, sizeof(int));
int close(struct Session* session, int fd)
{
    1680:	a9bb7bfd 	stp	x29, x30, [sp, #-80]!
    1684:	910003fd 	mov	x29, sp
    1688:	b9003fe1 	str	w1, [sp, #60]
IPC_INTERFACE(Ipc_close, 1, fd, sizeof(int));
    168c:	b4000560 	cbz	x0, 1738 <close+0xb8>
    1690:	910123e2 	add	x2, sp, #0x48
    1694:	52800021 	mov	w1, #0x1                   	// #1
    1698:	a90153f3 	stp	x19, x20, [sp, #16]
    169c:	aa0003f4 	mov	x20, x0
    16a0:	f90013f5 	str	x21, [sp, #32]
    16a4:	52800095 	mov	w21, #0x4                   	// #4
    16a8:	b9004bf5 	str	w21, [sp, #72]
    16ac:	94000b9d 	bl	4520 <new_ipc_msg>
    16b0:	aa0003f3 	mov	x19, x0
    16b4:	2a1503e3 	mov	w3, w21
    16b8:	9100f3e2 	add	x2, sp, #0x3c
    16bc:	52800001 	mov	w1, #0x0                   	// #0
    16c0:	94000bd8 	bl	4620 <ipc_msg_set_nth_arg>
    msg->header.opcode = opcode;
    16c4:	528000e0 	mov	w0, #0x7                   	// #7
    16c8:	39000660 	strb	w0, [x19, #1]
    16cc:	aa1303e0 	mov	x0, x19
    16d0:	94000c44 	bl	47e0 <ipc_msg_send_wait>
    16d4:	2a1503e3 	mov	w3, w21
    16d8:	9100f3e2 	add	x2, sp, #0x3c
    16dc:	aa1303e0 	mov	x0, x19
    16e0:	52800001 	mov	w1, #0x0                   	// #0
    16e4:	94000c07 	bl	4700 <ipc_msg_get_nth_arg>
    16e8:	b9004bff 	str	wzr, [sp, #72]
    assert(msg->header.done == 1);
    16ec:	39400260 	ldrb	w0, [x19]
    16f0:	36080280 	tbz	w0, #1, 1740 <close+0xc0>
    memcpy(ret_val, &msg->header.ret_val, sizeof(msg->header.ret_val));
    16f4:	91002261 	add	x1, x19, #0x8
    16f8:	d2800082 	mov	x2, #0x4                   	// #4
    16fc:	910123e0 	add	x0, sp, #0x48
    1700:	94001180 	bl	5d00 <memcpy>
    struct IpcMsg* msg = IPCSESSION_MSG(session);
    1704:	b9800a80 	ldrsw	x0, [x20, #8]
    1708:	f9400a81 	ldr	x1, [x20, #16]
    170c:	8b000022 	add	x2, x1, x0
    if (msg->header.init != 1) {
    1710:	38606820 	ldrb	w0, [x1, x0]
    1714:	36100080 	tbz	w0, #2, 1724 <close+0xa4>
    return session_free_buf(session, msg->header.len);
    1718:	79400441 	ldrh	w1, [x2, #2]
    171c:	aa1403e0 	mov	x0, x20
    1720:	94000d3c 	bl	4c10 <session_free_buf>
    1724:	a94153f3 	ldp	x19, x20, [sp, #16]
    1728:	b9404be0 	ldr	w0, [sp, #72]
    172c:	f94013f5 	ldr	x21, [sp, #32]
    return IPC_CALL(Ipc_close)(session, &fd);
}
    1730:	a8c57bfd 	ldp	x29, x30, [sp], #80
    1734:	d65f03c0 	ret
IPC_INTERFACE(Ipc_close, 1, fd, sizeof(int));
    1738:	12800000 	mov	w0, #0xffffffff            	// #-1
    return IPC_CALL(Ipc_close)(session, &fd);
    173c:	17fffffd 	b	1730 <close+0xb0>
    assert(msg->header.done == 1);
    1740:	90000063 	adrp	x3, d000 <__ascii_wctomb+0x30>
    1744:	90000062 	adrp	x2, d000 <__ascii_wctomb+0x30>
    1748:	90000060 	adrp	x0, d000 <__ascii_wctomb+0x30>
    174c:	9135a063 	add	x3, x3, #0xd68
    1750:	91360042 	add	x2, x2, #0xd80
    1754:	91286000 	add	x0, x0, #0xa18
    1758:	52800fc1 	mov	w1, #0x7e                  	// #126
    175c:	940010bd 	bl	5a50 <__assert_func>

0000000000001760 <read>:

IPC_INTERFACE(Ipc_read, 4, fd, dst, offset, len, sizeof(int), *(int*)len, sizeof(int), sizeof(int));
int read(struct Session* session, int fd, char* dst, int offset, int len)
{
    1760:	a9bb7bfd 	stp	x29, x30, [sp, #-80]!
    1764:	910003fd 	mov	x29, sp
    1768:	29068fe4 	stp	w4, w3, [sp, #52]
    176c:	b9003fe1 	str	w1, [sp, #60]
IPC_INTERFACE(Ipc_read, 4, fd, dst, offset, len, sizeof(int), *(int*)len, sizeof(int), sizeof(int));
    1770:	b4000980 	cbz	x0, 18a0 <read+0x140>
    1774:	b21e03e3 	mov	x3, #0x400000004           	// #17179869188
    1778:	a90153f3 	stp	x19, x20, [sp, #16]
    177c:	52800094 	mov	w20, #0x4                   	// #4
    1780:	2a1403e1 	mov	w1, w20
    1784:	a9025bf5 	stp	x21, x22, [sp, #32]
    1788:	aa0203f6 	mov	x22, x2
    178c:	aa0003f5 	mov	x21, x0
    1790:	910103e2 	add	x2, sp, #0x40
    1794:	290813f4 	stp	w20, w4, [sp, #64]
    1798:	f90027e3 	str	x3, [sp, #72]
    179c:	94000b61 	bl	4520 <new_ipc_msg>
    17a0:	2a1403e3 	mov	w3, w20
    17a4:	aa0003f3 	mov	x19, x0
    17a8:	9100f3e2 	add	x2, sp, #0x3c
    17ac:	52800001 	mov	w1, #0x0                   	// #0
    17b0:	94000b9c 	bl	4620 <ipc_msg_set_nth_arg>
    17b4:	b94037e3 	ldr	w3, [sp, #52]
    17b8:	aa1603e2 	mov	x2, x22
    17bc:	52800021 	mov	w1, #0x1                   	// #1
    17c0:	aa1303e0 	mov	x0, x19
    17c4:	94000b97 	bl	4620 <ipc_msg_set_nth_arg>
    17c8:	2a1403e3 	mov	w3, w20
    17cc:	9100e3e2 	add	x2, sp, #0x38
    17d0:	52800041 	mov	w1, #0x2                   	// #2
    17d4:	aa1303e0 	mov	x0, x19
    17d8:	94000b92 	bl	4620 <ipc_msg_set_nth_arg>
    17dc:	2a1403e3 	mov	w3, w20
    17e0:	9100d3e2 	add	x2, sp, #0x34
    17e4:	52800061 	mov	w1, #0x3                   	// #3
    17e8:	aa1303e0 	mov	x0, x19
    17ec:	94000b8d 	bl	4620 <ipc_msg_set_nth_arg>
    msg->header.opcode = opcode;
    17f0:	52800100 	mov	w0, #0x8                   	// #8
    17f4:	39000660 	strb	w0, [x19, #1]
    17f8:	aa1303e0 	mov	x0, x19
    17fc:	94000bf9 	bl	47e0 <ipc_msg_send_wait>
    1800:	2a1403e3 	mov	w3, w20
    1804:	9100f3e2 	add	x2, sp, #0x3c
    1808:	52800001 	mov	w1, #0x0                   	// #0
    180c:	aa1303e0 	mov	x0, x19
    1810:	94000bbc 	bl	4700 <ipc_msg_get_nth_arg>
    1814:	b94037e3 	ldr	w3, [sp, #52]
    1818:	aa1603e2 	mov	x2, x22
    181c:	52800021 	mov	w1, #0x1                   	// #1
    1820:	aa1303e0 	mov	x0, x19
    1824:	94000bb7 	bl	4700 <ipc_msg_get_nth_arg>
    1828:	2a1403e3 	mov	w3, w20
    182c:	9100e3e2 	add	x2, sp, #0x38
    1830:	52800041 	mov	w1, #0x2                   	// #2
    1834:	aa1303e0 	mov	x0, x19
    1838:	94000bb2 	bl	4700 <ipc_msg_get_nth_arg>
    183c:	2a1403e3 	mov	w3, w20
    1840:	9100d3e2 	add	x2, sp, #0x34
    1844:	aa1303e0 	mov	x0, x19
    1848:	52800061 	mov	w1, #0x3                   	// #3
    184c:	94000bad 	bl	4700 <ipc_msg_get_nth_arg>
    1850:	b90043ff 	str	wzr, [sp, #64]
    assert(msg->header.done == 1);
    1854:	39400260 	ldrb	w0, [x19]
    1858:	36080280 	tbz	w0, #1, 18a8 <read+0x148>
    memcpy(ret_val, &msg->header.ret_val, sizeof(msg->header.ret_val));
    185c:	91002261 	add	x1, x19, #0x8
    1860:	d2800082 	mov	x2, #0x4                   	// #4
    1864:	910103e0 	add	x0, sp, #0x40
    1868:	94001126 	bl	5d00 <memcpy>
    struct IpcMsg* msg = IPCSESSION_MSG(session);
    186c:	b9800aa0 	ldrsw	x0, [x21, #8]
    1870:	f9400aa1 	ldr	x1, [x21, #16]
    1874:	8b000022 	add	x2, x1, x0
    if (msg->header.init != 1) {
    1878:	38606820 	ldrb	w0, [x1, x0]
    187c:	36100080 	tbz	w0, #2, 188c <read+0x12c>
    return session_free_buf(session, msg->header.len);
    1880:	79400441 	ldrh	w1, [x2, #2]
    1884:	aa1503e0 	mov	x0, x21
    1888:	94000ce2 	bl	4c10 <session_free_buf>
    188c:	a94153f3 	ldp	x19, x20, [sp, #16]
    1890:	a9425bf5 	ldp	x21, x22, [sp, #32]
    1894:	b94043e0 	ldr	w0, [sp, #64]
    return IPC_CALL(Ipc_read)(session, &fd, dst, &offset, &len);
}
    1898:	a8c57bfd 	ldp	x29, x30, [sp], #80
    189c:	d65f03c0 	ret
IPC_INTERFACE(Ipc_read, 4, fd, dst, offset, len, sizeof(int), *(int*)len, sizeof(int), sizeof(int));
    18a0:	12800000 	mov	w0, #0xffffffff            	// #-1
    return IPC_CALL(Ipc_read)(session, &fd, dst, &offset, &len);
    18a4:	17fffffd 	b	1898 <read+0x138>
    assert(msg->header.done == 1);
    18a8:	90000063 	adrp	x3, d000 <__ascii_wctomb+0x30>
    18ac:	90000062 	adrp	x2, d000 <__ascii_wctomb+0x30>
    18b0:	90000060 	adrp	x0, d000 <__ascii_wctomb+0x30>
    18b4:	9135a063 	add	x3, x3, #0xd68
    18b8:	91360042 	add	x2, x2, #0xd80
    18bc:	91286000 	add	x0, x0, #0xa18
    18c0:	52800fc1 	mov	w1, #0x7e                  	// #126
    18c4:	94001063 	bl	5a50 <__assert_func>
    18c8:	d503201f 	nop
    18cc:	d503201f 	nop

00000000000018d0 <write>:

IPC_INTERFACE(Ipc_write, 4, fd, src, offset, len, sizeof(int), *(int*)len, sizeof(int), sizeof(int));
int write(struct Session* session, int fd, char* src, int offset, int len)
{
    18d0:	a9bb7bfd 	stp	x29, x30, [sp, #-80]!
    18d4:	910003fd 	mov	x29, sp
    18d8:	29068fe4 	stp	w4, w3, [sp, #52]
    18dc:	b9003fe1 	str	w1, [sp, #60]
IPC_INTERFACE(Ipc_write, 4, fd, src, offset, len, sizeof(int), *(int*)len, sizeof(int), sizeof(int));
    18e0:	b4000980 	cbz	x0, 1a10 <write+0x140>
    18e4:	b21e03e3 	mov	x3, #0x400000004           	// #17179869188
    18e8:	a90153f3 	stp	x19, x20, [sp, #16]
    18ec:	52800094 	mov	w20, #0x4                   	// #4
    18f0:	2a1403e1 	mov	w1, w20
    18f4:	a9025bf5 	stp	x21, x22, [sp, #32]
    18f8:	aa0203f6 	mov	x22, x2
    18fc:	aa0003f5 	mov	x21, x0
    1900:	910103e2 	add	x2, sp, #0x40
    1904:	290813f4 	stp	w20, w4, [sp, #64]
    1908:	f90027e3 	str	x3, [sp, #72]
    190c:	94000b05 	bl	4520 <new_ipc_msg>
    1910:	2a1403e3 	mov	w3, w20
    1914:	aa0003f3 	mov	x19, x0
    1918:	9100f3e2 	add	x2, sp, #0x3c
    191c:	52800001 	mov	w1, #0x0                   	// #0
    1920:	94000b40 	bl	4620 <ipc_msg_set_nth_arg>
    1924:	b94037e3 	ldr	w3, [sp, #52]
    1928:	aa1603e2 	mov	x2, x22
    192c:	52800021 	mov	w1, #0x1                   	// #1
    1930:	aa1303e0 	mov	x0, x19
    1934:	94000b3b 	bl	4620 <ipc_msg_set_nth_arg>
    1938:	2a1403e3 	mov	w3, w20
    193c:	9100e3e2 	add	x2, sp, #0x38
    1940:	52800041 	mov	w1, #0x2                   	// #2
    1944:	aa1303e0 	mov	x0, x19
    1948:	94000b36 	bl	4620 <ipc_msg_set_nth_arg>
    194c:	2a1403e3 	mov	w3, w20
    1950:	9100d3e2 	add	x2, sp, #0x34
    1954:	52800061 	mov	w1, #0x3                   	// #3
    1958:	aa1303e0 	mov	x0, x19
    195c:	94000b31 	bl	4620 <ipc_msg_set_nth_arg>
    msg->header.opcode = opcode;
    1960:	52800120 	mov	w0, #0x9                   	// #9
    1964:	39000660 	strb	w0, [x19, #1]
    1968:	aa1303e0 	mov	x0, x19
    196c:	94000b9d 	bl	47e0 <ipc_msg_send_wait>
    1970:	2a1403e3 	mov	w3, w20
    1974:	9100f3e2 	add	x2, sp, #0x3c
    1978:	52800001 	mov	w1, #0x0                   	// #0
    197c:	aa1303e0 	mov	x0, x19
    1980:	94000b60 	bl	4700 <ipc_msg_get_nth_arg>
    1984:	b94037e3 	ldr	w3, [sp, #52]
    1988:	aa1603e2 	mov	x2, x22
    198c:	52800021 	mov	w1, #0x1                   	// #1
    1990:	aa1303e0 	mov	x0, x19
    1994:	94000b5b 	bl	4700 <ipc_msg_get_nth_arg>
    1998:	2a1403e3 	mov	w3, w20
    199c:	9100e3e2 	add	x2, sp, #0x38
    19a0:	52800041 	mov	w1, #0x2                   	// #2
    19a4:	aa1303e0 	mov	x0, x19
    19a8:	94000b56 	bl	4700 <ipc_msg_get_nth_arg>
    19ac:	2a1403e3 	mov	w3, w20
    19b0:	9100d3e2 	add	x2, sp, #0x34
    19b4:	aa1303e0 	mov	x0, x19
    19b8:	52800061 	mov	w1, #0x3                   	// #3
    19bc:	94000b51 	bl	4700 <ipc_msg_get_nth_arg>
    19c0:	b90043ff 	str	wzr, [sp, #64]
    assert(msg->header.done == 1);
    19c4:	39400260 	ldrb	w0, [x19]
    19c8:	36080280 	tbz	w0, #1, 1a18 <write+0x148>
    memcpy(ret_val, &msg->header.ret_val, sizeof(msg->header.ret_val));
    19cc:	91002261 	add	x1, x19, #0x8
    19d0:	d2800082 	mov	x2, #0x4                   	// #4
    19d4:	910103e0 	add	x0, sp, #0x40
    19d8:	940010ca 	bl	5d00 <memcpy>
    struct IpcMsg* msg = IPCSESSION_MSG(session);
    19dc:	b9800aa0 	ldrsw	x0, [x21, #8]
    19e0:	f9400aa1 	ldr	x1, [x21, #16]
    19e4:	8b000022 	add	x2, x1, x0
    if (msg->header.init != 1) {
    19e8:	38606820 	ldrb	w0, [x1, x0]
    19ec:	36100080 	tbz	w0, #2, 19fc <write+0x12c>
    return session_free_buf(session, msg->header.len);
    19f0:	79400441 	ldrh	w1, [x2, #2]
    19f4:	aa1503e0 	mov	x0, x21
    19f8:	94000c86 	bl	4c10 <session_free_buf>
    19fc:	a94153f3 	ldp	x19, x20, [sp, #16]
    1a00:	a9425bf5 	ldp	x21, x22, [sp, #32]
    1a04:	b94043e0 	ldr	w0, [sp, #64]
    return IPC_CALL(Ipc_write)(session, &fd, src, &offset, &len);
}
    1a08:	a8c57bfd 	ldp	x29, x30, [sp], #80
    1a0c:	d65f03c0 	ret
IPC_INTERFACE(Ipc_write, 4, fd, src, offset, len, sizeof(int), *(int*)len, sizeof(int), sizeof(int));
    1a10:	12800000 	mov	w0, #0xffffffff            	// #-1
    return IPC_CALL(Ipc_write)(session, &fd, src, &offset, &len);
    1a14:	17fffffd 	b	1a08 <write+0x138>
    assert(msg->header.done == 1);
    1a18:	90000063 	adrp	x3, d000 <__ascii_wctomb+0x30>
    1a1c:	90000062 	adrp	x2, d000 <__ascii_wctomb+0x30>
    1a20:	90000060 	adrp	x0, d000 <__ascii_wctomb+0x30>
    1a24:	9135a063 	add	x3, x3, #0xd68
    1a28:	91360042 	add	x2, x2, #0xd80
    1a2c:	91286000 	add	x0, x0, #0xa18
    1a30:	52800fc1 	mov	w1, #0x7e                  	// #126
    1a34:	94001007 	bl	5a50 <__assert_func>
    1a38:	d503201f 	nop
    1a3c:	d503201f 	nop

0000000000001a40 <fsize>:

IPC_INTERFACE(Ipc_fsize, 1, fd, sizeof(int));
int fsize(struct Session* session, int fd)
{
    1a40:	a9bb7bfd 	stp	x29, x30, [sp, #-80]!
    1a44:	910003fd 	mov	x29, sp
    1a48:	b9003fe1 	str	w1, [sp, #60]
IPC_INTERFACE(Ipc_fsize, 1, fd, sizeof(int));
    1a4c:	b4000560 	cbz	x0, 1af8 <fsize+0xb8>
    1a50:	910123e2 	add	x2, sp, #0x48
    1a54:	52800021 	mov	w1, #0x1                   	// #1
    1a58:	a90153f3 	stp	x19, x20, [sp, #16]
    1a5c:	aa0003f4 	mov	x20, x0
    1a60:	f90013f5 	str	x21, [sp, #32]
    1a64:	52800095 	mov	w21, #0x4                   	// #4
    1a68:	b9004bf5 	str	w21, [sp, #72]
    1a6c:	94000aad 	bl	4520 <new_ipc_msg>
    1a70:	aa0003f3 	mov	x19, x0
    1a74:	2a1503e3 	mov	w3, w21
    1a78:	9100f3e2 	add	x2, sp, #0x3c
    1a7c:	52800001 	mov	w1, #0x0                   	// #0
    1a80:	94000ae8 	bl	4620 <ipc_msg_set_nth_arg>
    msg->header.opcode = opcode;
    1a84:	52800140 	mov	w0, #0xa                   	// #10
    1a88:	39000660 	strb	w0, [x19, #1]
    1a8c:	aa1303e0 	mov	x0, x19
    1a90:	94000b54 	bl	47e0 <ipc_msg_send_wait>
    1a94:	2a1503e3 	mov	w3, w21
    1a98:	9100f3e2 	add	x2, sp, #0x3c
    1a9c:	aa1303e0 	mov	x0, x19
    1aa0:	52800001 	mov	w1, #0x0                   	// #0
    1aa4:	94000b17 	bl	4700 <ipc_msg_get_nth_arg>
    1aa8:	b9004bff 	str	wzr, [sp, #72]
    assert(msg->header.done == 1);
    1aac:	39400260 	ldrb	w0, [x19]
    1ab0:	36080280 	tbz	w0, #1, 1b00 <fsize+0xc0>
    memcpy(ret_val, &msg->header.ret_val, sizeof(msg->header.ret_val));
    1ab4:	91002261 	add	x1, x19, #0x8
    1ab8:	d2800082 	mov	x2, #0x4                   	// #4
    1abc:	910123e0 	add	x0, sp, #0x48
    1ac0:	94001090 	bl	5d00 <memcpy>
    struct IpcMsg* msg = IPCSESSION_MSG(session);
    1ac4:	b9800a80 	ldrsw	x0, [x20, #8]
    1ac8:	f9400a81 	ldr	x1, [x20, #16]
    1acc:	8b000022 	add	x2, x1, x0
    if (msg->header.init != 1) {
    1ad0:	38606820 	ldrb	w0, [x1, x0]
    1ad4:	36100080 	tbz	w0, #2, 1ae4 <fsize+0xa4>
    return session_free_buf(session, msg->header.len);
    1ad8:	79400441 	ldrh	w1, [x2, #2]
    1adc:	aa1403e0 	mov	x0, x20
    1ae0:	94000c4c 	bl	4c10 <session_free_buf>
    1ae4:	a94153f3 	ldp	x19, x20, [sp, #16]
    1ae8:	b9404be0 	ldr	w0, [sp, #72]
    1aec:	f94013f5 	ldr	x21, [sp, #32]
    return IPC_CALL(Ipc_fsize)(session, &fd);
    1af0:	a8c57bfd 	ldp	x29, x30, [sp], #80
    1af4:	d65f03c0 	ret
IPC_INTERFACE(Ipc_fsize, 1, fd, sizeof(int));
    1af8:	12800000 	mov	w0, #0xffffffff            	// #-1
    return IPC_CALL(Ipc_fsize)(session, &fd);
    1afc:	17fffffd 	b	1af0 <fsize+0xb0>
    assert(msg->header.done == 1);
    1b00:	90000063 	adrp	x3, d000 <__ascii_wctomb+0x30>
    1b04:	90000062 	adrp	x2, d000 <__ascii_wctomb+0x30>
    1b08:	90000060 	adrp	x0, d000 <__ascii_wctomb+0x30>
    1b0c:	9135a063 	add	x3, x3, #0xd68
    1b10:	91360042 	add	x2, x2, #0xd80
    1b14:	91286000 	add	x0, x0, #0xa18
    1b18:	52800fc1 	mov	w1, #0x7e                  	// #126
    1b1c:	94000fcd 	bl	5a50 <__assert_func>

0000000000001b20 <PathElementExtract>:
    return 0;
}

// Paths process
static char* PathElementExtract(char* path, char* name)
{
    1b20:	a9be7bfd 	stp	x29, x30, [sp, #-32]!
    1b24:	aa0003e3 	mov	x3, x0
    1b28:	aa0103e0 	mov	x0, x1
    1b2c:	910003fd 	mov	x29, sp
    1b30:	a90153f3 	stp	x19, x20, [sp, #16]
    // Skip leading slashes
    while (*path == '/')
    1b34:	39400062 	ldrb	w2, [x3]
    1b38:	7100bc5f 	cmp	w2, #0x2f
    1b3c:	54000081 	b.ne	1b4c <PathElementExtract+0x2c>  // b.any
    1b40:	38401c62 	ldrb	w2, [x3, #1]!
    1b44:	7100bc5f 	cmp	w2, #0x2f
    1b48:	54ffffc0 	b.eq	1b40 <PathElementExtract+0x20>  // b.none
        path++;

    // Check for end of path
    if (*path == 0)
    1b4c:	340003c2 	cbz	w2, 1bc4 <PathElementExtract+0xa4>
        return NULL;

    // Extract element
    char* start = path;
    while (*path != '/' && *path != 0)
    1b50:	39400061 	ldrb	w1, [x3]
    1b54:	7100bc3f 	cmp	w1, #0x2f
    1b58:	7a401824 	ccmp	w1, #0x0, #0x4, ne  // ne = any
    1b5c:	540003e0 	b.eq	1bd8 <PathElementExtract+0xb8>  // b.none
    1b60:	aa0303f3 	mov	x19, x3
    1b64:	d503201f 	nop
    1b68:	38401e62 	ldrb	w2, [x19, #1]!
    1b6c:	7100bc5f 	cmp	w2, #0x2f
    1b70:	7a401844 	ccmp	w2, #0x0, #0x4, ne  // ne = any
    1b74:	54ffffa1 	b.ne	1b68 <PathElementExtract+0x48>  // b.any
        path++;

    // Calculate length and copy to 'name'
    int len = path - start;
    1b78:	cb030262 	sub	x2, x19, x3
    if (len >= DIR_NAME_SIZE)
        len = DIR_NAME_SIZE - 1;
    strncpy(name, start, len);
    1b7c:	528003a1 	mov	w1, #0x1d                  	// #29
    1b80:	6b01005f 	cmp	w2, w1
    1b84:	1a81d042 	csel	w2, w2, w1, le
    1b88:	93407c42 	sxtw	x2, w2
    name[len] = 0;
    1b8c:	8b020014 	add	x20, x0, x2
    strncpy(name, start, len);
    1b90:	aa0303e1 	mov	x1, x3
    1b94:	94001273 	bl	6560 <strncpy>
    name[len] = 0;
    1b98:	3900029f 	strb	wzr, [x20]

    // Skip trailing slashes
    while (*path == '/')
    1b9c:	39400260 	ldrb	w0, [x19]
    1ba0:	7100bc1f 	cmp	w0, #0x2f
    1ba4:	54000081 	b.ne	1bb4 <PathElementExtract+0x94>  // b.any
    1ba8:	38401e60 	ldrb	w0, [x19, #1]!
    1bac:	7100bc1f 	cmp	w0, #0x2f
    1bb0:	54ffffc0 	b.eq	1ba8 <PathElementExtract+0x88>  // b.none
        path++;

    return path;
}
    1bb4:	aa1303e0 	mov	x0, x19
    1bb8:	a94153f3 	ldp	x19, x20, [sp, #16]
    1bbc:	a8c27bfd 	ldp	x29, x30, [sp], #32
    1bc0:	d65f03c0 	ret
        return NULL;
    1bc4:	d2800013 	mov	x19, #0x0                   	// #0
}
    1bc8:	aa1303e0 	mov	x0, x19
    1bcc:	a94153f3 	ldp	x19, x20, [sp, #16]
    1bd0:	a8c27bfd 	ldp	x29, x30, [sp], #32
    1bd4:	d65f03c0 	ret
    while (*path != '/' && *path != 0)
    1bd8:	aa0003f4 	mov	x20, x0
    1bdc:	aa0303f3 	mov	x19, x3
    1be0:	d2800002 	mov	x2, #0x0                   	// #0
    1be4:	17ffffeb 	b	1b90 <PathElementExtract+0x70>
    1be8:	d503201f 	nop
    1bec:	d503201f 	nop

0000000000001bf0 <InodeBlockMapping.part.0>:
static uint32_t InodeBlockMapping(struct Inode* inode, uint32_t block_num)
    1bf0:	a9bd7bfd 	stp	x29, x30, [sp, #-48]!
    1bf4:	910003fd 	mov	x29, sp
    1bf8:	a90153f3 	stp	x19, x20, [sp, #16]
    block_num -= NR_DIRECT_BLOCKS;
    1bfc:	51001034 	sub	w20, w1, #0x4
    if (indirect_block_id < NR_INDIRECT_BLOCKS) {
    1c00:	7131fe9f 	cmp	w20, #0xc7f
    1c04:	540003a8 	b.hi	1c78 <InodeBlockMapping.part.0+0x88>  // b.pmore
        if ((addr = inode->addrs[NR_DIRECT_BLOCKS + indirect_block_id]) == 0) {
    1c08:	53077e93 	lsr	w19, w20, #7
    1c0c:	f90013f5 	str	x21, [sp, #32]
    1c10:	d37e6275 	ubfiz	x21, x19, #2, #25
    1c14:	8b150015 	add	x21, x0, x21
    1c18:	b9401ea0 	ldr	w0, [x21, #28]
    1c1c:	34000140 	cbz	w0, 1c44 <InodeBlockMapping.part.0+0x54>
        block_num -= indirect_block_id * MAX_INDIRECT_BLOCKS;
    1c20:	4b131e93 	sub	w19, w20, w19, lsl #7
    uint32_t* indirect_block = (uint32_t*)BlockRead(addr);
    1c24:	94000c1b 	bl	4c90 <BlockRead>
    1c28:	aa0003f4 	mov	x20, x0
    if ((addr = indirect_block[block_num]) == 0) {
    1c2c:	b8737800 	ldr	w0, [x0, x19, lsl #2]
    1c30:	34000180 	cbz	w0, 1c60 <InodeBlockMapping.part.0+0x70>
}
    1c34:	a94153f3 	ldp	x19, x20, [sp, #16]
    1c38:	f94013f5 	ldr	x21, [sp, #32]
    1c3c:	a8c37bfd 	ldp	x29, x30, [sp], #48
    1c40:	d65f03c0 	ret
        block_num -= indirect_block_id * MAX_INDIRECT_BLOCKS;
    1c44:	4b131e93 	sub	w19, w20, w19, lsl #7
            inode->addrs[NR_DIRECT_BLOCKS + indirect_block_id] = addr = BlockAlloc();
    1c48:	94000c1a 	bl	4cb0 <BlockAlloc>
    1c4c:	b9001ea0 	str	w0, [x21, #28]
    uint32_t* indirect_block = (uint32_t*)BlockRead(addr);
    1c50:	94000c10 	bl	4c90 <BlockRead>
    1c54:	aa0003f4 	mov	x20, x0
    if ((addr = indirect_block[block_num]) == 0) {
    1c58:	b8737800 	ldr	w0, [x0, x19, lsl #2]
    1c5c:	35fffec0 	cbnz	w0, 1c34 <InodeBlockMapping.part.0+0x44>
        indirect_block[block_num] = addr = BlockAlloc();
    1c60:	94000c14 	bl	4cb0 <BlockAlloc>
    1c64:	b8337a80 	str	w0, [x20, x19, lsl #2]
}
    1c68:	a94153f3 	ldp	x19, x20, [sp, #16]
        indirect_block[block_num] = addr = BlockAlloc();
    1c6c:	f94013f5 	ldr	x21, [sp, #32]
}
    1c70:	a8c37bfd 	ldp	x29, x30, [sp], #48
    1c74:	d65f03c0 	ret
        printf("InodeBlockMapping: out of range");
    1c78:	90000060 	adrp	x0, d000 <__ascii_wctomb+0x30>
    1c7c:	91366000 	add	x0, x0, #0xd98
    1c80:	94000968 	bl	4220 <printf>
        return 0;
    1c84:	52800000 	mov	w0, #0x0                   	// #0
}
    1c88:	a94153f3 	ldp	x19, x20, [sp, #16]
    1c8c:	a8c37bfd 	ldp	x29, x30, [sp], #48
    1c90:	d65f03c0 	ret
    1c94:	d503201f 	nop
    1c98:	d503201f 	nop
    1c9c:	d503201f 	nop

0000000000001ca0 <MemFsInit>:
    MemFsRange.memfs_start = _binary_fs_img_start;
    1ca0:	f00000e2 	adrp	x2, 20000 <session_cwd+0xfa50>
    1ca4:	9116c043 	add	x3, x2, #0x5b0
    MemFsRange.memfs_nr_blocks = fs_img_len / BLOCK_SIZE;
    1ca8:	53097c21 	lsr	w1, w1, #9
    MemFsRange.memfs_start = _binary_fs_img_start;
    1cac:	f902d840 	str	x0, [x2, #1456]
    MemFsRange.memfs_nr_blocks = fs_img_len / BLOCK_SIZE;
    1cb0:	b9000861 	str	w1, [x3, #8]
}
    1cb4:	d65f03c0 	ret
    1cb8:	d503201f 	nop
    1cbc:	d503201f 	nop

0000000000001cc0 <ReadSuperBlock>:
{
    1cc0:	a9be7bfd 	stp	x29, x30, [sp, #-32]!
    1cc4:	910003fd 	mov	x29, sp
    1cc8:	f9000bf3 	str	x19, [sp, #16]
    1ccc:	aa0003f3 	mov	x19, x0
    uint8_t* block = BlockRead(ROOT_INUM);
    1cd0:	52800020 	mov	w0, #0x1                   	// #1
    1cd4:	94000bef 	bl	4c90 <BlockRead>
    1cd8:	aa0003e1 	mov	x1, x0
    memmove(sb, block, sizeof(*sb));
    1cdc:	aa1303e0 	mov	x0, x19
}
    1ce0:	f9400bf3 	ldr	x19, [sp, #16]
    memmove(sb, block, sizeof(*sb));
    1ce4:	d2800202 	mov	x2, #0x10                  	// #16
}
    1ce8:	a8c27bfd 	ldp	x29, x30, [sp], #32
    memmove(sb, block, sizeof(*sb));
    1cec:	14001065 	b	5e80 <memmove>

0000000000001cf0 <InodeGet>:
{
    1cf0:	a9be7bfd 	stp	x29, x30, [sp, #-32]!
    1cf4:	910003fd 	mov	x29, sp
    1cf8:	f9000bf3 	str	x19, [sp, #16]
    1cfc:	2a0003f3 	mov	w19, w0
    uint8_t* block = BlockRead(BLOCK_INDEX(inum));
    1d00:	53027c00 	lsr	w0, w0, #2
    inode = (struct Inode*)block + INODE_INDEX(inum);
    1d04:	d3790673 	ubfiz	x19, x19, #7, #2
    uint8_t* block = BlockRead(BLOCK_INDEX(inum));
    1d08:	11000800 	add	w0, w0, #0x2
    1d0c:	94000be1 	bl	4c90 <BlockRead>
}
    1d10:	8b130000 	add	x0, x0, x19
    1d14:	f9400bf3 	ldr	x19, [sp, #16]
    1d18:	a8c27bfd 	ldp	x29, x30, [sp], #32
    1d1c:	d65f03c0 	ret

0000000000001d20 <InodeRead>:
{
    1d20:	a9ba7bfd 	stp	x29, x30, [sp, #-96]!
    1d24:	910003fd 	mov	x29, sp
    1d28:	a9046bf9 	stp	x25, x26, [sp, #64]
    if (len < 0 || offset > inode->size) {
    1d2c:	37f80a03 	tbnz	w3, #31, 1e6c <InodeRead+0x14c>
    1d30:	a90153f3 	stp	x19, x20, [sp, #16]
    1d34:	2a0203f3 	mov	w19, w2
    1d38:	a9025bf5 	stp	x21, x22, [sp, #32]
    1d3c:	a90363f7 	stp	x23, x24, [sp, #48]
    1d40:	aa0003f7 	mov	x23, x0
    1d44:	b9400816 	ldr	w22, [x0, #8]
    1d48:	6b0202df 	cmp	w22, w2
    1d4c:	54000863 	b.cc	1e58 <InodeRead+0x138>  // b.lo, b.ul, b.last
    if (offset + len > inode->size) {
    1d50:	0b020060 	add	w0, w3, w2
    1d54:	aa0103f5 	mov	x21, x1
    1d58:	6b0002df 	cmp	w22, w0
    1d5c:	54000563 	b.cc	1e08 <InodeRead+0xe8>  // b.lo, b.ul, b.last
    while (location < len) {
    1d60:	2a0303f6 	mov	w22, w3
    1d64:	2a0303f9 	mov	w25, w3
    location = 0;
    1d68:	52800014 	mov	w20, #0x0                   	// #0
        writen_len = MIN_LENGTH(len - location, BLOCK_SIZE - offset % BLOCK_SIZE);
    1d6c:	52804018 	mov	w24, #0x200                 	// #512
    while (location < len) {
    1d70:	34000556 	cbz	w22, 1e18 <InodeRead+0xf8>
    1d74:	f9002bfb 	str	x27, [sp, #80]
    1d78:	14000017 	b	1dd4 <InodeRead+0xb4>
    1d7c:	97ffff9d 	bl	1bf0 <InodeBlockMapping.part.0>
        if ((block = BlockRead(InodeBlockMapping(inode, offset / BLOCK_SIZE))) == 0) {
    1d80:	94000bc4 	bl	4c90 <BlockRead>
        writen_len = MIN_LENGTH(len - location, BLOCK_SIZE - offset % BLOCK_SIZE);
    1d84:	4b1402da 	sub	w26, w22, w20
    1d88:	6b1303e3 	negs	w3, w19
    1d8c:	12002261 	and	w1, w19, #0x1ff
    1d90:	12002063 	and	w3, w3, #0x1ff
        if ((block = BlockRead(InodeBlockMapping(inode, offset / BLOCK_SIZE))) == 0) {
    1d94:	aa0003e4 	mov	x4, x0
        writen_len = MIN_LENGTH(len - location, BLOCK_SIZE - offset % BLOCK_SIZE);
    1d98:	5a834421 	csneg	w1, w1, w3, mi  // mi = first
        memmove(dst, block + offset % BLOCK_SIZE, writen_len);
    1d9c:	aa1503e0 	mov	x0, x21
        writen_len = MIN_LENGTH(len - location, BLOCK_SIZE - offset % BLOCK_SIZE);
    1da0:	4b010302 	sub	w2, w24, w1
    1da4:	6b1a005f 	cmp	w2, w26
        memmove(dst, block + offset % BLOCK_SIZE, writen_len);
    1da8:	8b21c081 	add	x1, x4, w1, sxtw
        writen_len = MIN_LENGTH(len - location, BLOCK_SIZE - offset % BLOCK_SIZE);
    1dac:	1a9a905b 	csel	w27, w2, w26, ls  // ls = plast
        memmove(dst, block + offset % BLOCK_SIZE, writen_len);
    1db0:	1a9a905a 	csel	w26, w2, w26, ls  // ls = plast
    1db4:	aa1a03e2 	mov	x2, x26
        location += writen_len;
    1db8:	0b1b0294 	add	w20, w20, w27
        if ((block = BlockRead(InodeBlockMapping(inode, offset / BLOCK_SIZE))) == 0) {
    1dbc:	b40002c4 	cbz	x4, 1e14 <InodeRead+0xf4>
        memmove(dst, block + offset % BLOCK_SIZE, writen_len);
    1dc0:	94001030 	bl	5e80 <memmove>
        offset += writen_len;
    1dc4:	0b1b0273 	add	w19, w19, w27
        dst += writen_len;
    1dc8:	8b1a02b5 	add	x21, x21, x26
    while (location < len) {
    1dcc:	6b1402df 	cmp	w22, w20
    1dd0:	54000349 	b.ls	1e38 <InodeRead+0x118>  // b.plast
        if ((block = BlockRead(InodeBlockMapping(inode, offset / BLOCK_SIZE))) == 0) {
    1dd4:	7100027f 	cmp	w19, #0x0
    1dd8:	1107fe61 	add	w1, w19, #0x1ff
    1ddc:	1a93b021 	csel	w1, w1, w19, lt  // lt = tstop
    1de0:	aa1703e0 	mov	x0, x23
    if (block_num < NR_DIRECT_BLOCKS) {
    1de4:	711ffc3f 	cmp	w1, #0x7ff
        if ((block = BlockRead(InodeBlockMapping(inode, offset / BLOCK_SIZE))) == 0) {
    1de8:	13097c21 	asr	w1, w1, #9
    if (block_num < NR_DIRECT_BLOCKS) {
    1dec:	54fffc88 	b.hi	1d7c <InodeRead+0x5c>  // b.pmore
        if ((addr = inode->addrs[block_num]) == 0) {
    1df0:	8b214afa 	add	x26, x23, w1, uxtw #2
    1df4:	b9400f40 	ldr	w0, [x26, #12]
    1df8:	35fffc40 	cbnz	w0, 1d80 <InodeRead+0x60>
            inode->addrs[block_num] = addr = BlockAlloc();
    1dfc:	94000bad 	bl	4cb0 <BlockAlloc>
    1e00:	b9000f40 	str	w0, [x26, #12]
    1e04:	17ffffdf 	b	1d80 <InodeRead+0x60>
        len = inode->size - offset;
    1e08:	4b0202d6 	sub	w22, w22, w2
    1e0c:	2a1603f9 	mov	w25, w22
    1e10:	17ffffd6 	b	1d68 <InodeRead+0x48>
    1e14:	f9402bfb 	ldr	x27, [sp, #80]
    return len;
    1e18:	52800019 	mov	w25, #0x0                   	// #0
    1e1c:	a94153f3 	ldp	x19, x20, [sp, #16]
    1e20:	a9425bf5 	ldp	x21, x22, [sp, #32]
    1e24:	a94363f7 	ldp	x23, x24, [sp, #48]
}
    1e28:	2a1903e0 	mov	w0, w25
    1e2c:	a9446bf9 	ldp	x25, x26, [sp, #64]
    1e30:	a8c67bfd 	ldp	x29, x30, [sp], #96
    1e34:	d65f03c0 	ret
    1e38:	2a1903e0 	mov	w0, w25
    1e3c:	a94153f3 	ldp	x19, x20, [sp, #16]
    1e40:	a9425bf5 	ldp	x21, x22, [sp, #32]
    1e44:	a94363f7 	ldp	x23, x24, [sp, #48]
    1e48:	a9446bf9 	ldp	x25, x26, [sp, #64]
    1e4c:	f9402bfb 	ldr	x27, [sp, #80]
    1e50:	a8c67bfd 	ldp	x29, x30, [sp], #96
    1e54:	d65f03c0 	ret
        return -1;
    1e58:	12800019 	mov	w25, #0xffffffff            	// #-1
    1e5c:	a94153f3 	ldp	x19, x20, [sp, #16]
    1e60:	a9425bf5 	ldp	x21, x22, [sp, #32]
    1e64:	a94363f7 	ldp	x23, x24, [sp, #48]
    1e68:	17fffff0 	b	1e28 <InodeRead+0x108>
    1e6c:	12800019 	mov	w25, #0xffffffff            	// #-1
    1e70:	17ffffee 	b	1e28 <InodeRead+0x108>
    1e74:	d503201f 	nop
    1e78:	d503201f 	nop
    1e7c:	d503201f 	nop

0000000000001e80 <DirInodeLookup>:
{
    1e80:	a9bb7bfd 	stp	x29, x30, [sp, #-80]!
    1e84:	910003fd 	mov	x29, sp
    1e88:	a90153f3 	stp	x19, x20, [sp, #16]
    1e8c:	aa0003f4 	mov	x20, x0
    if (parent_inode->type != FS_DIRECTORY) {
    1e90:	b9400400 	ldr	w0, [x0, #4]
    1e94:	7100041f 	cmp	w0, #0x1
    1e98:	540004c1 	b.ne	1f30 <DirInodeLookup+0xb0>  // b.any
    for (offset = 0; offset < parent_inode->size; offset += sizeof(de)) {
    1e9c:	f90013f5 	str	x21, [sp, #32]
    1ea0:	52800013 	mov	w19, #0x0                   	// #0
    1ea4:	aa0103f5 	mov	x21, x1
    1ea8:	b9400a80 	ldr	w0, [x20, #8]
    1eac:	35000180 	cbnz	w0, 1edc <DirInodeLookup+0x5c>
    1eb0:	1400001b 	b	1f1c <DirInodeLookup+0x9c>
        if (de.inum == 0) {
    1eb4:	794063e3 	ldrh	w3, [sp, #48]
        if (strncmp((const char*)name, (const char*)de.name, DIR_NAME_SIZE) == 0) {
    1eb8:	9100cbe1 	add	x1, sp, #0x32
    1ebc:	aa1503e0 	mov	x0, x21
    1ec0:	d28003c2 	mov	x2, #0x1e                  	// #30
        if (de.inum == 0) {
    1ec4:	34000063 	cbz	w3, 1ed0 <DirInodeLookup+0x50>
        if (strncmp((const char*)name, (const char*)de.name, DIR_NAME_SIZE) == 0) {
    1ec8:	94001135 	bl	639c <strncmp>
    1ecc:	34000400 	cbz	w0, 1f4c <DirInodeLookup+0xcc>
    for (offset = 0; offset < parent_inode->size; offset += sizeof(de)) {
    1ed0:	b9400a82 	ldr	w2, [x20, #8]
    1ed4:	6b02027f 	cmp	w19, w2
    1ed8:	54000222 	b.cs	1f1c <DirInodeLookup+0x9c>  // b.hs, b.nlast
        if (InodeRead(parent_inode, (char*)&de, offset, sizeof(de)) != sizeof(de)) {
    1edc:	2a1303e2 	mov	w2, w19
    1ee0:	9100c3e1 	add	x1, sp, #0x30
    1ee4:	aa1403e0 	mov	x0, x20
    1ee8:	52800403 	mov	w3, #0x20                  	// #32
    for (offset = 0; offset < parent_inode->size; offset += sizeof(de)) {
    1eec:	11008273 	add	w19, w19, #0x20
        if (InodeRead(parent_inode, (char*)&de, offset, sizeof(de)) != sizeof(de)) {
    1ef0:	97ffff8c 	bl	1d20 <InodeRead>
    1ef4:	7100801f 	cmp	w0, #0x20
    1ef8:	54fffde0 	b.eq	1eb4 <DirInodeLookup+0x34>  // b.none
            printf("DirInodeAddEntry read");
    1efc:	90000060 	adrp	x0, d000 <__ascii_wctomb+0x30>
    1f00:	91374000 	add	x0, x0, #0xdd0
    1f04:	940008c7 	bl	4220 <printf>
            return 0;
    1f08:	d2800000 	mov	x0, #0x0                   	// #0
}
    1f0c:	a94153f3 	ldp	x19, x20, [sp, #16]
            return 0;
    1f10:	f94013f5 	ldr	x21, [sp, #32]
}
    1f14:	a8c57bfd 	ldp	x29, x30, [sp], #80
    1f18:	d65f03c0 	ret
    return 0;
    1f1c:	d2800000 	mov	x0, #0x0                   	// #0
}
    1f20:	a94153f3 	ldp	x19, x20, [sp, #16]
    return 0;
    1f24:	f94013f5 	ldr	x21, [sp, #32]
}
    1f28:	a8c57bfd 	ldp	x29, x30, [sp], #80
    1f2c:	d65f03c0 	ret
        printf("DirInodeLookup not DIR");
    1f30:	90000060 	adrp	x0, d000 <__ascii_wctomb+0x30>
    1f34:	9136e000 	add	x0, x0, #0xdb8
    1f38:	940008ba 	bl	4220 <printf>
        return 0;
    1f3c:	d2800000 	mov	x0, #0x0                   	// #0
}
    1f40:	a94153f3 	ldp	x19, x20, [sp, #16]
    1f44:	a8c57bfd 	ldp	x29, x30, [sp], #80
    1f48:	d65f03c0 	ret
            inum = de.inum;
    1f4c:	794063f3 	ldrh	w19, [sp, #48]
    uint8_t* block = BlockRead(BLOCK_INDEX(inum));
    1f50:	53027e60 	lsr	w0, w19, #2
    inode = (struct Inode*)block + INODE_INDEX(inum);
    1f54:	d3790673 	ubfiz	x19, x19, #7, #2
    uint8_t* block = BlockRead(BLOCK_INDEX(inum));
    1f58:	11000800 	add	w0, w0, #0x2
    1f5c:	94000b4d 	bl	4c90 <BlockRead>
    inode = (struct Inode*)block + INODE_INDEX(inum);
    1f60:	8b130000 	add	x0, x0, x19
}
    1f64:	a94153f3 	ldp	x19, x20, [sp, #16]
            return InodeGet(inum);
    1f68:	f94013f5 	ldr	x21, [sp, #32]
}
    1f6c:	a8c57bfd 	ldp	x29, x30, [sp], #80
    1f70:	d65f03c0 	ret
    1f74:	d503201f 	nop
    1f78:	d503201f 	nop
    1f7c:	d503201f 	nop

0000000000001f80 <InodeWrite>:
    if (len < 0 || offset > inode->size) {
    1f80:	37f80b03 	tbnz	w3, #31, 20e0 <InodeWrite+0x160>
{
    1f84:	a9bb7bfd 	stp	x29, x30, [sp, #-80]!
    1f88:	910003fd 	mov	x29, sp
    1f8c:	a90153f3 	stp	x19, x20, [sp, #16]
    1f90:	2a0203f3 	mov	w19, w2
    1f94:	a90363f7 	stp	x23, x24, [sp, #48]
    1f98:	aa0003f8 	mov	x24, x0
    if (len < 0 || offset > inode->size) {
    1f9c:	b9400800 	ldr	w0, [x0, #8]
    1fa0:	6b02001f 	cmp	w0, w2
    1fa4:	54000943 	b.cc	20cc <InodeWrite+0x14c>  // b.lo, b.ul, b.last
    1fa8:	a9025bf5 	stp	x21, x22, [sp, #32]
    1fac:	aa0103f6 	mov	x22, x1
    if (offset + len > MAX_FILE_SIZE * BLOCK_SIZE) {
    1fb0:	0b020061 	add	w1, w3, w2
    1fb4:	52810000 	mov	w0, #0x800                 	// #2048
    1fb8:	72a00320 	movk	w0, #0x19, lsl #16
    1fbc:	2a0303f7 	mov	w23, w3
    1fc0:	6b00003f 	cmp	w1, w0
    1fc4:	54000888 	b.hi	20d4 <InodeWrite+0x154>  // b.pmore
    while (location < len) {
    1fc8:	a9046bf9 	stp	x25, x26, [sp, #64]
    location = 0;
    1fcc:	52800015 	mov	w21, #0x0                   	// #0
        writen_len = MIN_LENGTH(len - location, BLOCK_SIZE - offset % BLOCK_SIZE);
    1fd0:	52804019 	mov	w25, #0x200                 	// #512
    while (location < len) {
    1fd4:	35000303 	cbnz	w3, 2034 <InodeWrite+0xb4>
    1fd8:	14000024 	b	2068 <InodeWrite+0xe8>
    1fdc:	97ffff05 	bl	1bf0 <InodeBlockMapping.part.0>
        if ((block = BlockRead(InodeBlockMapping(inode, offset / BLOCK_SIZE))) == 0) {
    1fe0:	94000b2c 	bl	4c90 <BlockRead>
        writen_len = MIN_LENGTH(len - location, BLOCK_SIZE - offset % BLOCK_SIZE);
    1fe4:	4b1502f4 	sub	w20, w23, w21
    1fe8:	6b1303e1 	negs	w1, w19
    1fec:	12002263 	and	w3, w19, #0x1ff
    1ff0:	12002021 	and	w1, w1, #0x1ff
        if ((block = BlockRead(InodeBlockMapping(inode, offset / BLOCK_SIZE))) == 0) {
    1ff4:	aa0003e4 	mov	x4, x0
        writen_len = MIN_LENGTH(len - location, BLOCK_SIZE - offset % BLOCK_SIZE);
    1ff8:	5a814463 	csneg	w3, w3, w1, mi  // mi = first
        memmove(block + offset % BLOCK_SIZE, src, writen_len);
    1ffc:	aa1603e1 	mov	x1, x22
        writen_len = MIN_LENGTH(len - location, BLOCK_SIZE - offset % BLOCK_SIZE);
    2000:	4b030322 	sub	w2, w25, w3
    2004:	6b14005f 	cmp	w2, w20
        memmove(block + offset % BLOCK_SIZE, src, writen_len);
    2008:	8b23c000 	add	x0, x0, w3, sxtw
        writen_len = MIN_LENGTH(len - location, BLOCK_SIZE - offset % BLOCK_SIZE);
    200c:	1a94905a 	csel	w26, w2, w20, ls  // ls = plast
        memmove(block + offset % BLOCK_SIZE, src, writen_len);
    2010:	1a949054 	csel	w20, w2, w20, ls  // ls = plast
    2014:	aa1403e2 	mov	x2, x20
        location += writen_len;
    2018:	0b1a02b5 	add	w21, w21, w26
        if ((block = BlockRead(InodeBlockMapping(inode, offset / BLOCK_SIZE))) == 0) {
    201c:	b4000264 	cbz	x4, 2068 <InodeWrite+0xe8>
        memmove(block + offset % BLOCK_SIZE, src, writen_len);
    2020:	94000f98 	bl	5e80 <memmove>
        offset += writen_len;
    2024:	0b1a0273 	add	w19, w19, w26
        src += writen_len;
    2028:	8b1402d6 	add	x22, x22, x20
    while (location < len) {
    202c:	6b1702bf 	cmp	w21, w23
    2030:	540002a2 	b.cs	2084 <InodeWrite+0x104>  // b.hs, b.nlast
        if ((block = BlockRead(InodeBlockMapping(inode, offset / BLOCK_SIZE))) == 0) {
    2034:	7100027f 	cmp	w19, #0x0
    2038:	1107fe61 	add	w1, w19, #0x1ff
    203c:	1a93b021 	csel	w1, w1, w19, lt  // lt = tstop
    2040:	aa1803e0 	mov	x0, x24
    if (block_num < NR_DIRECT_BLOCKS) {
    2044:	711ffc3f 	cmp	w1, #0x7ff
        if ((block = BlockRead(InodeBlockMapping(inode, offset / BLOCK_SIZE))) == 0) {
    2048:	13097c21 	asr	w1, w1, #9
    if (block_num < NR_DIRECT_BLOCKS) {
    204c:	54fffc88 	b.hi	1fdc <InodeWrite+0x5c>  // b.pmore
        if ((addr = inode->addrs[block_num]) == 0) {
    2050:	8b214b14 	add	x20, x24, w1, uxtw #2
    2054:	b9400e80 	ldr	w0, [x20, #12]
    2058:	35fffc40 	cbnz	w0, 1fe0 <InodeWrite+0x60>
            inode->addrs[block_num] = addr = BlockAlloc();
    205c:	94000b15 	bl	4cb0 <BlockAlloc>
    2060:	b9000e80 	str	w0, [x20, #12]
    2064:	17ffffdf 	b	1fe0 <InodeWrite+0x60>
    2068:	a9425bf5 	ldp	x21, x22, [sp, #32]
        inode->size = offset;
    206c:	52800000 	mov	w0, #0x0                   	// #0
    2070:	a9446bf9 	ldp	x25, x26, [sp, #64]
}
    2074:	a94153f3 	ldp	x19, x20, [sp, #16]
    2078:	a94363f7 	ldp	x23, x24, [sp, #48]
    207c:	a8c57bfd 	ldp	x29, x30, [sp], #80
    2080:	d65f03c0 	ret
    if (len > 0 && offset > inode->size) {
    2084:	34ffff37 	cbz	w23, 2068 <InodeWrite+0xe8>
    2088:	b9400b01 	ldr	w1, [x24, #8]
    208c:	2a1703e0 	mov	w0, w23
    2090:	6b01027f 	cmp	w19, w1
    2094:	54000109 	b.ls	20b4 <InodeWrite+0x134>  // b.plast
        inode->size = offset;
    2098:	b9000b13 	str	w19, [x24, #8]
}
    209c:	a94153f3 	ldp	x19, x20, [sp, #16]
    20a0:	a9425bf5 	ldp	x21, x22, [sp, #32]
    20a4:	a94363f7 	ldp	x23, x24, [sp, #48]
    20a8:	a9446bf9 	ldp	x25, x26, [sp, #64]
    20ac:	a8c57bfd 	ldp	x29, x30, [sp], #80
    20b0:	d65f03c0 	ret
    20b4:	a94153f3 	ldp	x19, x20, [sp, #16]
    20b8:	a9425bf5 	ldp	x21, x22, [sp, #32]
    20bc:	a94363f7 	ldp	x23, x24, [sp, #48]
    20c0:	a9446bf9 	ldp	x25, x26, [sp, #64]
    20c4:	a8c57bfd 	ldp	x29, x30, [sp], #80
    20c8:	d65f03c0 	ret
        return -1;
    20cc:	12800000 	mov	w0, #0xffffffff            	// #-1
    20d0:	17ffffe9 	b	2074 <InodeWrite+0xf4>
    20d4:	12800000 	mov	w0, #0xffffffff            	// #-1
    20d8:	a9425bf5 	ldp	x21, x22, [sp, #32]
    20dc:	17ffffe6 	b	2074 <InodeWrite+0xf4>
    20e0:	12800000 	mov	w0, #0xffffffff            	// #-1
}
    20e4:	d65f03c0 	ret
    20e8:	d503201f 	nop
    20ec:	d503201f 	nop

00000000000020f0 <DirInodeAddEntry>:
{
    20f0:	a9ba7bfd 	stp	x29, x30, [sp, #-96]!
    20f4:	910003fd 	mov	x29, sp
    20f8:	a90153f3 	stp	x19, x20, [sp, #16]
    20fc:	aa0003f4 	mov	x20, x0
    2100:	a90363f7 	stp	x23, x24, [sp, #48]
    2104:	2a0203f7 	mov	w23, w2
    2108:	aa0103f8 	mov	x24, x1
    if ((inode = DirInodeLookup(parent_inode, name)) != 0) {
    210c:	97ffff5d 	bl	1e80 <DirInodeLookup>
    2110:	b5000660 	cbnz	x0, 21dc <DirInodeAddEntry+0xec>
    for (offset = 0; offset < parent_inode->size; offset += sizeof(de)) {
    2114:	a9025bf5 	stp	x21, x22, [sp, #32]
    2118:	910103f6 	add	x22, sp, #0x40
    211c:	b9400a80 	ldr	w0, [x20, #8]
    2120:	34000360 	cbz	w0, 218c <DirInodeAddEntry+0x9c>
    2124:	52800013 	mov	w19, #0x0                   	// #0
    2128:	52800015 	mov	w21, #0x0                   	// #0
    212c:	14000007 	b	2148 <DirInodeAddEntry+0x58>
        if (de.inum == 0) {
    2130:	794083e0 	ldrh	w0, [sp, #64]
    2134:	340002e0 	cbz	w0, 2190 <DirInodeAddEntry+0xa0>
    for (offset = 0; offset < parent_inode->size; offset += sizeof(de)) {
    2138:	b9400a80 	ldr	w0, [x20, #8]
    213c:	2a1303f5 	mov	w21, w19
    2140:	6b00027f 	cmp	w19, w0
    2144:	54000262 	b.cs	2190 <DirInodeAddEntry+0xa0>  // b.hs, b.nlast
        if (InodeRead(parent_inode, (char*)&de, offset, sizeof(de)) != sizeof(de)) {
    2148:	2a1503e2 	mov	w2, w21
    214c:	aa1603e1 	mov	x1, x22
    2150:	aa1403e0 	mov	x0, x20
    2154:	52800403 	mov	w3, #0x20                  	// #32
    for (offset = 0; offset < parent_inode->size; offset += sizeof(de)) {
    2158:	11008273 	add	w19, w19, #0x20
        if (InodeRead(parent_inode, (char*)&de, offset, sizeof(de)) != sizeof(de)) {
    215c:	97fffef1 	bl	1d20 <InodeRead>
    2160:	7100801f 	cmp	w0, #0x20
    2164:	54fffe60 	b.eq	2130 <DirInodeAddEntry+0x40>  // b.none
            printf("DirInodeAddEntry: read failed");
    2168:	f0000040 	adrp	x0, d000 <__ascii_wctomb+0x30>
    216c:	9137a000 	add	x0, x0, #0xde8
    2170:	9400082c 	bl	4220 <printf>
            return -1;
    2174:	12800000 	mov	w0, #0xffffffff            	// #-1
}
    2178:	a94153f3 	ldp	x19, x20, [sp, #16]
            return -1;
    217c:	a9425bf5 	ldp	x21, x22, [sp, #32]
}
    2180:	a94363f7 	ldp	x23, x24, [sp, #48]
    2184:	a8c67bfd 	ldp	x29, x30, [sp], #96
    2188:	d65f03c0 	ret
    for (offset = 0; offset < parent_inode->size; offset += sizeof(de)) {
    218c:	52800015 	mov	w21, #0x0                   	// #0
    strncpy(de.name, name, DIR_NAME_SIZE);
    2190:	aa1803e1 	mov	x1, x24
    2194:	d28003c2 	mov	x2, #0x1e                  	// #30
    2198:	91010be0 	add	x0, sp, #0x42
    219c:	940010f1 	bl	6560 <strncpy>
    if (InodeWrite(parent_inode, (char*)&de, offset, sizeof(de)) != sizeof(de)) {
    21a0:	aa1603e1 	mov	x1, x22
    21a4:	2a1503e2 	mov	w2, w21
    21a8:	aa1403e0 	mov	x0, x20
    21ac:	52800403 	mov	w3, #0x20                  	// #32
    de.inum = inum;
    21b0:	790083f7 	strh	w23, [sp, #64]
    if (InodeWrite(parent_inode, (char*)&de, offset, sizeof(de)) != sizeof(de)) {
    21b4:	97ffff73 	bl	1f80 <InodeWrite>
    21b8:	2a0003e1 	mov	w1, w0
    return 0;
    21bc:	52800000 	mov	w0, #0x0                   	// #0
    if (InodeWrite(parent_inode, (char*)&de, offset, sizeof(de)) != sizeof(de)) {
    21c0:	7100803f 	cmp	w1, #0x20
    21c4:	54000101 	b.ne	21e4 <DirInodeAddEntry+0xf4>  // b.any
    21c8:	a9425bf5 	ldp	x21, x22, [sp, #32]
}
    21cc:	a94153f3 	ldp	x19, x20, [sp, #16]
    21d0:	a94363f7 	ldp	x23, x24, [sp, #48]
    21d4:	a8c67bfd 	ldp	x29, x30, [sp], #96
    21d8:	d65f03c0 	ret
        return -1;
    21dc:	12800000 	mov	w0, #0xffffffff            	// #-1
    21e0:	17fffffb 	b	21cc <DirInodeAddEntry+0xdc>
        printf("DirInodeAddEntry: write failed");
    21e4:	f0000040 	adrp	x0, d000 <__ascii_wctomb+0x30>
    21e8:	91382000 	add	x0, x0, #0xe08
    21ec:	9400080d 	bl	4220 <printf>
        return -1;
    21f0:	12800000 	mov	w0, #0xffffffff            	// #-1
    21f4:	a9425bf5 	ldp	x21, x22, [sp, #32]
    21f8:	17fffff5 	b	21cc <DirInodeAddEntry+0xdc>
    21fc:	d503201f 	nop

0000000000002200 <InodeCreate>:
{
    2200:	a9bb7bfd 	stp	x29, x30, [sp, #-80]!
    2204:	910003fd 	mov	x29, sp
    2208:	a9025bf5 	stp	x21, x22, [sp, #32]
    220c:	2a0203f6 	mov	w22, w2
    2210:	a90363f7 	stp	x23, x24, [sp, #48]
    2214:	aa0003f7 	mov	x23, x0
    2218:	aa0103f8 	mov	x24, x1
    if ((inode = DirInodeLookup(parent_inode, name)) != 0) {
    221c:	97ffff19 	bl	1e80 <DirInodeLookup>
    2220:	aa0003f5 	mov	x21, x0
    2224:	b4000220 	cbz	x0, 2268 <InodeCreate+0x68>
        if (type == FS_FILE && inode->type == FS_FILE) {
    2228:	71000adf 	cmp	w22, #0x2
    222c:	54000121 	b.ne	2250 <InodeCreate+0x50>  // b.any
    2230:	b9400400 	ldr	w0, [x0, #4]
        return 0;
    2234:	7100081f 	cmp	w0, #0x2
    2238:	9a9f02b5 	csel	x21, x21, xzr, eq  // eq = none
}
    223c:	aa1503e0 	mov	x0, x21
    2240:	a9425bf5 	ldp	x21, x22, [sp, #32]
    2244:	a94363f7 	ldp	x23, x24, [sp, #48]
    2248:	a8c57bfd 	ldp	x29, x30, [sp], #80
    224c:	d65f03c0 	ret
        return 0;
    2250:	d2800015 	mov	x21, #0x0                   	// #0
}
    2254:	aa1503e0 	mov	x0, x21
    2258:	a9425bf5 	ldp	x21, x22, [sp, #32]
    225c:	a94363f7 	ldp	x23, x24, [sp, #48]
    2260:	a8c57bfd 	ldp	x29, x30, [sp], #80
    2264:	d65f03c0 	ret
    uint8_t* block = BlockRead(ROOT_INUM);
    2268:	52800020 	mov	w0, #0x1                   	// #1
    226c:	94000a89 	bl	4c90 <BlockRead>
    memmove(sb, block, sizeof(*sb));
    2270:	d2800202 	mov	x2, #0x10                  	// #16
    2274:	aa0003e1 	mov	x1, x0
    2278:	910103e0 	add	x0, sp, #0x40
    227c:	94000f01 	bl	5e80 <memmove>
    for (inum = 1; inum < sb.ninodes; inum++) {
    2280:	b9404be0 	ldr	w0, [sp, #72]
    2284:	7100041f 	cmp	w0, #0x1
    2288:	54000489 	b.ls	2318 <InodeCreate+0x118>  // b.plast
    228c:	a90153f3 	stp	x19, x20, [sp, #16]
    2290:	d2800033 	mov	x19, #0x1                   	// #1
    2294:	14000005 	b	22a8 <InodeCreate+0xa8>
    2298:	b9404be0 	ldr	w0, [sp, #72]
    229c:	91000673 	add	x19, x19, #0x1
    22a0:	6b13001f 	cmp	w0, w19
    22a4:	54000389 	b.ls	2314 <InodeCreate+0x114>  // b.plast
        uint8_t* block = BlockRead(BLOCK_INDEX(inum));
    22a8:	d342fe60 	lsr	x0, x19, #2
        inode = (struct Inode*)block + INODE_INDEX(inum);
    22ac:	d3790674 	ubfiz	x20, x19, #7, #2
        uint8_t* block = BlockRead(BLOCK_INDEX(inum));
    22b0:	11000800 	add	w0, w0, #0x2
    22b4:	94000a77 	bl	4c90 <BlockRead>
        inode = (struct Inode*)block + INODE_INDEX(inum);
    22b8:	8b140014 	add	x20, x0, x20
        if (inode->type == 0) {
    22bc:	b9400680 	ldr	w0, [x20, #4]
    22c0:	35fffec0 	cbnz	w0, 2298 <InodeCreate+0x98>
            memset(inode, 0, sizeof(*inode));
    22c4:	aa1403e0 	mov	x0, x20
    22c8:	d2801002 	mov	x2, #0x80                  	// #128
    22cc:	52800001 	mov	w1, #0x0                   	// #0
    22d0:	94000f1c 	bl	5f40 <memset>
            inode->type = type;
    22d4:	29005a93 	stp	w19, w22, [x20]
    if (type == FS_DIRECTORY) {
    22d8:	710006df 	cmp	w22, #0x1
            inode->size = 0;
    22dc:	b9000a9f 	str	wzr, [x20, #8]
    if (type == FS_DIRECTORY) {
    22e0:	54000240 	b.eq	2328 <InodeCreate+0x128>  // b.none
    if (DirInodeAddEntry(parent_inode, name, inode->inum) < 0) {
    22e4:	b9400282 	ldr	w2, [x20]
    22e8:	aa1803e1 	mov	x1, x24
    22ec:	aa1703e0 	mov	x0, x23
    22f0:	97ffff80 	bl	20f0 <DirInodeAddEntry>
    22f4:	37f803c0 	tbnz	w0, #31, 236c <InodeCreate+0x16c>
    22f8:	aa1403f5 	mov	x21, x20
}
    22fc:	aa1503e0 	mov	x0, x21
    2300:	a94153f3 	ldp	x19, x20, [sp, #16]
    2304:	a9425bf5 	ldp	x21, x22, [sp, #32]
    2308:	a94363f7 	ldp	x23, x24, [sp, #48]
    230c:	a8c57bfd 	ldp	x29, x30, [sp], #80
    2310:	d65f03c0 	ret
    2314:	a94153f3 	ldp	x19, x20, [sp, #16]
        printf("InodeCreate: alloc Inode failed, no free inode\n");
    2318:	f0000040 	adrp	x0, d000 <__ascii_wctomb+0x30>
    231c:	913a0000 	add	x0, x0, #0xe80
    2320:	940007c0 	bl	4220 <printf>
        return 0;
    2324:	17ffffc6 	b	223c <InodeCreate+0x3c>
        if (DirInodeAddEntry(inode, ".", inode->inum) < 0 || DirInodeAddEntry(inode, "..", parent_inode->inum) < 0) {
    2328:	f0000041 	adrp	x1, d000 <__ascii_wctomb+0x30>
    232c:	2a1303e2 	mov	w2, w19
    2330:	aa1403e0 	mov	x0, x20
    2334:	9138a021 	add	x1, x1, #0xe28
    2338:	97ffff6e 	bl	20f0 <DirInodeAddEntry>
    233c:	37f800e0 	tbnz	w0, #31, 2358 <InodeCreate+0x158>
    2340:	b94002e2 	ldr	w2, [x23]
    2344:	f0000041 	adrp	x1, d000 <__ascii_wctomb+0x30>
    2348:	aa1403e0 	mov	x0, x20
    234c:	91394021 	add	x1, x1, #0xe50
    2350:	97ffff68 	bl	20f0 <DirInodeAddEntry>
    2354:	36fffc80 	tbz	w0, #31, 22e4 <InodeCreate+0xe4>
            printf("InodeCreate: create dots");
    2358:	f0000040 	adrp	x0, d000 <__ascii_wctomb+0x30>
    235c:	9138c000 	add	x0, x0, #0xe30
    2360:	940007b0 	bl	4220 <printf>
            return 0;
    2364:	a94153f3 	ldp	x19, x20, [sp, #16]
    2368:	17ffffb5 	b	223c <InodeCreate+0x3c>
        printf("InodeCreate: DirInodeAddEntry failed");
    236c:	f0000040 	adrp	x0, d000 <__ascii_wctomb+0x30>
    2370:	91396000 	add	x0, x0, #0xe58
    2374:	940007ab 	bl	4220 <printf>
        return 0;
    2378:	a94153f3 	ldp	x19, x20, [sp, #16]
    237c:	17ffffb0 	b	223c <InodeCreate+0x3c>

0000000000002380 <InodeFreeRecursive>:
{
    2380:	a9ba7bfd 	stp	x29, x30, [sp, #-96]!
    2384:	910003fd 	mov	x29, sp
    2388:	a90153f3 	stp	x19, x20, [sp, #16]
    238c:	aa0003f4 	mov	x20, x0
    for (offset = 0; offset < parent_inode->size; offset += sizeof(de)) {
    2390:	b9400800 	ldr	w0, [x0, #8]
    2394:	340006a0 	cbz	w0, 2468 <InodeFreeRecursive+0xe8>
    2398:	a9025bf5 	stp	x21, x22, [sp, #32]
        if (de.inum == 0 || strcmp(de.name, "..") == 0 || strcmp(de.name, ".") == 0) {
    239c:	f0000055 	adrp	x21, d000 <__ascii_wctomb+0x30>
    23a0:	913942b5 	add	x21, x21, #0xe50
    23a4:	f9001bf7 	str	x23, [sp, #48]
    23a8:	f0000057 	adrp	x23, d000 <__ascii_wctomb+0x30>
    23ac:	9138a2f7 	add	x23, x23, #0xe28
    for (offset = 0; offset < parent_inode->size; offset += sizeof(de)) {
    23b0:	52800013 	mov	w19, #0x0                   	// #0
    23b4:	d503201f 	nop
        if (InodeRead(parent_inode, (char*)&de, offset, sizeof(de)) != sizeof(de)) {
    23b8:	2a1303e2 	mov	w2, w19
    23bc:	910103e1 	add	x1, sp, #0x40
    23c0:	aa1403e0 	mov	x0, x20
    23c4:	52800403 	mov	w3, #0x20                  	// #32
    23c8:	97fffe56 	bl	1d20 <InodeRead>
    23cc:	7100801f 	cmp	w0, #0x20
    23d0:	54000541 	b.ne	2478 <InodeFreeRecursive+0xf8>  // b.any
        if (de.inum == 0 || strcmp(de.name, "..") == 0 || strcmp(de.name, ".") == 0) {
    23d4:	794083e2 	ldrh	w2, [sp, #64]
    23d8:	aa1503e1 	mov	x1, x21
    23dc:	91010be0 	add	x0, sp, #0x42
    23e0:	34000382 	cbz	w2, 2450 <InodeFreeRecursive+0xd0>
    23e4:	94000f57 	bl	6140 <strcmp>
    23e8:	34000340 	cbz	w0, 2450 <InodeFreeRecursive+0xd0>
    23ec:	91010be0 	add	x0, sp, #0x42
    23f0:	aa1703e1 	mov	x1, x23
    23f4:	94000f53 	bl	6140 <strcmp>
    23f8:	340002c0 	cbz	w0, 2450 <InodeFreeRecursive+0xd0>
        inode = InodeGet(de.inum);
    23fc:	794083f6 	ldrh	w22, [sp, #64]
    uint8_t* block = BlockRead(BLOCK_INDEX(inum));
    2400:	53027ec0 	lsr	w0, w22, #2
    inode = (struct Inode*)block + INODE_INDEX(inum);
    2404:	d37906d6 	ubfiz	x22, x22, #7, #2
    uint8_t* block = BlockRead(BLOCK_INDEX(inum));
    2408:	11000800 	add	w0, w0, #0x2
    240c:	94000a21 	bl	4c90 <BlockRead>
    inode = (struct Inode*)block + INODE_INDEX(inum);
    2410:	8b160000 	add	x0, x0, x22
        if (inode->type == FS_DIRECTORY) {
    2414:	b9400401 	ldr	w1, [x0, #4]
    2418:	7100043f 	cmp	w1, #0x1
    241c:	54000400 	b.eq	249c <InodeFreeRecursive+0x11c>  // b.none
        } else if (inode->type == FS_FILE) {
    2420:	7100083f 	cmp	w1, #0x2
    2424:	54000041 	b.ne	242c <InodeFreeRecursive+0xac>  // b.any
            inode->type = 0;
    2428:	b900041f 	str	wzr, [x0, #4]
        if (InodeWrite(parent_inode, (char*)&de, offset, sizeof(de)) != sizeof(de)) {
    242c:	2a1303e2 	mov	w2, w19
    2430:	910103e1 	add	x1, sp, #0x40
    2434:	aa1403e0 	mov	x0, x20
    2438:	52800403 	mov	w3, #0x20                  	// #32
        de.inum = 0;
    243c:	790083ff 	strh	wzr, [sp, #64]
        if (InodeWrite(parent_inode, (char*)&de, offset, sizeof(de)) != sizeof(de)) {
    2440:	97fffed0 	bl	1f80 <InodeWrite>
    2444:	7100801f 	cmp	w0, #0x20
    2448:	54000361 	b.ne	24b4 <InodeFreeRecursive+0x134>  // b.any
    244c:	d503201f 	nop
    for (offset = 0; offset < parent_inode->size; offset += sizeof(de)) {
    2450:	b9400a80 	ldr	w0, [x20, #8]
    2454:	11008273 	add	w19, w19, #0x20
    2458:	6b13001f 	cmp	w0, w19
    245c:	54fffae8 	b.hi	23b8 <InodeFreeRecursive+0x38>  // b.pmore
    2460:	a9425bf5 	ldp	x21, x22, [sp, #32]
    2464:	f9401bf7 	ldr	x23, [sp, #48]
    return 0;
    2468:	52800000 	mov	w0, #0x0                   	// #0
}
    246c:	a94153f3 	ldp	x19, x20, [sp, #16]
    2470:	a8c67bfd 	ldp	x29, x30, [sp], #96
    2474:	d65f03c0 	ret
            printf("inode_delete_dir failed: read directory entry failed");
    2478:	f0000040 	adrp	x0, d000 <__ascii_wctomb+0x30>
    247c:	913ac000 	add	x0, x0, #0xeb0
    2480:	94000768 	bl	4220 <printf>
            return -1;
    2484:	12800000 	mov	w0, #0xffffffff            	// #-1
}
    2488:	a94153f3 	ldp	x19, x20, [sp, #16]
            return -1;
    248c:	a9425bf5 	ldp	x21, x22, [sp, #32]
    2490:	f9401bf7 	ldr	x23, [sp, #48]
}
    2494:	a8c67bfd 	ldp	x29, x30, [sp], #96
    2498:	d65f03c0 	ret
            if (InodeFreeRecursive(inode) < 0) {
    249c:	97ffffb9 	bl	2380 <InodeFreeRecursive>
    24a0:	36fffc60 	tbz	w0, #31, 242c <InodeFreeRecursive+0xac>
                return -1;
    24a4:	12800000 	mov	w0, #0xffffffff            	// #-1
    24a8:	a9425bf5 	ldp	x21, x22, [sp, #32]
    24ac:	f9401bf7 	ldr	x23, [sp, #48]
    24b0:	17ffffef 	b	246c <InodeFreeRecursive+0xec>
            printf("InodeDelete failed: clear directory entry failed");
    24b4:	f0000040 	adrp	x0, d000 <__ascii_wctomb+0x30>
    24b8:	913ba000 	add	x0, x0, #0xee8
    24bc:	94000759 	bl	4220 <printf>
            return -1;
    24c0:	12800000 	mov	w0, #0xffffffff            	// #-1
    24c4:	a9425bf5 	ldp	x21, x22, [sp, #32]
    24c8:	f9401bf7 	ldr	x23, [sp, #48]
    24cc:	17ffffe8 	b	246c <InodeFreeRecursive+0xec>

00000000000024d0 <InodeDelete>:
{
    24d0:	a9ba7bfd 	stp	x29, x30, [sp, #-96]!
    24d4:	910003fd 	mov	x29, sp
    24d8:	a90153f3 	stp	x19, x20, [sp, #16]
    24dc:	aa0003f4 	mov	x20, x0
    24e0:	a9025bf5 	stp	x21, x22, [sp, #32]
    24e4:	aa0103f6 	mov	x22, x1
    if ((inode = DirInodeLookup(parent_inode, name)) == 0) {
    24e8:	97fffe66 	bl	1e80 <DirInodeLookup>
    24ec:	b4000840 	cbz	x0, 25f4 <InodeDelete+0x124>
    if (inode->type == FS_FILE) {
    24f0:	b9400402 	ldr	w2, [x0, #4]
    24f4:	7100085f 	cmp	w2, #0x2
    24f8:	54000680 	b.eq	25c8 <InodeDelete+0xf8>  // b.none
    } else if (inode->type == FS_DIRECTORY) {
    24fc:	7100045f 	cmp	w2, #0x1
    2500:	54000680 	b.eq	25d0 <InodeDelete+0x100>  // b.none
    if ((inode = DirInodeLookup(parent_inode, name)) == 0) {
    2504:	aa1603e1 	mov	x1, x22
    2508:	aa1403e0 	mov	x0, x20
    250c:	97fffe5d 	bl	1e80 <DirInodeLookup>
    2510:	b40003a0 	cbz	x0, 2584 <InodeDelete+0xb4>
    for (offset = 0; offset < parent_inode->size; offset += sizeof(de)) {
    2514:	f9001bf7 	str	x23, [sp, #48]
    2518:	910103f7 	add	x23, sp, #0x40
    251c:	b9400a80 	ldr	w0, [x20, #8]
    2520:	340003c0 	cbz	w0, 2598 <InodeDelete+0xc8>
    2524:	52800013 	mov	w19, #0x0                   	// #0
    2528:	52800015 	mov	w21, #0x0                   	// #0
    252c:	1400000a 	b	2554 <InodeDelete+0x84>
        if (strncmp(de.name, name, DIR_NAME_SIZE) == 0) {
    2530:	aa1603e1 	mov	x1, x22
    2534:	91010be0 	add	x0, sp, #0x42
    2538:	d28003c2 	mov	x2, #0x1e                  	// #30
    253c:	94000f98 	bl	639c <strncmp>
    2540:	34000300 	cbz	w0, 25a0 <InodeDelete+0xd0>
    for (offset = 0; offset < parent_inode->size; offset += sizeof(de)) {
    2544:	b9400a80 	ldr	w0, [x20, #8]
    2548:	2a1303f5 	mov	w21, w19
    254c:	6b00027f 	cmp	w19, w0
    2550:	54000282 	b.cs	25a0 <InodeDelete+0xd0>  // b.hs, b.nlast
        if (InodeRead(parent_inode, (char*)&de, offset, sizeof(de)) != sizeof(de)) {
    2554:	2a1503e2 	mov	w2, w21
    2558:	aa1703e1 	mov	x1, x23
    255c:	aa1403e0 	mov	x0, x20
    2560:	52800403 	mov	w3, #0x20                  	// #32
    for (offset = 0; offset < parent_inode->size; offset += sizeof(de)) {
    2564:	11008273 	add	w19, w19, #0x20
        if (InodeRead(parent_inode, (char*)&de, offset, sizeof(de)) != sizeof(de)) {
    2568:	97fffdee 	bl	1d20 <InodeRead>
    256c:	7100801f 	cmp	w0, #0x20
    2570:	54fffe00 	b.eq	2530 <InodeDelete+0x60>  // b.none
            printf("DirInodeAddEntry: read failed");
    2574:	f0000040 	adrp	x0, d000 <__ascii_wctomb+0x30>
    2578:	9137a000 	add	x0, x0, #0xde8
    257c:	94000729 	bl	4220 <printf>
            return -1;
    2580:	f9401bf7 	ldr	x23, [sp, #48]
    return 0;
    2584:	52800000 	mov	w0, #0x0                   	// #0
}
    2588:	a94153f3 	ldp	x19, x20, [sp, #16]
    258c:	a9425bf5 	ldp	x21, x22, [sp, #32]
    2590:	a8c67bfd 	ldp	x29, x30, [sp], #96
    2594:	d65f03c0 	ret
    for (offset = 0; offset < parent_inode->size; offset += sizeof(de)) {
    2598:	52800015 	mov	w21, #0x0                   	// #0
    259c:	d503201f 	nop
    if (InodeWrite(parent_inode, (char*)&de, offset, sizeof(de)) != sizeof(de)) {
    25a0:	2a1503e2 	mov	w2, w21
    25a4:	aa1703e1 	mov	x1, x23
    25a8:	aa1403e0 	mov	x0, x20
    25ac:	52800403 	mov	w3, #0x20                  	// #32
    de.inum = 0;
    25b0:	790083ff 	strh	wzr, [sp, #64]
    if (InodeWrite(parent_inode, (char*)&de, offset, sizeof(de)) != sizeof(de)) {
    25b4:	97fffe73 	bl	1f80 <InodeWrite>
    25b8:	7100801f 	cmp	w0, #0x20
    25bc:	54000121 	b.ne	25e0 <InodeDelete+0x110>  // b.any
    25c0:	f9401bf7 	ldr	x23, [sp, #48]
    25c4:	17fffff0 	b	2584 <InodeDelete+0xb4>
        inode->type = 0;
    25c8:	b900041f 	str	wzr, [x0, #4]
    25cc:	17ffffce 	b	2504 <InodeDelete+0x34>
        if (InodeFreeRecursive(inode) < 0) {
    25d0:	97ffff6c 	bl	2380 <InodeFreeRecursive>
    25d4:	36fff980 	tbz	w0, #31, 2504 <InodeDelete+0x34>
            return -1;
    25d8:	12800000 	mov	w0, #0xffffffff            	// #-1
    25dc:	17ffffeb 	b	2588 <InodeDelete+0xb8>
        printf("DirInodeAddEntry: write failed");
    25e0:	f0000040 	adrp	x0, d000 <__ascii_wctomb+0x30>
    25e4:	91382000 	add	x0, x0, #0xe08
    25e8:	9400070e 	bl	4220 <printf>
    25ec:	f9401bf7 	ldr	x23, [sp, #48]
        return -1;
    25f0:	17ffffe5 	b	2584 <InodeDelete+0xb4>
        printf("Inode delete failed, file not exsit");
    25f4:	f0000040 	adrp	x0, d000 <__ascii_wctomb+0x30>
    25f8:	913c8000 	add	x0, x0, #0xf20
    25fc:	94000709 	bl	4220 <printf>
        return -1;
    2600:	12800000 	mov	w0, #0xffffffff            	// #-1
    2604:	17ffffe1 	b	2588 <InodeDelete+0xb8>
    2608:	d503201f 	nop
    260c:	d503201f 	nop

0000000000002610 <InodeSeek>:
{
    2610:	a9bc7bfd 	stp	x29, x30, [sp, #-64]!
    2614:	910003fd 	mov	x29, sp
    2618:	a90153f3 	stp	x19, x20, [sp, #16]
    261c:	aa0003f3 	mov	x19, x0
    if (source->size == 0) {
    2620:	b9400800 	ldr	w0, [x0, #8]
    2624:	34000360 	cbz	w0, 2690 <InodeSeek+0x80>
    2628:	aa0103f4 	mov	x20, x1
    char name[DIR_NAME_SIZE] = { 0 };
    262c:	a9027fff 	stp	xzr, xzr, [sp, #32]
    2630:	f9001bff 	str	xzr, [sp, #48]
    2634:	b9003bff 	str	wzr, [sp, #56]
    2638:	79007bff 	strh	wzr, [sp, #60]
    while ((path = PathElementExtract(path, name)) != 0) {
    263c:	14000007 	b	2658 <InodeSeek+0x48>
        if (cur_inode->type != FS_DIRECTORY) {
    2640:	b9400662 	ldr	w2, [x19, #4]
    2644:	7100045f 	cmp	w2, #0x1
    2648:	540001c1 	b.ne	2680 <InodeSeek+0x70>  // b.any
        if ((next_inode = DirInodeLookup(cur_inode, name)) == 0) {
    264c:	97fffe0d 	bl	1e80 <DirInodeLookup>
    2650:	aa0003f3 	mov	x19, x0
    2654:	b4000160 	cbz	x0, 2680 <InodeSeek+0x70>
    while ((path = PathElementExtract(path, name)) != 0) {
    2658:	aa1403e0 	mov	x0, x20
    265c:	910083e1 	add	x1, sp, #0x20
    2660:	97fffd30 	bl	1b20 <PathElementExtract>
    2664:	aa0003f4 	mov	x20, x0
        if ((next_inode = DirInodeLookup(cur_inode, name)) == 0) {
    2668:	910083e1 	add	x1, sp, #0x20
    266c:	aa1303e0 	mov	x0, x19
    while ((path = PathElementExtract(path, name)) != 0) {
    2670:	b5fffe94 	cbnz	x20, 2640 <InodeSeek+0x30>
}
    2674:	a94153f3 	ldp	x19, x20, [sp, #16]
    2678:	a8c47bfd 	ldp	x29, x30, [sp], #64
    267c:	d65f03c0 	ret
            return NULL;
    2680:	d2800000 	mov	x0, #0x0                   	// #0
}
    2684:	a94153f3 	ldp	x19, x20, [sp, #16]
    2688:	a8c47bfd 	ldp	x29, x30, [sp], #64
    268c:	d65f03c0 	ret
        printf("Inode is empty\n");
    2690:	f0000040 	adrp	x0, d000 <__ascii_wctomb+0x30>
    2694:	913d2000 	add	x0, x0, #0xf48
    2698:	940006e2 	bl	4220 <printf>
        return 0;
    269c:	d2800000 	mov	x0, #0x0                   	// #0
    26a0:	17fffff5 	b	2674 <InodeSeek+0x64>
    26a4:	d503201f 	nop
    26a8:	d503201f 	nop
    26ac:	d503201f 	nop

00000000000026b0 <InodeParentSeek>:
{
    26b0:	a9bd7bfd 	stp	x29, x30, [sp, #-48]!
    26b4:	910003fd 	mov	x29, sp
    26b8:	a90153f3 	stp	x19, x20, [sp, #16]
    26bc:	aa0003f3 	mov	x19, x0
    if (source->size == 0) {
    26c0:	b9400800 	ldr	w0, [x0, #8]
    26c4:	340003c0 	cbz	w0, 273c <InodeParentSeek+0x8c>
    26c8:	aa0103f4 	mov	x20, x1
    26cc:	f90013f5 	str	x21, [sp, #32]
    26d0:	aa0203f5 	mov	x21, x2
    26d4:	14000009 	b	26f8 <InodeParentSeek+0x48>
        if (cur_inode->type != FS_DIRECTORY) {
    26d8:	b9400662 	ldr	w2, [x19, #4]
    26dc:	7100045f 	cmp	w2, #0x1
    26e0:	540001a1 	b.ne	2714 <InodeParentSeek+0x64>  // b.any
        if (*path == '\0') {
    26e4:	39400282 	ldrb	w2, [x20]
    26e8:	34000202 	cbz	w2, 2728 <InodeParentSeek+0x78>
        if ((next_inode = DirInodeLookup(cur_inode, name)) == 0) {
    26ec:	97fffde5 	bl	1e80 <DirInodeLookup>
    26f0:	aa0003f3 	mov	x19, x0
    26f4:	b4000100 	cbz	x0, 2714 <InodeParentSeek+0x64>
    while ((path = PathElementExtract(path, name)) != 0) {
    26f8:	aa1403e0 	mov	x0, x20
    26fc:	aa1503e1 	mov	x1, x21
    2700:	97fffd08 	bl	1b20 <PathElementExtract>
    2704:	aa0003f4 	mov	x20, x0
        if ((next_inode = DirInodeLookup(cur_inode, name)) == 0) {
    2708:	aa1503e1 	mov	x1, x21
    270c:	aa1303e0 	mov	x0, x19
    while ((path = PathElementExtract(path, name)) != 0) {
    2710:	b5fffe54 	cbnz	x20, 26d8 <InodeParentSeek+0x28>
    2714:	f94013f5 	ldr	x21, [sp, #32]
            return NULL;
    2718:	d2800000 	mov	x0, #0x0                   	// #0
}
    271c:	a94153f3 	ldp	x19, x20, [sp, #16]
    2720:	a8c37bfd 	ldp	x29, x30, [sp], #48
    2724:	d65f03c0 	ret
    2728:	aa1303e0 	mov	x0, x19
    272c:	a94153f3 	ldp	x19, x20, [sp, #16]
    2730:	f94013f5 	ldr	x21, [sp, #32]
    2734:	a8c37bfd 	ldp	x29, x30, [sp], #48
    2738:	d65f03c0 	ret
        printf("Inode is empty\n");
    273c:	f0000040 	adrp	x0, d000 <__ascii_wctomb+0x30>
    2740:	913d2000 	add	x0, x0, #0xf48
    2744:	940006b7 	bl	4220 <printf>
        return 0;
    2748:	d2800000 	mov	x0, #0x0                   	// #0
    274c:	17fffff4 	b	271c <InodeParentSeek+0x6c>

0000000000002750 <GetFileDescriptor>:

struct FileDescriptor* GetFileDescriptor(int fd)
{
    if (fd < 0 || fd > MAX_SUPPORT_FD) {
    2750:	7140041f 	cmp	w0, #0x1, lsl #12
    2754:	540000c8 	b.hi	276c <GetFileDescriptor+0x1c>  // b.pmore
        printf("fd invlid.\n");
        return NULL;
    }
    return &fd_table[fd];
    2758:	d00000e1 	adrp	x1, 20000 <session_cwd+0xfa50>
    275c:	91170021 	add	x1, x1, #0x5c0
    2760:	52801102 	mov	w2, #0x88                  	// #136
    2764:	9b220400 	smaddl	x0, w0, w2, x1
}
    2768:	d65f03c0 	ret
{
    276c:	a9bf7bfd 	stp	x29, x30, [sp, #-16]!
        printf("fd invlid.\n");
    2770:	f0000040 	adrp	x0, d000 <__ascii_wctomb+0x30>
    2774:	913d6000 	add	x0, x0, #0xf58
{
    2778:	910003fd 	mov	x29, sp
        printf("fd invlid.\n");
    277c:	940006a9 	bl	4220 <printf>
        return NULL;
    2780:	d2800000 	mov	x0, #0x0                   	// #0
}
    2784:	a8c17bfd 	ldp	x29, x30, [sp], #16
    2788:	d65f03c0 	ret
    278c:	d503201f 	nop

0000000000002790 <FreeFileDescriptor>:

void FreeFileDescriptor(int fd)
{
    if (fd < 0 || fd > MAX_SUPPORT_FD) {
    2790:	7140041f 	cmp	w0, #0x1, lsl #12
    2794:	54000108 	b.hi	27b4 <FreeFileDescriptor+0x24>  // b.pmore
        printf("fd invlid.\n");
        return;
    }
    fd_table[fd].data = NULL;
    2798:	93407c00 	sxtw	x0, w0
    279c:	d00000e1 	adrp	x1, 20000 <session_cwd+0xfa50>
    27a0:	91170021 	add	x1, x1, #0x5c0
    27a4:	d2801102 	mov	x2, #0x88                  	// #136
    27a8:	9b020400 	madd	x0, x0, x2, x1
    27ac:	f900401f 	str	xzr, [x0, #128]
    return;
}
    27b0:	d65f03c0 	ret
        printf("fd invlid.\n");
    27b4:	f0000040 	adrp	x0, d000 <__ascii_wctomb+0x30>
    27b8:	913d6000 	add	x0, x0, #0xf58
    27bc:	14000699 	b	4220 <printf>

00000000000027c0 <AllocFileDescriptor>:

int AllocFileDescriptor(void)
{
    int free_idx = -1;
    for (int i = 0; i < MAX_SUPPORT_FD; i++) {
    27c0:	d00000e1 	adrp	x1, 20000 <session_cwd+0xfa50>
    27c4:	91170021 	add	x1, x1, #0x5c0
    27c8:	52800000 	mov	w0, #0x0                   	// #0
    27cc:	14000004 	b	27dc <AllocFileDescriptor+0x1c>
    27d0:	11000400 	add	w0, w0, #0x1
    27d4:	7140041f 	cmp	w0, #0x1, lsl #12
    27d8:	540000a0 	b.eq	27ec <AllocFileDescriptor+0x2c>  // b.none
        // found free fd
        if (free_idx == -1 && fd_table[i].data == NULL) {
    27dc:	f9404022 	ldr	x2, [x1, #128]
    for (int i = 0; i < MAX_SUPPORT_FD; i++) {
    27e0:	91022021 	add	x1, x1, #0x88
        if (free_idx == -1 && fd_table[i].data == NULL) {
    27e4:	b5ffff62 	cbnz	x2, 27d0 <AllocFileDescriptor+0x10>
    }
    if (free_idx == -1) {
        return -1;
    }
    return free_idx;
}
    27e8:	d65f03c0 	ret
        return -1;
    27ec:	12800000 	mov	w0, #0xffffffff            	// #-1
}
    27f0:	d65f03c0 	ret
    27f4:	d503201f 	nop
    27f8:	d503201f 	nop
    27fc:	d503201f 	nop

0000000000002800 <init_uart_mmio>:
#ifndef CONFIG_SYS_NS16550_CLK
#define CONFIG_SYS_NS16550_CLK 0
#endif

bool init_uart_mmio()
{
    2800:	a9be7bfd 	stp	x29, x30, [sp, #-32]!
        if (-1 == mmap(UART_ADDR, UART_ADDR, 4096, true)) {
            return false;
        }
        mapped = 1;
    }
    return true;
    2804:	52800020 	mov	w0, #0x1                   	// #1
{
    2808:	910003fd 	mov	x29, sp
    280c:	f9000bf3 	str	x19, [sp, #16]
    if (mapped == 0) {
    2810:	d0000533 	adrp	x19, a8000 <_stack+0x28000>
    2814:	b945c261 	ldr	w1, [x19, #1472]
    2818:	34000081 	cbz	w1, 2828 <init_uart_mmio+0x28>
}
    281c:	f9400bf3 	ldr	x19, [sp, #16]
    2820:	a8c27bfd 	ldp	x29, x30, [sp], #32
    2824:	d65f03c0 	ret
        if (-1 == mmap(UART_ADDR, UART_ADDR, 4096, true)) {
    2828:	2a0003e3 	mov	w3, w0
    282c:	d2bfccc1 	mov	x1, #0xfe660000            	// #4268097536
    2830:	52820002 	mov	w2, #0x1000                	// #4096
    2834:	aa0103e0 	mov	x0, x1
    2838:	94000a2e 	bl	50f0 <mmap>
    283c:	3100041f 	cmn	w0, #0x1
            return false;
    2840:	52800000 	mov	w0, #0x0                   	// #0
        if (-1 == mmap(UART_ADDR, UART_ADDR, 4096, true)) {
    2844:	54fffec0 	b.eq	281c <init_uart_mmio+0x1c>  // b.none
        mapped = 1;
    2848:	52800021 	mov	w1, #0x1                   	// #1
    return true;
    284c:	2a0103e0 	mov	w0, w1
        mapped = 1;
    2850:	b905c261 	str	w1, [x19, #1472]
}
    2854:	f9400bf3 	ldr	x19, [sp, #16]
    2858:	a8c27bfd 	ldp	x29, x30, [sp], #32
    285c:	d65f03c0 	ret

0000000000002860 <putc>:

void putc(char ch)
{
    2860:	12001c00 	and	w0, w0, #0xff
    static struct NS16550* com_port = (struct NS16550*)UART_ADDR;

    if (ch == '\n') {
    2864:	7100281f 	cmp	w0, #0xa
    2868:	540000c0 	b.eq	2880 <putc+0x20>  // b.none
    return in_le32(addr);
    286c:	d2bfccc2 	mov	x2, #0xfe660000            	// #4268097536
    2870:	b9401441 	ldr	w1, [x2, #20]
        putc('\r');
    }

    while (!(serial_din(&com_port->lsr) & UART_LSR_THRE))
    2874:	362fffe1 	tbz	w1, #5, 2870 <putc+0x10>
    out_le32(addr, value);
    2878:	b9000040 	str	w0, [x2]
        ;
    serial_dout(&com_port->thr, ch);
}
    287c:	d65f03c0 	ret
    return in_le32(addr);
    2880:	d2bfccc2 	mov	x2, #0xfe660000            	// #4268097536
    2884:	d503201f 	nop
    2888:	b9401441 	ldr	w1, [x2, #20]
    while (!(serial_din(&com_port->lsr) & UART_LSR_THRE))
    288c:	362fffe1 	tbz	w1, #5, 2888 <putc+0x28>
    out_le32(addr, value);
    2890:	528001a1 	mov	w1, #0xd                   	// #13
    2894:	b9000041 	str	w1, [x2]
}
    2898:	17fffff5 	b	286c <putc+0xc>
    289c:	d503201f 	nop

00000000000028a0 <getc>:
    return in_le32(addr);
    28a0:	d2bfccc1 	mov	x1, #0xfe660000            	// #4268097536
    28a4:	d503201f 	nop
    28a8:	b9401420 	ldr	w0, [x1, #20]

char getc(void)
{
    static struct NS16550* com_port = (struct NS16550*)UART_ADDR;

    while (!(serial_din(&com_port->lsr) & UART_LSR_DR))
    28ac:	3607ffe0 	tbz	w0, #0, 28a8 <getc+0x8>
    return in_le32(addr);
    28b0:	b9400020 	ldr	w0, [x1]
        ;

    return serial_din(&com_port->rbr);
    28b4:	d65f03c0 	ret
    28b8:	d503201f 	nop
    28bc:	d503201f 	nop

00000000000028c0 <_out_buffer>:
} out_fct_wrap_type;

// internal buffer output
static inline void _out_buffer(char character, void* buffer, size_t idx, size_t maxlen)
{
    if (idx < maxlen) {
    28c0:	eb03005f 	cmp	x2, x3
{
    28c4:	12001c00 	and	w0, w0, #0xff
    if (idx < maxlen) {
    28c8:	54000042 	b.cs	28d0 <_out_buffer+0x10>  // b.hs, b.nlast
        ((char*)buffer)[idx] = character;
    28cc:	38226820 	strb	w0, [x1, x2]
    }
}
    28d0:	d65f03c0 	ret
    28d4:	d503201f 	nop
    28d8:	d503201f 	nop
    28dc:	d503201f 	nop

00000000000028e0 <_out_null>:
{
    (void)character;
    (void)buffer;
    (void)idx;
    (void)maxlen;
}
    28e0:	d65f03c0 	ret
    28e4:	d503201f 	nop
    28e8:	d503201f 	nop
    28ec:	d503201f 	nop

00000000000028f0 <_out_rev>:
    return i;
}

// output the specified string in reverse, taking care of any zero-padding
static size_t _out_rev(out_fct_type out, char* buffer, size_t idx, size_t maxlen, const char* buf, size_t len, unsigned int width, unsigned int flags)
{
    28f0:	a9ba7bfd 	stp	x29, x30, [sp, #-96]!
    28f4:	910003fd 	mov	x29, sp
    28f8:	a90153f3 	stp	x19, x20, [sp, #16]
    28fc:	aa0503f3 	mov	x19, x5
    2900:	aa0203f4 	mov	x20, x2
    2904:	a9025bf5 	stp	x21, x22, [sp, #32]
    2908:	aa0003f5 	mov	x21, x0
    290c:	aa0103f6 	mov	x22, x1
    2910:	a90363f7 	stp	x23, x24, [sp, #48]
    2914:	aa0203f7 	mov	x23, x2
    2918:	aa0403f8 	mov	x24, x4
    291c:	a9046bf9 	stp	x25, x26, [sp, #64]
    2920:	2a0703fa 	mov	w26, w7
    2924:	2a0603f9 	mov	w25, w6
    2928:	a90573fb 	stp	x27, x28, [sp, #80]
    const size_t start_idx = idx;

    // pad spaces up to given width
    if (!(flags & FLAGS_LEFT) && !(flags & FLAGS_ZEROPAD)) {
    292c:	f240075f 	tst	x26, #0x3
{
    2930:	aa0303fb 	mov	x27, x3
    if (!(flags & FLAGS_LEFT) && !(flags & FLAGS_ZEROPAD)) {
    2934:	540001e1 	b.ne	2970 <_out_rev+0x80>  // b.any
        for (size_t i = len; i < width; i++) {
    2938:	2a0603e0 	mov	w0, w6
    293c:	aa0203fc 	mov	x28, x2
    2940:	cb050014 	sub	x20, x0, x5
    2944:	eb0000bf 	cmp	x5, x0
    2948:	8b020294 	add	x20, x20, x2
    294c:	54000542 	b.cs	29f4 <_out_rev+0x104>  // b.hs, b.nlast
            out(' ', buffer, idx++, maxlen);
    2950:	aa1c03e2 	mov	x2, x28
    2954:	aa1b03e3 	mov	x3, x27
    2958:	9100079c 	add	x28, x28, #0x1
    295c:	aa1603e1 	mov	x1, x22
    2960:	52800400 	mov	w0, #0x20                  	// #32
    2964:	d63f02a0 	blr	x21
        for (size_t i = len; i < width; i++) {
    2968:	eb1c029f 	cmp	x20, x28
    296c:	54ffff21 	b.ne	2950 <_out_rev+0x60>  // b.any
        }
    }

    // reverse string
    while (len) {
    2970:	8b14027c 	add	x28, x19, x20
    2974:	b4000133 	cbz	x19, 2998 <_out_rev+0xa8>
    2978:	cb130382 	sub	x2, x28, x19
        out(buf[--len], buffer, idx++, maxlen);
    297c:	d1000673 	sub	x19, x19, #0x1
    2980:	aa1c03f4 	mov	x20, x28
    2984:	aa1b03e3 	mov	x3, x27
    2988:	aa1603e1 	mov	x1, x22
    298c:	38736b00 	ldrb	w0, [x24, x19]
    2990:	d63f02a0 	blr	x21
    while (len) {
    2994:	b5ffff33 	cbnz	x19, 2978 <_out_rev+0x88>
    }

    // append pad spaces up to given width
    if (flags & FLAGS_LEFT) {
    2998:	360801fa 	tbz	w26, #1, 29d4 <_out_rev+0xe4>
        while (idx - start_idx < width) {
    299c:	cb170297 	sub	x23, x20, x23
    29a0:	2a1903f9 	mov	w25, w25
    29a4:	eb1902ff 	cmp	x23, x25
    29a8:	54000162 	b.cs	29d4 <_out_rev+0xe4>  // b.hs, b.nlast
    29ac:	d503201f 	nop
            out(' ', buffer, idx++, maxlen);
    29b0:	aa1403e2 	mov	x2, x20
        while (idx - start_idx < width) {
    29b4:	910006f7 	add	x23, x23, #0x1
            out(' ', buffer, idx++, maxlen);
    29b8:	aa1b03e3 	mov	x3, x27
    29bc:	aa1603e1 	mov	x1, x22
    29c0:	52800400 	mov	w0, #0x20                  	// #32
    29c4:	d63f02a0 	blr	x21
    29c8:	91000694 	add	x20, x20, #0x1
        while (idx - start_idx < width) {
    29cc:	eb1902ff 	cmp	x23, x25
    29d0:	54ffff03 	b.cc	29b0 <_out_rev+0xc0>  // b.lo, b.ul, b.last
        }
    }

    return idx;
}
    29d4:	aa1403e0 	mov	x0, x20
    29d8:	a94153f3 	ldp	x19, x20, [sp, #16]
    29dc:	a9425bf5 	ldp	x21, x22, [sp, #32]
    29e0:	a94363f7 	ldp	x23, x24, [sp, #48]
    29e4:	a9446bf9 	ldp	x25, x26, [sp, #64]
    29e8:	a94573fb 	ldp	x27, x28, [sp, #80]
    29ec:	a8c67bfd 	ldp	x29, x30, [sp], #96
    29f0:	d65f03c0 	ret
        for (size_t i = len; i < width; i++) {
    29f4:	aa0203f4 	mov	x20, x2
    29f8:	17ffffde 	b	2970 <_out_rev+0x80>
    29fc:	d503201f 	nop

0000000000002a00 <_ntoa_long>:
    return _out_rev(out, buffer, idx, maxlen, buf, len, width, flags);
}

// internal itoa for 'long' type
static size_t _ntoa_long(out_fct_type out, char* buffer, size_t idx, size_t maxlen, unsigned long value, bool negative, unsigned long base, unsigned int prec, unsigned int width, unsigned int flags)
{
    2a00:	a9bd7bfd 	stp	x29, x30, [sp, #-48]!
    2a04:	aa0603eb 	mov	x11, x6
    2a08:	aa0403e9 	mov	x9, x4
    2a0c:	910003fd 	mov	x29, sp
    2a10:	b9403be8 	ldr	w8, [sp, #56]
    2a14:	2a0703ef 	mov	w15, w7
    2a18:	b94033e6 	ldr	w6, [sp, #48]
    2a1c:	12001cb2 	and	w18, w5, #0xff
    if (!value) {
        flags &= ~FLAGS_HASH;
    }

    // write if precision != 0 and value is != 0
    if (!(flags & FLAGS_PRECISION) || value) {
    2a20:	12160110 	and	w16, w8, #0x400
    if (!value) {
    2a24:	b5000c64 	cbnz	x4, 2bb0 <_ntoa_long+0x1b0>
        flags &= ~FLAGS_HASH;
    2a28:	121b7907 	and	w7, w8, #0xffffffef
    if (!(flags & FLAGS_PRECISION) || value) {
    2a2c:	34000730 	cbz	w16, 2b10 <_ntoa_long+0x110>
    if (!(flags & FLAGS_LEFT)) {
    2a30:	121f0111 	and	w17, w8, #0x2
    2a34:	37080fc8 	tbnz	w8, #1, 2c2c <_ntoa_long+0x22c>
    size_t len = 0U;
    2a38:	d2800005 	mov	x5, #0x0                   	// #0
        while ((len < prec) && (len < PRINTF_NTOA_BUFFER_SIZE)) {
    2a3c:	2a0f03e9 	mov	w9, w15
    2a40:	f1007cbf 	cmp	x5, #0x1f
    2a44:	910043e4 	add	x4, sp, #0x10
    2a48:	1a9f87ea 	cset	w10, ls  // ls = plast
    2a4c:	eb05013f 	cmp	x9, x5
    2a50:	1a9f97e8 	cset	w8, hi  // hi = pmore
        if (width && (flags & FLAGS_ZEROPAD) && (negative || (flags & (FLAGS_PLUS | FLAGS_SPACE)))) {
    2a54:	120000ec 	and	w12, w7, #0x1
        while ((len < prec) && (len < PRINTF_NTOA_BUFFER_SIZE)) {
    2a58:	0a080148 	and	w8, w10, w8
        if (width && (flags & FLAGS_ZEROPAD) && (negative || (flags & (FLAGS_PLUS | FLAGS_SPACE)))) {
    2a5c:	350009c6 	cbnz	w6, 2b94 <_ntoa_long+0x194>
        while ((len < prec) && (len < PRINTF_NTOA_BUFFER_SIZE)) {
    2a60:	34000108 	cbz	w8, 2a80 <_ntoa_long+0x80>
            buf[len++] = '0';
    2a64:	5280060a 	mov	w10, #0x30                  	// #48
    2a68:	910004a5 	add	x5, x5, #0x1
    2a6c:	8b050088 	add	x8, x4, x5
        while ((len < prec) && (len < PRINTF_NTOA_BUFFER_SIZE)) {
    2a70:	eb05013f 	cmp	x9, x5
    2a74:	fa5f88a2 	ccmp	x5, #0x1f, #0x2, hi  // hi = pmore
            buf[len++] = '0';
    2a78:	381ff10a 	sturb	w10, [x8, #-1]
        while ((len < prec) && (len < PRINTF_NTOA_BUFFER_SIZE)) {
    2a7c:	54ffff69 	b.ls	2a68 <_ntoa_long+0x68>  // b.plast
        while ((flags & FLAGS_ZEROPAD) && (len < width) && (len < PRINTF_NTOA_BUFFER_SIZE)) {
    2a80:	340001cc 	cbz	w12, 2ab8 <_ntoa_long+0xb8>
    2a84:	f1007cbf 	cmp	x5, #0x1f
    2a88:	1a9f87ea 	cset	w10, ls  // ls = plast
    2a8c:	7100015f 	cmp	w10, #0x0
    2a90:	2a0603e9 	mov	w9, w6
    2a94:	fa451120 	ccmp	x9, x5, #0x0, ne  // ne = any
    2a98:	54000109 	b.ls	2ab8 <_ntoa_long+0xb8>  // b.plast
            buf[len++] = '0';
    2a9c:	5280060a 	mov	w10, #0x30                  	// #48
    2aa0:	910004a5 	add	x5, x5, #0x1
    2aa4:	8b050088 	add	x8, x4, x5
        while ((flags & FLAGS_ZEROPAD) && (len < width) && (len < PRINTF_NTOA_BUFFER_SIZE)) {
    2aa8:	eb05013f 	cmp	x9, x5
    2aac:	fa5f88a2 	ccmp	x5, #0x1f, #0x2, hi  // hi = pmore
            buf[len++] = '0';
    2ab0:	381ff10a 	sturb	w10, [x8, #-1]
        while ((flags & FLAGS_ZEROPAD) && (len < width) && (len < PRINTF_NTOA_BUFFER_SIZE)) {
    2ab4:	54ffff69 	b.ls	2aa0 <_ntoa_long+0xa0>  // b.plast
    if (flags & FLAGS_HASH) {
    2ab8:	340001b1 	cbz	w17, 2aec <_ntoa_long+0xec>
        if (!(flags & FLAGS_PRECISION) && len && ((len == prec) || (len == width))) {
    2abc:	350008b0 	cbnz	w16, 2bd0 <_ntoa_long+0x1d0>
    2ac0:	b50007e5 	cbnz	x5, 2bbc <_ntoa_long+0x1bc>
        if ((base == 16U) && !(flags & FLAGS_UPPERCASE) && (len < PRINTF_NTOA_BUFFER_SIZE)) {
    2ac4:	f100417f 	cmp	x11, #0x10
    2ac8:	54000f20 	b.eq	2cac <_ntoa_long+0x2ac>  // b.none
        } else if ((base == 2U) && (len < PRINTF_NTOA_BUFFER_SIZE)) {
    2acc:	f100097f 	cmp	x11, #0x2
    2ad0:	54000f21 	b.ne	2cb4 <_ntoa_long+0x2b4>  // b.any
            buf[len++] = 'b';
    2ad4:	52800c48 	mov	w8, #0x62                  	// #98
    2ad8:	d2800025 	mov	x5, #0x1                   	// #1
    2adc:	390043e8 	strb	w8, [sp, #16]
            buf[len++] = '0';
    2ae0:	52800608 	mov	w8, #0x30                  	// #48
    2ae4:	38256888 	strb	w8, [x4, x5]
    2ae8:	910004a5 	add	x5, x5, #0x1
    if (len < PRINTF_NTOA_BUFFER_SIZE) {
    2aec:	f10080bf 	cmp	x5, #0x20
    2af0:	540000a0 	b.eq	2b04 <_ntoa_long+0x104>  // b.none
        if (negative) {
    2af4:	340008d2 	cbz	w18, 2c0c <_ntoa_long+0x20c>
            buf[len++] = '-';
    2af8:	528005a8 	mov	w8, #0x2d                  	// #45
    2afc:	38256888 	strb	w8, [x4, x5]
    2b00:	910004a5 	add	x5, x5, #0x1
    return _out_rev(out, buffer, idx, maxlen, buf, len, width, flags);
    2b04:	97ffff7b 	bl	28f0 <_out_rev>
            value /= base;
        } while (value && (len < PRINTF_NTOA_BUFFER_SIZE));
    }

    return _ntoa_format(out, buffer, idx, maxlen, buf, len, negative, (unsigned int)base, prec, width, flags);
}
    2b08:	a8c37bfd 	ldp	x29, x30, [sp], #48
    2b0c:	d65f03c0 	ret
    if (!(flags & FLAGS_PRECISION) || value) {
    2b10:	52800011 	mov	w17, #0x0                   	// #0
    2b14:	f27b00ff 	tst	x7, #0x20
    2b18:	52800c24 	mov	w4, #0x61                  	// #97
    2b1c:	5280082e 	mov	w14, #0x41                  	// #65
    2b20:	1a8411ce 	csel	w14, w14, w4, ne  // ne = any
            buf[len++] = digit < 10 ? '0' + digit : (flags & FLAGS_UPPERCASE ? 'A' : 'a') + digit - 10;
    2b24:	510029ce 	sub	w14, w14, #0xa
    2b28:	910043e4 	add	x4, sp, #0x10
    2b2c:	d2800005 	mov	x5, #0x0                   	// #0
            const char digit = (char)(value % base);
    2b30:	9acb092c 	udiv	x12, x9, x11
            buf[len++] = digit < 10 ? '0' + digit : (flags & FLAGS_UPPERCASE ? 'A' : 'a') + digit - 10;
    2b34:	910004a5 	add	x5, x5, #0x1
    2b38:	8b05008d 	add	x13, x4, x5
            const char digit = (char)(value % base);
    2b3c:	9b0ba58a 	msub	x10, x12, x11, x9
    2b40:	12001d48 	and	w8, w10, #0xff
            buf[len++] = digit < 10 ? '0' + digit : (flags & FLAGS_UPPERCASE ? 'A' : 'a') + digit - 10;
    2b44:	f100255f 	cmp	x10, #0x9
    2b48:	1100c10a 	add	w10, w8, #0x30
    2b4c:	0b0e0108 	add	w8, w8, w14
    2b50:	12001d4a 	and	w10, w10, #0xff
    2b54:	12001d08 	and	w8, w8, #0xff
    2b58:	1a8a8108 	csel	w8, w8, w10, hi  // hi = pmore
    2b5c:	381ff1a8 	sturb	w8, [x13, #-1]
        } while (value && (len < PRINTF_NTOA_BUFFER_SIZE));
    2b60:	eb0b013f 	cmp	x9, x11
            value /= base;
    2b64:	aa0c03e9 	mov	x9, x12
        } while (value && (len < PRINTF_NTOA_BUFFER_SIZE));
    2b68:	fa5f28a2 	ccmp	x5, #0x1f, #0x2, cs  // cs = hs, nlast
    2b6c:	54fffe29 	b.ls	2b30 <_ntoa_long+0x130>  // b.plast
    if (!(flags & FLAGS_LEFT)) {
    2b70:	370ffa47 	tbnz	w7, #1, 2ab8 <_ntoa_long+0xb8>
        while ((len < prec) && (len < PRINTF_NTOA_BUFFER_SIZE)) {
    2b74:	f1007cbf 	cmp	x5, #0x1f
    2b78:	2a0f03e9 	mov	w9, w15
    2b7c:	1a9f87ea 	cset	w10, ls  // ls = plast
    2b80:	eb05013f 	cmp	x9, x5
    2b84:	1a9f97e8 	cset	w8, hi  // hi = pmore
        if (width && (flags & FLAGS_ZEROPAD) && (negative || (flags & (FLAGS_PLUS | FLAGS_SPACE)))) {
    2b88:	120000ec 	and	w12, w7, #0x1
        while ((len < prec) && (len < PRINTF_NTOA_BUFFER_SIZE)) {
    2b8c:	0a080148 	and	w8, w10, w8
        if (width && (flags & FLAGS_ZEROPAD) && (negative || (flags & (FLAGS_PLUS | FLAGS_SPACE)))) {
    2b90:	34fff686 	cbz	w6, 2a60 <_ntoa_long+0x60>
    2b94:	3400048c 	cbz	w12, 2c24 <_ntoa_long+0x224>
    2b98:	35000072 	cbnz	w18, 2ba4 <_ntoa_long+0x1a4>
    2b9c:	721e04ff 	tst	w7, #0xc
    2ba0:	54000040 	b.eq	2ba8 <_ntoa_long+0x1a8>  // b.none
            width--;
    2ba4:	510004c6 	sub	w6, w6, #0x1
        while ((len < prec) && (len < PRINTF_NTOA_BUFFER_SIZE)) {
    2ba8:	35fff5e8 	cbnz	w8, 2a64 <_ntoa_long+0x64>
    2bac:	17ffffb8 	b	2a8c <_ntoa_long+0x8c>
    if (flags & FLAGS_HASH) {
    2bb0:	121c0111 	and	w17, w8, #0x10
    2bb4:	2a0803e7 	mov	w7, w8
    2bb8:	17ffffd7 	b	2b14 <_ntoa_long+0x114>
        if (!(flags & FLAGS_PRECISION) && len && ((len == prec) || (len == width))) {
    2bbc:	eb2f40bf 	cmp	x5, w15, uxtw
    2bc0:	54000480 	b.eq	2c50 <_ntoa_long+0x250>  // b.none
    2bc4:	eb2640bf 	cmp	x5, w6, uxtw
    2bc8:	54000440 	b.eq	2c50 <_ntoa_long+0x250>  // b.none
    2bcc:	d503201f 	nop
        } else if ((base == 2U) && (len < PRINTF_NTOA_BUFFER_SIZE)) {
    2bd0:	f1007cbf 	cmp	x5, #0x1f
    2bd4:	1a9f87e8 	cset	w8, ls  // ls = plast
        if ((base == 16U) && !(flags & FLAGS_UPPERCASE) && (len < PRINTF_NTOA_BUFFER_SIZE)) {
    2bd8:	f100417f 	cmp	x11, #0x10
    2bdc:	54000480 	b.eq	2c6c <_ntoa_long+0x26c>  // b.none
        } else if ((base == 2U) && (len < PRINTF_NTOA_BUFFER_SIZE)) {
    2be0:	7100011f 	cmp	w8, #0x0
    2be4:	7a421960 	ccmp	w11, #0x2, #0x0, ne  // ne = any
    2be8:	54000081 	b.ne	2bf8 <_ntoa_long+0x1f8>  // b.any
            buf[len++] = 'b';
    2bec:	52800c48 	mov	w8, #0x62                  	// #98
    2bf0:	38256888 	strb	w8, [x4, x5]
    2bf4:	910004a5 	add	x5, x5, #0x1
        if (len < PRINTF_NTOA_BUFFER_SIZE) {
    2bf8:	f10080bf 	cmp	x5, #0x20
    2bfc:	54fff721 	b.ne	2ae0 <_ntoa_long+0xe0>  // b.any
    return _out_rev(out, buffer, idx, maxlen, buf, len, width, flags);
    2c00:	97ffff3c 	bl	28f0 <_out_rev>
}
    2c04:	a8c37bfd 	ldp	x29, x30, [sp], #48
    2c08:	d65f03c0 	ret
        } else if (flags & FLAGS_PLUS) {
    2c0c:	37100167 	tbnz	w7, #2, 2c38 <_ntoa_long+0x238>
        } else if (flags & FLAGS_SPACE) {
    2c10:	361ff7a7 	tbz	w7, #3, 2b04 <_ntoa_long+0x104>
            buf[len++] = ' ';
    2c14:	52800408 	mov	w8, #0x20                  	// #32
    2c18:	38256888 	strb	w8, [x4, x5]
    2c1c:	910004a5 	add	x5, x5, #0x1
    2c20:	17ffffb9 	b	2b04 <_ntoa_long+0x104>
        while ((len < prec) && (len < PRINTF_NTOA_BUFFER_SIZE)) {
    2c24:	35fff208 	cbnz	w8, 2a64 <_ntoa_long+0x64>
    2c28:	17ffffa4 	b	2ab8 <_ntoa_long+0xb8>
    2c2c:	910043e4 	add	x4, sp, #0x10
    size_t len = 0U;
    2c30:	d2800005 	mov	x5, #0x0                   	// #0
    2c34:	17ffffb0 	b	2af4 <_ntoa_long+0xf4>
            buf[len++] = '+'; // ignore the space if the '+' exists
    2c38:	52800568 	mov	w8, #0x2b                  	// #43
    2c3c:	38256888 	strb	w8, [x4, x5]
    2c40:	910004a5 	add	x5, x5, #0x1
    return _out_rev(out, buffer, idx, maxlen, buf, len, width, flags);
    2c44:	97ffff2b 	bl	28f0 <_out_rev>
}
    2c48:	a8c37bfd 	ldp	x29, x30, [sp], #48
    2c4c:	d65f03c0 	ret
            if (len && (base == 16U)) {
    2c50:	f10004aa 	subs	x10, x5, #0x1
                len--;
    2c54:	d10008a5 	sub	x5, x5, #0x2
            if (len && (base == 16U)) {
    2c58:	1a9f07e8 	cset	w8, ne  // ne = any
    2c5c:	7100417f 	cmp	w11, #0x10
    2c60:	1a9f17e9 	cset	w9, eq  // eq = none
    2c64:	6a090108 	ands	w8, w8, w9
    2c68:	54000160 	b.eq	2c94 <_ntoa_long+0x294>  // b.none
        if ((base == 16U) && !(flags & FLAGS_UPPERCASE) && (len < PRINTF_NTOA_BUFFER_SIZE)) {
    2c6c:	721b00e9 	ands	w9, w7, #0x20
    2c70:	7a400904 	ccmp	w8, #0x0, #0x4, eq  // eq = none
    2c74:	54000141 	b.ne	2c9c <_ntoa_long+0x29c>  // b.any
        } else if ((base == 16U) && (flags & FLAGS_UPPERCASE) && (len < PRINTF_NTOA_BUFFER_SIZE)) {
    2c78:	7100013f 	cmp	w9, #0x0
    2c7c:	7a401904 	ccmp	w8, #0x0, #0x4, ne  // ne = any
    2c80:	54fffbc0 	b.eq	2bf8 <_ntoa_long+0x1f8>  // b.none
            buf[len++] = 'X';
    2c84:	52800b08 	mov	w8, #0x58                  	// #88
    2c88:	38256888 	strb	w8, [x4, x5]
    2c8c:	910004a5 	add	x5, x5, #0x1
    2c90:	17ffffda 	b	2bf8 <_ntoa_long+0x1f8>
            len--;
    2c94:	aa0a03e5 	mov	x5, x10
    2c98:	17ffffce 	b	2bd0 <_ntoa_long+0x1d0>
            buf[len++] = 'x';
    2c9c:	52800f08 	mov	w8, #0x78                  	// #120
    2ca0:	38256888 	strb	w8, [x4, x5]
    2ca4:	910004a5 	add	x5, x5, #0x1
    2ca8:	17ffffd4 	b	2bf8 <_ntoa_long+0x1f8>
        if ((base == 16U) && !(flags & FLAGS_UPPERCASE) && (len < PRINTF_NTOA_BUFFER_SIZE)) {
    2cac:	52800028 	mov	w8, #0x1                   	// #1
    2cb0:	17ffffef 	b	2c6c <_ntoa_long+0x26c>
            buf[len++] = '0';
    2cb4:	52800608 	mov	w8, #0x30                  	// #48
    2cb8:	d2800025 	mov	x5, #0x1                   	// #1
    2cbc:	390043e8 	strb	w8, [sp, #16]
    if (len < PRINTF_NTOA_BUFFER_SIZE) {
    2cc0:	17ffff8d 	b	2af4 <_ntoa_long+0xf4>
    2cc4:	d503201f 	nop
    2cc8:	d503201f 	nop
    2ccc:	d503201f 	nop

0000000000002cd0 <_etoa>:
}

#if defined(PRINTF_SUPPORT_EXPONENTIAL)
// internal ftoa variant for exponential floating-point type, contributed by Martijn Jasperse <m.jasperse@gmail.com>
static size_t _etoa(out_fct_type out, char* buffer, size_t idx, size_t maxlen, double value, unsigned int prec, unsigned int width, unsigned int flags)
{
    2cd0:	d10203ff 	sub	sp, sp, #0x80
    // check for NaN and special values
    if ((value != value) || (value > DBL_MAX) || (value < -DBL_MAX)) {
    2cd4:	1e602000 	fcmp	d0, d0
{
    2cd8:	a9017bfd 	stp	x29, x30, [sp, #16]
    2cdc:	910043fd 	add	x29, sp, #0x10
    2ce0:	a90253f3 	stp	x19, x20, [sp, #32]
    2ce4:	aa0203f3 	mov	x19, x2
    2ce8:	2a0603f4 	mov	w20, w6
    2cec:	a9035bf5 	stp	x21, x22, [sp, #48]
    2cf0:	2a0503f6 	mov	w22, w5
    2cf4:	a90463f7 	stp	x23, x24, [sp, #64]
    2cf8:	aa0003f7 	mov	x23, x0
    2cfc:	a9056bf9 	stp	x25, x26, [sp, #80]
    2d00:	aa0103f9 	mov	x25, x1
    2d04:	a90673fb 	stp	x27, x28, [sp, #96]
    2d08:	aa0303fb 	mov	x27, x3
    if ((value != value) || (value > DBL_MAX) || (value < -DBL_MAX)) {
    2d0c:	54001361 	b.ne	2f78 <_etoa+0x2a8>  // b.any
    2d10:	92f00200 	mov	x0, #0x7fefffffffffffff    	// #9218868437227405311
    2d14:	9e670001 	fmov	d1, x0
    2d18:	1e612010 	fcmpe	d0, d1
    2d1c:	540012ec 	b.gt	2f78 <_etoa+0x2a8>
    2d20:	92e00200 	mov	x0, #0xffefffffffffffff    	// #-4503599627370497
    2d24:	9e670001 	fmov	d1, x0
    2d28:	1e612010 	fcmpe	d0, d1
    2d2c:	54001264 	b.mi	2f78 <_etoa+0x2a8>  // b.first
        return _ftoa(out, buffer, idx, maxlen, value, prec, width, flags);
    }

    // determine the sign
    const bool negative = value < 0;
    if (negative) {
    2d30:	1e602018 	fcmpe	d0, #0.0
    2d34:	1e614007 	fneg	d7, d0

    conv.F = value;
    int exp2 = (int)((conv.U >> 52U) & 0x07FFU) - 1023; // effectively log2
    conv.U = (conv.U & ((1ULL << 52U) - 1U)) | (1023ULL << 52U); // drop the exponent so conv.F is now in [1,2)
    // now approximate log10 from the log2 integer part and an expansion of ln around 1.5
    int expval = (int)(0.1760912590558 + exp2 * 0.301029995663981 + (conv.F - 1.5) * 0.289529654602168);
    2d38:	90000060 	adrp	x0, e000 <__func__.0+0x280>
    2d3c:	fd404c17 	ldr	d23, [x0, #152]
    2d40:	90000060 	adrp	x0, e000 <__func__.0+0x280>
    2d44:	fd405001 	ldr	d1, [x0, #160]
    2d48:	90000060 	adrp	x0, e000 <__func__.0+0x280>
    2d4c:	fd405416 	ldr	d22, [x0, #168]
    2d50:	1e604ce7 	fcsel	d7, d7, d0, mi  // mi = first
    // now we want to compute 10^expval but we want to be sure it won't overflow
    exp2 = (int)(expval * 3.321928094887362 + 0.5);
    2d54:	90000060 	adrp	x0, e000 <__func__.0+0x280>
    2d58:	fd405806 	ldr	d6, [x0, #176]
    const double z = expval * 2.302585092994046 - exp2 * 0.6931471805599453;
    2d5c:	90000060 	adrp	x0, e000 <__func__.0+0x280>
    2d60:	fd405c15 	ldr	d21, [x0, #184]
    2d64:	90000060 	adrp	x0, e000 <__func__.0+0x280>
    2d68:	fd406014 	ldr	d20, [x0, #192]
    int expval = (int)(0.1760912590558 + exp2 * 0.301029995663981 + (conv.F - 1.5) * 0.289529654602168);
    2d6c:	1e6f1018 	fmov	d24, #1.500000000000000000e+00
    conv.F = value;
    2d70:	9e6600e1 	fmov	x1, d7
    exp2 = (int)(expval * 3.321928094887362 + 0.5);
    2d74:	1e6c1003 	fmov	d3, #5.000000000000000000e-01
    const double z2 = z * z;
    conv.U = (uint64_t)(exp2 + 1023) << 52U;
    // compute exp(z) using continued fractions, see https://en.wikipedia.org/wiki/Exponential_function#Continued_fractions_for_ex
    conv.F *= 1 + 2 * z / (2 - z + (z2 / (6 + (z2 / (10 + z2 / 14)))));
    2d78:	1e659002 	fmov	d2, #1.400000000000000000e+01
    2d7c:	1e649011 	fmov	d17, #1.000000000000000000e+01
    2d80:	1e631013 	fmov	d19, #6.000000000000000000e+00
    2d84:	1e601010 	fmov	d16, #2.000000000000000000e+00
    2d88:	1e6e1012 	fmov	d18, #1.000000000000000000e+00
        prec = PRINTF_DEFAULT_FLOAT_PRECISION;
    2d8c:	721600c3 	ands	w3, w6, #0x400
    conv.U = (conv.U & ((1ULL << 52U) - 1U)) | (1023ULL << 52U); // drop the exponent so conv.F is now in [1,2)
    2d90:	9240cc20 	and	x0, x1, #0xfffffffffffff
    int exp2 = (int)((conv.U >> 52U) & 0x07FFU) - 1023; // effectively log2
    2d94:	d374f821 	ubfx	x1, x1, #52, #11
    2d98:	510ffc21 	sub	w1, w1, #0x3ff
    conv.U = (conv.U & ((1ULL << 52U) - 1U)) | (1023ULL << 52U); // drop the exponent so conv.F is now in [1,2)
    2d9c:	b24c2400 	orr	x0, x0, #0x3ff0000000000000
    2da0:	9e670005 	fmov	d5, x0
        prec = PRINTF_DEFAULT_FLOAT_PRECISION;
    2da4:	528000c2 	mov	w2, #0x6                   	// #6
    int expval = (int)(0.1760912590558 + exp2 * 0.301029995663981 + (conv.F - 1.5) * 0.289529654602168);
    2da8:	1e620024 	scvtf	d4, w1
        prec = PRINTF_DEFAULT_FLOAT_PRECISION;
    2dac:	1a821084 	csel	w4, w4, w2, ne  // ne = any
    int expval = (int)(0.1760912590558 + exp2 * 0.301029995663981 + (conv.F - 1.5) * 0.289529654602168);
    2db0:	1e7838a5 	fsub	d5, d5, d24
    2db4:	1e770884 	fmul	d4, d4, d23
    2db8:	1e7608a5 	fmul	d5, d5, d22
    2dbc:	1e612884 	fadd	d4, d4, d1
    2dc0:	1e652884 	fadd	d4, d4, d5
    2dc4:	1e780098 	fcvtzs	w24, d4
    exp2 = (int)(expval * 3.321928094887362 + 0.5);
    2dc8:	1e620301 	scvtf	d1, w24
    2dcc:	1e660824 	fmul	d4, d1, d6
    const double z = expval * 2.302585092994046 - exp2 * 0.6931471805599453;
    2dd0:	1e750821 	fmul	d1, d1, d21
    exp2 = (int)(expval * 3.321928094887362 + 0.5);
    2dd4:	1e632884 	fadd	d4, d4, d3
    2dd8:	1e780080 	fcvtzs	w0, d4
    const double z = expval * 2.302585092994046 - exp2 * 0.6931471805599453;
    2ddc:	1e620003 	scvtf	d3, w0
    conv.U = (uint64_t)(exp2 + 1023) << 52U;
    2de0:	110ffc00 	add	w0, w0, #0x3ff
    2de4:	9e670004 	fmov	d4, x0
    2de8:	5f745484 	shl	d4, d4, #52
    const double z = expval * 2.302585092994046 - exp2 * 0.6931471805599453;
    2dec:	1e740863 	fmul	d3, d3, d20
    2df0:	1e633821 	fsub	d1, d1, d3
    const double z2 = z * z;
    2df4:	1e610823 	fmul	d3, d1, d1
    conv.F *= 1 + 2 * z / (2 - z + (z2 / (6 + (z2 / (10 + z2 / 14)))));
    2df8:	1e613a05 	fsub	d5, d16, d1
    2dfc:	1e612821 	fadd	d1, d1, d1
    2e00:	1e621862 	fdiv	d2, d3, d2
    2e04:	1e712842 	fadd	d2, d2, d17
    2e08:	1e621862 	fdiv	d2, d3, d2
    2e0c:	1e732842 	fadd	d2, d2, d19
    2e10:	1e621863 	fdiv	d3, d3, d2
    2e14:	1e652863 	fadd	d3, d3, d5
    2e18:	1e631821 	fdiv	d1, d1, d3
    2e1c:	1e722821 	fadd	d1, d1, d18
    2e20:	1e640821 	fmul	d1, d1, d4
    // correct for rounding errors
    if (value < conv.F) {
    2e24:	1e672030 	fcmpe	d1, d7
    2e28:	54000c4c 	b.gt	2fb0 <_etoa+0x2e0>
        expval--;
        conv.F /= 10;
    }

    // the exponent format is "%+03d" and largest value is "307", so set aside 4-5 characters
    unsigned int minwidth = ((expval < 100) && (expval > -100)) ? 4U : 5U;
    2e2c:	11018f00 	add	w0, w24, #0x63
    2e30:	7103181f 	cmp	w0, #0xc6
    2e34:	1a9f97fc 	cset	w28, hi  // hi = pmore
    2e38:	1100139c 	add	w28, w28, #0x4

    // in "%g" mode, "prec" is the number of *significant figures* not decimals
    if (flags & FLAGS_ADAPT_EXP) {
    2e3c:	36580134 	tbz	w20, #11, 2e60 <_etoa+0x190>
        // do we want to fall-back to "%f" mode?
        if ((value >= 1e-4) && (value < 1e6)) {
    2e40:	90000060 	adrp	x0, e000 <__func__.0+0x280>
    2e44:	fd406402 	ldr	d2, [x0, #200]
    2e48:	1e6220f0 	fcmpe	d7, d2
    2e4c:	54000d2a 	b.ge	2ff0 <_etoa+0x320>  // b.tcont
            // no characters in exponent
            minwidth = 0U;
            expval = 0;
        } else {
            // we use one sigfig for the whole part
            if ((prec > 0) && (flags & FLAGS_PRECISION)) {
    2e50:	34000084 	cbz	w4, 2e60 <_etoa+0x190>
                --prec;
    2e54:	7100007f 	cmp	w3, #0x0
    2e58:	1a9f07e0 	cset	w0, ne  // ne = any
    2e5c:	4b000084 	sub	w4, w4, w0

    // will everything fit?
    unsigned int fwidth = width;
    if (width > minwidth) {
        // we didn't fall-back so subtract the characters required for the exponent
        fwidth -= minwidth;
    2e60:	6b16039f 	cmp	w28, w22
    } else {
        // not enough characters, so go back to default sizing
        fwidth = 0U;
    }
    if ((flags & FLAGS_LEFT) && minwidth) {
    2e64:	121f0280 	and	w0, w20, #0x2
        fwidth -= minwidth;
    2e68:	4b1c02c5 	sub	w5, w22, w28
    2e6c:	5280003a 	mov	w26, #0x1                   	// #1
    2e70:	1a9f30a5 	csel	w5, w5, wzr, cc  // cc = lo, ul, last
    if ((flags & FLAGS_LEFT) && minwidth) {
    2e74:	7100001f 	cmp	w0, #0x0
    2e78:	1a9f07e0 	cset	w0, ne  // ne = any
    2e7c:	b9007fe0 	str	w0, [sp, #124]
    2e80:	1a9f00a5 	csel	w5, w5, wzr, eq  // eq = none
        // if we're padding on the right, DON'T pad the floating part
        fwidth = 0U;
    }

    // rescale the float value
    if (expval) {
    2e84:	34000058 	cbz	w24, 2e8c <_etoa+0x1bc>
        value /= conv.F;
    2e88:	1e6118e7 	fdiv	d7, d7, d1
    }

    // output the floating part
    const size_t start_idx = idx;
    idx = _ftoa(out, buffer, idx, maxlen, negative ? -value : value, prec, fwidth, flags & ~FLAGS_ADAPT_EXP);
    2e8c:	1e602018 	fcmpe	d0, #0.0
    2e90:	54000ac4 	b.mi	2fe8 <_etoa+0x318>  // b.first
    2e94:	1e6040e0 	fmov	d0, d7
    2e98:	12147a86 	and	w6, w20, #0xfffff7ff
    2e9c:	aa1b03e3 	mov	x3, x27
    2ea0:	aa1303e2 	mov	x2, x19
    2ea4:	aa1903e1 	mov	x1, x25
    2ea8:	aa1703e0 	mov	x0, x23
    2eac:	94000071 	bl	3070 <_ftoa>
    2eb0:	aa0003f5 	mov	x21, x0

    // output the exponent part
    if (minwidth) {
    2eb4:	3400051a 	cbz	w26, 2f54 <_etoa+0x284>
        // output the exponential symbol
        out((flags & FLAGS_UPPERCASE) ? 'E' : 'e', buffer, idx++, maxlen);
    2eb8:	f27b029f 	tst	x20, #0x20
    2ebc:	528008a1 	mov	w1, #0x45                  	// #69
    2ec0:	aa1503e2 	mov	x2, x21
    2ec4:	aa1b03e3 	mov	x3, x27
    2ec8:	52800ca0 	mov	w0, #0x65                  	// #101
    2ecc:	1a801020 	csel	w0, w1, w0, ne  // ne = any
    2ed0:	aa1903e1 	mov	x1, x25
    2ed4:	d63f02e0 	blr	x23
        // output the exponent value
        idx = _ntoa_long(out, buffer, idx, maxlen, (expval < 0) ? -expval : expval, expval < 0, 10, 0, minwidth - 1, FLAGS_ZEROPAD | FLAGS_PLUS);
    2ed8:	7100031f 	cmp	w24, #0x0
    2edc:	528000a0 	mov	w0, #0x5                   	// #5
    2ee0:	5a98a704 	cneg	w4, w24, lt  // lt = tstop
    2ee4:	5100079c 	sub	w28, w28, #0x1
    2ee8:	b90003fc 	str	w28, [sp]
        out((flags & FLAGS_UPPERCASE) ? 'E' : 'e', buffer, idx++, maxlen);
    2eec:	910006a2 	add	x2, x21, #0x1
        idx = _ntoa_long(out, buffer, idx, maxlen, (expval < 0) ? -expval : expval, expval < 0, 10, 0, minwidth - 1, FLAGS_ZEROPAD | FLAGS_PLUS);
    2ef0:	b9000be0 	str	w0, [sp, #8]
    2ef4:	93407c84 	sxtw	x4, w4
    2ef8:	531f7f05 	lsr	w5, w24, #31
    2efc:	aa1b03e3 	mov	x3, x27
    2f00:	aa1903e1 	mov	x1, x25
    2f04:	aa1703e0 	mov	x0, x23
    2f08:	52800007 	mov	w7, #0x0                   	// #0
    2f0c:	d2800146 	mov	x6, #0xa                   	// #10
    2f10:	97fffebc 	bl	2a00 <_ntoa_long>
    2f14:	aa0003f5 	mov	x21, x0
        // might need to right-pad spaces
        if (flags & FLAGS_LEFT) {
    2f18:	b9407fe0 	ldr	w0, [sp, #124]
    2f1c:	340001c0 	cbz	w0, 2f54 <_etoa+0x284>
            while (idx - start_idx < width)
    2f20:	cb1302b3 	sub	x19, x21, x19
    2f24:	eb1302df 	cmp	x22, x19
    2f28:	54000169 	b.ls	2f54 <_etoa+0x284>  // b.plast
    2f2c:	d503201f 	nop
                out(' ', buffer, idx++, maxlen);
    2f30:	aa1503e2 	mov	x2, x21
            while (idx - start_idx < width)
    2f34:	91000673 	add	x19, x19, #0x1
                out(' ', buffer, idx++, maxlen);
    2f38:	aa1b03e3 	mov	x3, x27
    2f3c:	aa1903e1 	mov	x1, x25
    2f40:	52800400 	mov	w0, #0x20                  	// #32
    2f44:	d63f02e0 	blr	x23
    2f48:	910006b5 	add	x21, x21, #0x1
            while (idx - start_idx < width)
    2f4c:	eb1302df 	cmp	x22, x19
    2f50:	54ffff08 	b.hi	2f30 <_etoa+0x260>  // b.pmore
        }
    }
    return idx;
}
    2f54:	aa1503e0 	mov	x0, x21
    2f58:	a9417bfd 	ldp	x29, x30, [sp, #16]
    2f5c:	a94253f3 	ldp	x19, x20, [sp, #32]
    2f60:	a9435bf5 	ldp	x21, x22, [sp, #48]
    2f64:	a94463f7 	ldp	x23, x24, [sp, #64]
    2f68:	a9456bf9 	ldp	x25, x26, [sp, #80]
    2f6c:	a94673fb 	ldp	x27, x28, [sp, #96]
    2f70:	910203ff 	add	sp, sp, #0x80
    2f74:	d65f03c0 	ret
        return _ftoa(out, buffer, idx, maxlen, value, prec, width, flags);
    2f78:	2a1403e6 	mov	w6, w20
    2f7c:	2a1603e5 	mov	w5, w22
    2f80:	aa1b03e3 	mov	x3, x27
    2f84:	aa1303e2 	mov	x2, x19
    2f88:	aa1903e1 	mov	x1, x25
    2f8c:	aa1703e0 	mov	x0, x23
}
    2f90:	a9417bfd 	ldp	x29, x30, [sp, #16]
    2f94:	a94253f3 	ldp	x19, x20, [sp, #32]
    2f98:	a9435bf5 	ldp	x21, x22, [sp, #48]
    2f9c:	a94463f7 	ldp	x23, x24, [sp, #64]
    2fa0:	a9456bf9 	ldp	x25, x26, [sp, #80]
    2fa4:	a94673fb 	ldp	x27, x28, [sp, #96]
    2fa8:	910203ff 	add	sp, sp, #0x80
    idx = _ftoa(out, buffer, idx, maxlen, negative ? -value : value, prec, fwidth, flags & ~FLAGS_ADAPT_EXP);
    2fac:	14000031 	b	3070 <_ftoa>
        conv.F /= 10;
    2fb0:	1e711821 	fdiv	d1, d1, d17
        expval--;
    2fb4:	51000718 	sub	w24, w24, #0x1
    unsigned int minwidth = ((expval < 100) && (expval > -100)) ? 4U : 5U;
    2fb8:	11018f00 	add	w0, w24, #0x63
    2fbc:	7103181f 	cmp	w0, #0xc6
    2fc0:	1a9f97fc 	cset	w28, hi  // hi = pmore
    2fc4:	1100139c 	add	w28, w28, #0x4
    if (flags & FLAGS_ADAPT_EXP) {
    2fc8:	365ff4d4 	tbz	w20, #11, 2e60 <_etoa+0x190>
    2fcc:	17ffff9d 	b	2e40 <_etoa+0x170>
            flags |= FLAGS_PRECISION; // make sure _ftoa respects precision
    2fd0:	2a0003f4 	mov	w20, w0
        fwidth = 0U;
    2fd4:	52800005 	mov	w5, #0x0                   	// #0
            minwidth = 0U;
    2fd8:	5280001c 	mov	w28, #0x0                   	// #0
            expval = 0;
    2fdc:	52800018 	mov	w24, #0x0                   	// #0
    if ((flags & FLAGS_LEFT) && minwidth) {
    2fe0:	5280001a 	mov	w26, #0x0                   	// #0
    2fe4:	b9007fff 	str	wzr, [sp, #124]
    idx = _ftoa(out, buffer, idx, maxlen, negative ? -value : value, prec, fwidth, flags & ~FLAGS_ADAPT_EXP);
    2fe8:	1e6140e7 	fneg	d7, d7
    2fec:	17ffffaa 	b	2e94 <_etoa+0x1c4>
        if ((value >= 1e-4) && (value < 1e6)) {
    2ff0:	d2d09000 	mov	x0, #0x848000000000        	// #145685290680320
    2ff4:	f2e825c0 	movk	x0, #0x412e, lsl #48
    2ff8:	9e670002 	fmov	d2, x0
    2ffc:	1e6220f0 	fcmpe	d7, d2
    3000:	54000044 	b.mi	3008 <_etoa+0x338>  // b.first
    3004:	17ffff93 	b	2e50 <_etoa+0x180>
                prec = (unsigned)((int)prec - expval - 1);
    3008:	6b180080 	subs	w0, w4, w24
    300c:	51000404 	sub	w4, w0, #0x1
            flags |= FLAGS_PRECISION; // make sure _ftoa respects precision
    3010:	32160280 	orr	w0, w20, #0x400
                prec = (unsigned)((int)prec - expval - 1);
    3014:	1a9fc084 	csel	w4, w4, wzr, gt
    if (width > minwidth) {
    3018:	35000196 	cbnz	w22, 3048 <_etoa+0x378>
    idx = _ftoa(out, buffer, idx, maxlen, negative ? -value : value, prec, fwidth, flags & ~FLAGS_ADAPT_EXP);
    301c:	1e602018 	fcmpe	d0, #0.0
    3020:	54fffd84 	b.mi	2fd0 <_etoa+0x300>  // b.first
    3024:	12147a86 	and	w6, w20, #0xfffff7ff
    3028:	1e6040e0 	fmov	d0, d7
    302c:	321600c6 	orr	w6, w6, #0x400
    3030:	aa1b03e3 	mov	x3, x27
    3034:	aa1303e2 	mov	x2, x19
    3038:	aa1903e1 	mov	x1, x25
    303c:	aa1703e0 	mov	x0, x23
    3040:	52800005 	mov	w5, #0x0                   	// #0
    3044:	17ffffd3 	b	2f90 <_etoa+0x2c0>
            flags |= FLAGS_PRECISION; // make sure _ftoa respects precision
    3048:	2a0003f4 	mov	w20, w0
    if (width > minwidth) {
    304c:	2a1603e5 	mov	w5, w22
    3050:	5280001a 	mov	w26, #0x0                   	// #0
    3054:	52800018 	mov	w24, #0x0                   	// #0
            minwidth = 0U;
    3058:	5280001c 	mov	w28, #0x0                   	// #0
    if (width > minwidth) {
    305c:	b9007fff 	str	wzr, [sp, #124]
    3060:	17ffff8b 	b	2e8c <_etoa+0x1bc>
    3064:	d503201f 	nop
    3068:	d503201f 	nop
    306c:	d503201f 	nop

0000000000003070 <_ftoa>:
    if (value != value)
    3070:	1e602000 	fcmp	d0, d0
{
    3074:	2a0603e7 	mov	w7, w6
    if (value != value)
    3078:	54000e01 	b.ne	3238 <_ftoa+0x1c8>  // b.any
    if (value < -DBL_MAX)
    307c:	92e00206 	mov	x6, #0xffefffffffffffff    	// #-4503599627370497
    3080:	9e6700c1 	fmov	d1, x6
    3084:	1e612010 	fcmpe	d0, d1
    3088:	54001184 	b.mi	32b8 <_ftoa+0x248>  // b.first
    308c:	aa0003ef 	mov	x15, x0
    if (value > DBL_MAX)
    3090:	92f00200 	mov	x0, #0x7fefffffffffffff    	// #9218868437227405311
    3094:	9e670001 	fmov	d1, x0
    3098:	aa0103f0 	mov	x16, x1
    309c:	aa0203f1 	mov	x17, x2
    30a0:	aa0303f2 	mov	x18, x3
    30a4:	1e612010 	fcmpe	d0, d1
    30a8:	54000b2c 	b.gt	320c <_ftoa+0x19c>
    if ((value > PRINTF_MAX_FLOAT) || (value < -PRINTF_MAX_FLOAT)) {
    30ac:	d2d9aca0 	mov	x0, #0xcd6500000000        	// #225833675390976
    30b0:	f2e839a0 	movk	x0, #0x41cd, lsl #48
    30b4:	9e670001 	fmov	d1, x0
    30b8:	1e612010 	fcmpe	d0, d1
    30bc:	54000f2c 	b.gt	32a0 <_ftoa+0x230>
    30c0:	d2d9aca0 	mov	x0, #0xcd6500000000        	// #225833675390976
    30c4:	f2f839a0 	movk	x0, #0xc1cd, lsl #48
    30c8:	9e670001 	fmov	d1, x0
    30cc:	1e612010 	fcmpe	d0, d1
    30d0:	54000e84 	b.mi	32a0 <_ftoa+0x230>  // b.first
    if (value < 0) {
    30d4:	1e602018 	fcmpe	d0, #0.0
{
    30d8:	a9bd7bfd 	stp	x29, x30, [sp, #-48]!
    30dc:	910003fd 	mov	x29, sp
    if (value < 0) {
    30e0:	54000ca4 	b.mi	3274 <_ftoa+0x204>  // b.first
    bool negative = false;
    30e4:	52800003 	mov	w3, #0x0                   	// #0
    if (!(flags & FLAGS_PRECISION)) {
    30e8:	36500ce7 	tbz	w7, #10, 3284 <_ftoa+0x214>
    while ((len < PRINTF_FTOA_BUFFER_SIZE) && (prec > 9U)) {
    30ec:	7100249f 	cmp	w4, #0x9
    30f0:	910043ec 	add	x12, sp, #0x10
    30f4:	d2800008 	mov	x8, #0x0                   	// #0
        buf[len++] = '0';
    30f8:	52800601 	mov	w1, #0x30                  	// #48
    while ((len < PRINTF_FTOA_BUFFER_SIZE) && (prec > 9U)) {
    30fc:	54001929 	b.ls	3420 <_ftoa+0x3b0>  // b.plast
        buf[len++] = '0';
    3100:	91000508 	add	x8, x8, #0x1
        prec--;
    3104:	51000484 	sub	w4, w4, #0x1
        buf[len++] = '0';
    3108:	8b080180 	add	x0, x12, x8
    while ((len < PRINTF_FTOA_BUFFER_SIZE) && (prec > 9U)) {
    310c:	f1007d1f 	cmp	x8, #0x1f
    3110:	7a499880 	ccmp	w4, #0x9, #0x0, ls  // ls = plast
        buf[len++] = '0';
    3114:	381ff001 	sturb	w1, [x0, #-1]
    while ((len < PRINTF_FTOA_BUFFER_SIZE) && (prec > 9U)) {
    3118:	54ffff48 	b.hi	3100 <_ftoa+0x90>  // b.pmore
    311c:	d2d9aca0 	mov	x0, #0xcd6500000000        	// #225833675390976
    3120:	f2e839a0 	movk	x0, #0x41cd, lsl #48
    3124:	9e670002 	fmov	d2, x0
    int whole = (int)value;
    3128:	1e78000a 	fcvtzs	w10, d0
    if (diff > 0.5) {
    312c:	1e6c1003 	fmov	d3, #5.000000000000000000e-01
    double tmp = (value - whole) * pow10[prec];
    3130:	1e620141 	scvtf	d1, w10
    3134:	1e613801 	fsub	d1, d0, d1
    3138:	1e620821 	fmul	d1, d1, d2
    unsigned long frac = (unsigned long)tmp;
    313c:	9e79002e 	fcvtzu	x14, d1
    diff = tmp - frac;
    3140:	9e6301c4 	ucvtf	d4, x14
    3144:	1e643821 	fsub	d1, d1, d4
    if (diff > 0.5) {
    3148:	1e632030 	fcmpe	d1, d3
    314c:	5400112c 	b.gt	3370 <_ftoa+0x300>
    } else if (diff < 0.5) {
    3150:	54000084 	b.mi	3160 <_ftoa+0xf0>  // b.first
    } else if ((frac == 0U) || (frac & 1U)) {
    3154:	b500154e 	cbnz	x14, 33fc <_ftoa+0x38c>
        ++frac;
    3158:	910005ce 	add	x14, x14, #0x1
    315c:	d503201f 	nop
    if (prec == 0U) {
    3160:	35000b64 	cbnz	w4, 32cc <_ftoa+0x25c>
        diff = value - (double)whole;
    3164:	1e620141 	scvtf	d1, w10
        if ((!(diff < 0.5) || (diff > 0.5)) && (whole & 1)) {
    3168:	1e6c1002 	fmov	d2, #5.000000000000000000e-01
        diff = value - (double)whole;
    316c:	1e613800 	fsub	d0, d0, d1
        if ((!(diff < 0.5) || (diff > 0.5)) && (whole & 1)) {
    3170:	1e622010 	fcmpe	d0, d2
    3174:	540011a4 	b.mi	33a8 <_ftoa+0x338>  // b.first
            ++whole;
    3178:	12000140 	and	w0, w10, #0x1
    317c:	0b00014a 	add	w10, w10, w0
        buf[len++] = (char)(48 + (whole % 10));
    3180:	528ccce1 	mov	w1, #0x6667                	// #26215
    3184:	72acccc1 	movk	w1, #0x6666, lsl #16
    3188:	52800142 	mov	w2, #0xa                   	// #10
    318c:	d503201f 	nop
    3190:	9b217d49 	smull	x9, w10, w1
    while (len < PRINTF_FTOA_BUFFER_SIZE) {
    3194:	f100811f 	cmp	x8, #0x20
    3198:	54000c20 	b.eq	331c <_ftoa+0x2ac>  // b.none
        buf[len++] = (char)(48 + (whole % 10));
    319c:	9362fd29 	asr	x9, x9, #34
    31a0:	91000508 	add	x8, x8, #0x1
    31a4:	4b8a7d29 	sub	w9, w9, w10, asr #31
    31a8:	8b080180 	add	x0, x12, x8
    31ac:	1b02a92b 	msub	w11, w9, w2, w10
        if (!(whole /= 10)) {
    31b0:	2a0903ea 	mov	w10, w9
        buf[len++] = (char)(48 + (whole % 10));
    31b4:	1100c169 	add	w9, w11, #0x30
    31b8:	381ff009 	sturb	w9, [x0, #-1]
        if (!(whole /= 10)) {
    31bc:	35fffeaa 	cbnz	w10, 3190 <_ftoa+0x120>
    if (!(flags & FLAGS_LEFT) && (flags & FLAGS_ZEROPAD)) {
    31c0:	120004e0 	and	w0, w7, #0x3
    31c4:	7100041f 	cmp	w0, #0x1
    31c8:	54000b00 	b.eq	3328 <_ftoa+0x2b8>  // b.none
    if (len < PRINTF_FTOA_BUFFER_SIZE) {
    31cc:	f1007d1f 	cmp	x8, #0x1f
    31d0:	540000a8 	b.hi	31e4 <_ftoa+0x174>  // b.pmore
        if (negative) {
    31d4:	34000de3 	cbz	w3, 3390 <_ftoa+0x320>
            buf[len++] = '-';
    31d8:	528005a0 	mov	w0, #0x2d                  	// #45
    31dc:	38286980 	strb	w0, [x12, x8]
    31e0:	91000508 	add	x8, x8, #0x1
    return _out_rev(out, buffer, idx, maxlen, buf, len, width, flags);
    31e4:	2a0503e6 	mov	w6, w5
    31e8:	aa0c03e4 	mov	x4, x12
    31ec:	aa0803e5 	mov	x5, x8
    31f0:	aa1203e3 	mov	x3, x18
    31f4:	aa1103e2 	mov	x2, x17
    31f8:	aa1003e1 	mov	x1, x16
    31fc:	aa0f03e0 	mov	x0, x15
    3200:	97fffdbc 	bl	28f0 <_out_rev>
}
    3204:	a8c37bfd 	ldp	x29, x30, [sp], #48
    3208:	d65f03c0 	ret
        return _out_rev(out, buffer, idx, maxlen, (flags & FLAGS_PLUS) ? "fni+" : "fni", (flags & FLAGS_PLUS) ? 4U : 3U, width, flags);
    320c:	37100207 	tbnz	w7, #2, 324c <_ftoa+0x1dc>
    3210:	d2800060 	mov	x0, #0x3                   	// #3
    3214:	2a0503e6 	mov	w6, w5
    3218:	d0000044 	adrp	x4, d000 <__ascii_wctomb+0x30>
    321c:	913da084 	add	x4, x4, #0xf68
    3220:	aa0003e5 	mov	x5, x0
    3224:	aa1203e3 	mov	x3, x18
    3228:	aa1103e2 	mov	x2, x17
    322c:	aa1003e1 	mov	x1, x16
    3230:	aa0f03e0 	mov	x0, x15
    3234:	17fffdaf 	b	28f0 <_out_rev>
        return _out_rev(out, buffer, idx, maxlen, "nan", 3, width, flags);
    3238:	2a0503e6 	mov	w6, w5
    323c:	d0000044 	adrp	x4, d000 <__ascii_wctomb+0x30>
    3240:	d2800065 	mov	x5, #0x3                   	// #3
    3244:	913de084 	add	x4, x4, #0xf78
    3248:	17fffdaa 	b	28f0 <_out_rev>
        return _out_rev(out, buffer, idx, maxlen, (flags & FLAGS_PLUS) ? "fni+" : "fni", (flags & FLAGS_PLUS) ? 4U : 3U, width, flags);
    324c:	d2800080 	mov	x0, #0x4                   	// #4
    3250:	2a0503e6 	mov	w6, w5
    3254:	d0000044 	adrp	x4, d000 <__ascii_wctomb+0x30>
    3258:	913dc084 	add	x4, x4, #0xf70
    325c:	aa0003e5 	mov	x5, x0
    3260:	aa1203e3 	mov	x3, x18
    3264:	aa1103e2 	mov	x2, x17
    3268:	aa1003e1 	mov	x1, x16
    326c:	aa0f03e0 	mov	x0, x15
    3270:	17fffda0 	b	28f0 <_out_rev>
        value = 0 - value;
    3274:	2f00e401 	movi	d1, #0x0
        negative = true;
    3278:	52800023 	mov	w3, #0x1                   	// #1
        value = 0 - value;
    327c:	1e603820 	fsub	d0, d1, d0
    if (!(flags & FLAGS_PRECISION)) {
    3280:	3757f367 	tbnz	w7, #10, 30ec <_ftoa+0x7c>
    3284:	d2d09000 	mov	x0, #0x848000000000        	// #145685290680320
    3288:	910043ec 	add	x12, sp, #0x10
    328c:	f2e825c0 	movk	x0, #0x412e, lsl #48
    3290:	d2800008 	mov	x8, #0x0                   	// #0
    3294:	9e670002 	fmov	d2, x0
        prec = PRINTF_DEFAULT_FLOAT_PRECISION;
    3298:	528000c4 	mov	w4, #0x6                   	// #6
    329c:	17ffffa3 	b	3128 <_ftoa+0xb8>
        return _etoa(out, buffer, idx, maxlen, value, prec, width, flags);
    32a0:	2a0703e6 	mov	w6, w7
    32a4:	aa1203e3 	mov	x3, x18
    32a8:	aa1103e2 	mov	x2, x17
    32ac:	aa1003e1 	mov	x1, x16
    32b0:	aa0f03e0 	mov	x0, x15
    32b4:	17fffe87 	b	2cd0 <_etoa>
        return _out_rev(out, buffer, idx, maxlen, "fni-", 4, width, flags);
    32b8:	2a0503e6 	mov	w6, w5
    32bc:	d0000044 	adrp	x4, d000 <__ascii_wctomb+0x30>
    32c0:	d2800085 	mov	x5, #0x4                   	// #4
    32c4:	913e0084 	add	x4, x4, #0xf80
    32c8:	17fffd8a 	b	28f0 <_out_rev>
    32cc:	51008081 	sub	w1, w4, #0x20
            buf[len++] = (char)(48U + (frac % 10U));
    32d0:	b202e7e2 	mov	x2, #0xcccccccccccccccc    	// #-3689348814741910324
    32d4:	0b080021 	add	w1, w1, w8
    32d8:	f29999a2 	movk	x2, #0xcccd
    32dc:	1400000d 	b	3310 <_ftoa+0x2a0>
    32e0:	d343fd6b 	lsr	x11, x11, #3
            if (!(frac /= 10U)) {
    32e4:	f10025df 	cmp	x14, #0x9
            --count;
    32e8:	51000480 	sub	w0, w4, #0x1
            buf[len++] = (char)(48U + (frac % 10U));
    32ec:	91000509 	add	x9, x8, #0x1
    32f0:	8b0b096d 	add	x13, x11, x11, lsl #2
    32f4:	cb0d05cd 	sub	x13, x14, x13, lsl #1
            if (!(frac /= 10U)) {
    32f8:	aa0b03ee 	mov	x14, x11
            buf[len++] = (char)(48U + (frac % 10U));
    32fc:	1100c1ab 	add	w11, w13, #0x30
    3300:	3828698b 	strb	w11, [x12, x8]
            if (!(frac /= 10U)) {
    3304:	54000569 	b.ls	33b0 <_ftoa+0x340>  // b.plast
            --count;
    3308:	2a0003e4 	mov	w4, w0
            buf[len++] = (char)(48U + (frac % 10U));
    330c:	aa0903e8 	mov	x8, x9
    3310:	9bc27dcb 	umulh	x11, x14, x2
        while (len < PRINTF_FTOA_BUFFER_SIZE) {
    3314:	6b01009f 	cmp	w4, w1
    3318:	54fffe41 	b.ne	32e0 <_ftoa+0x270>  // b.any
    if (!(flags & FLAGS_LEFT) && (flags & FLAGS_ZEROPAD)) {
    331c:	120004e0 	and	w0, w7, #0x3
    3320:	7100041f 	cmp	w0, #0x1
    3324:	54fff601 	b.ne	31e4 <_ftoa+0x174>  // b.any
        if (width && (negative || (flags & (FLAGS_PLUS | FLAGS_SPACE)))) {
    3328:	34fff525 	cbz	w5, 31cc <_ftoa+0x15c>
    332c:	35000763 	cbnz	w3, 3418 <_ftoa+0x3a8>
    3330:	721e04ff 	tst	w7, #0xc
    3334:	54000721 	b.ne	3418 <_ftoa+0x3a8>  // b.any
        while ((len < width) && (len < PRINTF_FTOA_BUFFER_SIZE)) {
    3338:	2a0503e1 	mov	w1, w5
    333c:	eb01011f 	cmp	x8, x1
    3340:	54fff462 	b.cs	31cc <_ftoa+0x15c>  // b.hs, b.nlast
    3344:	f1007d1f 	cmp	x8, #0x1f
            buf[len++] = '0';
    3348:	52800602 	mov	w2, #0x30                  	// #48
        while ((len < width) && (len < PRINTF_FTOA_BUFFER_SIZE)) {
    334c:	54fff4c8 	b.hi	31e4 <_ftoa+0x174>  // b.pmore
            buf[len++] = '0';
    3350:	91000508 	add	x8, x8, #0x1
    3354:	8b080180 	add	x0, x12, x8
        while ((len < width) && (len < PRINTF_FTOA_BUFFER_SIZE)) {
    3358:	eb01011f 	cmp	x8, x1
            buf[len++] = '0';
    335c:	381ff002 	sturb	w2, [x0, #-1]
        while ((len < width) && (len < PRINTF_FTOA_BUFFER_SIZE)) {
    3360:	54fff360 	b.eq	31cc <_ftoa+0x15c>  // b.none
    3364:	f100811f 	cmp	x8, #0x20
    3368:	54ffff41 	b.ne	3350 <_ftoa+0x2e0>  // b.any
    336c:	17ffff9e 	b	31e4 <_ftoa+0x174>
        ++frac;
    3370:	910005ce 	add	x14, x14, #0x1
        if (frac >= pow10[prec]) {
    3374:	9e6301c1 	ucvtf	d1, x14
    3378:	1e622030 	fcmpe	d1, d2
    337c:	5400004a 	b.ge	3384 <_ftoa+0x314>  // b.tcont
    3380:	17ffff78 	b	3160 <_ftoa+0xf0>
            ++whole;
    3384:	1100054a 	add	w10, w10, #0x1
            frac = 0;
    3388:	d280000e 	mov	x14, #0x0                   	// #0
    338c:	17ffff75 	b	3160 <_ftoa+0xf0>
        } else if (flags & FLAGS_PLUS) {
    3390:	371003c7 	tbnz	w7, #2, 3408 <_ftoa+0x398>
        } else if (flags & FLAGS_SPACE) {
    3394:	361ff287 	tbz	w7, #3, 31e4 <_ftoa+0x174>
            buf[len++] = ' ';
    3398:	52800400 	mov	w0, #0x20                  	// #32
    339c:	38286980 	strb	w0, [x12, x8]
    33a0:	91000508 	add	x8, x8, #0x1
    33a4:	17ffff90 	b	31e4 <_ftoa+0x174>
        if ((!(diff < 0.5) || (diff > 0.5)) && (whole & 1)) {
    33a8:	54ffee8c 	b.gt	3178 <_ftoa+0x108>
    33ac:	17ffff75 	b	3180 <_ftoa+0x110>
        while ((len < PRINTF_FTOA_BUFFER_SIZE) && (count-- > 0U)) {
    33b0:	f100813f 	cmp	x9, #0x20
    33b4:	54000420 	b.eq	3438 <_ftoa+0x3c8>  // b.none
    33b8:	91000901 	add	x1, x8, #0x2
    33bc:	51000884 	sub	w4, w4, #0x2
    33c0:	8b040021 	add	x1, x1, x4
            buf[len++] = '0';
    33c4:	52800602 	mov	w2, #0x30                  	// #48
        while ((len < PRINTF_FTOA_BUFFER_SIZE) && (count-- > 0U)) {
    33c8:	34000340 	cbz	w0, 3430 <_ftoa+0x3c0>
    33cc:	d503201f 	nop
            buf[len++] = '0';
    33d0:	91000529 	add	x9, x9, #0x1
    33d4:	8b090180 	add	x0, x12, x9
        while ((len < PRINTF_FTOA_BUFFER_SIZE) && (count-- > 0U)) {
    33d8:	f100813f 	cmp	x9, #0x20
            buf[len++] = '0';
    33dc:	381ff002 	sturb	w2, [x0, #-1]
        while ((len < PRINTF_FTOA_BUFFER_SIZE) && (count-- > 0U)) {
    33e0:	540002c0 	b.eq	3438 <_ftoa+0x3c8>  // b.none
    33e4:	eb01013f 	cmp	x9, x1
    33e8:	54ffff41 	b.ne	33d0 <_ftoa+0x360>  // b.any
            buf[len++] = '.';
    33ec:	528005c0 	mov	w0, #0x2e                  	// #46
    33f0:	91000428 	add	x8, x1, #0x1
    33f4:	38216980 	strb	w0, [x12, x1]
    33f8:	17ffff62 	b	3180 <_ftoa+0x110>
    } else if ((frac == 0U) || (frac & 1U)) {
    33fc:	3607eb2e 	tbz	w14, #0, 3160 <_ftoa+0xf0>
        ++frac;
    3400:	910005ce 	add	x14, x14, #0x1
    3404:	17ffff57 	b	3160 <_ftoa+0xf0>
            buf[len++] = '+'; // ignore the space if the '+' exists
    3408:	52800560 	mov	w0, #0x2b                  	// #43
    340c:	38286980 	strb	w0, [x12, x8]
    3410:	91000508 	add	x8, x8, #0x1
    3414:	17ffff74 	b	31e4 <_ftoa+0x174>
            width--;
    3418:	510004a5 	sub	w5, w5, #0x1
    341c:	17ffffc7 	b	3338 <_ftoa+0x2c8>
    double tmp = (value - whole) * pow10[prec];
    3420:	f0000040 	adrp	x0, e000 <__func__.0+0x280>
    3424:	91012000 	add	x0, x0, #0x48
    3428:	fc645802 	ldr	d2, [x0, w4, uxtw #3]
    342c:	17ffff3f 	b	3128 <_ftoa+0xb8>
        while ((len < PRINTF_FTOA_BUFFER_SIZE) && (count-- > 0U)) {
    3430:	aa0903e1 	mov	x1, x9
    3434:	17ffffee 	b	33ec <_ftoa+0x37c>
            buf[len++] = '0';
    3438:	aa0903e8 	mov	x8, x9
    343c:	17ffffb8 	b	331c <_ftoa+0x2ac>

0000000000003440 <_out_char>:
    if (character) {
    3440:	72001c00 	ands	w0, w0, #0xff
    3444:	54000041 	b.ne	344c <_out_char+0xc>  // b.any
}
    3448:	d65f03c0 	ret
        _putchar(character);
    344c:	17fffd05 	b	2860 <putc>

0000000000003450 <_out_fct>:
    if (character) {
    3450:	72001c00 	ands	w0, w0, #0xff
    3454:	54000080 	b.eq	3464 <_out_fct+0x14>  // b.none
        ((out_fct_wrap_type*)buffer)->fct(character, ((out_fct_wrap_type*)buffer)->arg);
    3458:	a9400422 	ldp	x2, x1, [x1]
    345c:	aa0203f0 	mov	x16, x2
    3460:	d61f0200 	br	x16
}
    3464:	d65f03c0 	ret
    3468:	d503201f 	nop
    346c:	d503201f 	nop

0000000000003470 <_vsnprintf>:
#endif // PRINTF_SUPPORT_EXPONENTIAL
#endif // PRINTF_SUPPORT_FLOAT

// internal vsnprintf
static int _vsnprintf(out_fct_type out, char* buffer, const size_t maxlen, const char* format, va_list va)
{
    3470:	d102c3ff 	sub	sp, sp, #0xb0
    unsigned int flags, width, precision, n;
    size_t idx = 0U;

    if (!buffer) {
        // use null output function
        out = _out_null;
    3474:	f100003f 	cmp	x1, #0x0
{
    3478:	a9017bfd 	stp	x29, x30, [sp, #16]
    347c:	910043fd 	add	x29, sp, #0x10
    3480:	a90253f3 	stp	x19, x20, [sp, #32]
        out = _out_null;
    3484:	f0fffff3 	adrp	x19, 2000 <InodeWrite+0x80>
    3488:	91238273 	add	x19, x19, #0x8e0
{
    348c:	a9056bf9 	stp	x25, x26, [sp, #80]
        out = _out_null;
    3490:	9a800273 	csel	x19, x19, x0, eq  // eq = none
{
    3494:	aa0103fa 	mov	x26, x1
    3498:	a90673fb 	stp	x27, x28, [sp, #96]
    349c:	aa0203fc 	mov	x28, x2
    }

    while (*format) {
    34a0:	d280001b 	mov	x27, #0x0                   	// #0
    34a4:	b9401880 	ldr	w0, [x4, #24]
    34a8:	b9007be0 	str	w0, [sp, #120]
    34ac:	f9400480 	ldr	x0, [x4, #8]
    34b0:	f90047e0 	str	x0, [sp, #136]
    34b4:	39400065 	ldrb	w5, [x3]
    34b8:	f9400880 	ldr	x0, [x4, #16]
    34bc:	f9004be0 	str	x0, [sp, #144]
    34c0:	b9401c80 	ldr	w0, [x4, #28]
    34c4:	b900abe0 	str	w0, [sp, #168]
    34c8:	f9400094 	ldr	x20, [x4]
    34cc:	34003ae5 	cbz	w5, 3c28 <_vsnprintf+0x7b8>
    34d0:	a90463f7 	stp	x23, x24, [sp, #64]
        default:
            break;
        }

        // evaluate specifier
        switch (*format) {
    34d4:	d0000058 	adrp	x24, d000 <__ascii_wctomb+0x30>
    34d8:	913e2300 	add	x0, x24, #0xf88
    34dc:	aa0303f9 	mov	x25, x3
    34e0:	f90043e0 	str	x0, [sp, #128]
    34e4:	f0000040 	adrp	x0, e000 <__func__.0+0x280>
    34e8:	9100c000 	add	x0, x0, #0x30
    34ec:	f9004fe0 	str	x0, [sp, #152]
    34f0:	1400000a 	b	3518 <_vsnprintf+0xa8>
            out(*format, buffer, idx++, maxlen);
    34f4:	91000764 	add	x4, x27, #0x1
    34f8:	2a0503e0 	mov	w0, w5
            out('%', buffer, idx++, maxlen);
            format++;
            break;

        default:
            out(*format, buffer, idx++, maxlen);
    34fc:	aa1b03e2 	mov	x2, x27
    3500:	aa1c03e3 	mov	x3, x28
    3504:	aa1a03e1 	mov	x1, x26
    3508:	aa0403fb 	mov	x27, x4
    350c:	d63f0260 	blr	x19
    while (*format) {
    3510:	39400325 	ldrb	w5, [x25]
    3514:	34000c85 	cbz	w5, 36a4 <_vsnprintf+0x234>
            format++;
    3518:	91000739 	add	x25, x25, #0x1
        if (*format != '%') {
    351c:	710094bf 	cmp	w5, #0x25
    3520:	54fffea1 	b.ne	34f4 <_vsnprintf+0x84>  // b.any
            switch (*format) {
    3524:	aa1903e8 	mov	x8, x25
        flags = 0U;
    3528:	52800006 	mov	w6, #0x0                   	// #0
            switch (*format) {
    352c:	38401500 	ldrb	w0, [x8], #1
    3530:	7100ac1f 	cmp	w0, #0x2b
    3534:	54000180 	b.eq	3564 <_vsnprintf+0xf4>  // b.none
    3538:	540001c8 	b.hi	3570 <_vsnprintf+0x100>  // b.pmore
    353c:	7100801f 	cmp	w0, #0x20
    3540:	54000260 	b.eq	358c <_vsnprintf+0x11c>  // b.none
    3544:	71008c1f 	cmp	w0, #0x23
    3548:	540002e1 	b.ne	35a4 <_vsnprintf+0x134>  // b.any
                flags |= FLAGS_HASH;
    354c:	321c00c6 	orr	w6, w6, #0x10
            format++;
    3550:	aa0803f9 	mov	x25, x8
            switch (*format) {
    3554:	aa1903e8 	mov	x8, x25
    3558:	38401500 	ldrb	w0, [x8], #1
    355c:	7100ac1f 	cmp	w0, #0x2b
    3560:	54fffec1 	b.ne	3538 <_vsnprintf+0xc8>  // b.any
                flags |= FLAGS_PLUS;
    3564:	321e00c6 	orr	w6, w6, #0x4
            format++;
    3568:	aa0803f9 	mov	x25, x8
    356c:	17fffffa 	b	3554 <_vsnprintf+0xe4>
            switch (*format) {
    3570:	7100b41f 	cmp	w0, #0x2d
    3574:	54000120 	b.eq	3598 <_vsnprintf+0x128>  // b.none
    3578:	7100c01f 	cmp	w0, #0x30
    357c:	540062c1 	b.ne	41d4 <_vsnprintf+0xd64>  // b.any
                flags |= FLAGS_ZEROPAD;
    3580:	320000c6 	orr	w6, w6, #0x1
            format++;
    3584:	aa0803f9 	mov	x25, x8
    3588:	17fffff3 	b	3554 <_vsnprintf+0xe4>
                flags |= FLAGS_SPACE;
    358c:	321d00c6 	orr	w6, w6, #0x8
            format++;
    3590:	aa0803f9 	mov	x25, x8
    3594:	17fffff0 	b	3554 <_vsnprintf+0xe4>
                flags |= FLAGS_LEFT;
    3598:	321f00c6 	orr	w6, w6, #0x2
            format++;
    359c:	aa0803f9 	mov	x25, x8
    35a0:	17ffffed 	b	3554 <_vsnprintf+0xe4>
        } else if (*format == '*') {
    35a4:	7100a81f 	cmp	w0, #0x2a
        width = 0U;
    35a8:	52800018 	mov	w24, #0x0                   	// #0
        } else if (*format == '*') {
    35ac:	540002e0 	b.eq	3608 <_vsnprintf+0x198>  // b.none
        precision = 0U;
    35b0:	52800017 	mov	w23, #0x0                   	// #0
        switch (*format) {
    35b4:	7101b01f 	cmp	w0, #0x6c
            format++;
    35b8:	aa0803e4 	mov	x4, x8
        switch (*format) {
    35bc:	54001f20 	b.eq	39a0 <_vsnprintf+0x530>  // b.none
    35c0:	54000588 	b.hi	3670 <_vsnprintf+0x200>  // b.pmore
    35c4:	7101a01f 	cmp	w0, #0x68
    35c8:	54001e20 	b.eq	398c <_vsnprintf+0x51c>  // b.none
    35cc:	7101a81f 	cmp	w0, #0x6a
    35d0:	54006241 	b.ne	4218 <_vsnprintf+0xda8>  // b.any
        switch (*format) {
    35d4:	39400720 	ldrb	w0, [x25, #1]
            flags |= (sizeof(size_t) == sizeof(long) ? FLAGS_LONG : FLAGS_LONG_LONG);
    35d8:	321800c6 	orr	w6, w6, #0x100
        switch (*format) {
    35dc:	51009402 	sub	w2, w0, #0x25
            format++;
    35e0:	91000499 	add	x25, x4, #0x1
        switch (*format) {
    35e4:	71014c5f 	cmp	w2, #0x53
    35e8:	54000069 	b.ls	35f4 <_vsnprintf+0x184>  // b.plast
            out(*format, buffer, idx++, maxlen);
    35ec:	91000764 	add	x4, x27, #0x1
    35f0:	17ffffc3 	b	34fc <_vsnprintf+0x8c>
        switch (*format) {
    35f4:	f94043e1 	ldr	x1, [sp, #128]
    35f8:	78625821 	ldrh	w1, [x1, w2, uxtw #1]
    35fc:	10000062 	adr	x2, 3608 <_vsnprintf+0x198>
    3600:	8b21a841 	add	x1, x2, w1, sxth #2
    3604:	d61f0020 	br	x1
            const int w = va_arg(va, int);
    3608:	b9407be0 	ldr	w0, [sp, #120]
    360c:	37f806c0 	tbnz	w0, #31, 36e4 <_vsnprintf+0x274>
    3610:	91002e82 	add	x2, x20, #0xb
    3614:	aa1403e0 	mov	x0, x20
    3618:	927df054 	and	x20, x2, #0xfffffffffffffff8
    361c:	b9400018 	ldr	w24, [x0]
            if (w < 0) {
    3620:	36f80078 	tbz	w24, #31, 362c <_vsnprintf+0x1bc>
                flags |= FLAGS_LEFT; // reverse padding
    3624:	321f00c6 	orr	w6, w6, #0x2
                width = (unsigned int)-w;
    3628:	4b1803f8 	neg	w24, w24
        if (*format == '.') {
    362c:	39400720 	ldrb	w0, [x25, #1]
            format++;
    3630:	aa0803f9 	mov	x25, x8
    3634:	91000508 	add	x8, x8, #0x1
        if (*format == '.') {
    3638:	7100b81f 	cmp	w0, #0x2e
    363c:	54fffba1 	b.ne	35b0 <_vsnprintf+0x140>  // b.any
            if (_is_digit(*format)) {
    3640:	39400720 	ldrb	w0, [x25, #1]
            flags |= FLAGS_PRECISION;
    3644:	321600c6 	orr	w6, w6, #0x400
            format++;
    3648:	aa0803e4 	mov	x4, x8
    return (ch >= '0') && (ch <= '9');
    364c:	5100c002 	sub	w2, w0, #0x30
            if (_is_digit(*format)) {
    3650:	12001c42 	and	w2, w2, #0xff
    3654:	7100245f 	cmp	w2, #0x9
    3658:	54001b29 	b.ls	39bc <_vsnprintf+0x54c>  // b.plast
            } else if (*format == '*') {
    365c:	7100a81f 	cmp	w0, #0x2a
    3660:	54002a20 	b.eq	3ba4 <_vsnprintf+0x734>  // b.none
            format++;
    3664:	aa0803f9 	mov	x25, x8
    3668:	91000508 	add	x8, x8, #0x1
    366c:	17ffffd1 	b	35b0 <_vsnprintf+0x140>
        switch (*format) {
    3670:	7101d01f 	cmp	w0, #0x74
    3674:	54fffb00 	b.eq	35d4 <_vsnprintf+0x164>  // b.none
    3678:	7101e81f 	cmp	w0, #0x7a
    367c:	54fffac0 	b.eq	35d4 <_vsnprintf+0x164>  // b.none
        switch (*format) {
    3680:	5101bc02 	sub	w2, w0, #0x6f
            format++;
    3684:	aa0803f9 	mov	x25, x8
        switch (*format) {
    3688:	7100245f 	cmp	w2, #0x9
    368c:	54fffb08 	b.hi	35ec <_vsnprintf+0x17c>  // b.pmore
    3690:	f9404fe1 	ldr	x1, [sp, #152]
    3694:	78625821 	ldrh	w1, [x1, w2, uxtw #1]
    3698:	10000062 	adr	x2, 36a4 <_vsnprintf+0x234>
    369c:	8b21a841 	add	x1, x2, w1, sxth #2
    36a0:	d61f0020 	br	x1
    36a4:	a94463f7 	ldp	x23, x24, [sp, #64]

    // termination
    out((char)0, buffer, idx < maxlen ? idx : maxlen - 1U, maxlen);

    // return written chars without terminating \0
    return (int)idx;
    36a8:	2a1b03f4 	mov	w20, w27
    out((char)0, buffer, idx < maxlen ? idx : maxlen - 1U, maxlen);
    36ac:	eb1b039f 	cmp	x28, x27
    36b0:	d1000782 	sub	x2, x28, #0x1
    36b4:	aa1a03e1 	mov	x1, x26
    36b8:	9a9b9042 	csel	x2, x2, x27, ls  // ls = plast
    36bc:	aa1c03e3 	mov	x3, x28
    36c0:	52800000 	mov	w0, #0x0                   	// #0
    36c4:	d63f0260 	blr	x19
}
    36c8:	2a1403e0 	mov	w0, w20
    36cc:	a9417bfd 	ldp	x29, x30, [sp, #16]
    36d0:	a94253f3 	ldp	x19, x20, [sp, #32]
    36d4:	a9456bf9 	ldp	x25, x26, [sp, #80]
    36d8:	a94673fb 	ldp	x27, x28, [sp, #96]
    36dc:	9102c3ff 	add	sp, sp, #0xb0
    36e0:	d65f03c0 	ret
            const int w = va_arg(va, int);
    36e4:	b9407be0 	ldr	w0, [sp, #120]
    36e8:	11002002 	add	w2, w0, #0x8
    36ec:	7100005f 	cmp	w2, #0x0
    36f0:	5400228d 	b.le	3b40 <_vsnprintf+0x6d0>
    36f4:	91002e84 	add	x4, x20, #0xb
    36f8:	aa1403e0 	mov	x0, x20
    36fc:	927df094 	and	x20, x4, #0xfffffffffffffff8
    3700:	b9007be2 	str	w2, [sp, #120]
    3704:	17ffffc6 	b	361c <_vsnprintf+0x1ac>
            if (*format == 'x' || *format == 'X') {
    3708:	121a7802 	and	w2, w0, #0xffffffdf
    370c:	7101605f 	cmp	w2, #0x58
    3710:	54001781 	b.ne	3a00 <_vsnprintf+0x590>  // b.any
            if (*format == 'X') {
    3714:	7101601f 	cmp	w0, #0x58
    3718:	54003c81 	b.ne	3ea8 <_vsnprintf+0xa38>  // b.any
                flags |= FLAGS_UPPERCASE;
    371c:	321b00c6 	orr	w6, w6, #0x20
    3720:	d2800208 	mov	x8, #0x10                  	// #16
                flags &= ~(FLAGS_PLUS | FLAGS_SPACE);
    3724:	121c74c6 	and	w6, w6, #0xfffffff3
    3728:	140000c0 	b	3a28 <_vsnprintf+0x5b8>
            if ((*format == 'g') || (*format == 'G'))
    372c:	121a7802 	and	w2, w0, #0xffffffdf
            if ((*format == 'E') || (*format == 'G'))
    3730:	121e7800 	and	w0, w0, #0xfffffffd
                flags |= FLAGS_ADAPT_EXP;
    3734:	71011c5f 	cmp	w2, #0x47
    3738:	321500c2 	orr	w2, w6, #0x800
    373c:	1a860046 	csel	w6, w2, w6, eq  // eq = none
                flags |= FLAGS_UPPERCASE;
    3740:	7101141f 	cmp	w0, #0x45
    3744:	321b00c0 	orr	w0, w6, #0x20
    3748:	1a860006 	csel	w6, w0, w6, eq  // eq = none
            idx = _etoa(out, buffer, idx, maxlen, va_arg(va, double), precision, width, flags);
    374c:	b940abe0 	ldr	w0, [sp, #168]
    3750:	37f81c20 	tbnz	w0, #31, 3ad4 <_vsnprintf+0x664>
    3754:	91003e82 	add	x2, x20, #0xf
    3758:	aa1403e0 	mov	x0, x20
    375c:	927df054 	and	x20, x2, #0xfffffffffffffff8
    3760:	fd400000 	ldr	d0, [x0]
    3764:	aa1b03e2 	mov	x2, x27
    3768:	2a1803e5 	mov	w5, w24
    376c:	2a1703e4 	mov	w4, w23
    3770:	aa1c03e3 	mov	x3, x28
    3774:	aa1a03e1 	mov	x1, x26
    3778:	aa1303e0 	mov	x0, x19
    377c:	97fffd55 	bl	2cd0 <_etoa>
    3780:	aa0003fb 	mov	x27, x0
            break;
    3784:	17ffff63 	b	3510 <_vsnprintf+0xa0>
                flags |= FLAGS_UPPERCASE;
    3788:	7101181f 	cmp	w0, #0x46
    378c:	321b00c0 	orr	w0, w6, #0x20
    3790:	1a860006 	csel	w6, w0, w6, eq  // eq = none
            idx = _ftoa(out, buffer, idx, maxlen, va_arg(va, double), precision, width, flags);
    3794:	b940abe0 	ldr	w0, [sp, #168]
    3798:	37f818c0 	tbnz	w0, #31, 3ab0 <_vsnprintf+0x640>
    379c:	91003e82 	add	x2, x20, #0xf
    37a0:	aa1403e0 	mov	x0, x20
    37a4:	927df054 	and	x20, x2, #0xfffffffffffffff8
    37a8:	fd400000 	ldr	d0, [x0]
    37ac:	aa1b03e2 	mov	x2, x27
    37b0:	2a1803e5 	mov	w5, w24
    37b4:	2a1703e4 	mov	w4, w23
    37b8:	aa1c03e3 	mov	x3, x28
    37bc:	aa1a03e1 	mov	x1, x26
    37c0:	aa1303e0 	mov	x0, x19
    37c4:	97fffe2b 	bl	3070 <_ftoa>
    37c8:	aa0003fb 	mov	x27, x0
            break;
    37cc:	17ffff51 	b	3510 <_vsnprintf+0xa0>
            out('%', buffer, idx++, maxlen);
    37d0:	91000760 	add	x0, x27, #0x1
    37d4:	aa1b03e2 	mov	x2, x27
    37d8:	aa1c03e3 	mov	x3, x28
    37dc:	aa0003fb 	mov	x27, x0
    37e0:	aa1a03e1 	mov	x1, x26
    37e4:	528004a0 	mov	w0, #0x25                  	// #37
    37e8:	d63f0260 	blr	x19
            break;
    37ec:	17ffff49 	b	3510 <_vsnprintf+0xa0>
            flags |= FLAGS_ZEROPAD | FLAGS_UPPERCASE;
    37f0:	52800420 	mov	w0, #0x21                  	// #33
    37f4:	2a0000c6 	orr	w6, w6, w0
                idx = _ntoa_long_long(out, buffer, idx, maxlen, (uintptr_t)va_arg(va, void*), false, 16U, precision, width, flags);
    37f8:	b9407be0 	ldr	w0, [sp, #120]
    37fc:	37f817e0 	tbnz	w0, #31, 3af8 <_vsnprintf+0x688>
    3800:	91003e82 	add	x2, x20, #0xf
    3804:	aa1403e0 	mov	x0, x20
    3808:	927df054 	and	x20, x2, #0xfffffffffffffff8
    380c:	2a1703e7 	mov	w7, w23
    3810:	aa1b03e2 	mov	x2, x27
    3814:	f9400004 	ldr	x4, [x0]
    3818:	52800200 	mov	w0, #0x10                  	// #16
    381c:	b90003e0 	str	w0, [sp]
    3820:	b9000be6 	str	w6, [sp, #8]
    3824:	d2800206 	mov	x6, #0x10                  	// #16
    3828:	52800005 	mov	w5, #0x0                   	// #0
    382c:	aa1c03e3 	mov	x3, x28
    3830:	aa1a03e1 	mov	x1, x26
    3834:	aa1303e0 	mov	x0, x19
    3838:	97fffc72 	bl	2a00 <_ntoa_long>
    383c:	aa0003fb 	mov	x27, x0
            break;
    3840:	17ffff34 	b	3510 <_vsnprintf+0xa0>
            if (!(flags & FLAGS_LEFT)) {
    3844:	a9035bf5 	stp	x21, x22, [sp, #48]
    3848:	36082306 	tbz	w6, #1, 3ca8 <_vsnprintf+0x838>
            out((char)va_arg(va, int), buffer, idx++, maxlen);
    384c:	b9407be0 	ldr	w0, [sp, #120]
    3850:	37f82a20 	tbnz	w0, #31, 3d94 <_vsnprintf+0x924>
    3854:	91002e82 	add	x2, x20, #0xb
    3858:	aa1403e0 	mov	x0, x20
    385c:	927df054 	and	x20, x2, #0xfffffffffffffff8
    3860:	39400000 	ldrb	w0, [x0]
    3864:	aa1b03e2 	mov	x2, x27
    3868:	aa1c03e3 	mov	x3, x28
    386c:	aa1a03e1 	mov	x1, x26
    3870:	91000775 	add	x21, x27, #0x1
    3874:	d63f0260 	blr	x19
                while (l++ < width) {
    3878:	51000b00 	sub	w0, w24, #0x2
    387c:	91000b6a 	add	x10, x27, #0x2
    3880:	7100071f 	cmp	w24, #0x1
    3884:	8b00015b 	add	x27, x10, x0
    3888:	540007c9 	b.ls	3980 <_vsnprintf+0x510>  // b.plast
    388c:	d503201f 	nop
                    out(' ', buffer, idx++, maxlen);
    3890:	aa1503e2 	mov	x2, x21
    3894:	aa1c03e3 	mov	x3, x28
    3898:	910006b5 	add	x21, x21, #0x1
    389c:	aa1a03e1 	mov	x1, x26
    38a0:	52800400 	mov	w0, #0x20                  	// #32
    38a4:	d63f0260 	blr	x19
                while (l++ < width) {
    38a8:	eb1b02bf 	cmp	x21, x27
    38ac:	54ffff21 	b.ne	3890 <_vsnprintf+0x420>  // b.any
    38b0:	a9435bf5 	ldp	x21, x22, [sp, #48]
    38b4:	17ffff17 	b	3510 <_vsnprintf+0xa0>
            const char* p = va_arg(va, char*);
    38b8:	b9407be0 	ldr	w0, [sp, #120]
    38bc:	a9035bf5 	stp	x21, x22, [sp, #48]
    38c0:	37f812e0 	tbnz	w0, #31, 3b1c <_vsnprintf+0x6ac>
    38c4:	91003e82 	add	x2, x20, #0xf
    38c8:	aa1403e0 	mov	x0, x20
    38cc:	927df054 	and	x20, x2, #0xfffffffffffffff8
    38d0:	f9400015 	ldr	x21, [x0]
    for (s = str; *s && maxsize--; ++s)
    38d4:	394002a8 	ldrb	w8, [x21]
    38d8:	2a0803e0 	mov	w0, w8
            unsigned int l = _strnlen_s(p, precision ? precision : (size_t)-1);
    38dc:	350017d7 	cbnz	w23, 3bd4 <_vsnprintf+0x764>
    for (s = str; *s && maxsize--; ++s)
    38e0:	92800022 	mov	x2, #0xfffffffffffffffe    	// #-2
    38e4:	340035c8 	cbz	w8, 3f9c <_vsnprintf+0xb2c>
    38e8:	91000456 	add	x22, x2, #0x1
    38ec:	aa1503e2 	mov	x2, x21
    38f0:	8b1602b6 	add	x22, x21, x22
    38f4:	14000003 	b	3900 <_vsnprintf+0x490>
    38f8:	eb0202df 	cmp	x22, x2
    38fc:	54001900 	b.eq	3c1c <_vsnprintf+0x7ac>  // b.none
    3900:	38401c44 	ldrb	w4, [x2, #1]!
    3904:	35ffffa4 	cbnz	w4, 38f8 <_vsnprintf+0x488>
    return (unsigned int)(s - str);
    3908:	4b150041 	sub	w1, w2, w21
    390c:	b900a3e1 	str	w1, [sp, #160]
            if (flags & FLAGS_PRECISION) {
    3910:	121600c1 	and	w1, w6, #0x400
    3914:	b9007fe1 	str	w1, [sp, #124]
    3918:	365000a6 	tbz	w6, #10, 392c <_vsnprintf+0x4bc>
                l = (l < precision ? l : precision);
    391c:	b940a3e1 	ldr	w1, [sp, #160]
    3920:	6b17003f 	cmp	w1, w23
    3924:	1a979021 	csel	w1, w1, w23, ls  // ls = plast
    3928:	b900a3e1 	str	w1, [sp, #160]
            if (!(flags & FLAGS_LEFT)) {
    392c:	121f00c1 	and	w1, w6, #0x2
    3930:	b900afe1 	str	w1, [sp, #172]
    3934:	36081826 	tbz	w6, #1, 3c38 <_vsnprintf+0x7c8>
            while ((*p != 0) && (!(flags & FLAGS_PRECISION) || precision--)) {
    3938:	34001108 	cbz	w8, 3b58 <_vsnprintf+0x6e8>
    393c:	aa1b03e2 	mov	x2, x27
    3940:	cb1b02b6 	sub	x22, x21, x27
    3944:	14000002 	b	394c <_vsnprintf+0x4dc>
                out(*(p++), buffer, idx++, maxlen);
    3948:	aa1503e2 	mov	x2, x21
            while ((*p != 0) && (!(flags & FLAGS_PRECISION) || precision--)) {
    394c:	b9407fe1 	ldr	w1, [sp, #124]
    3950:	34000081 	cbz	w1, 3960 <_vsnprintf+0x4f0>
    3954:	510006e4 	sub	w4, w23, #0x1
    3958:	340016d7 	cbz	w23, 3c30 <_vsnprintf+0x7c0>
    395c:	2a0403f7 	mov	w23, w4
                out(*(p++), buffer, idx++, maxlen);
    3960:	91000455 	add	x21, x2, #0x1
    3964:	aa1c03e3 	mov	x3, x28
    3968:	aa1a03e1 	mov	x1, x26
    396c:	d63f0260 	blr	x19
            while ((*p != 0) && (!(flags & FLAGS_PRECISION) || precision--)) {
    3970:	38756ac0 	ldrb	w0, [x22, x21]
    3974:	35fffea0 	cbnz	w0, 3948 <_vsnprintf+0x4d8>
            if (flags & FLAGS_LEFT) {
    3978:	b940afe0 	ldr	w0, [sp, #172]
    397c:	35000ec0 	cbnz	w0, 3b54 <_vsnprintf+0x6e4>
                while (l++ < width) {
    3980:	aa1503fb 	mov	x27, x21
    3984:	a9435bf5 	ldp	x21, x22, [sp, #48]
    3988:	17fffee2 	b	3510 <_vsnprintf+0xa0>
            if (*format == 'h') {
    398c:	39400720 	ldrb	w0, [x25, #1]
    3990:	7101a01f 	cmp	w0, #0x68
    3994:	540013c0 	b.eq	3c0c <_vsnprintf+0x79c>  // b.none
            flags |= FLAGS_SHORT;
    3998:	321900c6 	orr	w6, w6, #0x80
    399c:	17ffff10 	b	35dc <_vsnprintf+0x16c>
            if (*format == 'l') {
    39a0:	39400720 	ldrb	w0, [x25, #1]
    39a4:	7101b01f 	cmp	w0, #0x6c
    39a8:	54ffe181 	b.ne	35d8 <_vsnprintf+0x168>  // b.any
        switch (*format) {
    39ac:	39400b20 	ldrb	w0, [x25, #2]
                flags |= FLAGS_LONG_LONG;
    39b0:	321804c6 	orr	w6, w6, #0x300
                format++;
    39b4:	91000b24 	add	x4, x25, #0x2
    39b8:	17ffff09 	b	35dc <_vsnprintf+0x16c>
    unsigned int i = 0U;
    39bc:	52800017 	mov	w23, #0x0                   	// #0
        i = i * 10U + (unsigned int)(*((*str)++) - '0');
    39c0:	52800148 	mov	w8, #0xa                   	// #10
    39c4:	d503201f 	nop
    39c8:	1b0802e7 	madd	w7, w23, w8, w0
    while (_is_digit(**str)) {
    39cc:	38401c80 	ldrb	w0, [x4, #1]!
    return (ch >= '0') && (ch <= '9');
    39d0:	5100c002 	sub	w2, w0, #0x30
        i = i * 10U + (unsigned int)(*((*str)++) - '0');
    39d4:	5100c0f7 	sub	w23, w7, #0x30
    while (_is_digit(**str)) {
    39d8:	12001c42 	and	w2, w2, #0xff
    39dc:	7100245f 	cmp	w2, #0x9
    39e0:	54ffff49 	b.ls	39c8 <_vsnprintf+0x558>  // b.plast
    39e4:	aa0403f9 	mov	x25, x4
    39e8:	91000488 	add	x8, x4, #0x1
    39ec:	17fffef2 	b	35b4 <_vsnprintf+0x144>
            if (*format == 'x' || *format == 'X') {
    39f0:	121a7802 	and	w2, w0, #0xffffffdf
    39f4:	7101605f 	cmp	w2, #0x58
    39f8:	54002580 	b.eq	3ea8 <_vsnprintf+0xa38>  // b.none
    39fc:	d503201f 	nop
            } else if (*format == 'o') {
    3a00:	7101bc1f 	cmp	w0, #0x6f
    3a04:	540021a0 	b.eq	3e38 <_vsnprintf+0x9c8>  // b.none
            } else if (*format == 'b') {
    3a08:	7101881f 	cmp	w0, #0x62
    3a0c:	54002820 	b.eq	3f10 <_vsnprintf+0xaa0>  // b.none
                flags &= ~FLAGS_HASH; // no hash for dec format
    3a10:	121b78c6 	and	w6, w6, #0xffffffef
    3a14:	d2800148 	mov	x8, #0xa                   	// #10
            if ((*format != 'i') && (*format != 'd')) {
    3a18:	7101a41f 	cmp	w0, #0x69
    3a1c:	52800c82 	mov	w2, #0x64                  	// #100
    3a20:	7a421004 	ccmp	w0, w2, #0x4, ne  // ne = any
    3a24:	54ffe801 	b.ne	3724 <_vsnprintf+0x2b4>  // b.any
                flags &= ~FLAGS_ZEROPAD;
    3a28:	f27600df 	tst	x6, #0x400
    3a2c:	121f78c2 	and	w2, w6, #0xfffffffe
    3a30:	1a861046 	csel	w6, w2, w6, ne  // ne = any
            if ((*format == 'i') || (*format == 'd')) {
    3a34:	7101a41f 	cmp	w0, #0x69
    3a38:	52800c84 	mov	w4, #0x64                  	// #100
                if (flags & FLAGS_LONG_LONG) {
    3a3c:	121700c2 	and	w2, w6, #0x200
            if ((*format == 'i') || (*format == 'd')) {
    3a40:	7a441004 	ccmp	w0, w4, #0x4, ne  // ne = any
                    const long long value = va_arg(va, long long);
    3a44:	b9407be0 	ldr	w0, [sp, #120]
            if ((*format == 'i') || (*format == 'd')) {
    3a48:	54000ce1 	b.ne	3be4 <_vsnprintf+0x774>  // b.any
                if (flags & FLAGS_LONG_LONG) {
    3a4c:	35002122 	cbnz	w2, 3e70 <_vsnprintf+0xa00>
                } else if (flags & FLAGS_LONG) {
    3a50:	37402306 	tbnz	w6, #8, 3eb0 <_vsnprintf+0xa40>
                    const int value = (flags & FLAGS_CHAR) ? (char)va_arg(va, int) : (flags & FLAGS_SHORT) ? (short int)va_arg(va, int)
    3a54:	37301b26 	tbnz	w6, #6, 3db8 <_vsnprintf+0x948>
                                                                                                           : va_arg(va, int);
    3a58:	36382926 	tbz	w6, #7, 3f7c <_vsnprintf+0xb0c>
                    const int value = (flags & FLAGS_CHAR) ? (char)va_arg(va, int) : (flags & FLAGS_SHORT) ? (short int)va_arg(va, int)
    3a5c:	37f83300 	tbnz	w0, #31, 40bc <_vsnprintf+0xc4c>
    3a60:	91002e82 	add	x2, x20, #0xb
    3a64:	aa1403e0 	mov	x0, x20
    3a68:	927df054 	and	x20, x2, #0xfffffffffffffff8
    3a6c:	79c00005 	ldrsh	w5, [x0]
                    idx = _ntoa_long(out, buffer, idx, maxlen, (unsigned int)(value > 0 ? value : 0 - value), value < 0, base, precision, width, flags);
    3a70:	710000bf 	cmp	w5, #0x0
    3a74:	5a85a4a4 	cneg	w4, w5, lt  // lt = tstop
    3a78:	12003c84 	and	w4, w4, #0xffff
    3a7c:	2a1703e7 	mov	w7, w23
    3a80:	531f7ca5 	lsr	w5, w5, #31
    3a84:	93407c84 	sxtw	x4, w4
    3a88:	aa1b03e2 	mov	x2, x27
    3a8c:	b9000be6 	str	w6, [sp, #8]
    3a90:	aa0803e6 	mov	x6, x8
    3a94:	b90003f8 	str	w24, [sp]
                    idx = _ntoa_long(out, buffer, idx, maxlen, value, false, base, precision, width, flags);
    3a98:	aa1c03e3 	mov	x3, x28
    3a9c:	aa1a03e1 	mov	x1, x26
    3aa0:	aa1303e0 	mov	x0, x19
    3aa4:	97fffbd7 	bl	2a00 <_ntoa_long>
    3aa8:	aa0003fb 	mov	x27, x0
            break;
    3aac:	17fffe99 	b	3510 <_vsnprintf+0xa0>
            idx = _ftoa(out, buffer, idx, maxlen, va_arg(va, double), precision, width, flags);
    3ab0:	b940abe0 	ldr	w0, [sp, #168]
    3ab4:	11004002 	add	w2, w0, #0x10
    3ab8:	7100005f 	cmp	w2, #0x0
    3abc:	54001b4d 	b.le	3e24 <_vsnprintf+0x9b4>
    3ac0:	91003e84 	add	x4, x20, #0xf
    3ac4:	aa1403e0 	mov	x0, x20
    3ac8:	927df094 	and	x20, x4, #0xfffffffffffffff8
    3acc:	b900abe2 	str	w2, [sp, #168]
    3ad0:	17ffff36 	b	37a8 <_vsnprintf+0x338>
            idx = _etoa(out, buffer, idx, maxlen, va_arg(va, double), precision, width, flags);
    3ad4:	b940abe0 	ldr	w0, [sp, #168]
    3ad8:	11004002 	add	w2, w0, #0x10
    3adc:	7100005f 	cmp	w2, #0x0
    3ae0:	5400198d 	b.le	3e10 <_vsnprintf+0x9a0>
    3ae4:	91003e84 	add	x4, x20, #0xf
    3ae8:	aa1403e0 	mov	x0, x20
    3aec:	927df094 	and	x20, x4, #0xfffffffffffffff8
    3af0:	b900abe2 	str	w2, [sp, #168]
    3af4:	17ffff1b 	b	3760 <_vsnprintf+0x2f0>
                idx = _ntoa_long_long(out, buffer, idx, maxlen, (uintptr_t)va_arg(va, void*), false, 16U, precision, width, flags);
    3af8:	b9407be0 	ldr	w0, [sp, #120]
    3afc:	11002002 	add	w2, w0, #0x8
    3b00:	7100005f 	cmp	w2, #0x0
    3b04:	540017cd 	b.le	3dfc <_vsnprintf+0x98c>
    3b08:	91003e84 	add	x4, x20, #0xf
    3b0c:	aa1403e0 	mov	x0, x20
    3b10:	927df094 	and	x20, x4, #0xfffffffffffffff8
    3b14:	b9007be2 	str	w2, [sp, #120]
    3b18:	17ffff3d 	b	380c <_vsnprintf+0x39c>
            const char* p = va_arg(va, char*);
    3b1c:	b9407be0 	ldr	w0, [sp, #120]
    3b20:	11002002 	add	w2, w0, #0x8
    3b24:	7100005f 	cmp	w2, #0x0
    3b28:	5400160d 	b.le	3de8 <_vsnprintf+0x978>
    3b2c:	91003e84 	add	x4, x20, #0xf
    3b30:	aa1403e0 	mov	x0, x20
    3b34:	927df094 	and	x20, x4, #0xfffffffffffffff8
    3b38:	b9007be2 	str	w2, [sp, #120]
    3b3c:	17ffff65 	b	38d0 <_vsnprintf+0x460>
            const int w = va_arg(va, int);
    3b40:	f94047e1 	ldr	x1, [sp, #136]
    3b44:	b9407be0 	ldr	w0, [sp, #120]
    3b48:	b9007be2 	str	w2, [sp, #120]
    3b4c:	8b20c020 	add	x0, x1, w0, sxtw
    3b50:	17fffeb3 	b	361c <_vsnprintf+0x1ac>
    3b54:	aa1503fb 	mov	x27, x21
                while (l++ < width) {
    3b58:	b940a3e0 	ldr	w0, [sp, #160]
    3b5c:	6b18001f 	cmp	w0, w24
    3b60:	540009e2 	b.cs	3c9c <_vsnprintf+0x82c>  // b.hs, b.nlast
    3b64:	51000704 	sub	w4, w24, #0x1
    3b68:	91000776 	add	x22, x27, #0x1
    3b6c:	4b000084 	sub	w4, w4, w0
    3b70:	8b160095 	add	x21, x4, x22
    3b74:	14000002 	b	3b7c <_vsnprintf+0x70c>
    3b78:	910006d6 	add	x22, x22, #0x1
                    out(' ', buffer, idx++, maxlen);
    3b7c:	aa1b03e2 	mov	x2, x27
    3b80:	aa1c03e3 	mov	x3, x28
    3b84:	aa1a03e1 	mov	x1, x26
    3b88:	52800400 	mov	w0, #0x20                  	// #32
    3b8c:	d63f0260 	blr	x19
    3b90:	aa1603fb 	mov	x27, x22
                while (l++ < width) {
    3b94:	eb1502df 	cmp	x22, x21
    3b98:	54ffff01 	b.ne	3b78 <_vsnprintf+0x708>  // b.any
                while (l++ < width) {
    3b9c:	aa1503fb 	mov	x27, x21
    3ba0:	17ffff79 	b	3984 <_vsnprintf+0x514>
                const int prec = (int)va_arg(va, int);
    3ba4:	b9407be0 	ldr	w0, [sp, #120]
    3ba8:	37f80b80 	tbnz	w0, #31, 3d18 <_vsnprintf+0x8a8>
    3bac:	91002e82 	add	x2, x20, #0xb
    3bb0:	aa1403e0 	mov	x0, x20
    3bb4:	927df054 	and	x20, x2, #0xfffffffffffffff8
                precision = prec > 0 ? (unsigned int)prec : 0U;
    3bb8:	b9400007 	ldr	w7, [x0]
                format++;
    3bbc:	91000b39 	add	x25, x25, #0x2
        switch (*format) {
    3bc0:	39400320 	ldrb	w0, [x25]
    3bc4:	91000728 	add	x8, x25, #0x1
                precision = prec > 0 ? (unsigned int)prec : 0U;
    3bc8:	710000ff 	cmp	w7, #0x0
    3bcc:	1a9fa0f7 	csel	w23, w7, wzr, ge  // ge = tcont
                format++;
    3bd0:	17fffe79 	b	35b4 <_vsnprintf+0x144>
            unsigned int l = _strnlen_s(p, precision ? precision : (size_t)-1);
    3bd4:	2a1703e2 	mov	w2, w23
    for (s = str; *s && maxsize--; ++s)
    3bd8:	34001e28 	cbz	w8, 3f9c <_vsnprintf+0xb2c>
    3bdc:	d1000442 	sub	x2, x2, #0x1
    3be0:	17ffff42 	b	38e8 <_vsnprintf+0x478>
                if (flags & FLAGS_LONG_LONG) {
    3be4:	35001302 	cbnz	w2, 3e44 <_vsnprintf+0x9d4>
                } else if (flags & FLAGS_LONG) {
    3be8:	37401806 	tbnz	w6, #8, 3ee8 <_vsnprintf+0xa78>
                    const unsigned int value = (flags & FLAGS_CHAR) ? (unsigned char)va_arg(va, unsigned int) : (flags & FLAGS_SHORT) ? (unsigned short int)va_arg(va, unsigned int)
    3bec:	37300ba6 	tbnz	w6, #6, 3d60 <_vsnprintf+0x8f0>
                                                                                                                                      : va_arg(va, unsigned int);
    3bf0:	36381ba6 	tbz	w6, #7, 3f64 <_vsnprintf+0xaf4>
                    const unsigned int value = (flags & FLAGS_CHAR) ? (unsigned char)va_arg(va, unsigned int) : (flags & FLAGS_SHORT) ? (unsigned short int)va_arg(va, unsigned int)
    3bf4:	37f82500 	tbnz	w0, #31, 4094 <_vsnprintf+0xc24>
    3bf8:	aa1403e0 	mov	x0, x20
    3bfc:	91002e82 	add	x2, x20, #0xb
    3c00:	927df054 	and	x20, x2, #0xfffffffffffffff8
    3c04:	79400004 	ldrh	w4, [x0]
    3c08:	1400005b 	b	3d74 <_vsnprintf+0x904>
        switch (*format) {
    3c0c:	39400b20 	ldrb	w0, [x25, #2]
                flags |= FLAGS_CHAR;
    3c10:	321a04c6 	orr	w6, w6, #0xc0
                format++;
    3c14:	91000b24 	add	x4, x25, #0x2
    3c18:	17fffe71 	b	35dc <_vsnprintf+0x16c>
    return (unsigned int)(s - str);
    3c1c:	4b1502c1 	sub	w1, w22, w21
    3c20:	b900a3e1 	str	w1, [sp, #160]
    3c24:	17ffff3b 	b	3910 <_vsnprintf+0x4a0>
    while (*format) {
    3c28:	52800014 	mov	w20, #0x0                   	// #0
    3c2c:	17fffea0 	b	36ac <_vsnprintf+0x23c>
    3c30:	aa0203f5 	mov	x21, x2
    3c34:	17ffff51 	b	3978 <_vsnprintf+0x508>
                while (l++ < width) {
    3c38:	b940a3e1 	ldr	w1, [sp, #160]
    3c3c:	6b18003f 	cmp	w1, w24
    3c40:	11000420 	add	w0, w1, #0x1
    3c44:	54002242 	b.cs	408c <_vsnprintf+0xc1c>  // b.hs, b.nlast
    3c48:	51000700 	sub	w0, w24, #0x1
    3c4c:	91000776 	add	x22, x27, #0x1
    3c50:	4b010000 	sub	w0, w0, w1
    3c54:	8b160000 	add	x0, x0, x22
    3c58:	f90053e0 	str	x0, [sp, #160]
    3c5c:	14000002 	b	3c64 <_vsnprintf+0x7f4>
    3c60:	910006d6 	add	x22, x22, #0x1
                    out(' ', buffer, idx++, maxlen);
    3c64:	aa1b03e2 	mov	x2, x27
    3c68:	52800400 	mov	w0, #0x20                  	// #32
    3c6c:	aa1c03e3 	mov	x3, x28
    3c70:	aa1a03e1 	mov	x1, x26
    3c74:	d63f0260 	blr	x19
    3c78:	aa1603fb 	mov	x27, x22
                while (l++ < width) {
    3c7c:	f94053e0 	ldr	x0, [sp, #160]
    3c80:	eb16001f 	cmp	x0, x22
    3c84:	54fffee1 	b.ne	3c60 <_vsnprintf+0x7f0>  // b.any
    3c88:	394002a8 	ldrb	w8, [x21]
    3c8c:	11000700 	add	w0, w24, #0x1
    3c90:	b900a3e0 	str	w0, [sp, #160]
            while ((*p != 0) && (!(flags & FLAGS_PRECISION) || precision--)) {
    3c94:	2a0803e0 	mov	w0, w8
    3c98:	35ffe528 	cbnz	w8, 393c <_vsnprintf+0x4cc>
                while (l++ < width) {
    3c9c:	aa1b03f5 	mov	x21, x27
                while (l++ < width) {
    3ca0:	aa1503fb 	mov	x27, x21
    3ca4:	17ffff38 	b	3984 <_vsnprintf+0x514>
                while (l++ < width) {
    3ca8:	7100071f 	cmp	w24, #0x1
    3cac:	54001ec9 	b.ls	4084 <_vsnprintf+0xc14>  // b.plast
    3cb0:	51000b05 	sub	w5, w24, #0x2
    3cb4:	91000776 	add	x22, x27, #0x1
    3cb8:	8b0502d5 	add	x21, x22, x5
    3cbc:	14000002 	b	3cc4 <_vsnprintf+0x854>
    3cc0:	910006d6 	add	x22, x22, #0x1
                    out(' ', buffer, idx++, maxlen);
    3cc4:	aa1b03e2 	mov	x2, x27
    3cc8:	aa1c03e3 	mov	x3, x28
    3ccc:	aa1a03e1 	mov	x1, x26
    3cd0:	52800400 	mov	w0, #0x20                  	// #32
    3cd4:	d63f0260 	blr	x19
    3cd8:	aa1603fb 	mov	x27, x22
                while (l++ < width) {
    3cdc:	eb1502df 	cmp	x22, x21
    3ce0:	54ffff01 	b.ne	3cc0 <_vsnprintf+0x850>  // b.any
            out((char)va_arg(va, int), buffer, idx++, maxlen);
    3ce4:	b9407be0 	ldr	w0, [sp, #120]
    3ce8:	37f802a0 	tbnz	w0, #31, 3d3c <_vsnprintf+0x8cc>
    3cec:	91002e82 	add	x2, x20, #0xb
    3cf0:	aa1403e0 	mov	x0, x20
    3cf4:	927df054 	and	x20, x2, #0xfffffffffffffff8
    3cf8:	39400000 	ldrb	w0, [x0]
    3cfc:	aa1503e2 	mov	x2, x21
    3d00:	910006bb 	add	x27, x21, #0x1
    3d04:	aa1c03e3 	mov	x3, x28
    3d08:	aa1a03e1 	mov	x1, x26
    3d0c:	d63f0260 	blr	x19
            if (flags & FLAGS_LEFT) {
    3d10:	a9435bf5 	ldp	x21, x22, [sp, #48]
    3d14:	17fffdff 	b	3510 <_vsnprintf+0xa0>
                const int prec = (int)va_arg(va, int);
    3d18:	b9407be0 	ldr	w0, [sp, #120]
    3d1c:	11002002 	add	w2, w0, #0x8
    3d20:	7100005f 	cmp	w2, #0x0
    3d24:	5400058d 	b.le	3dd4 <_vsnprintf+0x964>
    3d28:	91002e84 	add	x4, x20, #0xb
    3d2c:	aa1403e0 	mov	x0, x20
    3d30:	927df094 	and	x20, x4, #0xfffffffffffffff8
    3d34:	b9007be2 	str	w2, [sp, #120]
    3d38:	17ffffa0 	b	3bb8 <_vsnprintf+0x748>
            out((char)va_arg(va, int), buffer, idx++, maxlen);
    3d3c:	b9407be0 	ldr	w0, [sp, #120]
    3d40:	11002002 	add	w2, w0, #0x8
    3d44:	7100005f 	cmp	w2, #0x0
    3d48:	540016ed 	b.le	4024 <_vsnprintf+0xbb4>
    3d4c:	91002e84 	add	x4, x20, #0xb
    3d50:	aa1403e0 	mov	x0, x20
    3d54:	927df094 	and	x20, x4, #0xfffffffffffffff8
    3d58:	b9007be2 	str	w2, [sp, #120]
    3d5c:	17ffffe7 	b	3cf8 <_vsnprintf+0x888>
                    const unsigned int value = (flags & FLAGS_CHAR) ? (unsigned char)va_arg(va, unsigned int) : (flags & FLAGS_SHORT) ? (unsigned short int)va_arg(va, unsigned int)
    3d60:	37f81220 	tbnz	w0, #31, 3fa4 <_vsnprintf+0xb34>
    3d64:	91002e82 	add	x2, x20, #0xb
    3d68:	aa1403e0 	mov	x0, x20
    3d6c:	927df054 	and	x20, x2, #0xfffffffffffffff8
    3d70:	39400004 	ldrb	w4, [x0]
                    idx = _ntoa_long(out, buffer, idx, maxlen, value, false, base, precision, width, flags);
    3d74:	2a1703e7 	mov	w7, w23
    3d78:	2a0403e4 	mov	w4, w4
    3d7c:	b9000be6 	str	w6, [sp, #8]
    3d80:	aa0803e6 	mov	x6, x8
    3d84:	b90003f8 	str	w24, [sp]
    3d88:	aa1b03e2 	mov	x2, x27
    3d8c:	52800005 	mov	w5, #0x0                   	// #0
    3d90:	17ffff42 	b	3a98 <_vsnprintf+0x628>
            out((char)va_arg(va, int), buffer, idx++, maxlen);
    3d94:	b9407be0 	ldr	w0, [sp, #120]
    3d98:	11002002 	add	w2, w0, #0x8
    3d9c:	7100005f 	cmp	w2, #0x0
    3da0:	5400138d 	b.le	4010 <_vsnprintf+0xba0>
    3da4:	91002e84 	add	x4, x20, #0xb
    3da8:	aa1403e0 	mov	x0, x20
    3dac:	927df094 	and	x20, x4, #0xfffffffffffffff8
    3db0:	b9007be2 	str	w2, [sp, #120]
    3db4:	17fffeab 	b	3860 <_vsnprintf+0x3f0>
                    const int value = (flags & FLAGS_CHAR) ? (char)va_arg(va, int) : (flags & FLAGS_SHORT) ? (short int)va_arg(va, int)
    3db8:	37f81080 	tbnz	w0, #31, 3fc8 <_vsnprintf+0xb58>
    3dbc:	91002e82 	add	x2, x20, #0xb
    3dc0:	aa1403e0 	mov	x0, x20
    3dc4:	927df054 	and	x20, x2, #0xfffffffffffffff8
    3dc8:	39400005 	ldrb	w5, [x0]
    3dcc:	2a0503e4 	mov	w4, w5
    3dd0:	17ffff2b 	b	3a7c <_vsnprintf+0x60c>
                const int prec = (int)va_arg(va, int);
    3dd4:	f94047e1 	ldr	x1, [sp, #136]
    3dd8:	b9407be0 	ldr	w0, [sp, #120]
    3ddc:	b9007be2 	str	w2, [sp, #120]
    3de0:	8b20c020 	add	x0, x1, w0, sxtw
    3de4:	17ffff75 	b	3bb8 <_vsnprintf+0x748>
            const char* p = va_arg(va, char*);
    3de8:	f94047e1 	ldr	x1, [sp, #136]
    3dec:	b9407be0 	ldr	w0, [sp, #120]
    3df0:	b9007be2 	str	w2, [sp, #120]
    3df4:	8b20c020 	add	x0, x1, w0, sxtw
    3df8:	17fffeb6 	b	38d0 <_vsnprintf+0x460>
                idx = _ntoa_long_long(out, buffer, idx, maxlen, (uintptr_t)va_arg(va, void*), false, 16U, precision, width, flags);
    3dfc:	f94047e1 	ldr	x1, [sp, #136]
    3e00:	b9407be0 	ldr	w0, [sp, #120]
    3e04:	b9007be2 	str	w2, [sp, #120]
    3e08:	8b20c020 	add	x0, x1, w0, sxtw
    3e0c:	17fffe80 	b	380c <_vsnprintf+0x39c>
            idx = _etoa(out, buffer, idx, maxlen, va_arg(va, double), precision, width, flags);
    3e10:	f9404be1 	ldr	x1, [sp, #144]
    3e14:	b940abe0 	ldr	w0, [sp, #168]
    3e18:	b900abe2 	str	w2, [sp, #168]
    3e1c:	8b20c020 	add	x0, x1, w0, sxtw
    3e20:	17fffe50 	b	3760 <_vsnprintf+0x2f0>
            idx = _ftoa(out, buffer, idx, maxlen, va_arg(va, double), precision, width, flags);
    3e24:	f9404be1 	ldr	x1, [sp, #144]
    3e28:	b940abe0 	ldr	w0, [sp, #168]
    3e2c:	b900abe2 	str	w2, [sp, #168]
    3e30:	8b20c020 	add	x0, x1, w0, sxtw
    3e34:	17fffe5d 	b	37a8 <_vsnprintf+0x338>
                flags &= ~(FLAGS_PLUS | FLAGS_SPACE);
    3e38:	121c74c6 	and	w6, w6, #0xfffffff3
    3e3c:	d2800108 	mov	x8, #0x8                   	// #8
    3e40:	17fffefa 	b	3a28 <_vsnprintf+0x5b8>
                    idx = _ntoa_long_long(out, buffer, idx, maxlen, va_arg(va, unsigned long long), false, base, precision, width, flags);
    3e44:	37f807e0 	tbnz	w0, #31, 3f40 <_vsnprintf+0xad0>
    3e48:	91003e82 	add	x2, x20, #0xf
    3e4c:	aa1403e0 	mov	x0, x20
    3e50:	927df054 	and	x20, x2, #0xfffffffffffffff8
    3e54:	2a1703e7 	mov	w7, w23
    3e58:	aa1b03e2 	mov	x2, x27
    3e5c:	f9400004 	ldr	x4, [x0]
    3e60:	b90003f8 	str	w24, [sp]
    3e64:	b9000be6 	str	w6, [sp, #8]
    3e68:	aa0803e6 	mov	x6, x8
    3e6c:	17fffe6f 	b	3828 <_vsnprintf+0x3b8>
                    const long long value = va_arg(va, long long);
    3e70:	37f80560 	tbnz	w0, #31, 3f1c <_vsnprintf+0xaac>
    3e74:	91003e82 	add	x2, x20, #0xf
    3e78:	aa1403e0 	mov	x0, x20
    3e7c:	927df054 	and	x20, x2, #0xfffffffffffffff8
    3e80:	f9400005 	ldr	x5, [x0]
                    idx = _ntoa_long_long(out, buffer, idx, maxlen, (unsigned long long)(value > 0 ? value : 0 - value), value < 0, base, precision, width, flags);
    3e84:	2a1703e7 	mov	w7, w23
    3e88:	aa1b03e2 	mov	x2, x27
    3e8c:	b90003f8 	str	w24, [sp]
    3e90:	f10000bf 	cmp	x5, #0x0
    3e94:	b9000be6 	str	w6, [sp, #8]
    3e98:	da85a4a4 	cneg	x4, x5, lt  // lt = tstop
    3e9c:	aa0803e6 	mov	x6, x8
    3ea0:	d37ffca5 	lsr	x5, x5, #63
    3ea4:	17fffe62 	b	382c <_vsnprintf+0x3bc>
                flags &= ~FLAGS_HASH; // no hash for dec format
    3ea8:	d2800208 	mov	x8, #0x10                  	// #16
    3eac:	17fffedb 	b	3a18 <_vsnprintf+0x5a8>
                    const long value = va_arg(va, long);
    3eb0:	37f80c40 	tbnz	w0, #31, 4038 <_vsnprintf+0xbc8>
    3eb4:	91003e82 	add	x2, x20, #0xf
    3eb8:	aa1403e0 	mov	x0, x20
    3ebc:	927df054 	and	x20, x2, #0xfffffffffffffff8
    3ec0:	f9400005 	ldr	x5, [x0]
                    idx = _ntoa_long(out, buffer, idx, maxlen, (unsigned long)(value > 0 ? value : 0 - value), value < 0, base, precision, width, flags);
    3ec4:	2a1703e7 	mov	w7, w23
    3ec8:	aa1b03e2 	mov	x2, x27
    3ecc:	b90003f8 	str	w24, [sp]
    3ed0:	f10000bf 	cmp	x5, #0x0
    3ed4:	b9000be6 	str	w6, [sp, #8]
    3ed8:	da85a4a4 	cneg	x4, x5, lt  // lt = tstop
    3edc:	aa0803e6 	mov	x6, x8
    3ee0:	d37ffca5 	lsr	x5, x5, #63
    3ee4:	17fffeed 	b	3a98 <_vsnprintf+0x628>
                    idx = _ntoa_long(out, buffer, idx, maxlen, va_arg(va, unsigned long), false, base, precision, width, flags);
    3ee8:	37f80820 	tbnz	w0, #31, 3fec <_vsnprintf+0xb7c>
    3eec:	91003e82 	add	x2, x20, #0xf
    3ef0:	aa1403e0 	mov	x0, x20
    3ef4:	927df054 	and	x20, x2, #0xfffffffffffffff8
    3ef8:	2a1703e7 	mov	w7, w23
    3efc:	f9400004 	ldr	x4, [x0]
    3f00:	b90003f8 	str	w24, [sp]
    3f04:	b9000be6 	str	w6, [sp, #8]
    3f08:	aa0803e6 	mov	x6, x8
    3f0c:	17ffff9f 	b	3d88 <_vsnprintf+0x918>
                flags &= ~(FLAGS_PLUS | FLAGS_SPACE);
    3f10:	121c74c6 	and	w6, w6, #0xfffffff3
    3f14:	d2800048 	mov	x8, #0x2                   	// #2
    3f18:	17fffec4 	b	3a28 <_vsnprintf+0x5b8>
                    const long long value = va_arg(va, long long);
    3f1c:	b9407be0 	ldr	w0, [sp, #120]
    3f20:	11002002 	add	w2, w0, #0x8
    3f24:	7100005f 	cmp	w2, #0x0
    3f28:	54000a4d 	b.le	4070 <_vsnprintf+0xc00>
    3f2c:	91003e84 	add	x4, x20, #0xf
    3f30:	aa1403e0 	mov	x0, x20
    3f34:	927df094 	and	x20, x4, #0xfffffffffffffff8
    3f38:	b9007be2 	str	w2, [sp, #120]
    3f3c:	17ffffd1 	b	3e80 <_vsnprintf+0xa10>
                    idx = _ntoa_long_long(out, buffer, idx, maxlen, va_arg(va, unsigned long long), false, base, precision, width, flags);
    3f40:	b9407be0 	ldr	w0, [sp, #120]
    3f44:	11002002 	add	w2, w0, #0x8
    3f48:	7100005f 	cmp	w2, #0x0
    3f4c:	5400088d 	b.le	405c <_vsnprintf+0xbec>
    3f50:	91003e84 	add	x4, x20, #0xf
    3f54:	aa1403e0 	mov	x0, x20
    3f58:	927df094 	and	x20, x4, #0xfffffffffffffff8
    3f5c:	b9007be2 	str	w2, [sp, #120]
    3f60:	17ffffbd 	b	3e54 <_vsnprintf+0x9e4>
                                                                                                                                      : va_arg(va, unsigned int);
    3f64:	37f80d00 	tbnz	w0, #31, 4104 <_vsnprintf+0xc94>
    3f68:	aa1403e0 	mov	x0, x20
    3f6c:	91002e82 	add	x2, x20, #0xb
    3f70:	927df054 	and	x20, x2, #0xfffffffffffffff8
    3f74:	b9400004 	ldr	w4, [x0]
    3f78:	17ffff7f 	b	3d74 <_vsnprintf+0x904>
                                                                                                           : va_arg(va, int);
    3f7c:	37f80b20 	tbnz	w0, #31, 40e0 <_vsnprintf+0xc70>
    3f80:	91002e82 	add	x2, x20, #0xb
    3f84:	aa1403e0 	mov	x0, x20
    3f88:	927df054 	and	x20, x2, #0xfffffffffffffff8
    3f8c:	b9400005 	ldr	w5, [x0]
                    idx = _ntoa_long(out, buffer, idx, maxlen, (unsigned int)(value > 0 ? value : 0 - value), value < 0, base, precision, width, flags);
    3f90:	710000bf 	cmp	w5, #0x0
    3f94:	5a85a4a4 	cneg	w4, w5, lt  // lt = tstop
    3f98:	17fffeb9 	b	3a7c <_vsnprintf+0x60c>
    for (s = str; *s && maxsize--; ++s)
    3f9c:	b900a3ff 	str	wzr, [sp, #160]
    3fa0:	17fffe5c 	b	3910 <_vsnprintf+0x4a0>
                    const unsigned int value = (flags & FLAGS_CHAR) ? (unsigned char)va_arg(va, unsigned int) : (flags & FLAGS_SHORT) ? (unsigned short int)va_arg(va, unsigned int)
    3fa4:	b9407be0 	ldr	w0, [sp, #120]
    3fa8:	11002002 	add	w2, w0, #0x8
    3fac:	7100005f 	cmp	w2, #0x0
    3fb0:	54000bed 	b.le	412c <_vsnprintf+0xcbc>
    3fb4:	91002e84 	add	x4, x20, #0xb
    3fb8:	aa1403e0 	mov	x0, x20
    3fbc:	927df094 	and	x20, x4, #0xfffffffffffffff8
    3fc0:	b9007be2 	str	w2, [sp, #120]
    3fc4:	17ffff6b 	b	3d70 <_vsnprintf+0x900>
                    const int value = (flags & FLAGS_CHAR) ? (char)va_arg(va, int) : (flags & FLAGS_SHORT) ? (short int)va_arg(va, int)
    3fc8:	b9407be0 	ldr	w0, [sp, #120]
    3fcc:	11002002 	add	w2, w0, #0x8
    3fd0:	7100005f 	cmp	w2, #0x0
    3fd4:	54000b6d 	b.le	4140 <_vsnprintf+0xcd0>
    3fd8:	91002e84 	add	x4, x20, #0xb
    3fdc:	aa1403e0 	mov	x0, x20
    3fe0:	927df094 	and	x20, x4, #0xfffffffffffffff8
    3fe4:	b9007be2 	str	w2, [sp, #120]
    3fe8:	17ffff78 	b	3dc8 <_vsnprintf+0x958>
                    idx = _ntoa_long(out, buffer, idx, maxlen, va_arg(va, unsigned long), false, base, precision, width, flags);
    3fec:	b9407be0 	ldr	w0, [sp, #120]
    3ff0:	11002002 	add	w2, w0, #0x8
    3ff4:	7100005f 	cmp	w2, #0x0
    3ff8:	54000aed 	b.le	4154 <_vsnprintf+0xce4>
    3ffc:	91003e84 	add	x4, x20, #0xf
    4000:	aa1403e0 	mov	x0, x20
    4004:	927df094 	and	x20, x4, #0xfffffffffffffff8
    4008:	b9007be2 	str	w2, [sp, #120]
    400c:	17ffffbb 	b	3ef8 <_vsnprintf+0xa88>
            out((char)va_arg(va, int), buffer, idx++, maxlen);
    4010:	f94047e1 	ldr	x1, [sp, #136]
    4014:	b9407be0 	ldr	w0, [sp, #120]
    4018:	b9007be2 	str	w2, [sp, #120]
    401c:	8b20c020 	add	x0, x1, w0, sxtw
    4020:	17fffe10 	b	3860 <_vsnprintf+0x3f0>
    4024:	f94047e1 	ldr	x1, [sp, #136]
    4028:	b9407be0 	ldr	w0, [sp, #120]
    402c:	b9007be2 	str	w2, [sp, #120]
    4030:	8b20c020 	add	x0, x1, w0, sxtw
    4034:	17ffff31 	b	3cf8 <_vsnprintf+0x888>
                    const long value = va_arg(va, long);
    4038:	b9407be0 	ldr	w0, [sp, #120]
    403c:	11002002 	add	w2, w0, #0x8
    4040:	7100005f 	cmp	w2, #0x0
    4044:	5400092d 	b.le	4168 <_vsnprintf+0xcf8>
    4048:	91003e84 	add	x4, x20, #0xf
    404c:	aa1403e0 	mov	x0, x20
    4050:	927df094 	and	x20, x4, #0xfffffffffffffff8
    4054:	b9007be2 	str	w2, [sp, #120]
    4058:	17ffff9a 	b	3ec0 <_vsnprintf+0xa50>
                    idx = _ntoa_long_long(out, buffer, idx, maxlen, va_arg(va, unsigned long long), false, base, precision, width, flags);
    405c:	f94047e1 	ldr	x1, [sp, #136]
    4060:	b9407be0 	ldr	w0, [sp, #120]
    4064:	b9007be2 	str	w2, [sp, #120]
    4068:	8b20c020 	add	x0, x1, w0, sxtw
    406c:	17ffff7a 	b	3e54 <_vsnprintf+0x9e4>
                    const long long value = va_arg(va, long long);
    4070:	f94047e1 	ldr	x1, [sp, #136]
    4074:	b9407be0 	ldr	w0, [sp, #120]
    4078:	b9007be2 	str	w2, [sp, #120]
    407c:	8b20c020 	add	x0, x1, w0, sxtw
    4080:	17ffff80 	b	3e80 <_vsnprintf+0xa10>
                while (l++ < width) {
    4084:	aa1b03f5 	mov	x21, x27
    4088:	17ffff17 	b	3ce4 <_vsnprintf+0x874>
                while (l++ < width) {
    408c:	b900a3e0 	str	w0, [sp, #160]
    4090:	17ffff01 	b	3c94 <_vsnprintf+0x824>
                    const unsigned int value = (flags & FLAGS_CHAR) ? (unsigned char)va_arg(va, unsigned int) : (flags & FLAGS_SHORT) ? (unsigned short int)va_arg(va, unsigned int)
    4094:	b9407be0 	ldr	w0, [sp, #120]
    4098:	11002002 	add	w2, w0, #0x8
    409c:	7100005f 	cmp	w2, #0x0
    40a0:	5400078d 	b.le	4190 <_vsnprintf+0xd20>
    40a4:	aa1403e0 	mov	x0, x20
    40a8:	91002e84 	add	x4, x20, #0xb
    40ac:	927df094 	and	x20, x4, #0xfffffffffffffff8
    40b0:	b9007be2 	str	w2, [sp, #120]
    40b4:	79400004 	ldrh	w4, [x0]
    40b8:	17ffff2f 	b	3d74 <_vsnprintf+0x904>
                    const int value = (flags & FLAGS_CHAR) ? (char)va_arg(va, int) : (flags & FLAGS_SHORT) ? (short int)va_arg(va, int)
    40bc:	b9407be0 	ldr	w0, [sp, #120]
    40c0:	11002002 	add	w2, w0, #0x8
    40c4:	7100005f 	cmp	w2, #0x0
    40c8:	540005ad 	b.le	417c <_vsnprintf+0xd0c>
    40cc:	91002e84 	add	x4, x20, #0xb
    40d0:	aa1403e0 	mov	x0, x20
    40d4:	927df094 	and	x20, x4, #0xfffffffffffffff8
    40d8:	b9007be2 	str	w2, [sp, #120]
    40dc:	17fffe64 	b	3a6c <_vsnprintf+0x5fc>
                                                                                                           : va_arg(va, int);
    40e0:	b9407be0 	ldr	w0, [sp, #120]
    40e4:	11002002 	add	w2, w0, #0x8
    40e8:	7100005f 	cmp	w2, #0x0
    40ec:	540005ed 	b.le	41a8 <_vsnprintf+0xd38>
    40f0:	91002e84 	add	x4, x20, #0xb
    40f4:	aa1403e0 	mov	x0, x20
    40f8:	927df094 	and	x20, x4, #0xfffffffffffffff8
    40fc:	b9007be2 	str	w2, [sp, #120]
    4100:	17ffffa3 	b	3f8c <_vsnprintf+0xb1c>
                                                                                                                                      : va_arg(va, unsigned int);
    4104:	b9407be0 	ldr	w0, [sp, #120]
    4108:	11002002 	add	w2, w0, #0x8
    410c:	7100005f 	cmp	w2, #0x0
    4110:	5400056d 	b.le	41bc <_vsnprintf+0xd4c>
    4114:	aa1403e0 	mov	x0, x20
    4118:	91002e84 	add	x4, x20, #0xb
    411c:	927df094 	and	x20, x4, #0xfffffffffffffff8
    4120:	b9007be2 	str	w2, [sp, #120]
    4124:	b9400004 	ldr	w4, [x0]
    4128:	17ffff13 	b	3d74 <_vsnprintf+0x904>
                    const unsigned int value = (flags & FLAGS_CHAR) ? (unsigned char)va_arg(va, unsigned int) : (flags & FLAGS_SHORT) ? (unsigned short int)va_arg(va, unsigned int)
    412c:	f94047e1 	ldr	x1, [sp, #136]
    4130:	b9407be0 	ldr	w0, [sp, #120]
    4134:	b9007be2 	str	w2, [sp, #120]
    4138:	8b20c020 	add	x0, x1, w0, sxtw
    413c:	17ffff0d 	b	3d70 <_vsnprintf+0x900>
                    const int value = (flags & FLAGS_CHAR) ? (char)va_arg(va, int) : (flags & FLAGS_SHORT) ? (short int)va_arg(va, int)
    4140:	f94047e1 	ldr	x1, [sp, #136]
    4144:	b9407be0 	ldr	w0, [sp, #120]
    4148:	b9007be2 	str	w2, [sp, #120]
    414c:	8b20c020 	add	x0, x1, w0, sxtw
    4150:	17ffff1e 	b	3dc8 <_vsnprintf+0x958>
                    idx = _ntoa_long(out, buffer, idx, maxlen, va_arg(va, unsigned long), false, base, precision, width, flags);
    4154:	f94047e1 	ldr	x1, [sp, #136]
    4158:	b9407be0 	ldr	w0, [sp, #120]
    415c:	b9007be2 	str	w2, [sp, #120]
    4160:	8b20c020 	add	x0, x1, w0, sxtw
    4164:	17ffff65 	b	3ef8 <_vsnprintf+0xa88>
                    const long value = va_arg(va, long);
    4168:	f94047e1 	ldr	x1, [sp, #136]
    416c:	b9407be0 	ldr	w0, [sp, #120]
    4170:	b9007be2 	str	w2, [sp, #120]
    4174:	8b20c020 	add	x0, x1, w0, sxtw
    4178:	17ffff52 	b	3ec0 <_vsnprintf+0xa50>
                    const int value = (flags & FLAGS_CHAR) ? (char)va_arg(va, int) : (flags & FLAGS_SHORT) ? (short int)va_arg(va, int)
    417c:	f94047e1 	ldr	x1, [sp, #136]
    4180:	b9407be0 	ldr	w0, [sp, #120]
    4184:	b9007be2 	str	w2, [sp, #120]
    4188:	8b20c020 	add	x0, x1, w0, sxtw
    418c:	17fffe38 	b	3a6c <_vsnprintf+0x5fc>
                    const unsigned int value = (flags & FLAGS_CHAR) ? (unsigned char)va_arg(va, unsigned int) : (flags & FLAGS_SHORT) ? (unsigned short int)va_arg(va, unsigned int)
    4190:	f94047e1 	ldr	x1, [sp, #136]
    4194:	b9407be0 	ldr	w0, [sp, #120]
    4198:	b9007be2 	str	w2, [sp, #120]
    419c:	8b20c020 	add	x0, x1, w0, sxtw
    41a0:	79400004 	ldrh	w4, [x0]
    41a4:	17fffef4 	b	3d74 <_vsnprintf+0x904>
                                                                                                           : va_arg(va, int);
    41a8:	f94047e1 	ldr	x1, [sp, #136]
    41ac:	b9407be0 	ldr	w0, [sp, #120]
    41b0:	b9007be2 	str	w2, [sp, #120]
    41b4:	8b20c020 	add	x0, x1, w0, sxtw
    41b8:	17ffff75 	b	3f8c <_vsnprintf+0xb1c>
                                                                                                                                      : va_arg(va, unsigned int);
    41bc:	f94047e1 	ldr	x1, [sp, #136]
    41c0:	b9407be0 	ldr	w0, [sp, #120]
    41c4:	b9007be2 	str	w2, [sp, #120]
    41c8:	8b20c020 	add	x0, x1, w0, sxtw
    41cc:	b9400004 	ldr	w4, [x0]
    41d0:	17fffee9 	b	3d74 <_vsnprintf+0x904>
    return (ch >= '0') && (ch <= '9');
    41d4:	5100c002 	sub	w2, w0, #0x30
    unsigned int i = 0U;
    41d8:	52800018 	mov	w24, #0x0                   	// #0
        if (_is_digit(*format)) {
    41dc:	12001c42 	and	w2, w2, #0xff
    41e0:	7100245f 	cmp	w2, #0x9
    41e4:	54ffa2a8 	b.hi	3638 <_vsnprintf+0x1c8>  // b.pmore
        i = i * 10U + (unsigned int)(*((*str)++) - '0');
    41e8:	52800142 	mov	w2, #0xa                   	// #10
    41ec:	d503201f 	nop
    41f0:	1b020305 	madd	w5, w24, w2, w0
    while (_is_digit(**str)) {
    41f4:	39400100 	ldrb	w0, [x8]
        i = i * 10U + (unsigned int)(*((*str)++) - '0');
    41f8:	aa0803f9 	mov	x25, x8
    41fc:	91000508 	add	x8, x8, #0x1
    return (ch >= '0') && (ch <= '9');
    4200:	5100c004 	sub	w4, w0, #0x30
        i = i * 10U + (unsigned int)(*((*str)++) - '0');
    4204:	5100c0b8 	sub	w24, w5, #0x30
    while (_is_digit(**str)) {
    4208:	12001c84 	and	w4, w4, #0xff
    420c:	7100249f 	cmp	w4, #0x9
    4210:	54ffff09 	b.ls	41f0 <_vsnprintf+0xd80>  // b.plast
    4214:	17fffd09 	b	3638 <_vsnprintf+0x1c8>
        switch (*format) {
    4218:	aa1903e4 	mov	x4, x25
    421c:	17fffcf0 	b	35dc <_vsnprintf+0x16c>

0000000000004220 <printf>:

///////////////////////////////////////////////////////////////////////////////

int printf(const char* format, ...)
{
    4220:	a9ad7bfd 	stp	x29, x30, [sp, #-304]!
    4224:	910003fd 	mov	x29, sp
    4228:	f9000bf3 	str	x19, [sp, #16]
    422c:	aa0003f3 	mov	x19, x0
    4230:	3d801fe0 	str	q0, [sp, #112]
    4234:	3d8023e1 	str	q1, [sp, #128]
    4238:	3d8027e2 	str	q2, [sp, #144]
    423c:	3d802be3 	str	q3, [sp, #160]
    4240:	3d802fe4 	str	q4, [sp, #176]
    4244:	3d8033e5 	str	q5, [sp, #192]
    4248:	3d8037e6 	str	q6, [sp, #208]
    424c:	3d803be7 	str	q7, [sp, #224]
    4250:	a90f8be1 	stp	x1, x2, [sp, #248]
    4254:	a91093e3 	stp	x3, x4, [sp, #264]
    4258:	a9119be5 	stp	x5, x6, [sp, #280]
    425c:	f90097e7 	str	x7, [sp, #296]
    if (!init_uart_mmio()) {
    4260:	97fff968 	bl	2800 <init_uart_mmio>
    4264:	72001c1f 	tst	w0, #0xff
    4268:	540002e0 	b.eq	42c4 <printf+0xa4>  // b.none
        return -1;
    }
    va_list va;
    va_start(va, format);
    426c:	9103c3e0 	add	x0, sp, #0xf0
    4270:	9104c3e3 	add	x3, sp, #0x130
    4274:	9104c3e4 	add	x4, sp, #0x130
    4278:	128006e2 	mov	w2, #0xffffffc8            	// #-56
    427c:	12800fe1 	mov	w1, #0xffffff80            	// #-128
    4280:	a90513e3 	stp	x3, x4, [sp, #80]
    char buffer[1];
    const int ret = _vsnprintf(_out_char, buffer, (size_t)-1, format, va);
    4284:	aa1303e3 	mov	x3, x19
    va_start(va, format);
    4288:	f90033e0 	str	x0, [sp, #96]
    const int ret = _vsnprintf(_out_char, buffer, (size_t)-1, format, va);
    428c:	910083e4 	add	x4, sp, #0x20
    va_start(va, format);
    4290:	290d07e2 	stp	w2, w1, [sp, #104]
    const int ret = _vsnprintf(_out_char, buffer, (size_t)-1, format, va);
    4294:	f0ffffe0 	adrp	x0, 3000 <_etoa+0x330>
    4298:	91110000 	add	x0, x0, #0x440
    429c:	910123e1 	add	x1, sp, #0x48
    42a0:	a94527e8 	ldp	x8, x9, [sp, #80]
    42a4:	92800002 	mov	x2, #0xffffffffffffffff    	// #-1
    42a8:	a9461fe6 	ldp	x6, x7, [sp, #96]
    42ac:	a90227e8 	stp	x8, x9, [sp, #32]
    42b0:	a9031fe6 	stp	x6, x7, [sp, #48]
    42b4:	97fffc6f 	bl	3470 <_vsnprintf>
    va_end(va);
    return ret;
}
    42b8:	f9400bf3 	ldr	x19, [sp, #16]
    42bc:	a8d37bfd 	ldp	x29, x30, [sp], #304
    42c0:	d65f03c0 	ret
        return -1;
    42c4:	12800000 	mov	w0, #0xffffffff            	// #-1
    42c8:	17fffffc 	b	42b8 <printf+0x98>
    42cc:	d503201f 	nop

00000000000042d0 <sprintf_>:

int sprintf_(char* buffer, const char* format, ...)
{
    42d0:	a9b07bfd 	stp	x29, x30, [sp, #-256]!
    va_list va;
    va_start(va, format);
    42d4:	128005e9 	mov	w9, #0xffffffd0            	// #-48
    42d8:	12800fe8 	mov	w8, #0xffffff80            	// #-128
{
    42dc:	910003fd 	mov	x29, sp
    va_start(va, format);
    42e0:	910343eb 	add	x11, sp, #0xd0
    42e4:	910403ea 	add	x10, sp, #0x100
    42e8:	a9032bea 	stp	x10, x10, [sp, #48]
{
    42ec:	aa0103ea 	mov	x10, x1
    const int ret = _vsnprintf(_out_buffer, buffer, (size_t)-1, format, va);
    42f0:	aa0003e1 	mov	x1, x0
    va_start(va, format);
    42f4:	f90023eb 	str	x11, [sp, #64]
    const int ret = _vsnprintf(_out_buffer, buffer, (size_t)-1, format, va);
    42f8:	d0ffffe0 	adrp	x0, 2000 <InodeWrite+0x80>
    42fc:	91230000 	add	x0, x0, #0x8c0
    va_start(va, format);
    4300:	290923e9 	stp	w9, w8, [sp, #72]
    const int ret = _vsnprintf(_out_buffer, buffer, (size_t)-1, format, va);
    4304:	a94337ec 	ldp	x12, x13, [sp, #48]
    4308:	a90137ec 	stp	x12, x13, [sp, #16]
    430c:	a94427e8 	ldp	x8, x9, [sp, #64]
    4310:	a90227e8 	stp	x8, x9, [sp, #32]
{
    4314:	3d8017e0 	str	q0, [sp, #80]
    4318:	3d801be1 	str	q1, [sp, #96]
    431c:	3d801fe2 	str	q2, [sp, #112]
    4320:	3d8023e3 	str	q3, [sp, #128]
    4324:	3d8027e4 	str	q4, [sp, #144]
    4328:	3d802be5 	str	q5, [sp, #160]
    432c:	3d802fe6 	str	q6, [sp, #176]
    4330:	3d8033e7 	str	q7, [sp, #192]
    4334:	a90d0fe2 	stp	x2, x3, [sp, #208]
    const int ret = _vsnprintf(_out_buffer, buffer, (size_t)-1, format, va);
    4338:	aa0a03e3 	mov	x3, x10
    433c:	92800002 	mov	x2, #0xffffffffffffffff    	// #-1
{
    4340:	a90e17e4 	stp	x4, x5, [sp, #224]
    const int ret = _vsnprintf(_out_buffer, buffer, (size_t)-1, format, va);
    4344:	910043e4 	add	x4, sp, #0x10
{
    4348:	a90f1fe6 	stp	x6, x7, [sp, #240]
    const int ret = _vsnprintf(_out_buffer, buffer, (size_t)-1, format, va);
    434c:	97fffc49 	bl	3470 <_vsnprintf>
    va_end(va);
    return ret;
}
    4350:	a8d07bfd 	ldp	x29, x30, [sp], #256
    4354:	d65f03c0 	ret
    4358:	d503201f 	nop
    435c:	d503201f 	nop

0000000000004360 <snprintf_>:

int snprintf_(char* buffer, size_t count, const char* format, ...)
{
    4360:	a9b07bfd 	stp	x29, x30, [sp, #-256]!
    va_list va;
    va_start(va, format);
    4364:	128004eb 	mov	w11, #0xffffffd8            	// #-40
    4368:	12800fe9 	mov	w9, #0xffffff80            	// #-128
{
    436c:	910003fd 	mov	x29, sp
    va_start(va, format);
    4370:	910343ea 	add	x10, sp, #0xd0
    4374:	910403e8 	add	x8, sp, #0x100
    4378:	a90323e8 	stp	x8, x8, [sp, #48]
{
    437c:	aa0103e8 	mov	x8, x1
    const int ret = _vsnprintf(_out_buffer, buffer, count, format, va);
    4380:	aa0003e1 	mov	x1, x0
    va_start(va, format);
    4384:	f90023ea 	str	x10, [sp, #64]
{
    4388:	aa0203ea 	mov	x10, x2
    va_start(va, format);
    438c:	290927eb 	stp	w11, w9, [sp, #72]
    const int ret = _vsnprintf(_out_buffer, buffer, count, format, va);
    4390:	aa0803e2 	mov	x2, x8
    4394:	a94337ec 	ldp	x12, x13, [sp, #48]
    4398:	d0ffffe0 	adrp	x0, 2000 <InodeWrite+0x80>
    439c:	a94427e8 	ldp	x8, x9, [sp, #64]
    43a0:	91230000 	add	x0, x0, #0x8c0
    43a4:	a90137ec 	stp	x12, x13, [sp, #16]
    43a8:	a90227e8 	stp	x8, x9, [sp, #32]
{
