
init:     file format elf64-littleaarch64


Disassembly of section .text:

0000000000000000 <main>:
#include "libfs.h"
#include "libserial.h"
#include "usyscall.h"

int main(int argc, char* argv[])
{
       0:	a9bb7bfd 	stp	x29, x30, [sp, #-80]!
    struct Session session;
    printf("init: connecting MemFS\n");
       4:	f0000040 	adrp	x0, b000 <_wcsnrtombs_l+0x130>
       8:	91342000 	add	x0, x0, #0xd08
{
       c:	910003fd 	mov	x29, sp
      10:	f9000bf3 	str	x19, [sp, #16]
      14:	f0000053 	adrp	x19, b000 <_wcsnrtombs_l+0x130>
      18:	91348273 	add	x19, x19, #0xd20
    printf("init: connecting MemFS\n");
      1c:	94000b99 	bl	2e80 <printf>
    while (connect_session(&session, "MemFS", 8092) < 0) {
      20:	14000003 	b	2c <main+0x2c>
        yield(SYS_TASK_YIELD_NO_REASON);
      24:	52800000 	mov	w0, #0x0                   	// #0
      28:	94000c9a 	bl	3290 <yield>
    while (connect_session(&session, "MemFS", 8092) < 0) {
      2c:	aa1303e1 	mov	x1, x19
      30:	9100e3e0 	add	x0, sp, #0x38
      34:	5283f382 	mov	w2, #0x1f9c                	// #8092
      38:	940004a6 	bl	12d0 <connect_session>
      3c:	37ffff40 	tbnz	w0, #31, 24 <main+0x24>
    }
    printf("init: connect MemFS success\n");
      40:	f0000040 	adrp	x0, b000 <_wcsnrtombs_l+0x130>
      44:	9134a000 	add	x0, x0, #0xd28
      48:	94000b8e 	bl	2e80 <printf>

    int fd;
    char* shell_task_param[2] = { "/shell", 0 };
    if ((fd = open(&session, shell_task_param[0])) < 0) {
      4c:	9100e3e0 	add	x0, sp, #0x38
    char* shell_task_param[2] = { "/shell", 0 };
      50:	f0000041 	adrp	x1, b000 <_wcsnrtombs_l+0x130>
      54:	91352021 	add	x1, x1, #0xd48
      58:	a902ffe1 	stp	x1, xzr, [sp, #40]
    if ((fd = open(&session, shell_task_param[0])) < 0) {
      5c:	940001bd 	bl	750 <open>
      60:	2a0003f3 	mov	w19, w0
      64:	37f80280 	tbnz	w0, #31, b4 <main+0xb4>
        printf("Open %s failed\n", shell_task_param[0]);
        exit(1);
    }

    if (spawn(&session, fd, read, fsize, shell_task_param[0], shell_task_param) < 0) {
      68:	f94017e4 	ldr	x4, [sp, #40]
      6c:	90000003 	adrp	x3, 0 <main>
      70:	90000002 	adrp	x2, 0 <main>
      74:	91304063 	add	x3, x3, #0xc10
      78:	9124c042 	add	x2, x2, #0x930
      7c:	9100a3e5 	add	x5, sp, #0x28
      80:	2a1303e1 	mov	w1, w19
      84:	9100e3e0 	add	x0, sp, #0x38
      88:	94000c3e 	bl	3180 <spawn>
      8c:	37f80220 	tbnz	w0, #31, d0 <main+0xd0>
        printf("Syscall Spawn shell failed\n");
    }

    close(&session, fd);
      90:	2a1303e1 	mov	w1, w19
      94:	9100e3e0 	add	x0, sp, #0x38
      98:	940001ee 	bl	850 <close>

    exit(0);
      9c:	52800000 	mov	w0, #0x0                   	// #0
      a0:	94000c74 	bl	3270 <exit>
    return 0;
}
      a4:	52800000 	mov	w0, #0x0                   	// #0
      a8:	f9400bf3 	ldr	x19, [sp, #16]
      ac:	a8c57bfd 	ldp	x29, x30, [sp], #80
      b0:	d65f03c0 	ret
        printf("Open %s failed\n", shell_task_param[0]);
      b4:	f94017e1 	ldr	x1, [sp, #40]
      b8:	f0000040 	adrp	x0, b000 <_wcsnrtombs_l+0x130>
      bc:	91354000 	add	x0, x0, #0xd50
      c0:	94000b70 	bl	2e80 <printf>
        exit(1);
      c4:	52800020 	mov	w0, #0x1                   	// #1
      c8:	94000c6a 	bl	3270 <exit>
      cc:	17ffffe7 	b	68 <main+0x68>
        printf("Syscall Spawn shell failed\n");
      d0:	f0000040 	adrp	x0, b000 <_wcsnrtombs_l+0x130>
      d4:	91358000 	add	x0, x0, #0xd60
      d8:	94000b6a 	bl	2e80 <printf>
      dc:	17ffffed 	b	90 <main+0x90>

00000000000000e0 <deregister_tm_clones>:
      e0:	b0000060 	adrp	x0, d000 <__global_locale+0x20>
      e4:	9126c000 	add	x0, x0, #0x9b0
      e8:	b0000061 	adrp	x1, d000 <__global_locale+0x20>
      ec:	9126c021 	add	x1, x1, #0x9b0
      f0:	eb00003f 	cmp	x1, x0
      f4:	540000c0 	b.eq	10c <deregister_tm_clones+0x2c>  // b.none
      f8:	f0000041 	adrp	x1, b000 <_wcsnrtombs_l+0x130>
      fc:	f9467421 	ldr	x1, [x1, #3304]
     100:	b4000061 	cbz	x1, 10c <deregister_tm_clones+0x2c>
     104:	aa0103f0 	mov	x16, x1
     108:	d61f0200 	br	x16
     10c:	d65f03c0 	ret

0000000000000110 <register_tm_clones>:
     110:	b0000060 	adrp	x0, d000 <__global_locale+0x20>
     114:	9126c000 	add	x0, x0, #0x9b0
     118:	b0000061 	adrp	x1, d000 <__global_locale+0x20>
     11c:	9126c021 	add	x1, x1, #0x9b0
     120:	cb000021 	sub	x1, x1, x0
     124:	d37ffc22 	lsr	x2, x1, #63
     128:	8b810c41 	add	x1, x2, x1, asr #3
     12c:	9341fc21 	asr	x1, x1, #1
     130:	b40000c1 	cbz	x1, 148 <register_tm_clones+0x38>
     134:	f0000042 	adrp	x2, b000 <_wcsnrtombs_l+0x130>
     138:	f9467842 	ldr	x2, [x2, #3312]
     13c:	b4000062 	cbz	x2, 148 <register_tm_clones+0x38>
     140:	aa0203f0 	mov	x16, x2
     144:	d61f0200 	br	x16
     148:	d65f03c0 	ret
     14c:	d503201f 	nop

0000000000000150 <__do_global_dtors_aux>:
     150:	a9be7bfd 	stp	x29, x30, [sp, #-32]!
     154:	910003fd 	mov	x29, sp
     158:	f9000bf3 	str	x19, [sp, #16]
     15c:	b0000073 	adrp	x19, d000 <__global_locale+0x20>
     160:	3966c260 	ldrb	w0, [x19, #2480]
     164:	35000140 	cbnz	w0, 18c <__do_global_dtors_aux+0x3c>
     168:	97ffffde 	bl	e0 <deregister_tm_clones>
     16c:	f0000040 	adrp	x0, b000 <_wcsnrtombs_l+0x130>
     170:	f9467c00 	ldr	x0, [x0, #3320]
     174:	b4000080 	cbz	x0, 184 <__do_global_dtors_aux+0x34>
     178:	90000060 	adrp	x0, c000 <__func__.0+0x28>
     17c:	91213000 	add	x0, x0, #0x84c
     180:	d503201f 	nop
     184:	52800020 	mov	w0, #0x1                   	// #1
     188:	3926c260 	strb	w0, [x19, #2480]
     18c:	f9400bf3 	ldr	x19, [sp, #16]
     190:	a8c27bfd 	ldp	x29, x30, [sp], #32
     194:	d65f03c0 	ret
     198:	d503201f 	nop
     19c:	d503201f 	nop

00000000000001a0 <frame_dummy>:
     1a0:	f0000040 	adrp	x0, b000 <_wcsnrtombs_l+0x130>
     1a4:	f9468000 	ldr	x0, [x0, #3328]
     1a8:	b4000140 	cbz	x0, 1d0 <frame_dummy+0x30>
     1ac:	a9bf7bfd 	stp	x29, x30, [sp, #-16]!
     1b0:	b0000061 	adrp	x1, d000 <__global_locale+0x20>
     1b4:	90000060 	adrp	x0, c000 <__func__.0+0x28>
     1b8:	910003fd 	mov	x29, sp
     1bc:	9126e021 	add	x1, x1, #0x9b8
     1c0:	91213000 	add	x0, x0, #0x84c
     1c4:	d503201f 	nop
     1c8:	a8c17bfd 	ldp	x29, x30, [sp], #16
     1cc:	17ffffd1 	b	110 <register_tm_clones>
     1d0:	17ffffd0 	b	110 <register_tm_clones>
     1d4:	d503201f 	nop

00000000000001d8 <_mainCRTStartup>:
     1d8:	58000281 	ldr	x1, 228 <_cpu_init_hook+0x4>
     1dc:	927cec20 	and	x0, x1, #0xfffffffffffffff0
     1e0:	9100001f 	mov	sp, x0
     1e4:	d280001d 	mov	x29, #0x0                   	// #0
     1e8:	a9bf77fd 	stp	x29, x29, [sp, #-16]!
     1ec:	910003fd 	mov	x29, sp
     1f0:	9400000d 	bl	224 <_cpu_init_hook>
     1f4:	580001e0 	ldr	x0, 230 <_cpu_init_hook+0xc>
     1f8:	52800001 	mov	w1, #0x0                   	// #0
     1fc:	580001e2 	ldr	x2, 238 <_cpu_init_hook+0x14>
     200:	cb000042 	sub	x2, x2, x0
     204:	9400100f 	bl	4240 <memset>
     208:	580001c0 	ldr	x0, 240 <_cpu_init_hook+0x1c>
     20c:	94000ef9 	bl	3df0 <atexit>
     210:	94000f54 	bl	3f60 <__libc_init_array>
     214:	d2800000 	mov	x0, #0x0                   	// #0
     218:	d2800001 	mov	x1, #0x0                   	// #0
     21c:	97ffff79 	bl	0 <main>
     220:	14000c14 	b	3270 <exit>

0000000000000224 <_cpu_init_hook>:
     224:	d65f03c0 	ret
	...
     230:	0000d9b0 	.word	0x0000d9b0
     234:	00000000 	.word	0x00000000
     238:	0000ddc8 	.word	0x0000ddc8
     23c:	00000000 	.word	0x00000000
     240:	00003e10 	.word	0x00003e10
     244:	00000000 	.word	0x00000000
     248:	d503201f 	.word	0xd503201f
     24c:	d503201f 	.word	0xd503201f

0000000000000250 <ls>:
 * MERCHANTABILITY OR FIT FOR A PARTICULAR PURPOSE.
 * See the Mulan PSL v2 for more details.
 */
#include "libfs.h"

IPC_INTERFACE(Ipc_ls, 1, path, strlen(path) + 1);
     250:	b40006c0 	cbz	x0, 328 <ls+0xd8>
int ls(struct Session* session, char* path)
{
     254:	a9bc7bfd 	stp	x29, x30, [sp, #-64]!
     258:	910003fd 	mov	x29, sp
     25c:	a90153f3 	stp	x19, x20, [sp, #16]
     260:	aa0103f4 	mov	x20, x1
     264:	f90013f5 	str	x21, [sp, #32]
     268:	aa0003f5 	mov	x21, x0
IPC_INTERFACE(Ipc_ls, 1, path, strlen(path) + 1);
     26c:	aa0103e0 	mov	x0, x1
     270:	94001074 	bl	4440 <strlen>
     274:	11000403 	add	w3, w0, #0x1
     278:	9100e3e2 	add	x2, sp, #0x38
     27c:	52800021 	mov	w1, #0x1                   	// #1
     280:	aa1503e0 	mov	x0, x21
     284:	b9003be3 	str	w3, [sp, #56]
     288:	9400029a 	bl	cf0 <new_ipc_msg>
     28c:	aa0003f3 	mov	x19, x0
     290:	aa1403e0 	mov	x0, x20
     294:	9400106b 	bl	4440 <strlen>
     298:	aa1403e2 	mov	x2, x20
     29c:	11000403 	add	w3, w0, #0x1
     2a0:	52800001 	mov	w1, #0x0                   	// #0
     2a4:	aa1303e0 	mov	x0, x19
     2a8:	940002d2 	bl	df0 <ipc_msg_set_nth_arg>
__attribute__((__always_inline__)) static inline bool ipc_msg_set_opcode(struct IpcMsg* msg, int opcode)
{
    if (opcode < 0 || opcode > UINT8_MAX) {
        return false;
    }
    msg->header.opcode = opcode;
     2ac:	52800020 	mov	w0, #0x1                   	// #1
     2b0:	39000660 	strb	w0, [x19, #1]
     2b4:	aa1303e0 	mov	x0, x19
     2b8:	9400033e 	bl	fb0 <ipc_msg_send_wait>
     2bc:	aa1403e0 	mov	x0, x20
     2c0:	94001060 	bl	4440 <strlen>
     2c4:	aa1403e2 	mov	x2, x20
     2c8:	11000403 	add	w3, w0, #0x1
     2cc:	52800001 	mov	w1, #0x0                   	// #0
     2d0:	aa1303e0 	mov	x0, x19
     2d4:	940002ff 	bl	ed0 <ipc_msg_get_nth_arg>
     2d8:	b9003bff 	str	wzr, [sp, #56]
    assert(msg->header.done == 1);
     2dc:	39400260 	ldrb	w0, [x19]
     2e0:	36080280 	tbz	w0, #1, 330 <ls+0xe0>
    memcpy(ret_val, &msg->header.ret_val, sizeof(msg->header.ret_val));
     2e4:	91002261 	add	x1, x19, #0x8
     2e8:	d2800082 	mov	x2, #0x4                   	// #4
     2ec:	9100e3e0 	add	x0, sp, #0x38
     2f0:	94000f44 	bl	4000 <memcpy>
/// @brief delete first msg in session
/// @param session
/// @return
__attribute__((__always_inline__)) static inline bool ipc_session_forward(struct Session* session)
{
    struct IpcMsg* msg = IPCSESSION_MSG(session);
     2f4:	b9800aa0 	ldrsw	x0, [x21, #8]
     2f8:	f9400aa1 	ldr	x1, [x21, #16]
     2fc:	8b000022 	add	x2, x1, x0
    if (msg->header.init != 1) {
     300:	38606820 	ldrb	w0, [x1, x0]
     304:	36100080 	tbz	w0, #2, 314 <ls+0xc4>
        return false;
    }
    return session_free_buf(session, msg->header.len);
     308:	79400441 	ldrh	w1, [x2, #2]
     30c:	aa1503e0 	mov	x0, x21
     310:	94000434 	bl	13e0 <session_free_buf>
     314:	b9403be0 	ldr	w0, [sp, #56]
    return IPC_CALL(Ipc_ls)(session, path);
}
     318:	a94153f3 	ldp	x19, x20, [sp, #16]
     31c:	f94013f5 	ldr	x21, [sp, #32]
     320:	a8c47bfd 	ldp	x29, x30, [sp], #64
     324:	d65f03c0 	ret
IPC_INTERFACE(Ipc_ls, 1, path, strlen(path) + 1);
     328:	12800000 	mov	w0, #0xffffffff            	// #-1
}
     32c:	d65f03c0 	ret
    assert(msg->header.done == 1);
     330:	f0000043 	adrp	x3, b000 <_wcsnrtombs_l+0x130>
     334:	f0000042 	adrp	x2, b000 <_wcsnrtombs_l+0x130>
     338:	f0000040 	adrp	x0, b000 <_wcsnrtombs_l+0x130>
     33c:	91360063 	add	x3, x3, #0xd80
     340:	9137a042 	add	x2, x2, #0xde8
     344:	91366000 	add	x0, x0, #0xd98
     348:	52800fc1 	mov	w1, #0x7e                  	// #126
     34c:	94000e89 	bl	3d70 <__assert_func>

0000000000000350 <cd>:

IPC_INTERFACE(Ipc_cd, 1, path, strlen(path) + 1);
     350:	b40006c0 	cbz	x0, 428 <cd+0xd8>
int cd(struct Session* session, char* path)
{
     354:	a9bc7bfd 	stp	x29, x30, [sp, #-64]!
     358:	910003fd 	mov	x29, sp
     35c:	a90153f3 	stp	x19, x20, [sp, #16]
     360:	aa0103f4 	mov	x20, x1
     364:	f90013f5 	str	x21, [sp, #32]
     368:	aa0003f5 	mov	x21, x0
IPC_INTERFACE(Ipc_cd, 1, path, strlen(path) + 1);
     36c:	aa0103e0 	mov	x0, x1
     370:	94001034 	bl	4440 <strlen>
     374:	11000403 	add	w3, w0, #0x1
     378:	9100e3e2 	add	x2, sp, #0x38
     37c:	52800021 	mov	w1, #0x1                   	// #1
     380:	aa1503e0 	mov	x0, x21
     384:	b9003be3 	str	w3, [sp, #56]
     388:	9400025a 	bl	cf0 <new_ipc_msg>
     38c:	aa0003f3 	mov	x19, x0
     390:	aa1403e0 	mov	x0, x20
     394:	9400102b 	bl	4440 <strlen>
     398:	aa1403e2 	mov	x2, x20
     39c:	11000403 	add	w3, w0, #0x1
     3a0:	52800001 	mov	w1, #0x0                   	// #0
     3a4:	aa1303e0 	mov	x0, x19
     3a8:	94000292 	bl	df0 <ipc_msg_set_nth_arg>
    msg->header.opcode = opcode;
     3ac:	52800040 	mov	w0, #0x2                   	// #2
     3b0:	39000660 	strb	w0, [x19, #1]
     3b4:	aa1303e0 	mov	x0, x19
     3b8:	940002fe 	bl	fb0 <ipc_msg_send_wait>
     3bc:	aa1403e0 	mov	x0, x20
     3c0:	94001020 	bl	4440 <strlen>
     3c4:	aa1403e2 	mov	x2, x20
     3c8:	11000403 	add	w3, w0, #0x1
     3cc:	52800001 	mov	w1, #0x0                   	// #0
     3d0:	aa1303e0 	mov	x0, x19
     3d4:	940002bf 	bl	ed0 <ipc_msg_get_nth_arg>
     3d8:	b9003bff 	str	wzr, [sp, #56]
    assert(msg->header.done == 1);
     3dc:	39400260 	ldrb	w0, [x19]
     3e0:	36080280 	tbz	w0, #1, 430 <cd+0xe0>
    memcpy(ret_val, &msg->header.ret_val, sizeof(msg->header.ret_val));
     3e4:	91002261 	add	x1, x19, #0x8
     3e8:	d2800082 	mov	x2, #0x4                   	// #4
     3ec:	9100e3e0 	add	x0, sp, #0x38
     3f0:	94000f04 	bl	4000 <memcpy>
    struct IpcMsg* msg = IPCSESSION_MSG(session);
     3f4:	b9800aa0 	ldrsw	x0, [x21, #8]
     3f8:	f9400aa1 	ldr	x1, [x21, #16]
     3fc:	8b000022 	add	x2, x1, x0
    if (msg->header.init != 1) {
     400:	38606820 	ldrb	w0, [x1, x0]
     404:	36100080 	tbz	w0, #2, 414 <cd+0xc4>
    return session_free_buf(session, msg->header.len);
     408:	79400441 	ldrh	w1, [x2, #2]
     40c:	aa1503e0 	mov	x0, x21
     410:	940003f4 	bl	13e0 <session_free_buf>
     414:	b9403be0 	ldr	w0, [sp, #56]
    return IPC_CALL(Ipc_cd)(session, path);
}
     418:	a94153f3 	ldp	x19, x20, [sp, #16]
     41c:	f94013f5 	ldr	x21, [sp, #32]
     420:	a8c47bfd 	ldp	x29, x30, [sp], #64
     424:	d65f03c0 	ret
IPC_INTERFACE(Ipc_cd, 1, path, strlen(path) + 1);
     428:	12800000 	mov	w0, #0xffffffff            	// #-1
}
     42c:	d65f03c0 	ret
    assert(msg->header.done == 1);
     430:	f0000043 	adrp	x3, b000 <_wcsnrtombs_l+0x130>
     434:	f0000042 	adrp	x2, b000 <_wcsnrtombs_l+0x130>
     438:	f0000040 	adrp	x0, b000 <_wcsnrtombs_l+0x130>
     43c:	91360063 	add	x3, x3, #0xd80
     440:	9137a042 	add	x2, x2, #0xde8
     444:	91366000 	add	x0, x0, #0xd98
     448:	52800fc1 	mov	w1, #0x7e                  	// #126
     44c:	94000e49 	bl	3d70 <__assert_func>

0000000000000450 <mkdir>:

IPC_INTERFACE(Ipc_mkdir, 1, path, strlen(path) + 1);
     450:	b40006c0 	cbz	x0, 528 <mkdir+0xd8>
int mkdir(struct Session* session, char* path)
{
     454:	a9bc7bfd 	stp	x29, x30, [sp, #-64]!
     458:	910003fd 	mov	x29, sp
     45c:	a90153f3 	stp	x19, x20, [sp, #16]
     460:	aa0103f4 	mov	x20, x1
     464:	f90013f5 	str	x21, [sp, #32]
     468:	aa0003f5 	mov	x21, x0
IPC_INTERFACE(Ipc_mkdir, 1, path, strlen(path) + 1);
     46c:	aa0103e0 	mov	x0, x1
     470:	94000ff4 	bl	4440 <strlen>
     474:	11000403 	add	w3, w0, #0x1
     478:	9100e3e2 	add	x2, sp, #0x38
     47c:	52800021 	mov	w1, #0x1                   	// #1
     480:	aa1503e0 	mov	x0, x21
     484:	b9003be3 	str	w3, [sp, #56]
     488:	9400021a 	bl	cf0 <new_ipc_msg>
     48c:	aa0003f3 	mov	x19, x0
     490:	aa1403e0 	mov	x0, x20
     494:	94000feb 	bl	4440 <strlen>
     498:	aa1403e2 	mov	x2, x20
     49c:	11000403 	add	w3, w0, #0x1
     4a0:	52800001 	mov	w1, #0x0                   	// #0
     4a4:	aa1303e0 	mov	x0, x19
     4a8:	94000252 	bl	df0 <ipc_msg_set_nth_arg>
    msg->header.opcode = opcode;
     4ac:	52800060 	mov	w0, #0x3                   	// #3
     4b0:	39000660 	strb	w0, [x19, #1]
     4b4:	aa1303e0 	mov	x0, x19
     4b8:	940002be 	bl	fb0 <ipc_msg_send_wait>
     4bc:	aa1403e0 	mov	x0, x20
     4c0:	94000fe0 	bl	4440 <strlen>
     4c4:	aa1403e2 	mov	x2, x20
     4c8:	11000403 	add	w3, w0, #0x1
     4cc:	52800001 	mov	w1, #0x0                   	// #0
     4d0:	aa1303e0 	mov	x0, x19
     4d4:	9400027f 	bl	ed0 <ipc_msg_get_nth_arg>
     4d8:	b9003bff 	str	wzr, [sp, #56]
    assert(msg->header.done == 1);
     4dc:	39400260 	ldrb	w0, [x19]
     4e0:	36080280 	tbz	w0, #1, 530 <mkdir+0xe0>
    memcpy(ret_val, &msg->header.ret_val, sizeof(msg->header.ret_val));
     4e4:	91002261 	add	x1, x19, #0x8
     4e8:	d2800082 	mov	x2, #0x4                   	// #4
     4ec:	9100e3e0 	add	x0, sp, #0x38
     4f0:	94000ec4 	bl	4000 <memcpy>
    struct IpcMsg* msg = IPCSESSION_MSG(session);
     4f4:	b9800aa0 	ldrsw	x0, [x21, #8]
     4f8:	f9400aa1 	ldr	x1, [x21, #16]
     4fc:	8b000022 	add	x2, x1, x0
    if (msg->header.init != 1) {
     500:	38606820 	ldrb	w0, [x1, x0]
     504:	36100080 	tbz	w0, #2, 514 <mkdir+0xc4>
    return session_free_buf(session, msg->header.len);
     508:	79400441 	ldrh	w1, [x2, #2]
     50c:	aa1503e0 	mov	x0, x21
     510:	940003b4 	bl	13e0 <session_free_buf>
     514:	b9403be0 	ldr	w0, [sp, #56]
    return IPC_CALL(Ipc_mkdir)(session, path);
}
     518:	a94153f3 	ldp	x19, x20, [sp, #16]
     51c:	f94013f5 	ldr	x21, [sp, #32]
     520:	a8c47bfd 	ldp	x29, x30, [sp], #64
     524:	d65f03c0 	ret
IPC_INTERFACE(Ipc_mkdir, 1, path, strlen(path) + 1);
     528:	12800000 	mov	w0, #0xffffffff            	// #-1
}
     52c:	d65f03c0 	ret
    assert(msg->header.done == 1);
     530:	f0000043 	adrp	x3, b000 <_wcsnrtombs_l+0x130>
     534:	f0000042 	adrp	x2, b000 <_wcsnrtombs_l+0x130>
     538:	f0000040 	adrp	x0, b000 <_wcsnrtombs_l+0x130>
     53c:	91360063 	add	x3, x3, #0xd80
     540:	9137a042 	add	x2, x2, #0xde8
     544:	91366000 	add	x0, x0, #0xd98
     548:	52800fc1 	mov	w1, #0x7e                  	// #126
     54c:	94000e09 	bl	3d70 <__assert_func>

0000000000000550 <rm>:

IPC_INTERFACE(Ipc_delete, 1, path, strlen(path) + 1);
     550:	b40006c0 	cbz	x0, 628 <rm+0xd8>
int rm(struct Session* session, char* path)
{
     554:	a9bc7bfd 	stp	x29, x30, [sp, #-64]!
     558:	910003fd 	mov	x29, sp
     55c:	a90153f3 	stp	x19, x20, [sp, #16]
     560:	aa0103f4 	mov	x20, x1
     564:	f90013f5 	str	x21, [sp, #32]
     568:	aa0003f5 	mov	x21, x0
IPC_INTERFACE(Ipc_delete, 1, path, strlen(path) + 1);
     56c:	aa0103e0 	mov	x0, x1
     570:	94000fb4 	bl	4440 <strlen>
     574:	11000403 	add	w3, w0, #0x1
     578:	9100e3e2 	add	x2, sp, #0x38
     57c:	52800021 	mov	w1, #0x1                   	// #1
     580:	aa1503e0 	mov	x0, x21
     584:	b9003be3 	str	w3, [sp, #56]
     588:	940001da 	bl	cf0 <new_ipc_msg>
     58c:	aa0003f3 	mov	x19, x0
     590:	aa1403e0 	mov	x0, x20
     594:	94000fab 	bl	4440 <strlen>
     598:	aa1403e2 	mov	x2, x20
     59c:	11000403 	add	w3, w0, #0x1
     5a0:	52800001 	mov	w1, #0x0                   	// #0
     5a4:	aa1303e0 	mov	x0, x19
     5a8:	94000212 	bl	df0 <ipc_msg_set_nth_arg>
    msg->header.opcode = opcode;
     5ac:	52800080 	mov	w0, #0x4                   	// #4
     5b0:	39000660 	strb	w0, [x19, #1]
     5b4:	aa1303e0 	mov	x0, x19
     5b8:	9400027e 	bl	fb0 <ipc_msg_send_wait>
     5bc:	aa1403e0 	mov	x0, x20
     5c0:	94000fa0 	bl	4440 <strlen>
     5c4:	aa1403e2 	mov	x2, x20
     5c8:	11000403 	add	w3, w0, #0x1
     5cc:	52800001 	mov	w1, #0x0                   	// #0
     5d0:	aa1303e0 	mov	x0, x19
     5d4:	9400023f 	bl	ed0 <ipc_msg_get_nth_arg>
     5d8:	b9003bff 	str	wzr, [sp, #56]
    assert(msg->header.done == 1);
     5dc:	39400260 	ldrb	w0, [x19]
     5e0:	36080280 	tbz	w0, #1, 630 <rm+0xe0>
    memcpy(ret_val, &msg->header.ret_val, sizeof(msg->header.ret_val));
     5e4:	91002261 	add	x1, x19, #0x8
     5e8:	d2800082 	mov	x2, #0x4                   	// #4
     5ec:	9100e3e0 	add	x0, sp, #0x38
     5f0:	94000e84 	bl	4000 <memcpy>
    struct IpcMsg* msg = IPCSESSION_MSG(session);
     5f4:	b9800aa0 	ldrsw	x0, [x21, #8]
     5f8:	f9400aa1 	ldr	x1, [x21, #16]
     5fc:	8b000022 	add	x2, x1, x0
    if (msg->header.init != 1) {
     600:	38606820 	ldrb	w0, [x1, x0]
     604:	36100080 	tbz	w0, #2, 614 <rm+0xc4>
    return session_free_buf(session, msg->header.len);
     608:	79400441 	ldrh	w1, [x2, #2]
     60c:	aa1503e0 	mov	x0, x21
     610:	94000374 	bl	13e0 <session_free_buf>
     614:	b9403be0 	ldr	w0, [sp, #56]
    return IPC_CALL(Ipc_delete)(session, path);
}
     618:	a94153f3 	ldp	x19, x20, [sp, #16]
     61c:	f94013f5 	ldr	x21, [sp, #32]
     620:	a8c47bfd 	ldp	x29, x30, [sp], #64
     624:	d65f03c0 	ret
IPC_INTERFACE(Ipc_delete, 1, path, strlen(path) + 1);
     628:	12800000 	mov	w0, #0xffffffff            	// #-1
}
     62c:	d65f03c0 	ret
    assert(msg->header.done == 1);
     630:	f0000043 	adrp	x3, b000 <_wcsnrtombs_l+0x130>
     634:	f0000042 	adrp	x2, b000 <_wcsnrtombs_l+0x130>
     638:	f0000040 	adrp	x0, b000 <_wcsnrtombs_l+0x130>
     63c:	91360063 	add	x3, x3, #0xd80
     640:	9137a042 	add	x2, x2, #0xde8
     644:	91366000 	add	x0, x0, #0xd98
     648:	52800fc1 	mov	w1, #0x7e                  	// #126
     64c:	94000dc9 	bl	3d70 <__assert_func>

0000000000000650 <cat>:

IPC_INTERFACE(Ipc_cat, 1, path, strlen(path) + 1);
     650:	b40006c0 	cbz	x0, 728 <cat+0xd8>
int cat(struct Session* session, char* path)
{
     654:	a9bc7bfd 	stp	x29, x30, [sp, #-64]!
     658:	910003fd 	mov	x29, sp
     65c:	a90153f3 	stp	x19, x20, [sp, #16]
     660:	aa0103f4 	mov	x20, x1
     664:	f90013f5 	str	x21, [sp, #32]
     668:	aa0003f5 	mov	x21, x0
IPC_INTERFACE(Ipc_cat, 1, path, strlen(path) + 1);
     66c:	aa0103e0 	mov	x0, x1
     670:	94000f74 	bl	4440 <strlen>
     674:	11000403 	add	w3, w0, #0x1
     678:	9100e3e2 	add	x2, sp, #0x38
     67c:	52800021 	mov	w1, #0x1                   	// #1
     680:	aa1503e0 	mov	x0, x21
     684:	b9003be3 	str	w3, [sp, #56]
     688:	9400019a 	bl	cf0 <new_ipc_msg>
     68c:	aa0003f3 	mov	x19, x0
     690:	aa1403e0 	mov	x0, x20
     694:	94000f6b 	bl	4440 <strlen>
     698:	aa1403e2 	mov	x2, x20
     69c:	11000403 	add	w3, w0, #0x1
     6a0:	52800001 	mov	w1, #0x0                   	// #0
     6a4:	aa1303e0 	mov	x0, x19
     6a8:	940001d2 	bl	df0 <ipc_msg_set_nth_arg>
    msg->header.opcode = opcode;
     6ac:	528000a0 	mov	w0, #0x5                   	// #5
     6b0:	39000660 	strb	w0, [x19, #1]
     6b4:	aa1303e0 	mov	x0, x19
     6b8:	9400023e 	bl	fb0 <ipc_msg_send_wait>
     6bc:	aa1403e0 	mov	x0, x20
     6c0:	94000f60 	bl	4440 <strlen>
     6c4:	aa1403e2 	mov	x2, x20
     6c8:	11000403 	add	w3, w0, #0x1
     6cc:	52800001 	mov	w1, #0x0                   	// #0
     6d0:	aa1303e0 	mov	x0, x19
     6d4:	940001ff 	bl	ed0 <ipc_msg_get_nth_arg>
     6d8:	b9003bff 	str	wzr, [sp, #56]
    assert(msg->header.done == 1);
     6dc:	39400260 	ldrb	w0, [x19]
     6e0:	36080280 	tbz	w0, #1, 730 <cat+0xe0>
    memcpy(ret_val, &msg->header.ret_val, sizeof(msg->header.ret_val));
     6e4:	91002261 	add	x1, x19, #0x8
     6e8:	d2800082 	mov	x2, #0x4                   	// #4
     6ec:	9100e3e0 	add	x0, sp, #0x38
     6f0:	94000e44 	bl	4000 <memcpy>
    struct IpcMsg* msg = IPCSESSION_MSG(session);
     6f4:	b9800aa0 	ldrsw	x0, [x21, #8]
     6f8:	f9400aa1 	ldr	x1, [x21, #16]
     6fc:	8b000022 	add	x2, x1, x0
    if (msg->header.init != 1) {
     700:	38606820 	ldrb	w0, [x1, x0]
     704:	36100080 	tbz	w0, #2, 714 <cat+0xc4>
    return session_free_buf(session, msg->header.len);
     708:	79400441 	ldrh	w1, [x2, #2]
     70c:	aa1503e0 	mov	x0, x21
     710:	94000334 	bl	13e0 <session_free_buf>
     714:	b9403be0 	ldr	w0, [sp, #56]
    return IPC_CALL(Ipc_cat)(session, path);
}
     718:	a94153f3 	ldp	x19, x20, [sp, #16]
     71c:	f94013f5 	ldr	x21, [sp, #32]
     720:	a8c47bfd 	ldp	x29, x30, [sp], #64
     724:	d65f03c0 	ret
IPC_INTERFACE(Ipc_cat, 1, path, strlen(path) + 1);
     728:	12800000 	mov	w0, #0xffffffff            	// #-1
}
     72c:	d65f03c0 	ret
    assert(msg->header.done == 1);
     730:	f0000043 	adrp	x3, b000 <_wcsnrtombs_l+0x130>
     734:	f0000042 	adrp	x2, b000 <_wcsnrtombs_l+0x130>
     738:	f0000040 	adrp	x0, b000 <_wcsnrtombs_l+0x130>
     73c:	91360063 	add	x3, x3, #0xd80
     740:	9137a042 	add	x2, x2, #0xde8
     744:	91366000 	add	x0, x0, #0xd98
     748:	52800fc1 	mov	w1, #0x7e                  	// #126
     74c:	94000d89 	bl	3d70 <__assert_func>

0000000000000750 <open>:

IPC_INTERFACE(Ipc_open, 1, path, strlen(path) + 1);
     750:	b40006c0 	cbz	x0, 828 <open+0xd8>
int open(struct Session* session, char* path)
{
     754:	a9bc7bfd 	stp	x29, x30, [sp, #-64]!
     758:	910003fd 	mov	x29, sp
     75c:	a90153f3 	stp	x19, x20, [sp, #16]
     760:	aa0103f4 	mov	x20, x1
     764:	f90013f5 	str	x21, [sp, #32]
     768:	aa0003f5 	mov	x21, x0
IPC_INTERFACE(Ipc_open, 1, path, strlen(path) + 1);
     76c:	aa0103e0 	mov	x0, x1
     770:	94000f34 	bl	4440 <strlen>
     774:	11000403 	add	w3, w0, #0x1
     778:	9100e3e2 	add	x2, sp, #0x38
     77c:	52800021 	mov	w1, #0x1                   	// #1
     780:	aa1503e0 	mov	x0, x21
     784:	b9003be3 	str	w3, [sp, #56]
     788:	9400015a 	bl	cf0 <new_ipc_msg>
     78c:	aa0003f3 	mov	x19, x0
     790:	aa1403e0 	mov	x0, x20
     794:	94000f2b 	bl	4440 <strlen>
     798:	aa1403e2 	mov	x2, x20
     79c:	11000403 	add	w3, w0, #0x1
     7a0:	52800001 	mov	w1, #0x0                   	// #0
     7a4:	aa1303e0 	mov	x0, x19
     7a8:	94000192 	bl	df0 <ipc_msg_set_nth_arg>
    msg->header.opcode = opcode;
     7ac:	528000c0 	mov	w0, #0x6                   	// #6
     7b0:	39000660 	strb	w0, [x19, #1]
     7b4:	aa1303e0 	mov	x0, x19
     7b8:	940001fe 	bl	fb0 <ipc_msg_send_wait>
     7bc:	aa1403e0 	mov	x0, x20
     7c0:	94000f20 	bl	4440 <strlen>
     7c4:	aa1403e2 	mov	x2, x20
     7c8:	11000403 	add	w3, w0, #0x1
     7cc:	52800001 	mov	w1, #0x0                   	// #0
     7d0:	aa1303e0 	mov	x0, x19
     7d4:	940001bf 	bl	ed0 <ipc_msg_get_nth_arg>
     7d8:	b9003bff 	str	wzr, [sp, #56]
    assert(msg->header.done == 1);
     7dc:	39400260 	ldrb	w0, [x19]
     7e0:	36080280 	tbz	w0, #1, 830 <open+0xe0>
    memcpy(ret_val, &msg->header.ret_val, sizeof(msg->header.ret_val));
     7e4:	91002261 	add	x1, x19, #0x8
     7e8:	d2800082 	mov	x2, #0x4                   	// #4
     7ec:	9100e3e0 	add	x0, sp, #0x38
     7f0:	94000e04 	bl	4000 <memcpy>
    struct IpcMsg* msg = IPCSESSION_MSG(session);
     7f4:	b9800aa0 	ldrsw	x0, [x21, #8]
     7f8:	f9400aa1 	ldr	x1, [x21, #16]
     7fc:	8b000022 	add	x2, x1, x0
    if (msg->header.init != 1) {
     800:	38606820 	ldrb	w0, [x1, x0]
     804:	36100080 	tbz	w0, #2, 814 <open+0xc4>
    return session_free_buf(session, msg->header.len);
     808:	79400441 	ldrh	w1, [x2, #2]
     80c:	aa1503e0 	mov	x0, x21
     810:	940002f4 	bl	13e0 <session_free_buf>
     814:	b9403be0 	ldr	w0, [sp, #56]
    return IPC_CALL(Ipc_open)(session, path);
}
     818:	a94153f3 	ldp	x19, x20, [sp, #16]
     81c:	f94013f5 	ldr	x21, [sp, #32]
     820:	a8c47bfd 	ldp	x29, x30, [sp], #64
     824:	d65f03c0 	ret
IPC_INTERFACE(Ipc_open, 1, path, strlen(path) + 1);
     828:	12800000 	mov	w0, #0xffffffff            	// #-1
}
     82c:	d65f03c0 	ret
    assert(msg->header.done == 1);
     830:	f0000043 	adrp	x3, b000 <_wcsnrtombs_l+0x130>
     834:	f0000042 	adrp	x2, b000 <_wcsnrtombs_l+0x130>
     838:	f0000040 	adrp	x0, b000 <_wcsnrtombs_l+0x130>
     83c:	91360063 	add	x3, x3, #0xd80
     840:	9137a042 	add	x2, x2, #0xde8
     844:	91366000 	add	x0, x0, #0xd98
     848:	52800fc1 	mov	w1, #0x7e                  	// #126
     84c:	94000d49 	bl	3d70 <__assert_func>

0000000000000850 <close>:

IPC_INTERFACE(Ipc_close, 1, fd, sizeof(int));
int close(struct Session* session, int fd)
{
     850:	a9bb7bfd 	stp	x29, x30, [sp, #-80]!
     854:	910003fd 	mov	x29, sp
     858:	b9003fe1 	str	w1, [sp, #60]
IPC_INTERFACE(Ipc_close, 1, fd, sizeof(int));
     85c:	b4000560 	cbz	x0, 908 <close+0xb8>
     860:	910123e2 	add	x2, sp, #0x48
     864:	52800021 	mov	w1, #0x1                   	// #1
     868:	a90153f3 	stp	x19, x20, [sp, #16]
     86c:	aa0003f4 	mov	x20, x0
     870:	f90013f5 	str	x21, [sp, #32]
     874:	52800095 	mov	w21, #0x4                   	// #4
     878:	b9004bf5 	str	w21, [sp, #72]
     87c:	9400011d 	bl	cf0 <new_ipc_msg>
     880:	aa0003f3 	mov	x19, x0
     884:	2a1503e3 	mov	w3, w21
     888:	9100f3e2 	add	x2, sp, #0x3c
     88c:	52800001 	mov	w1, #0x0                   	// #0
     890:	94000158 	bl	df0 <ipc_msg_set_nth_arg>
    msg->header.opcode = opcode;
     894:	528000e0 	mov	w0, #0x7                   	// #7
     898:	39000660 	strb	w0, [x19, #1]
     89c:	aa1303e0 	mov	x0, x19
     8a0:	940001c4 	bl	fb0 <ipc_msg_send_wait>
     8a4:	2a1503e3 	mov	w3, w21
     8a8:	9100f3e2 	add	x2, sp, #0x3c
     8ac:	aa1303e0 	mov	x0, x19
     8b0:	52800001 	mov	w1, #0x0                   	// #0
     8b4:	94000187 	bl	ed0 <ipc_msg_get_nth_arg>
     8b8:	b9004bff 	str	wzr, [sp, #72]
    assert(msg->header.done == 1);
     8bc:	39400260 	ldrb	w0, [x19]
     8c0:	36080280 	tbz	w0, #1, 910 <close+0xc0>
    memcpy(ret_val, &msg->header.ret_val, sizeof(msg->header.ret_val));
     8c4:	91002261 	add	x1, x19, #0x8
     8c8:	d2800082 	mov	x2, #0x4                   	// #4
     8cc:	910123e0 	add	x0, sp, #0x48
     8d0:	94000dcc 	bl	4000 <memcpy>
    struct IpcMsg* msg = IPCSESSION_MSG(session);
     8d4:	b9800a80 	ldrsw	x0, [x20, #8]
     8d8:	f9400a81 	ldr	x1, [x20, #16]
     8dc:	8b000022 	add	x2, x1, x0
    if (msg->header.init != 1) {
     8e0:	38606820 	ldrb	w0, [x1, x0]
     8e4:	36100080 	tbz	w0, #2, 8f4 <close+0xa4>
    return session_free_buf(session, msg->header.len);
     8e8:	79400441 	ldrh	w1, [x2, #2]
     8ec:	aa1403e0 	mov	x0, x20
     8f0:	940002bc 	bl	13e0 <session_free_buf>
     8f4:	a94153f3 	ldp	x19, x20, [sp, #16]
     8f8:	b9404be0 	ldr	w0, [sp, #72]
     8fc:	f94013f5 	ldr	x21, [sp, #32]
    return IPC_CALL(Ipc_close)(session, &fd);
}
     900:	a8c57bfd 	ldp	x29, x30, [sp], #80
     904:	d65f03c0 	ret
IPC_INTERFACE(Ipc_close, 1, fd, sizeof(int));
     908:	12800000 	mov	w0, #0xffffffff            	// #-1
    return IPC_CALL(Ipc_close)(session, &fd);
     90c:	17fffffd 	b	900 <close+0xb0>
    assert(msg->header.done == 1);
     910:	f0000043 	adrp	x3, b000 <_wcsnrtombs_l+0x130>
     914:	f0000042 	adrp	x2, b000 <_wcsnrtombs_l+0x130>
     918:	f0000040 	adrp	x0, b000 <_wcsnrtombs_l+0x130>
     91c:	91360063 	add	x3, x3, #0xd80
     920:	9137a042 	add	x2, x2, #0xde8
     924:	91366000 	add	x0, x0, #0xd98
     928:	52800fc1 	mov	w1, #0x7e                  	// #126
     92c:	94000d11 	bl	3d70 <__assert_func>

0000000000000930 <read>:

IPC_INTERFACE(Ipc_read, 4, fd, dst, offset, len, sizeof(int), *(int*)len, sizeof(int), sizeof(int));
int read(struct Session* session, int fd, char* dst, int offset, int len)
{
     930:	a9bb7bfd 	stp	x29, x30, [sp, #-80]!
     934:	910003fd 	mov	x29, sp
     938:	29068fe4 	stp	w4, w3, [sp, #52]
     93c:	b9003fe1 	str	w1, [sp, #60]
IPC_INTERFACE(Ipc_read, 4, fd, dst, offset, len, sizeof(int), *(int*)len, sizeof(int), sizeof(int));
     940:	b4000980 	cbz	x0, a70 <read+0x140>
     944:	b21e03e3 	mov	x3, #0x400000004           	// #17179869188
     948:	a90153f3 	stp	x19, x20, [sp, #16]
     94c:	52800094 	mov	w20, #0x4                   	// #4
     950:	2a1403e1 	mov	w1, w20
     954:	a9025bf5 	stp	x21, x22, [sp, #32]
     958:	aa0203f6 	mov	x22, x2
     95c:	aa0003f5 	mov	x21, x0
     960:	910103e2 	add	x2, sp, #0x40
     964:	290813f4 	stp	w20, w4, [sp, #64]
     968:	f90027e3 	str	x3, [sp, #72]
     96c:	940000e1 	bl	cf0 <new_ipc_msg>
     970:	2a1403e3 	mov	w3, w20
     974:	aa0003f3 	mov	x19, x0
     978:	9100f3e2 	add	x2, sp, #0x3c
     97c:	52800001 	mov	w1, #0x0                   	// #0
     980:	9400011c 	bl	df0 <ipc_msg_set_nth_arg>
     984:	b94037e3 	ldr	w3, [sp, #52]
     988:	aa1603e2 	mov	x2, x22
     98c:	52800021 	mov	w1, #0x1                   	// #1
     990:	aa1303e0 	mov	x0, x19
     994:	94000117 	bl	df0 <ipc_msg_set_nth_arg>
     998:	2a1403e3 	mov	w3, w20
     99c:	9100e3e2 	add	x2, sp, #0x38
     9a0:	52800041 	mov	w1, #0x2                   	// #2
     9a4:	aa1303e0 	mov	x0, x19
     9a8:	94000112 	bl	df0 <ipc_msg_set_nth_arg>
     9ac:	2a1403e3 	mov	w3, w20
     9b0:	9100d3e2 	add	x2, sp, #0x34
     9b4:	52800061 	mov	w1, #0x3                   	// #3
     9b8:	aa1303e0 	mov	x0, x19
     9bc:	9400010d 	bl	df0 <ipc_msg_set_nth_arg>
    msg->header.opcode = opcode;
     9c0:	52800100 	mov	w0, #0x8                   	// #8
     9c4:	39000660 	strb	w0, [x19, #1]
     9c8:	aa1303e0 	mov	x0, x19
     9cc:	94000179 	bl	fb0 <ipc_msg_send_wait>
     9d0:	2a1403e3 	mov	w3, w20
     9d4:	9100f3e2 	add	x2, sp, #0x3c
     9d8:	52800001 	mov	w1, #0x0                   	// #0
     9dc:	aa1303e0 	mov	x0, x19
     9e0:	9400013c 	bl	ed0 <ipc_msg_get_nth_arg>
     9e4:	b94037e3 	ldr	w3, [sp, #52]
     9e8:	aa1603e2 	mov	x2, x22
     9ec:	52800021 	mov	w1, #0x1                   	// #1
     9f0:	aa1303e0 	mov	x0, x19
     9f4:	94000137 	bl	ed0 <ipc_msg_get_nth_arg>
     9f8:	2a1403e3 	mov	w3, w20
     9fc:	9100e3e2 	add	x2, sp, #0x38
     a00:	52800041 	mov	w1, #0x2                   	// #2
     a04:	aa1303e0 	mov	x0, x19
     a08:	94000132 	bl	ed0 <ipc_msg_get_nth_arg>
     a0c:	2a1403e3 	mov	w3, w20
     a10:	9100d3e2 	add	x2, sp, #0x34
     a14:	aa1303e0 	mov	x0, x19
     a18:	52800061 	mov	w1, #0x3                   	// #3
     a1c:	9400012d 	bl	ed0 <ipc_msg_get_nth_arg>
     a20:	b90043ff 	str	wzr, [sp, #64]
    assert(msg->header.done == 1);
     a24:	39400260 	ldrb	w0, [x19]
     a28:	36080280 	tbz	w0, #1, a78 <read+0x148>
    memcpy(ret_val, &msg->header.ret_val, sizeof(msg->header.ret_val));
     a2c:	91002261 	add	x1, x19, #0x8
     a30:	d2800082 	mov	x2, #0x4                   	// #4
     a34:	910103e0 	add	x0, sp, #0x40
     a38:	94000d72 	bl	4000 <memcpy>
    struct IpcMsg* msg = IPCSESSION_MSG(session);
     a3c:	b9800aa0 	ldrsw	x0, [x21, #8]
     a40:	f9400aa1 	ldr	x1, [x21, #16]
     a44:	8b000022 	add	x2, x1, x0
    if (msg->header.init != 1) {
     a48:	38606820 	ldrb	w0, [x1, x0]
     a4c:	36100080 	tbz	w0, #2, a5c <read+0x12c>
    return session_free_buf(session, msg->header.len);
     a50:	79400441 	ldrh	w1, [x2, #2]
     a54:	aa1503e0 	mov	x0, x21
     a58:	94000262 	bl	13e0 <session_free_buf>
     a5c:	a94153f3 	ldp	x19, x20, [sp, #16]
     a60:	a9425bf5 	ldp	x21, x22, [sp, #32]
     a64:	b94043e0 	ldr	w0, [sp, #64]
    return IPC_CALL(Ipc_read)(session, &fd, dst, &offset, &len);
}
     a68:	a8c57bfd 	ldp	x29, x30, [sp], #80
     a6c:	d65f03c0 	ret
IPC_INTERFACE(Ipc_read, 4, fd, dst, offset, len, sizeof(int), *(int*)len, sizeof(int), sizeof(int));
     a70:	12800000 	mov	w0, #0xffffffff            	// #-1
    return IPC_CALL(Ipc_read)(session, &fd, dst, &offset, &len);
     a74:	17fffffd 	b	a68 <read+0x138>
    assert(msg->header.done == 1);
     a78:	f0000043 	adrp	x3, b000 <_wcsnrtombs_l+0x130>
     a7c:	f0000042 	adrp	x2, b000 <_wcsnrtombs_l+0x130>
     a80:	f0000040 	adrp	x0, b000 <_wcsnrtombs_l+0x130>
     a84:	91360063 	add	x3, x3, #0xd80
     a88:	9137a042 	add	x2, x2, #0xde8
     a8c:	91366000 	add	x0, x0, #0xd98
     a90:	52800fc1 	mov	w1, #0x7e                  	// #126
     a94:	94000cb7 	bl	3d70 <__assert_func>
     a98:	d503201f 	nop
     a9c:	d503201f 	nop

0000000000000aa0 <write>:

IPC_INTERFACE(Ipc_write, 4, fd, src, offset, len, sizeof(int), *(int*)len, sizeof(int), sizeof(int));
int write(struct Session* session, int fd, char* src, int offset, int len)
{
     aa0:	a9bb7bfd 	stp	x29, x30, [sp, #-80]!
     aa4:	910003fd 	mov	x29, sp
     aa8:	29068fe4 	stp	w4, w3, [sp, #52]
     aac:	b9003fe1 	str	w1, [sp, #60]
IPC_INTERFACE(Ipc_write, 4, fd, src, offset, len, sizeof(int), *(int*)len, sizeof(int), sizeof(int));
     ab0:	b4000980 	cbz	x0, be0 <write+0x140>
     ab4:	b21e03e3 	mov	x3, #0x400000004           	// #17179869188
     ab8:	a90153f3 	stp	x19, x20, [sp, #16]
     abc:	52800094 	mov	w20, #0x4                   	// #4
     ac0:	2a1403e1 	mov	w1, w20
     ac4:	a9025bf5 	stp	x21, x22, [sp, #32]
     ac8:	aa0203f6 	mov	x22, x2
     acc:	aa0003f5 	mov	x21, x0
     ad0:	910103e2 	add	x2, sp, #0x40
     ad4:	290813f4 	stp	w20, w4, [sp, #64]
     ad8:	f90027e3 	str	x3, [sp, #72]
     adc:	94000085 	bl	cf0 <new_ipc_msg>
     ae0:	2a1403e3 	mov	w3, w20
     ae4:	aa0003f3 	mov	x19, x0
     ae8:	9100f3e2 	add	x2, sp, #0x3c
     aec:	52800001 	mov	w1, #0x0                   	// #0
     af0:	940000c0 	bl	df0 <ipc_msg_set_nth_arg>
     af4:	b94037e3 	ldr	w3, [sp, #52]
     af8:	aa1603e2 	mov	x2, x22
     afc:	52800021 	mov	w1, #0x1                   	// #1
     b00:	aa1303e0 	mov	x0, x19
     b04:	940000bb 	bl	df0 <ipc_msg_set_nth_arg>
     b08:	2a1403e3 	mov	w3, w20
     b0c:	9100e3e2 	add	x2, sp, #0x38
     b10:	52800041 	mov	w1, #0x2                   	// #2
     b14:	aa1303e0 	mov	x0, x19
     b18:	940000b6 	bl	df0 <ipc_msg_set_nth_arg>
     b1c:	2a1403e3 	mov	w3, w20
     b20:	9100d3e2 	add	x2, sp, #0x34
     b24:	52800061 	mov	w1, #0x3                   	// #3
     b28:	aa1303e0 	mov	x0, x19
     b2c:	940000b1 	bl	df0 <ipc_msg_set_nth_arg>
    msg->header.opcode = opcode;
     b30:	52800120 	mov	w0, #0x9                   	// #9
     b34:	39000660 	strb	w0, [x19, #1]
     b38:	aa1303e0 	mov	x0, x19
     b3c:	9400011d 	bl	fb0 <ipc_msg_send_wait>
     b40:	2a1403e3 	mov	w3, w20
     b44:	9100f3e2 	add	x2, sp, #0x3c
     b48:	52800001 	mov	w1, #0x0                   	// #0
     b4c:	aa1303e0 	mov	x0, x19
     b50:	940000e0 	bl	ed0 <ipc_msg_get_nth_arg>
     b54:	b94037e3 	ldr	w3, [sp, #52]
     b58:	aa1603e2 	mov	x2, x22
     b5c:	52800021 	mov	w1, #0x1                   	// #1
     b60:	aa1303e0 	mov	x0, x19
     b64:	940000db 	bl	ed0 <ipc_msg_get_nth_arg>
     b68:	2a1403e3 	mov	w3, w20
     b6c:	9100e3e2 	add	x2, sp, #0x38
     b70:	52800041 	mov	w1, #0x2                   	// #2
     b74:	aa1303e0 	mov	x0, x19
     b78:	940000d6 	bl	ed0 <ipc_msg_get_nth_arg>
     b7c:	2a1403e3 	mov	w3, w20
     b80:	9100d3e2 	add	x2, sp, #0x34
     b84:	aa1303e0 	mov	x0, x19
     b88:	52800061 	mov	w1, #0x3                   	// #3
     b8c:	940000d1 	bl	ed0 <ipc_msg_get_nth_arg>
     b90:	b90043ff 	str	wzr, [sp, #64]
    assert(msg->header.done == 1);
     b94:	39400260 	ldrb	w0, [x19]
     b98:	36080280 	tbz	w0, #1, be8 <write+0x148>
    memcpy(ret_val, &msg->header.ret_val, sizeof(msg->header.ret_val));
     b9c:	91002261 	add	x1, x19, #0x8
     ba0:	d2800082 	mov	x2, #0x4                   	// #4
     ba4:	910103e0 	add	x0, sp, #0x40
     ba8:	94000d16 	bl	4000 <memcpy>
    struct IpcMsg* msg = IPCSESSION_MSG(session);
     bac:	b9800aa0 	ldrsw	x0, [x21, #8]
     bb0:	f9400aa1 	ldr	x1, [x21, #16]
     bb4:	8b000022 	add	x2, x1, x0
    if (msg->header.init != 1) {
     bb8:	38606820 	ldrb	w0, [x1, x0]
     bbc:	36100080 	tbz	w0, #2, bcc <write+0x12c>
    return session_free_buf(session, msg->header.len);
     bc0:	79400441 	ldrh	w1, [x2, #2]
     bc4:	aa1503e0 	mov	x0, x21
     bc8:	94000206 	bl	13e0 <session_free_buf>
     bcc:	a94153f3 	ldp	x19, x20, [sp, #16]
     bd0:	a9425bf5 	ldp	x21, x22, [sp, #32]
     bd4:	b94043e0 	ldr	w0, [sp, #64]
    return IPC_CALL(Ipc_write)(session, &fd, src, &offset, &len);
}
     bd8:	a8c57bfd 	ldp	x29, x30, [sp], #80
     bdc:	d65f03c0 	ret
IPC_INTERFACE(Ipc_write, 4, fd, src, offset, len, sizeof(int), *(int*)len, sizeof(int), sizeof(int));
     be0:	12800000 	mov	w0, #0xffffffff            	// #-1
    return IPC_CALL(Ipc_write)(session, &fd, src, &offset, &len);
     be4:	17fffffd 	b	bd8 <write+0x138>
    assert(msg->header.done == 1);
     be8:	f0000043 	adrp	x3, b000 <_wcsnrtombs_l+0x130>
     bec:	f0000042 	adrp	x2, b000 <_wcsnrtombs_l+0x130>
     bf0:	f0000040 	adrp	x0, b000 <_wcsnrtombs_l+0x130>
     bf4:	91360063 	add	x3, x3, #0xd80
     bf8:	9137a042 	add	x2, x2, #0xde8
     bfc:	91366000 	add	x0, x0, #0xd98
     c00:	52800fc1 	mov	w1, #0x7e                  	// #126
     c04:	94000c5b 	bl	3d70 <__assert_func>
     c08:	d503201f 	nop
     c0c:	d503201f 	nop

0000000000000c10 <fsize>:

IPC_INTERFACE(Ipc_fsize, 1, fd, sizeof(int));
int fsize(struct Session* session, int fd)
{
     c10:	a9bb7bfd 	stp	x29, x30, [sp, #-80]!
     c14:	910003fd 	mov	x29, sp
     c18:	b9003fe1 	str	w1, [sp, #60]
IPC_INTERFACE(Ipc_fsize, 1, fd, sizeof(int));
     c1c:	b4000560 	cbz	x0, cc8 <fsize+0xb8>
     c20:	910123e2 	add	x2, sp, #0x48
     c24:	52800021 	mov	w1, #0x1                   	// #1
     c28:	a90153f3 	stp	x19, x20, [sp, #16]
     c2c:	aa0003f4 	mov	x20, x0
     c30:	f90013f5 	str	x21, [sp, #32]
     c34:	52800095 	mov	w21, #0x4                   	// #4
     c38:	b9004bf5 	str	w21, [sp, #72]
     c3c:	9400002d 	bl	cf0 <new_ipc_msg>
     c40:	aa0003f3 	mov	x19, x0
     c44:	2a1503e3 	mov	w3, w21
     c48:	9100f3e2 	add	x2, sp, #0x3c
     c4c:	52800001 	mov	w1, #0x0                   	// #0
     c50:	94000068 	bl	df0 <ipc_msg_set_nth_arg>
    msg->header.opcode = opcode;
     c54:	52800140 	mov	w0, #0xa                   	// #10
     c58:	39000660 	strb	w0, [x19, #1]
     c5c:	aa1303e0 	mov	x0, x19
     c60:	940000d4 	bl	fb0 <ipc_msg_send_wait>
     c64:	2a1503e3 	mov	w3, w21
     c68:	9100f3e2 	add	x2, sp, #0x3c
     c6c:	aa1303e0 	mov	x0, x19
     c70:	52800001 	mov	w1, #0x0                   	// #0
     c74:	94000097 	bl	ed0 <ipc_msg_get_nth_arg>
     c78:	b9004bff 	str	wzr, [sp, #72]
    assert(msg->header.done == 1);
     c7c:	39400260 	ldrb	w0, [x19]
     c80:	36080280 	tbz	w0, #1, cd0 <fsize+0xc0>
    memcpy(ret_val, &msg->header.ret_val, sizeof(msg->header.ret_val));
     c84:	91002261 	add	x1, x19, #0x8
     c88:	d2800082 	mov	x2, #0x4                   	// #4
     c8c:	910123e0 	add	x0, sp, #0x48
     c90:	94000cdc 	bl	4000 <memcpy>
    struct IpcMsg* msg = IPCSESSION_MSG(session);
     c94:	b9800a80 	ldrsw	x0, [x20, #8]
     c98:	f9400a81 	ldr	x1, [x20, #16]
     c9c:	8b000022 	add	x2, x1, x0
    if (msg->header.init != 1) {
     ca0:	38606820 	ldrb	w0, [x1, x0]
     ca4:	36100080 	tbz	w0, #2, cb4 <fsize+0xa4>
    return session_free_buf(session, msg->header.len);
     ca8:	79400441 	ldrh	w1, [x2, #2]
     cac:	aa1403e0 	mov	x0, x20
     cb0:	940001cc 	bl	13e0 <session_free_buf>
     cb4:	a94153f3 	ldp	x19, x20, [sp, #16]
     cb8:	b9404be0 	ldr	w0, [sp, #72]
     cbc:	f94013f5 	ldr	x21, [sp, #32]
    return IPC_CALL(Ipc_fsize)(session, &fd);
     cc0:	a8c57bfd 	ldp	x29, x30, [sp], #80
     cc4:	d65f03c0 	ret
IPC_INTERFACE(Ipc_fsize, 1, fd, sizeof(int));
     cc8:	12800000 	mov	w0, #0xffffffff            	// #-1
    return IPC_CALL(Ipc_fsize)(session, &fd);
     ccc:	17fffffd 	b	cc0 <fsize+0xb0>
    assert(msg->header.done == 1);
     cd0:	f0000043 	adrp	x3, b000 <_wcsnrtombs_l+0x130>
     cd4:	f0000042 	adrp	x2, b000 <_wcsnrtombs_l+0x130>
     cd8:	f0000040 	adrp	x0, b000 <_wcsnrtombs_l+0x130>
     cdc:	91360063 	add	x3, x3, #0xd80
     ce0:	9137a042 	add	x2, x2, #0xde8
     ce4:	91366000 	add	x0, x0, #0xd98
     ce8:	52800fc1 	mov	w1, #0x7e                  	// #126
     cec:	94000c21 	bl	3d70 <__assert_func>

0000000000000cf0 <new_ipc_msg>:
/// @warning this file doesnt support multi threads

/// ipc part

struct IpcMsg* new_ipc_msg(struct Session* session, const int argc, const int* arg_size)
{
     cf0:	a9bd7bfd 	stp	x29, x30, [sp, #-48]!

    int arg_info_offset = len; // start of arg info
    len += argc * sizeof(struct IpcArgInfo);

    int arg_buf_offset = len; // start of arg buffer
    for (int i = 0; i < argc; i++) {
     cf4:	7100003f 	cmp	w1, #0x0
{
     cf8:	910003fd 	mov	x29, sp
     cfc:	a90153f3 	stp	x19, x20, [sp, #16]
    len += argc * sizeof(struct IpcArgInfo);
     d00:	528000d4 	mov	w20, #0x6                   	// #6
     d04:	1b147c34 	mul	w20, w1, w20
{
     d08:	a9025bf5 	stp	x21, x22, [sp, #32]
     d0c:	2a0103f5 	mov	w21, w1
    len += argc * sizeof(struct IpcArgInfo);
     d10:	11003294 	add	w20, w20, #0xc
    for (int i = 0; i < argc; i++) {
     d14:	5400056d 	b.le	dc0 <new_ipc_msg+0xd0>
     d18:	aa0003e3 	mov	x3, x0
    len += argc * sizeof(struct IpcArgInfo);
     d1c:	2a1403f6 	mov	w22, w20
     d20:	aa0203f3 	mov	x19, x2
    for (int i = 0; i < argc; i++) {
     d24:	d2800002 	mov	x2, #0x0                   	// #0
        len += arg_size[i];
     d28:	b8627a61 	ldr	w1, [x19, x2, lsl #2]
    for (int i = 0; i < argc; i++) {
     d2c:	91000442 	add	x2, x2, #0x1
     d30:	6b0202bf 	cmp	w21, w2
        len += arg_size[i];
     d34:	0b0102d6 	add	w22, w22, w1
    for (int i = 0; i < argc; i++) {
     d38:	54ffff8c 	b.gt	d28 <new_ipc_msg+0x38>
    }
    struct IpcMsg* buf = session_alloc_buf(session, len);
     d3c:	aa0303e0 	mov	x0, x3
     d40:	2a1603e1 	mov	w1, w22
     d44:	9400016f 	bl	1300 <session_alloc_buf>
    if (buf == NULL) {
     d48:	b40004c0 	cbz	x0, de0 <new_ipc_msg+0xf0>
        return NULL;
    }
    buf->header.len = len;
     d4c:	528000c5 	mov	w5, #0x6                   	// #6
    buf->header.done = 0;
    buf->header.valid = 0;
     d50:	39400001 	ldrb	w1, [x0]
     d54:	52800182 	mov	w2, #0xc                   	// #12
     d58:	aa1303e3 	mov	x3, x19
     d5c:	1b057ea5 	mul	w5, w21, w5
     d60:	121e7421 	and	w1, w1, #0xfffffffc
     d64:	39000001 	strb	w1, [x0]
     d68:	0b0200a5 	add	w5, w5, w2
    buf->header.len = len;
     d6c:	79000416 	strh	w22, [x0, #2]

    for (int i = 0; i < argc; i++) {
        struct IpcArgInfo* arg_info = (struct IpcArgInfo*)((char*)buf + arg_info_offset);
     d70:	8b22c001 	add	x1, x0, w2, sxtw
        arg_info->len = arg_size[i];
     d74:	b9400064 	ldr	w4, [x3]
     d78:	79000424 	strh	w4, [x1, #2]
        arg_info->offset = arg_buf_offset;
     d7c:	7822c814 	strh	w20, [x0, w2, sxtw]

        // update arg_info_offset and arg_buf_offset
        arg_info_offset += sizeof(struct IpcArgInfo);
     d80:	11001842 	add	w2, w2, #0x6
    for (int i = 0; i < argc; i++) {
     d84:	6b05005f 	cmp	w2, w5
        arg_buf_offset += arg_size[i];
     d88:	b8404461 	ldr	w1, [x3], #4
     d8c:	0b010294 	add	w20, w20, w1
    for (int i = 0; i < argc; i++) {
     d90:	54ffff01 	b.ne	d70 <new_ipc_msg+0x80>  // b.any
    }
    buf->header.nr_args = argc;
    buf->header.init = 1;
     d94:	39400002 	ldrb	w2, [x0]
     d98:	531c0ea1 	ubfiz	w1, w21, #4, #4
     d9c:	321e0021 	orr	w1, w1, #0x4
     da0:	52800163 	mov	w3, #0xb                   	// #11
     da4:	0a030042 	and	w2, w2, w3
     da8:	2a020021 	orr	w1, w1, w2
     dac:	39000001 	strb	w1, [x0]
    return buf;
}
     db0:	a94153f3 	ldp	x19, x20, [sp, #16]
     db4:	a9425bf5 	ldp	x21, x22, [sp, #32]
     db8:	a8c37bfd 	ldp	x29, x30, [sp], #48
     dbc:	d65f03c0 	ret
    struct IpcMsg* buf = session_alloc_buf(session, len);
     dc0:	2a1403e1 	mov	w1, w20
     dc4:	9400014f 	bl	1300 <session_alloc_buf>
    if (buf == NULL) {
     dc8:	b40000c0 	cbz	x0, de0 <new_ipc_msg+0xf0>
    buf->header.valid = 0;
     dcc:	39400001 	ldrb	w1, [x0]
    buf->header.len = len;
     dd0:	79000414 	strh	w20, [x0, #2]
    buf->header.valid = 0;
     dd4:	121e7421 	and	w1, w1, #0xfffffffc
     dd8:	39000001 	strb	w1, [x0]
    for (int i = 0; i < argc; i++) {
     ddc:	17ffffee 	b	d94 <new_ipc_msg+0xa4>
        return NULL;
     de0:	d2800000 	mov	x0, #0x0                   	// #0
     de4:	17fffff3 	b	db0 <new_ipc_msg+0xc0>
     de8:	d503201f 	nop
     dec:	d503201f 	nop

0000000000000df0 <ipc_msg_set_nth_arg>:
/// @param arg_num start with 0 for first arg
/// @param data
/// @param len data buffer len
/// @return
bool ipc_msg_set_nth_arg(struct IpcMsg* msg, const int arg_num, const void* const data, const int len)
{
     df0:	a9bf7bfd 	stp	x29, x30, [sp, #-16]!
     df4:	2a0103e4 	mov	w4, w1
     df8:	aa0203e1 	mov	x1, x2
     dfc:	910003fd 	mov	x29, sp
     e00:	93407c62 	sxtw	x2, w3
    if (arg_num >= msg->header.nr_args) {
     e04:	39400003 	ldrb	w3, [x0]
     e08:	d3441c63 	ubfx	x3, x3, #4, #4
     e0c:	6b04007f 	cmp	w3, w4
     e10:	540003ad 	b.le	e84 <ipc_msg_set_nth_arg+0x94>
        printf("[%s] IPC: arg_num out of msg range, arg_num: %d, nr_args: %u\n", __func__, arg_num, msg->header.nr_args);
        return false;
    }
    struct IpcArgInfo* nth_arg_info = IPCMSG_ARG_INFO(msg, arg_num);
     e14:	528000c5 	mov	w5, #0x6                   	// #6
     e18:	d2800183 	mov	x3, #0xc                   	// #12
     e1c:	9b250c84 	smaddl	x4, w4, w5, x3
     e20:	8b040005 	add	x5, x0, x4
    if (len < 0 || (uint32_t)len > (uint32_t)nth_arg_info->len) {
     e24:	794004a3 	ldrh	w3, [x5, #2]
     e28:	37f801e2 	tbnz	w2, #31, e64 <ipc_msg_set_nth_arg+0x74>
     e2c:	6b02007f 	cmp	w3, w2
     e30:	540001a3 	b.cc	e64 <ipc_msg_set_nth_arg+0x74>  // b.lo, b.ul, b.last
    if (IPCMSG_ARG_INFO(msg, arg_num)->null_ptr == 1) {
     e34:	394010a3 	ldrb	w3, [x5, #4]
     e38:	37000423 	tbnz	w3, #0, ebc <ipc_msg_set_nth_arg+0xcc>
    return (void*)((char*)msg + IPCMSG_ARG_INFO(msg, arg_num)->offset);
     e3c:	78646803 	ldrh	w3, [x0, x4]
     e40:	8b030000 	add	x0, x0, x3

    void* buf = ipc_msg_get_nth_arg_buf(msg, arg_num);

    // handle attributes of different params
    if (data == NULL) {
        nth_arg_info->null_ptr = 1;
     e44:	394010a3 	ldrb	w3, [x5, #4]
    if (data == NULL) {
     e48:	b4000301 	cbz	x1, ea8 <ipc_msg_set_nth_arg+0xb8>
        memset(buf, 0x0, len);
        return true;
    } else {
        nth_arg_info->null_ptr = 0;
     e4c:	121f7863 	and	w3, w3, #0xfffffffe
     e50:	390010a3 	strb	w3, [x5, #4]
    }

    memmove(buf, data, len);
     e54:	94000ccb 	bl	4180 <memmove>
    return true;
     e58:	52800020 	mov	w0, #0x1                   	// #1
}
     e5c:	a8c17bfd 	ldp	x29, x30, [sp], #16
     e60:	d65f03c0 	ret
        printf("[%s] IPC: size of arg out of buffer range, given len: %d, len %u\n", __func__, len, nth_arg_info->len);
     e64:	f0000041 	adrp	x1, b000 <_wcsnrtombs_l+0x130>
     e68:	f0000040 	adrp	x0, b000 <_wcsnrtombs_l+0x130>
     e6c:	913da021 	add	x1, x1, #0xf68
     e70:	91390000 	add	x0, x0, #0xe40
     e74:	94000803 	bl	2e80 <printf>
        return false;
     e78:	52800000 	mov	w0, #0x0                   	// #0
}
     e7c:	a8c17bfd 	ldp	x29, x30, [sp], #16
     e80:	d65f03c0 	ret
        printf("[%s] IPC: arg_num out of msg range, arg_num: %d, nr_args: %u\n", __func__, arg_num, msg->header.nr_args);
     e84:	2a0403e2 	mov	w2, w4
     e88:	f0000041 	adrp	x1, b000 <_wcsnrtombs_l+0x130>
     e8c:	f0000040 	adrp	x0, b000 <_wcsnrtombs_l+0x130>
     e90:	913da021 	add	x1, x1, #0xf68
     e94:	91380000 	add	x0, x0, #0xe00
     e98:	940007fa 	bl	2e80 <printf>
        return false;
     e9c:	52800000 	mov	w0, #0x0                   	// #0
}
     ea0:	a8c17bfd 	ldp	x29, x30, [sp], #16
     ea4:	d65f03c0 	ret
        nth_arg_info->null_ptr = 1;
     ea8:	32000063 	orr	w3, w3, #0x1
     eac:	390010a3 	strb	w3, [x5, #4]
        memset(buf, 0x0, len);
     eb0:	94000ce4 	bl	4240 <memset>
        return true;
     eb4:	52800020 	mov	w0, #0x1                   	// #1
     eb8:	17ffffe9 	b	e5c <ipc_msg_set_nth_arg+0x6c>
        return NULL;
     ebc:	d2800000 	mov	x0, #0x0                   	// #0
     ec0:	17ffffe1 	b	e44 <ipc_msg_set_nth_arg+0x54>
     ec4:	d503201f 	nop
     ec8:	d503201f 	nop
     ecc:	d503201f 	nop

0000000000000ed0 <ipc_msg_get_nth_arg>:
/// @param arg_num start with 0 for first arg
/// @param data
/// @param len data buffer len
/// @return
bool ipc_msg_get_nth_arg(struct IpcMsg* msg, const int arg_num, void* data, const int len)
{
     ed0:	a9be7bfd 	stp	x29, x30, [sp, #-32]!
     ed4:	aa0003e4 	mov	x4, x0
     ed8:	910003fd 	mov	x29, sp
     edc:	f9000bf3 	str	x19, [sp, #16]
    if (arg_num >= msg->header.nr_args) {
     ee0:	39400005 	ldrb	w5, [x0]
     ee4:	d3441ca5 	ubfx	x5, x5, #4, #4
     ee8:	6b0100bf 	cmp	w5, w1
     eec:	5400030d 	b.le	f4c <ipc_msg_get_nth_arg+0x7c>
        printf("[%s] IPC: arg_num out of msg range", __func__);
        return false;
    }
    struct IpcArgInfo* nth_arg_info = IPCMSG_ARG_INFO(msg, arg_num);
     ef0:	528000c5 	mov	w5, #0x6                   	// #6
     ef4:	aa0203e0 	mov	x0, x2
     ef8:	d2800182 	mov	x2, #0xc                   	// #12
     efc:	9b250821 	smaddl	x1, w1, w5, x2
     f00:	8b010082 	add	x2, x4, x1
    if (len > nth_arg_info->len) {
     f04:	79400445 	ldrh	w5, [x2, #2]
     f08:	6b0300bf 	cmp	w5, w3
     f0c:	5400036b 	b.lt	f78 <ipc_msg_get_nth_arg+0xa8>  // b.tstop
        printf("[%s] IPC: size of arg out of buffer range", __func__);
        return false;
    }

    // handle null ptr: do nothing
    if (nth_arg_info->null_ptr == 1) {
     f10:	39401042 	ldrb	w2, [x2, #4]
        return true;
     f14:	52800033 	mov	w19, #0x1                   	// #1
    if (nth_arg_info->null_ptr == 1) {
     f18:	360000a2 	tbz	w2, #0, f2c <ipc_msg_get_nth_arg+0x5c>
    }

    void* buf = ipc_msg_get_nth_arg_buf(msg, arg_num);
    memmove(data, buf, len);
    return true;
}
     f1c:	2a1303e0 	mov	w0, w19
     f20:	f9400bf3 	ldr	x19, [sp, #16]
     f24:	a8c27bfd 	ldp	x29, x30, [sp], #32
     f28:	d65f03c0 	ret
    return (void*)((char*)msg + IPCMSG_ARG_INFO(msg, arg_num)->offset);
     f2c:	78616881 	ldrh	w1, [x4, x1]
    memmove(data, buf, len);
     f30:	93407c62 	sxtw	x2, w3
     f34:	8b010081 	add	x1, x4, x1
     f38:	94000c92 	bl	4180 <memmove>
}
     f3c:	2a1303e0 	mov	w0, w19
     f40:	f9400bf3 	ldr	x19, [sp, #16]
     f44:	a8c27bfd 	ldp	x29, x30, [sp], #32
     f48:	d65f03c0 	ret
        printf("[%s] IPC: arg_num out of msg range", __func__);
     f4c:	f0000041 	adrp	x1, b000 <_wcsnrtombs_l+0x130>
     f50:	913da021 	add	x1, x1, #0xf68
     f54:	91006021 	add	x1, x1, #0x18
        return false;
     f58:	52800013 	mov	w19, #0x0                   	// #0
        printf("[%s] IPC: arg_num out of msg range", __func__);
     f5c:	f0000040 	adrp	x0, b000 <_wcsnrtombs_l+0x130>
     f60:	913a2000 	add	x0, x0, #0xe88
     f64:	940007c7 	bl	2e80 <printf>
}
     f68:	2a1303e0 	mov	w0, w19
     f6c:	f9400bf3 	ldr	x19, [sp, #16]
     f70:	a8c27bfd 	ldp	x29, x30, [sp], #32
     f74:	d65f03c0 	ret
        printf("[%s] IPC: size of arg out of buffer range", __func__);
     f78:	f0000041 	adrp	x1, b000 <_wcsnrtombs_l+0x130>
     f7c:	913da021 	add	x1, x1, #0xf68
     f80:	91006021 	add	x1, x1, #0x18
        return false;
     f84:	52800013 	mov	w19, #0x0                   	// #0
        printf("[%s] IPC: size of arg out of buffer range", __func__);
     f88:	f0000040 	adrp	x0, b000 <_wcsnrtombs_l+0x130>
     f8c:	913ac000 	add	x0, x0, #0xeb0
     f90:	940007bc 	bl	2e80 <printf>
}
     f94:	2a1303e0 	mov	w0, w19
     f98:	f9400bf3 	ldr	x19, [sp, #16]
     f9c:	a8c27bfd 	ldp	x29, x30, [sp], #32
     fa0:	d65f03c0 	ret
     fa4:	d503201f 	nop
     fa8:	d503201f 	nop
     fac:	d503201f 	nop

0000000000000fb0 <ipc_msg_send_wait>:

void ipc_msg_send_wait(struct IpcMsg* msg)
{
     fb0:	a9be7bfd 	stp	x29, x30, [sp, #-32]!
    msg->header.magic = IPC_MSG_MAGIC;
    msg->header.valid = 1;
     fb4:	d2800021 	mov	x1, #0x1                   	// #1
     fb8:	f2db9741 	movk	x1, #0xdcba, lsl #32
     fbc:	f2f579a1 	movk	x1, #0xabcd, lsl #48
{
     fc0:	910003fd 	mov	x29, sp
     fc4:	f9000bf3 	str	x19, [sp, #16]
     fc8:	aa0003f3 	mov	x19, x0
    msg->header.valid = 1;
     fcc:	f9400000 	ldr	x0, [x0]
     fd0:	927e7400 	and	x0, x0, #0xfffffffc
     fd4:	aa010000 	orr	x0, x0, x1
     fd8:	f9000260 	str	x0, [x19]
    msg->header.done = 0;
    while (msg->header.done == 0) {
     fdc:	d503201f 	nop
        /// @todo syscall yield with prio decrease
        yield(SYS_TASK_YIELD_BLOCK_IPC);
     fe0:	52800040 	mov	w0, #0x2                   	// #2
     fe4:	940008ab 	bl	3290 <yield>
    while (msg->header.done == 0) {
     fe8:	39400261 	ldrb	w1, [x19]
     fec:	360fffa1 	tbz	w1, #1, fe0 <ipc_msg_send_wait+0x30>
    }
    assert(msg->header.done == 1);
}
     ff0:	f9400bf3 	ldr	x19, [sp, #16]
     ff4:	a8c27bfd 	ldp	x29, x30, [sp], #32
     ff8:	d65f03c0 	ret
     ffc:	d503201f 	nop

0000000000001000 <ipc_msg_send_nowait>:

void ipc_msg_send_nowait(struct IpcMsg* msg)
{
    msg->header.magic = IPC_MSG_MAGIC;
    msg->header.valid = 1;
    1000:	f9400001 	ldr	x1, [x0]
    1004:	d2800022 	mov	x2, #0x1                   	// #1
    1008:	f2db9742 	movk	x2, #0xdcba, lsl #32
    100c:	f2f579a2 	movk	x2, #0xabcd, lsl #48
    1010:	927e7421 	and	x1, x1, #0xfffffffc
    1014:	aa020021 	orr	x1, x1, x2
    1018:	f9000001 	str	x1, [x0]
    msg->header.done = 0;
}
    101c:	d65f03c0 	ret

0000000000001020 <ipc_session_wait>:

int ipc_session_wait(struct Session* session)
{
    1020:	a9be7bfd 	stp	x29, x30, [sp, #-32]!
    1024:	910003fd 	mov	x29, sp
    1028:	f9000bf3 	str	x19, [sp, #16]
    struct IpcMsg* msg = IPCSESSION_MSG(session);
    102c:	b9800801 	ldrsw	x1, [x0, #8]
    1030:	f9400800 	ldr	x0, [x0, #16]
    1034:	8b010013 	add	x19, x0, x1
    while (msg->header.done == 0) {
    1038:	38616800 	ldrb	w0, [x0, x1]
    103c:	370800a0 	tbnz	w0, #1, 1050 <ipc_session_wait+0x30>
        /// @todo syscall yield with prio decrease
        yield(SYS_TASK_YIELD_BLOCK_IPC);
    1040:	52800040 	mov	w0, #0x2                   	// #2
    1044:	94000893 	bl	3290 <yield>
    while (msg->header.done == 0) {
    1048:	39400260 	ldrb	w0, [x19]
    104c:	360fffa0 	tbz	w0, #1, 1040 <ipc_session_wait+0x20>
    }
    assert(msg->header.done == 1);
    return msg->header.ret_val;
}
    1050:	b9400a60 	ldr	w0, [x19, #8]
    1054:	f9400bf3 	ldr	x19, [sp, #16]
    1058:	a8c27bfd 	ldp	x29, x30, [sp], #32
    105c:	d65f03c0 	ret

0000000000001060 <cur_session_id>:

static int cur_sess_id = -1;
static struct IpcMsg* ipc_server_loop_cur_msg = NULL;
int cur_session_id(void)
{
    return cur_sess_id;
    1060:	f0000040 	adrp	x0, c000 <__func__.0+0x28>
}
    1064:	b9486800 	ldr	w0, [x0, #2152]
    1068:	d65f03c0 	ret
    106c:	d503201f 	nop

0000000000001070 <delay_session>:

static bool session_delayed = false;
void delay_session(void)
{
    session_delayed = true;
    1070:	90000060 	adrp	x0, d000 <__global_locale+0x20>
    1074:	52800021 	mov	w1, #0x1                   	// #1
    1078:	3927a001 	strb	w1, [x0, #2536]
}
    107c:	d65f03c0 	ret

0000000000001080 <is_cur_session_delayed>:

bool is_cur_session_delayed(void)
{
    return session_delayed;
    1080:	90000060 	adrp	x0, d000 <__global_locale+0x20>
}
    1084:	3967a000 	ldrb	w0, [x0, #2536]
    1088:	d65f03c0 	ret
    108c:	d503201f 	nop

0000000000001090 <is_cur_handler_been_delayed>:

bool is_cur_handler_been_delayed()
{
    if (ipc_server_loop_cur_msg == NULL) {
    1090:	90000060 	adrp	x0, d000 <__global_locale+0x20>
    1094:	f944f800 	ldr	x0, [x0, #2544]
    1098:	b4000080 	cbz	x0, 10a8 <is_cur_handler_been_delayed+0x18>
        return false;
    }
    return ipc_server_loop_cur_msg->header.delayed == 1;
    109c:	39400000 	ldrb	w0, [x0]
    10a0:	d3430c00 	ubfx	x0, x0, #3, #1
}
    10a4:	d65f03c0 	ret
        return false;
    10a8:	52800000 	mov	w0, #0x0                   	// #0
}
    10ac:	d65f03c0 	ret

00000000000010b0 <ipc_server_loop>:

void ipc_server_loop(struct IpcNode* ipc_node)
{
    10b0:	d10dc3ff 	sub	sp, sp, #0x370
    struct Session session_list[NR_MAX_SESSION];
    memset(session_list, 0, sizeof(session_list));
    10b4:	d2806002 	mov	x2, #0x300                 	// #768
    10b8:	52800001 	mov	w1, #0x0                   	// #0
{
    10bc:	a9007bfd 	stp	x29, x30, [sp]
    10c0:	910003fd 	mov	x29, sp
    10c4:	a90153f3 	stp	x19, x20, [sp, #16]
    10c8:	aa0003f3 	mov	x19, x0
    memset(session_list, 0, sizeof(session_list));
    10cc:	9101c3e0 	add	x0, sp, #0x70
{
    10d0:	a9025bf5 	stp	x21, x22, [sp, #32]
    10d4:	f0000055 	adrp	x21, c000 <__func__.0+0x28>
    10d8:	9121a2b5 	add	x21, x21, #0x868
    10dc:	a90363f7 	stp	x23, x24, [sp, #48]
    10e0:	d0000056 	adrp	x22, b000 <_wcsnrtombs_l+0x130>
    10e4:	913c22d6 	add	x22, x22, #0xf08
    10e8:	a9046bf9 	stp	x25, x26, [sp, #64]
                ipc_server_loop_cur_msg = IPCSESSION_MSG(&session_list[i]);
                /* handle every message in current session
                    a session could be delay in case one of its message(current message) needs to wait for an interrupt message's arrival
                    interfaces[opcode] should explicitly call delay_session() and return to delay this session
                */
                while (ipc_server_loop_cur_msg->header.magic == IPC_MSG_MAGIC && ipc_server_loop_cur_msg->header.valid == 1 && ipc_server_loop_cur_msg->header.done == 0) {
    10ec:	529b9754 	mov	w20, #0xdcba                	// #56506
    10f0:	72b579b4 	movk	w20, #0xabcd, lsl #16
{
    10f4:	a90573fb 	stp	x27, x28, [sp, #80]
    memset(session_list, 0, sizeof(session_list));
    10f8:	94000c52 	bl	4240 <memset>
    10fc:	90000064 	adrp	x4, d000 <__global_locale+0x20>
    1100:	9127a09c 	add	x28, x4, #0x9e8
    1104:	d0000040 	adrp	x0, b000 <_wcsnrtombs_l+0x130>
    1108:	913b8000 	add	x0, x0, #0xee0
    110c:	f90037e0 	str	x0, [sp, #104]
    1110:	d000005b 	adrp	x27, b000 <_wcsnrtombs_l+0x130>
    1114:	913cc360 	add	x0, x27, #0xf30
    1118:	f90033e0 	str	x0, [sp, #96]
        poll_session(session_list, NR_MAX_SESSION);
    111c:	9101c3e0 	add	x0, sp, #0x70
        for (int repeat = 0; repeat <= 1 && has_delayed; repeat++) {
    1120:	5280001a 	mov	w26, #0x0                   	// #0
                        break;
                    }
                    ipc_server_loop_cur_msg = IPCSESSION_MSG(&session_list[i]);
                }
                // stop handle this session
                cur_sess_id = -1;
    1124:	12800018 	mov	w24, #0xffffffff            	// #-1
        poll_session(session_list, NR_MAX_SESSION);
    1128:	52800401 	mov	w1, #0x20                  	// #32
    112c:	94000879 	bl	3310 <poll_session>
        for (int repeat = 0; repeat <= 1 && has_delayed; repeat++) {
    1130:	9101c3fb 	add	x27, sp, #0x70
    1134:	910dc3f7 	add	x23, sp, #0x370
            has_delayed = false;
    1138:	52800019 	mov	w25, #0x0                   	// #0
    113c:	d503201f 	nop
                if (session_list[i].buf == NULL) {
    1140:	f9400b60 	ldr	x0, [x27, #16]
                session_delayed = false;
    1144:	3900039f 	strb	wzr, [x28]
                if (session_list[i].buf == NULL) {
    1148:	b4000980 	cbz	x0, 1278 <ipc_server_loop+0x1c8>
                ipc_server_loop_cur_msg = IPCSESSION_MSG(&session_list[i]);
    114c:	b9800b62 	ldrsw	x2, [x27, #8]
                cur_sess_id = session_list[i].id;
    1150:	b9400361 	ldr	w1, [x27]
                ipc_server_loop_cur_msg = IPCSESSION_MSG(&session_list[i]);
    1154:	8b020000 	add	x0, x0, x2
                cur_sess_id = session_list[i].id;
    1158:	b90002a1 	str	w1, [x21]
                ipc_server_loop_cur_msg = IPCSESSION_MSG(&session_list[i]);
    115c:	f9000780 	str	x0, [x28, #8]
                while (ipc_server_loop_cur_msg->header.magic == IPC_MSG_MAGIC && ipc_server_loop_cur_msg->header.valid == 1 && ipc_server_loop_cur_msg->header.done == 0) {
    1160:	b9400401 	ldr	w1, [x0, #4]
    1164:	6b14003f 	cmp	w1, w20
    1168:	54000340 	b.eq	11d0 <ipc_server_loop+0x120>  // b.none
    116c:	14000039 	b	1250 <ipc_server_loop+0x1a0>
                        ipc_node->interfaces[ipc_server_loop_cur_msg->header.opcode](ipc_server_loop_cur_msg);
    1170:	d63f0040 	blr	x2
                        if (ipc_server_loop_cur_msg->header.done == 0) {
    1174:	f9400780 	ldr	x0, [x28, #8]
    1178:	39400001 	ldrb	w1, [x0]
    117c:	36080641 	tbz	w1, #1, 1244 <ipc_server_loop+0x194>
    void* buf;
};

__attribute__((__always_inline__)) static inline int session_used_size(struct Session* session)
{
    return ((session->tail + session->capacity) - session->head) % session->capacity;
    1180:	29409b62 	ldp	w2, w6, [x27, #4]
    1184:	b9400f61 	ldr	w1, [x27, #12]
                    if (session_forward_head(&session_list[i], ipc_server_loop_cur_msg->header.len) < 0) {
    1188:	79400400 	ldrh	w0, [x0, #2]
    118c:	0b010041 	add	w1, w2, w1
    1190:	4b060021 	sub	w1, w1, w6
    1194:	1ac20c25 	sdiv	w5, w1, w2
    1198:	1b0284a1 	msub	w1, w5, w2, w1
    return session->capacity - session_used_size(session);
}

__attribute__((__always_inline__)) static inline int session_forward_head(struct Session* session, int len)
{
    if (len > session_used_size(session)) {
    119c:	6b01001f 	cmp	w0, w1
    11a0:	5400078c 	b.gt	1290 <ipc_server_loop+0x1e0>
        printf("forward head with too much size, session used size: %d\n", session_used_size(session));
        return -1;
    }
    session->head = (session->head + len) % session->capacity;
    11a4:	0b060000 	add	w0, w0, w6
    11a8:	1ac20c01 	sdiv	w1, w0, w2
    11ac:	1b028020 	msub	w0, w1, w2, w0
    11b0:	b9000b60 	str	w0, [x27, #8]
    11b4:	37f804e0 	tbnz	w0, #31, 1250 <ipc_server_loop+0x1a0>
                    ipc_server_loop_cur_msg = IPCSESSION_MSG(&session_list[i]);
    11b8:	f9400b61 	ldr	x1, [x27, #16]
    11bc:	8b20c020 	add	x0, x1, w0, sxtw
    11c0:	f9000780 	str	x0, [x28, #8]
                while (ipc_server_loop_cur_msg->header.magic == IPC_MSG_MAGIC && ipc_server_loop_cur_msg->header.valid == 1 && ipc_server_loop_cur_msg->header.done == 0) {
    11c4:	b9400401 	ldr	w1, [x0, #4]
    11c8:	6b14003f 	cmp	w1, w20
    11cc:	54000421 	b.ne	1250 <ipc_server_loop+0x1a0>  // b.any
    11d0:	39400001 	ldrb	w1, [x0]
    11d4:	12000421 	and	w1, w1, #0x3
    11d8:	7100043f 	cmp	w1, #0x1
    11dc:	540003a1 	b.ne	1250 <ipc_server_loop+0x1a0>  // b.any
    return ((session->tail + session->capacity) - session->head) % session->capacity;
    11e0:	29409761 	ldp	w1, w5, [x27, #4]
    11e4:	b9400f66 	ldr	w6, [x27, #12]
    11e8:	0b0100c2 	add	w2, w6, w1
    11ec:	4b050042 	sub	w2, w2, w5
    11f0:	1ac10c45 	sdiv	w5, w2, w1
    11f4:	1b0188a2 	msub	w2, w5, w1, w2
                    if (session_used_size(&session_list[i]) == 0 && session_forward_tail(&session_list[i], ipc_server_loop_cur_msg->header.len) < 0) {
    11f8:	35000122 	cbnz	w2, 121c <ipc_server_loop+0x16c>
    11fc:	79400402 	ldrh	w2, [x0, #2]
    return session->head;
}

__attribute__((__always_inline__)) static inline int session_forward_tail(struct Session* session, int len)
{
    if (len > session_remain_capacity(session)) {
    1200:	6b01005f 	cmp	w2, w1
    1204:	5400056c 	b.gt	12b0 <ipc_server_loop+0x200>
        printf("forward tail with too much size\n");
        return -1;
    }
    session->tail = (session->tail + len) % session->capacity;
    1208:	0b060042 	add	w2, w2, w6
    120c:	1ac10c45 	sdiv	w5, w2, w1
    1210:	1b0188a2 	msub	w2, w5, w1, w2
    1214:	b9000f62 	str	w2, [x27, #12]
    1218:	37f801c2 	tbnz	w2, #31, 1250 <ipc_server_loop+0x1a0>
                    if (ipc_node->interfaces[ipc_server_loop_cur_msg->header.opcode]) {
    121c:	39400402 	ldrb	w2, [x0, #1]
    1220:	39400401 	ldrb	w1, [x0, #1]
    1224:	8b020e62 	add	x2, x19, x2, lsl #3
    1228:	f9400442 	ldr	x2, [x2, #8]
    122c:	b5fffa22 	cbnz	x2, 1170 <ipc_server_loop+0xc0>
                        printf("Unsupport opcode(%u) for server: %s\n", ipc_server_loop_cur_msg->header.opcode, ipc_node->name);
    1230:	f9400262 	ldr	x2, [x19]
    1234:	aa1603e0 	mov	x0, x22
    1238:	94000712 	bl	2e80 <printf>
                    if (session_forward_head(&session_list[i], ipc_server_loop_cur_msg->header.len) < 0) {
    123c:	f9400780 	ldr	x0, [x28, #8]
    1240:	17ffffd0 	b	1180 <ipc_server_loop+0xd0>
                            ipc_server_loop_cur_msg->header.delayed = 1;
    1244:	321d0021 	orr	w1, w1, #0x8
                            has_delayed = true;
    1248:	52800039 	mov	w25, #0x1                   	// #1
                            ipc_server_loop_cur_msg->header.delayed = 1;
    124c:	39000001 	strb	w1, [x0]
                cur_sess_id = -1;
    1250:	b90002b8 	str	w24, [x21]
            for (int i = 0; i < NR_MAX_SESSION; i++) {
    1254:	9100637b 	add	x27, x27, #0x18
                ipc_server_loop_cur_msg = NULL;
    1258:	f900079f 	str	xzr, [x28, #8]
            for (int i = 0; i < NR_MAX_SESSION; i++) {
    125c:	eb1b02ff 	cmp	x23, x27
    1260:	54fff701 	b.ne	1140 <ipc_server_loop+0x90>  // b.any
        for (int repeat = 0; repeat <= 1 && has_delayed; repeat++) {
    1264:	52000340 	eor	w0, w26, #0x1
    1268:	5280003a 	mov	w26, #0x1                   	// #1
    126c:	6a00033f 	tst	w25, w0
    1270:	54fff601 	b.ne	1130 <ipc_server_loop+0x80>  // b.any
    1274:	17ffffaa 	b	111c <ipc_server_loop+0x6c>
                    yield(SYS_TASK_YIELD_NO_REASON);
    1278:	94000806 	bl	3290 <yield>
        for (int repeat = 0; repeat <= 1 && has_delayed; repeat++) {
    127c:	52000340 	eor	w0, w26, #0x1
    1280:	5280003a 	mov	w26, #0x1                   	// #1
    1284:	6a00033f 	tst	w25, w0
    1288:	54fff541 	b.ne	1130 <ipc_server_loop+0x80>  // b.any
    128c:	17ffffa4 	b	111c <ipc_server_loop+0x6c>
        printf("forward head with too much size, session used size: %d\n", session_used_size(session));
    1290:	f94033e0 	ldr	x0, [sp, #96]
            for (int i = 0; i < NR_MAX_SESSION; i++) {
    1294:	9100637b 	add	x27, x27, #0x18
    1298:	940006fa 	bl	2e80 <printf>
                cur_sess_id = -1;
    129c:	b90002b8 	str	w24, [x21]
                ipc_server_loop_cur_msg = NULL;
    12a0:	f900079f 	str	xzr, [x28, #8]
            for (int i = 0; i < NR_MAX_SESSION; i++) {
    12a4:	eb1b02ff 	cmp	x23, x27
    12a8:	54fff4c1 	b.ne	1140 <ipc_server_loop+0x90>  // b.any
    12ac:	17ffffee 	b	1264 <ipc_server_loop+0x1b4>
        printf("forward tail with too much size\n");
    12b0:	f94037e0 	ldr	x0, [sp, #104]
    12b4:	9100637b 	add	x27, x27, #0x18
    12b8:	940006f2 	bl	2e80 <printf>
                cur_sess_id = -1;
    12bc:	b90002b8 	str	w24, [x21]
                ipc_server_loop_cur_msg = NULL;
    12c0:	f900079f 	str	xzr, [x28, #8]
            for (int i = 0; i < NR_MAX_SESSION; i++) {
    12c4:	eb1b02ff 	cmp	x23, x27
    12c8:	54fff3c1 	b.ne	1140 <ipc_server_loop+0x90>  // b.any
    12cc:	17ffffe6 	b	1264 <ipc_server_loop+0x1b4>

00000000000012d0 <connect_session>:

#include "session.h"
#include "usyscall.h"

int connect_session(struct Session* _session, char* _path, int _capacity)
{
    12d0:	aa0003e3 	mov	x3, x0
    12d4:	aa0103e0 	mov	x0, x1
    12d8:	2a0203e1 	mov	w1, w2
    return session(_path, _capacity, _session);
    12dc:	aa0303e2 	mov	x2, x3
    12e0:	14000804 	b	32f0 <session>
    12e4:	d503201f 	nop
    12e8:	d503201f 	nop
    12ec:	d503201f 	nop

00000000000012f0 <free_session>:
}

int free_session(struct Session* session)
{
    return close_session(session);
    12f0:	14000810 	b	3330 <close_session>
    12f4:	d503201f 	nop
    12f8:	d503201f 	nop
    12fc:	d503201f 	nop

0000000000001300 <session_alloc_buf>:
}

// ipc_msg alloc_buffer(ipc_session)

void* session_alloc_buf(struct Session* session, int len)
{
    1300:	a9bd7bfd 	stp	x29, x30, [sp, #-48]!
    1304:	910003fd 	mov	x29, sp
    1308:	f90013f5 	str	x21, [sp, #32]
    if (len < 0 || len > session_remain_capacity(session)) {
    130c:	37f80561 	tbnz	w1, #31, 13b8 <session_alloc_buf+0xb8>
    1310:	a90153f3 	stp	x19, x20, [sp, #16]
    1314:	2a0103f4 	mov	w20, w1
    1318:	aa0003f3 	mov	x19, x0
    return ((session->tail + session->capacity) - session->head) % session->capacity;
    131c:	29408801 	ldp	w1, w2, [x0, #4]
        return NULL;
    1320:	d2800015 	mov	x21, #0x0                   	// #0
    1324:	b9400c03 	ldr	w3, [x0, #12]
    1328:	0b030020 	add	w0, w1, w3
    132c:	4b020000 	sub	w0, w0, w2
    1330:	1ac10c02 	sdiv	w2, w0, w1
    1334:	1b018040 	msub	w0, w2, w1, w0
    return session->capacity - session_used_size(session);
    1338:	4b000021 	sub	w1, w1, w0
    if (len < 0 || len > session_remain_capacity(session)) {
    133c:	6b01029f 	cmp	w20, w1
    1340:	5400032c 	b.gt	13a4 <session_alloc_buf+0xa4>
    }
    void* buf = (void*)((uintptr_t)session->buf + session->tail);
    1344:	f9400a75 	ldr	x21, [x19, #16]
    // we mapped double size of page, so it's ok to write buffer directly
    memset(buf, 0, len);
    1348:	93407e82 	sxtw	x2, w20
    134c:	52800001 	mov	w1, #0x0                   	// #0
    void* buf = (void*)((uintptr_t)session->buf + session->tail);
    1350:	8b23c2b5 	add	x21, x21, w3, sxtw
    memset(buf, 0, len);
    1354:	aa1503e0 	mov	x0, x21
    1358:	94000bba 	bl	4240 <memset>
    return ((session->tail + session->capacity) - session->head) % session->capacity;
    135c:	29408e60 	ldp	w0, w3, [x19, #4]
    1360:	b9400e61 	ldr	w1, [x19, #12]
    1364:	0b010002 	add	w2, w0, w1
    1368:	4b030043 	sub	w3, w2, w3
    136c:	1ac00c62 	sdiv	w2, w3, w0
    1370:	1b008c42 	msub	w2, w2, w0, w3
    return session->capacity - session_used_size(session);
    1374:	4b020002 	sub	w2, w0, w2
    if (len > session_remain_capacity(session)) {
    1378:	6b02029f 	cmp	w20, w2
    137c:	5400028c 	b.gt	13cc <session_alloc_buf+0xcc>
    session->tail = (session->tail + len) % session->capacity;
    1380:	0b010294 	add	w20, w20, w1
    1384:	1ac00e81 	sdiv	w1, w20, w0
    1388:	1b00d034 	msub	w20, w1, w0, w20
    138c:	b9000e74 	str	w20, [x19, #12]
    return session->tail;
    1390:	a94153f3 	ldp	x19, x20, [sp, #16]
    session_forward_tail(session, len);
    return buf;
}
    1394:	aa1503e0 	mov	x0, x21
    1398:	f94013f5 	ldr	x21, [sp, #32]
    139c:	a8c37bfd 	ldp	x29, x30, [sp], #48
    13a0:	d65f03c0 	ret
    13a4:	aa1503e0 	mov	x0, x21
    13a8:	a94153f3 	ldp	x19, x20, [sp, #16]
    13ac:	f94013f5 	ldr	x21, [sp, #32]
    13b0:	a8c37bfd 	ldp	x29, x30, [sp], #48
    13b4:	d65f03c0 	ret
        return NULL;
    13b8:	d2800015 	mov	x21, #0x0                   	// #0
}
    13bc:	aa1503e0 	mov	x0, x21
    13c0:	f94013f5 	ldr	x21, [sp, #32]
    13c4:	a8c37bfd 	ldp	x29, x30, [sp], #48
    13c8:	d65f03c0 	ret
        printf("forward tail with too much size\n");
    13cc:	d0000040 	adrp	x0, b000 <_wcsnrtombs_l+0x130>
    13d0:	913b8000 	add	x0, x0, #0xee0
    13d4:	940006ab 	bl	2e80 <printf>
        return -1;
    13d8:	a94153f3 	ldp	x19, x20, [sp, #16]
    13dc:	17ffffee 	b	1394 <session_alloc_buf+0x94>

00000000000013e0 <session_free_buf>:

bool session_free_buf(struct Session* session, int len)
{
    if (len < 0 || len > session_used_size(session)) {
    13e0:	37f80241 	tbnz	w1, #31, 1428 <session_free_buf+0x48>
    return ((session->tail + session->capacity) - session->head) % session->capacity;
    13e4:	29409403 	ldp	w3, w5, [x0, #4]
    13e8:	aa0003e2 	mov	x2, x0
    13ec:	b9400c00 	ldr	w0, [x0, #12]
    13f0:	0b000060 	add	w0, w3, w0
    13f4:	4b050000 	sub	w0, w0, w5
    13f8:	1ac30c04 	sdiv	w4, w0, w3
    13fc:	1b038080 	msub	w0, w4, w3, w0
    1400:	6b00003f 	cmp	w1, w0
    1404:	5400012c 	b.gt	1428 <session_free_buf+0x48>
    session->head = (session->head + len) % session->capacity;
    1408:	0b050021 	add	w1, w1, w5
        return false;
    }
    assert(session_forward_head(session, len) != -1);
    return true;
    140c:	52800020 	mov	w0, #0x1                   	// #1
    1410:	1ac30c24 	sdiv	w4, w1, w3
    1414:	1b038481 	msub	w1, w4, w3, w1
    1418:	b9000841 	str	w1, [x2, #8]
    assert(session_forward_head(session, len) != -1);
    141c:	3100043f 	cmn	w1, #0x1
    1420:	54000080 	b.eq	1430 <session_free_buf+0x50>  // b.none
}
    1424:	d65f03c0 	ret
        return false;
    1428:	52800000 	mov	w0, #0x0                   	// #0
}
    142c:	d65f03c0 	ret
{
    1430:	a9bf7bfd 	stp	x29, x30, [sp, #-16]!
    assert(session_forward_head(session, len) != -1);
    1434:	d0000043 	adrp	x3, b000 <_wcsnrtombs_l+0x130>
    1438:	d0000042 	adrp	x2, b000 <_wcsnrtombs_l+0x130>
{
    143c:	910003fd 	mov	x29, sp
    assert(session_forward_head(session, len) != -1);
    1440:	d0000040 	adrp	x0, b000 <_wcsnrtombs_l+0x130>
    1444:	913e6063 	add	x3, x3, #0xf98
    1448:	913f6042 	add	x2, x2, #0xfd8
    144c:	913f2000 	add	x0, x0, #0xfc8
    1450:	52800801 	mov	w1, #0x40                  	// #64
    1454:	94000a47 	bl	3d70 <__assert_func>
    1458:	d503201f 	nop
    145c:	d503201f 	nop

0000000000001460 <init_uart_mmio>:
#ifndef CONFIG_SYS_NS16550_CLK
#define CONFIG_SYS_NS16550_CLK 0
#endif

bool init_uart_mmio()
{
    1460:	a9be7bfd 	stp	x29, x30, [sp, #-32]!
        if (-1 == mmap(UART_ADDR, UART_ADDR, 4096, true)) {
            return false;
        }
        mapped = 1;
    }
    return true;
    1464:	52800020 	mov	w0, #0x1                   	// #1
{
    1468:	910003fd 	mov	x29, sp
    146c:	f9000bf3 	str	x19, [sp, #16]
    if (mapped == 0) {
    1470:	90000073 	adrp	x19, d000 <__global_locale+0x20>
    1474:	b949fa61 	ldr	w1, [x19, #2552]
    1478:	34000081 	cbz	w1, 1488 <init_uart_mmio+0x28>
}
    147c:	f9400bf3 	ldr	x19, [sp, #16]
    1480:	a8c27bfd 	ldp	x29, x30, [sp], #32
    1484:	d65f03c0 	ret
        if (-1 == mmap(UART_ADDR, UART_ADDR, 4096, true)) {
    1488:	2a0003e3 	mov	w3, w0
    148c:	d2bfccc1 	mov	x1, #0xfe660000            	// #4268097536
    1490:	52820002 	mov	w2, #0x1000                	// #4096
    1494:	aa0103e0 	mov	x0, x1
    1498:	940007de 	bl	3410 <mmap>
    149c:	3100041f 	cmn	w0, #0x1
            return false;
    14a0:	52800000 	mov	w0, #0x0                   	// #0
        if (-1 == mmap(UART_ADDR, UART_ADDR, 4096, true)) {
    14a4:	54fffec0 	b.eq	147c <init_uart_mmio+0x1c>  // b.none
        mapped = 1;
    14a8:	52800021 	mov	w1, #0x1                   	// #1
    return true;
    14ac:	2a0103e0 	mov	w0, w1
        mapped = 1;
    14b0:	b909fa61 	str	w1, [x19, #2552]
}
    14b4:	f9400bf3 	ldr	x19, [sp, #16]
    14b8:	a8c27bfd 	ldp	x29, x30, [sp], #32
    14bc:	d65f03c0 	ret

00000000000014c0 <putc>:

void putc(char ch)
{
    14c0:	12001c00 	and	w0, w0, #0xff
    static struct NS16550* com_port = (struct NS16550*)UART_ADDR;

    if (ch == '\n') {
    14c4:	7100281f 	cmp	w0, #0xa
    14c8:	540000c0 	b.eq	14e0 <putc+0x20>  // b.none
    return in_le32(addr);
    14cc:	d2bfccc2 	mov	x2, #0xfe660000            	// #4268097536
    14d0:	b9401441 	ldr	w1, [x2, #20]
        putc('\r');
    }

    while (!(serial_din(&com_port->lsr) & UART_LSR_THRE))
    14d4:	362fffe1 	tbz	w1, #5, 14d0 <putc+0x10>
    out_le32(addr, value);
    14d8:	b9000040 	str	w0, [x2]
        ;
    serial_dout(&com_port->thr, ch);
}
    14dc:	d65f03c0 	ret
    return in_le32(addr);
    14e0:	d2bfccc2 	mov	x2, #0xfe660000            	// #4268097536
    14e4:	d503201f 	nop
    14e8:	b9401441 	ldr	w1, [x2, #20]
    while (!(serial_din(&com_port->lsr) & UART_LSR_THRE))
    14ec:	362fffe1 	tbz	w1, #5, 14e8 <putc+0x28>
    out_le32(addr, value);
    14f0:	528001a1 	mov	w1, #0xd                   	// #13
    14f4:	b9000041 	str	w1, [x2]
}
    14f8:	17fffff5 	b	14cc <putc+0xc>
    14fc:	d503201f 	nop

0000000000001500 <getc>:
    return in_le32(addr);
    1500:	d2bfccc1 	mov	x1, #0xfe660000            	// #4268097536
    1504:	d503201f 	nop
    1508:	b9401420 	ldr	w0, [x1, #20]

char getc(void)
{
    static struct NS16550* com_port = (struct NS16550*)UART_ADDR;

    while (!(serial_din(&com_port->lsr) & UART_LSR_DR))
    150c:	3607ffe0 	tbz	w0, #0, 1508 <getc+0x8>
    return in_le32(addr);
    1510:	b9400020 	ldr	w0, [x1]
        ;

    return serial_din(&com_port->rbr);
    1514:	d65f03c0 	ret
    1518:	d503201f 	nop
    151c:	d503201f 	nop

0000000000001520 <_out_buffer>:
} out_fct_wrap_type;

// internal buffer output
static inline void _out_buffer(char character, void* buffer, size_t idx, size_t maxlen)
{
    if (idx < maxlen) {
    1520:	eb03005f 	cmp	x2, x3
{
    1524:	12001c00 	and	w0, w0, #0xff
    if (idx < maxlen) {
    1528:	54000042 	b.cs	1530 <_out_buffer+0x10>  // b.hs, b.nlast
        ((char*)buffer)[idx] = character;
    152c:	38226820 	strb	w0, [x1, x2]
    }
}
    1530:	d65f03c0 	ret
    1534:	d503201f 	nop
    1538:	d503201f 	nop
    153c:	d503201f 	nop

0000000000001540 <_out_null>:
{
    (void)character;
    (void)buffer;
    (void)idx;
    (void)maxlen;
}
    1540:	d65f03c0 	ret
    1544:	d503201f 	nop
    1548:	d503201f 	nop
    154c:	d503201f 	nop

0000000000001550 <_out_rev>:
    return i;
}

// output the specified string in reverse, taking care of any zero-padding
static size_t _out_rev(out_fct_type out, char* buffer, size_t idx, size_t maxlen, const char* buf, size_t len, unsigned int width, unsigned int flags)
{
    1550:	a9ba7bfd 	stp	x29, x30, [sp, #-96]!
    1554:	910003fd 	mov	x29, sp
    1558:	a90153f3 	stp	x19, x20, [sp, #16]
    155c:	aa0503f3 	mov	x19, x5
    1560:	aa0203f4 	mov	x20, x2
    1564:	a9025bf5 	stp	x21, x22, [sp, #32]
    1568:	aa0003f5 	mov	x21, x0
    156c:	aa0103f6 	mov	x22, x1
    1570:	a90363f7 	stp	x23, x24, [sp, #48]
    1574:	aa0203f7 	mov	x23, x2
    1578:	aa0403f8 	mov	x24, x4
    157c:	a9046bf9 	stp	x25, x26, [sp, #64]
    1580:	2a0703fa 	mov	w26, w7
    1584:	2a0603f9 	mov	w25, w6
    1588:	a90573fb 	stp	x27, x28, [sp, #80]
    const size_t start_idx = idx;

    // pad spaces up to given width
    if (!(flags & FLAGS_LEFT) && !(flags & FLAGS_ZEROPAD)) {
    158c:	f240075f 	tst	x26, #0x3
{
    1590:	aa0303fb 	mov	x27, x3
    if (!(flags & FLAGS_LEFT) && !(flags & FLAGS_ZEROPAD)) {
    1594:	540001e1 	b.ne	15d0 <_out_rev+0x80>  // b.any
        for (size_t i = len; i < width; i++) {
    1598:	2a0603e0 	mov	w0, w6
    159c:	aa0203fc 	mov	x28, x2
    15a0:	cb050014 	sub	x20, x0, x5
    15a4:	eb0000bf 	cmp	x5, x0
    15a8:	8b020294 	add	x20, x20, x2
    15ac:	54000542 	b.cs	1654 <_out_rev+0x104>  // b.hs, b.nlast
            out(' ', buffer, idx++, maxlen);
    15b0:	aa1c03e2 	mov	x2, x28
    15b4:	aa1b03e3 	mov	x3, x27
    15b8:	9100079c 	add	x28, x28, #0x1
    15bc:	aa1603e1 	mov	x1, x22
    15c0:	52800400 	mov	w0, #0x20                  	// #32
    15c4:	d63f02a0 	blr	x21
        for (size_t i = len; i < width; i++) {
    15c8:	eb1c029f 	cmp	x20, x28
    15cc:	54ffff21 	b.ne	15b0 <_out_rev+0x60>  // b.any
        }
    }

    // reverse string
    while (len) {
    15d0:	8b14027c 	add	x28, x19, x20
    15d4:	b4000133 	cbz	x19, 15f8 <_out_rev+0xa8>
    15d8:	cb130382 	sub	x2, x28, x19
        out(buf[--len], buffer, idx++, maxlen);
    15dc:	d1000673 	sub	x19, x19, #0x1
    15e0:	aa1c03f4 	mov	x20, x28
    15e4:	aa1b03e3 	mov	x3, x27
    15e8:	aa1603e1 	mov	x1, x22
    15ec:	38736b00 	ldrb	w0, [x24, x19]
    15f0:	d63f02a0 	blr	x21
    while (len) {
    15f4:	b5ffff33 	cbnz	x19, 15d8 <_out_rev+0x88>
    }

    // append pad spaces up to given width
    if (flags & FLAGS_LEFT) {
    15f8:	360801fa 	tbz	w26, #1, 1634 <_out_rev+0xe4>
        while (idx - start_idx < width) {
    15fc:	cb170297 	sub	x23, x20, x23
    1600:	2a1903f9 	mov	w25, w25
    1604:	eb1902ff 	cmp	x23, x25
    1608:	54000162 	b.cs	1634 <_out_rev+0xe4>  // b.hs, b.nlast
    160c:	d503201f 	nop
            out(' ', buffer, idx++, maxlen);
    1610:	aa1403e2 	mov	x2, x20
        while (idx - start_idx < width) {
    1614:	910006f7 	add	x23, x23, #0x1
            out(' ', buffer, idx++, maxlen);
    1618:	aa1b03e3 	mov	x3, x27
    161c:	aa1603e1 	mov	x1, x22
    1620:	52800400 	mov	w0, #0x20                  	// #32
    1624:	d63f02a0 	blr	x21
    1628:	91000694 	add	x20, x20, #0x1
        while (idx - start_idx < width) {
    162c:	eb1902ff 	cmp	x23, x25
    1630:	54ffff03 	b.cc	1610 <_out_rev+0xc0>  // b.lo, b.ul, b.last
        }
    }

    return idx;
}
    1634:	aa1403e0 	mov	x0, x20
    1638:	a94153f3 	ldp	x19, x20, [sp, #16]
    163c:	a9425bf5 	ldp	x21, x22, [sp, #32]
    1640:	a94363f7 	ldp	x23, x24, [sp, #48]
    1644:	a9446bf9 	ldp	x25, x26, [sp, #64]
    1648:	a94573fb 	ldp	x27, x28, [sp, #80]
    164c:	a8c67bfd 	ldp	x29, x30, [sp], #96
    1650:	d65f03c0 	ret
        for (size_t i = len; i < width; i++) {
    1654:	aa0203f4 	mov	x20, x2
    1658:	17ffffde 	b	15d0 <_out_rev+0x80>
    165c:	d503201f 	nop

0000000000001660 <_ntoa_long>:
    return _out_rev(out, buffer, idx, maxlen, buf, len, width, flags);
}

// internal itoa for 'long' type
static size_t _ntoa_long(out_fct_type out, char* buffer, size_t idx, size_t maxlen, unsigned long value, bool negative, unsigned long base, unsigned int prec, unsigned int width, unsigned int flags)
{
    1660:	a9bd7bfd 	stp	x29, x30, [sp, #-48]!
    1664:	aa0603eb 	mov	x11, x6
    1668:	aa0403e9 	mov	x9, x4
    166c:	910003fd 	mov	x29, sp
    1670:	b9403be8 	ldr	w8, [sp, #56]
    1674:	2a0703ef 	mov	w15, w7
    1678:	b94033e6 	ldr	w6, [sp, #48]
    167c:	12001cb2 	and	w18, w5, #0xff
    if (!value) {
        flags &= ~FLAGS_HASH;
    }

    // write if precision != 0 and value is != 0
    if (!(flags & FLAGS_PRECISION) || value) {
    1680:	12160110 	and	w16, w8, #0x400
    if (!value) {
    1684:	b5000c64 	cbnz	x4, 1810 <_ntoa_long+0x1b0>
        flags &= ~FLAGS_HASH;
    1688:	121b7907 	and	w7, w8, #0xffffffef
    if (!(flags & FLAGS_PRECISION) || value) {
    168c:	34000730 	cbz	w16, 1770 <_ntoa_long+0x110>
    if (!(flags & FLAGS_LEFT)) {
    1690:	121f0111 	and	w17, w8, #0x2
    1694:	37080fc8 	tbnz	w8, #1, 188c <_ntoa_long+0x22c>
    size_t len = 0U;
    1698:	d2800005 	mov	x5, #0x0                   	// #0
        while ((len < prec) && (len < PRINTF_NTOA_BUFFER_SIZE)) {
    169c:	2a0f03e9 	mov	w9, w15
    16a0:	f1007cbf 	cmp	x5, #0x1f
    16a4:	910043e4 	add	x4, sp, #0x10
    16a8:	1a9f87ea 	cset	w10, ls  // ls = plast
    16ac:	eb05013f 	cmp	x9, x5
    16b0:	1a9f97e8 	cset	w8, hi  // hi = pmore
        if (width && (flags & FLAGS_ZEROPAD) && (negative || (flags & (FLAGS_PLUS | FLAGS_SPACE)))) {
    16b4:	120000ec 	and	w12, w7, #0x1
        while ((len < prec) && (len < PRINTF_NTOA_BUFFER_SIZE)) {
    16b8:	0a080148 	and	w8, w10, w8
        if (width && (flags & FLAGS_ZEROPAD) && (negative || (flags & (FLAGS_PLUS | FLAGS_SPACE)))) {
    16bc:	350009c6 	cbnz	w6, 17f4 <_ntoa_long+0x194>
        while ((len < prec) && (len < PRINTF_NTOA_BUFFER_SIZE)) {
    16c0:	34000108 	cbz	w8, 16e0 <_ntoa_long+0x80>
            buf[len++] = '0';
    16c4:	5280060a 	mov	w10, #0x30                  	// #48
    16c8:	910004a5 	add	x5, x5, #0x1
    16cc:	8b050088 	add	x8, x4, x5
        while ((len < prec) && (len < PRINTF_NTOA_BUFFER_SIZE)) {
    16d0:	eb05013f 	cmp	x9, x5
    16d4:	fa5f88a2 	ccmp	x5, #0x1f, #0x2, hi  // hi = pmore
            buf[len++] = '0';
    16d8:	381ff10a 	sturb	w10, [x8, #-1]
        while ((len < prec) && (len < PRINTF_NTOA_BUFFER_SIZE)) {
    16dc:	54ffff69 	b.ls	16c8 <_ntoa_long+0x68>  // b.plast
        while ((flags & FLAGS_ZEROPAD) && (len < width) && (len < PRINTF_NTOA_BUFFER_SIZE)) {
    16e0:	340001cc 	cbz	w12, 1718 <_ntoa_long+0xb8>
    16e4:	f1007cbf 	cmp	x5, #0x1f
    16e8:	1a9f87ea 	cset	w10, ls  // ls = plast
    16ec:	7100015f 	cmp	w10, #0x0
    16f0:	2a0603e9 	mov	w9, w6
    16f4:	fa451120 	ccmp	x9, x5, #0x0, ne  // ne = any
    16f8:	54000109 	b.ls	1718 <_ntoa_long+0xb8>  // b.plast
            buf[len++] = '0';
    16fc:	5280060a 	mov	w10, #0x30                  	// #48
    1700:	910004a5 	add	x5, x5, #0x1
    1704:	8b050088 	add	x8, x4, x5
        while ((flags & FLAGS_ZEROPAD) && (len < width) && (len < PRINTF_NTOA_BUFFER_SIZE)) {
    1708:	eb05013f 	cmp	x9, x5
    170c:	fa5f88a2 	ccmp	x5, #0x1f, #0x2, hi  // hi = pmore
            buf[len++] = '0';
    1710:	381ff10a 	sturb	w10, [x8, #-1]
        while ((flags & FLAGS_ZEROPAD) && (len < width) && (len < PRINTF_NTOA_BUFFER_SIZE)) {
    1714:	54ffff69 	b.ls	1700 <_ntoa_long+0xa0>  // b.plast
    if (flags & FLAGS_HASH) {
    1718:	340001b1 	cbz	w17, 174c <_ntoa_long+0xec>
        if (!(flags & FLAGS_PRECISION) && len && ((len == prec) || (len == width))) {
    171c:	350008b0 	cbnz	w16, 1830 <_ntoa_long+0x1d0>
    1720:	b50007e5 	cbnz	x5, 181c <_ntoa_long+0x1bc>
        if ((base == 16U) && !(flags & FLAGS_UPPERCASE) && (len < PRINTF_NTOA_BUFFER_SIZE)) {
    1724:	f100417f 	cmp	x11, #0x10
    1728:	54000f20 	b.eq	190c <_ntoa_long+0x2ac>  // b.none
        } else if ((base == 2U) && (len < PRINTF_NTOA_BUFFER_SIZE)) {
    172c:	f100097f 	cmp	x11, #0x2
    1730:	54000f21 	b.ne	1914 <_ntoa_long+0x2b4>  // b.any
            buf[len++] = 'b';
    1734:	52800c48 	mov	w8, #0x62                  	// #98
    1738:	d2800025 	mov	x5, #0x1                   	// #1
    173c:	390043e8 	strb	w8, [sp, #16]
            buf[len++] = '0';
    1740:	52800608 	mov	w8, #0x30                  	// #48
    1744:	38256888 	strb	w8, [x4, x5]
    1748:	910004a5 	add	x5, x5, #0x1
    if (len < PRINTF_NTOA_BUFFER_SIZE) {
    174c:	f10080bf 	cmp	x5, #0x20
    1750:	540000a0 	b.eq	1764 <_ntoa_long+0x104>  // b.none
        if (negative) {
    1754:	340008d2 	cbz	w18, 186c <_ntoa_long+0x20c>
            buf[len++] = '-';
    1758:	528005a8 	mov	w8, #0x2d                  	// #45
    175c:	38256888 	strb	w8, [x4, x5]
    1760:	910004a5 	add	x5, x5, #0x1
    return _out_rev(out, buffer, idx, maxlen, buf, len, width, flags);
    1764:	97ffff7b 	bl	1550 <_out_rev>
            value /= base;
        } while (value && (len < PRINTF_NTOA_BUFFER_SIZE));
    }

    return _ntoa_format(out, buffer, idx, maxlen, buf, len, negative, (unsigned int)base, prec, width, flags);
}
    1768:	a8c37bfd 	ldp	x29, x30, [sp], #48
    176c:	d65f03c0 	ret
    if (!(flags & FLAGS_PRECISION) || value) {
    1770:	52800011 	mov	w17, #0x0                   	// #0
    1774:	f27b00ff 	tst	x7, #0x20
    1778:	52800c24 	mov	w4, #0x61                  	// #97
    177c:	5280082e 	mov	w14, #0x41                  	// #65
    1780:	1a8411ce 	csel	w14, w14, w4, ne  // ne = any
            buf[len++] = digit < 10 ? '0' + digit : (flags & FLAGS_UPPERCASE ? 'A' : 'a') + digit - 10;
    1784:	510029ce 	sub	w14, w14, #0xa
    1788:	910043e4 	add	x4, sp, #0x10
    178c:	d2800005 	mov	x5, #0x0                   	// #0
            const char digit = (char)(value % base);
    1790:	9acb092c 	udiv	x12, x9, x11
            buf[len++] = digit < 10 ? '0' + digit : (flags & FLAGS_UPPERCASE ? 'A' : 'a') + digit - 10;
    1794:	910004a5 	add	x5, x5, #0x1
    1798:	8b05008d 	add	x13, x4, x5
            const char digit = (char)(value % base);
    179c:	9b0ba58a 	msub	x10, x12, x11, x9
    17a0:	12001d48 	and	w8, w10, #0xff
            buf[len++] = digit < 10 ? '0' + digit : (flags & FLAGS_UPPERCASE ? 'A' : 'a') + digit - 10;
    17a4:	f100255f 	cmp	x10, #0x9
    17a8:	1100c10a 	add	w10, w8, #0x30
    17ac:	0b0e0108 	add	w8, w8, w14
    17b0:	12001d4a 	and	w10, w10, #0xff
    17b4:	12001d08 	and	w8, w8, #0xff
    17b8:	1a8a8108 	csel	w8, w8, w10, hi  // hi = pmore
    17bc:	381ff1a8 	sturb	w8, [x13, #-1]
        } while (value && (len < PRINTF_NTOA_BUFFER_SIZE));
    17c0:	eb0b013f 	cmp	x9, x11
            value /= base;
    17c4:	aa0c03e9 	mov	x9, x12
        } while (value && (len < PRINTF_NTOA_BUFFER_SIZE));
    17c8:	fa5f28a2 	ccmp	x5, #0x1f, #0x2, cs  // cs = hs, nlast
    17cc:	54fffe29 	b.ls	1790 <_ntoa_long+0x130>  // b.plast
    if (!(flags & FLAGS_LEFT)) {
    17d0:	370ffa47 	tbnz	w7, #1, 1718 <_ntoa_long+0xb8>
        while ((len < prec) && (len < PRINTF_NTOA_BUFFER_SIZE)) {
    17d4:	f1007cbf 	cmp	x5, #0x1f
    17d8:	2a0f03e9 	mov	w9, w15
    17dc:	1a9f87ea 	cset	w10, ls  // ls = plast
    17e0:	eb05013f 	cmp	x9, x5
    17e4:	1a9f97e8 	cset	w8, hi  // hi = pmore
        if (width && (flags & FLAGS_ZEROPAD) && (negative || (flags & (FLAGS_PLUS | FLAGS_SPACE)))) {
    17e8:	120000ec 	and	w12, w7, #0x1
        while ((len < prec) && (len < PRINTF_NTOA_BUFFER_SIZE)) {
    17ec:	0a080148 	and	w8, w10, w8
        if (width && (flags & FLAGS_ZEROPAD) && (negative || (flags & (FLAGS_PLUS | FLAGS_SPACE)))) {
    17f0:	34fff686 	cbz	w6, 16c0 <_ntoa_long+0x60>
    17f4:	3400048c 	cbz	w12, 1884 <_ntoa_long+0x224>
    17f8:	35000072 	cbnz	w18, 1804 <_ntoa_long+0x1a4>
    17fc:	721e04ff 	tst	w7, #0xc
    1800:	54000040 	b.eq	1808 <_ntoa_long+0x1a8>  // b.none
            width--;
    1804:	510004c6 	sub	w6, w6, #0x1
        while ((len < prec) && (len < PRINTF_NTOA_BUFFER_SIZE)) {
    1808:	35fff5e8 	cbnz	w8, 16c4 <_ntoa_long+0x64>
    180c:	17ffffb8 	b	16ec <_ntoa_long+0x8c>
    if (flags & FLAGS_HASH) {
    1810:	121c0111 	and	w17, w8, #0x10
    1814:	2a0803e7 	mov	w7, w8
    1818:	17ffffd7 	b	1774 <_ntoa_long+0x114>
        if (!(flags & FLAGS_PRECISION) && len && ((len == prec) || (len == width))) {
    181c:	eb2f40bf 	cmp	x5, w15, uxtw
    1820:	54000480 	b.eq	18b0 <_ntoa_long+0x250>  // b.none
    1824:	eb2640bf 	cmp	x5, w6, uxtw
    1828:	54000440 	b.eq	18b0 <_ntoa_long+0x250>  // b.none
    182c:	d503201f 	nop
        } else if ((base == 2U) && (len < PRINTF_NTOA_BUFFER_SIZE)) {
    1830:	f1007cbf 	cmp	x5, #0x1f
    1834:	1a9f87e8 	cset	w8, ls  // ls = plast
        if ((base == 16U) && !(flags & FLAGS_UPPERCASE) && (len < PRINTF_NTOA_BUFFER_SIZE)) {
    1838:	f100417f 	cmp	x11, #0x10
    183c:	54000480 	b.eq	18cc <_ntoa_long+0x26c>  // b.none
        } else if ((base == 2U) && (len < PRINTF_NTOA_BUFFER_SIZE)) {
    1840:	7100011f 	cmp	w8, #0x0
    1844:	7a421960 	ccmp	w11, #0x2, #0x0, ne  // ne = any
    1848:	54000081 	b.ne	1858 <_ntoa_long+0x1f8>  // b.any
            buf[len++] = 'b';
    184c:	52800c48 	mov	w8, #0x62                  	// #98
    1850:	38256888 	strb	w8, [x4, x5]
    1854:	910004a5 	add	x5, x5, #0x1
        if (len < PRINTF_NTOA_BUFFER_SIZE) {
    1858:	f10080bf 	cmp	x5, #0x20
    185c:	54fff721 	b.ne	1740 <_ntoa_long+0xe0>  // b.any
    return _out_rev(out, buffer, idx, maxlen, buf, len, width, flags);
    1860:	97ffff3c 	bl	1550 <_out_rev>
}
    1864:	a8c37bfd 	ldp	x29, x30, [sp], #48
    1868:	d65f03c0 	ret
        } else if (flags & FLAGS_PLUS) {
    186c:	37100167 	tbnz	w7, #2, 1898 <_ntoa_long+0x238>
        } else if (flags & FLAGS_SPACE) {
    1870:	361ff7a7 	tbz	w7, #3, 1764 <_ntoa_long+0x104>
            buf[len++] = ' ';
    1874:	52800408 	mov	w8, #0x20                  	// #32
    1878:	38256888 	strb	w8, [x4, x5]
    187c:	910004a5 	add	x5, x5, #0x1
    1880:	17ffffb9 	b	1764 <_ntoa_long+0x104>
        while ((len < prec) && (len < PRINTF_NTOA_BUFFER_SIZE)) {
    1884:	35fff208 	cbnz	w8, 16c4 <_ntoa_long+0x64>
    1888:	17ffffa4 	b	1718 <_ntoa_long+0xb8>
    188c:	910043e4 	add	x4, sp, #0x10
    size_t len = 0U;
    1890:	d2800005 	mov	x5, #0x0                   	// #0
    1894:	17ffffb0 	b	1754 <_ntoa_long+0xf4>
            buf[len++] = '+'; // ignore the space if the '+' exists
    1898:	52800568 	mov	w8, #0x2b                  	// #43
    189c:	38256888 	strb	w8, [x4, x5]
    18a0:	910004a5 	add	x5, x5, #0x1
    return _out_rev(out, buffer, idx, maxlen, buf, len, width, flags);
    18a4:	97ffff2b 	bl	1550 <_out_rev>
}
    18a8:	a8c37bfd 	ldp	x29, x30, [sp], #48
    18ac:	d65f03c0 	ret
            if (len && (base == 16U)) {
    18b0:	f10004aa 	subs	x10, x5, #0x1
                len--;
    18b4:	d10008a5 	sub	x5, x5, #0x2
            if (len && (base == 16U)) {
    18b8:	1a9f07e8 	cset	w8, ne  // ne = any
    18bc:	7100417f 	cmp	w11, #0x10
    18c0:	1a9f17e9 	cset	w9, eq  // eq = none
    18c4:	6a090108 	ands	w8, w8, w9
    18c8:	54000160 	b.eq	18f4 <_ntoa_long+0x294>  // b.none
        if ((base == 16U) && !(flags & FLAGS_UPPERCASE) && (len < PRINTF_NTOA_BUFFER_SIZE)) {
    18cc:	721b00e9 	ands	w9, w7, #0x20
    18d0:	7a400904 	ccmp	w8, #0x0, #0x4, eq  // eq = none
    18d4:	54000141 	b.ne	18fc <_ntoa_long+0x29c>  // b.any
        } else if ((base == 16U) && (flags & FLAGS_UPPERCASE) && (len < PRINTF_NTOA_BUFFER_SIZE)) {
    18d8:	7100013f 	cmp	w9, #0x0
    18dc:	7a401904 	ccmp	w8, #0x0, #0x4, ne  // ne = any
    18e0:	54fffbc0 	b.eq	1858 <_ntoa_long+0x1f8>  // b.none
            buf[len++] = 'X';
    18e4:	52800b08 	mov	w8, #0x58                  	// #88
    18e8:	38256888 	strb	w8, [x4, x5]
    18ec:	910004a5 	add	x5, x5, #0x1
    18f0:	17ffffda 	b	1858 <_ntoa_long+0x1f8>
            len--;
    18f4:	aa0a03e5 	mov	x5, x10
    18f8:	17ffffce 	b	1830 <_ntoa_long+0x1d0>
            buf[len++] = 'x';
    18fc:	52800f08 	mov	w8, #0x78                  	// #120
    1900:	38256888 	strb	w8, [x4, x5]
    1904:	910004a5 	add	x5, x5, #0x1
    1908:	17ffffd4 	b	1858 <_ntoa_long+0x1f8>
        if ((base == 16U) && !(flags & FLAGS_UPPERCASE) && (len < PRINTF_NTOA_BUFFER_SIZE)) {
    190c:	52800028 	mov	w8, #0x1                   	// #1
    1910:	17ffffef 	b	18cc <_ntoa_long+0x26c>
            buf[len++] = '0';
    1914:	52800608 	mov	w8, #0x30                  	// #48
    1918:	d2800025 	mov	x5, #0x1                   	// #1
    191c:	390043e8 	strb	w8, [sp, #16]
    if (len < PRINTF_NTOA_BUFFER_SIZE) {
    1920:	17ffff8d 	b	1754 <_ntoa_long+0xf4>
    1924:	d503201f 	nop
    1928:	d503201f 	nop
    192c:	d503201f 	nop

0000000000001930 <_etoa>:
}

#if defined(PRINTF_SUPPORT_EXPONENTIAL)
// internal ftoa variant for exponential floating-point type, contributed by Martijn Jasperse <m.jasperse@gmail.com>
static size_t _etoa(out_fct_type out, char* buffer, size_t idx, size_t maxlen, double value, unsigned int prec, unsigned int width, unsigned int flags)
{
    1930:	d10203ff 	sub	sp, sp, #0x80
    // check for NaN and special values
    if ((value != value) || (value > DBL_MAX) || (value < -DBL_MAX)) {
    1934:	1e602000 	fcmp	d0, d0
{
    1938:	a9017bfd 	stp	x29, x30, [sp, #16]
    193c:	910043fd 	add	x29, sp, #0x10
    1940:	a90253f3 	stp	x19, x20, [sp, #32]
    1944:	aa0203f3 	mov	x19, x2
    1948:	2a0603f4 	mov	w20, w6
    194c:	a9035bf5 	stp	x21, x22, [sp, #48]
    1950:	2a0503f6 	mov	w22, w5
    1954:	a90463f7 	stp	x23, x24, [sp, #64]
    1958:	aa0003f7 	mov	x23, x0
    195c:	a9056bf9 	stp	x25, x26, [sp, #80]
    1960:	aa0103f9 	mov	x25, x1
    1964:	a90673fb 	stp	x27, x28, [sp, #96]
    1968:	aa0303fb 	mov	x27, x3
    if ((value != value) || (value > DBL_MAX) || (value < -DBL_MAX)) {
    196c:	54001361 	b.ne	1bd8 <_etoa+0x2a8>  // b.any
    1970:	92f00200 	mov	x0, #0x7fefffffffffffff    	// #9218868437227405311
    1974:	9e670001 	fmov	d1, x0
    1978:	1e612010 	fcmpe	d0, d1
    197c:	540012ec 	b.gt	1bd8 <_etoa+0x2a8>
    1980:	92e00200 	mov	x0, #0xffefffffffffffff    	// #-4503599627370497
    1984:	9e670001 	fmov	d1, x0
    1988:	1e612010 	fcmpe	d0, d1
    198c:	54001264 	b.mi	1bd8 <_etoa+0x2a8>  // b.first
        return _ftoa(out, buffer, idx, maxlen, value, prec, width, flags);
    }

    // determine the sign
    const bool negative = value < 0;
    if (negative) {
    1990:	1e602018 	fcmpe	d0, #0.0
    1994:	1e614007 	fneg	d7, d0

    conv.F = value;
    int exp2 = (int)((conv.U >> 52U) & 0x07FFU) - 1023; // effectively log2
    conv.U = (conv.U & ((1ULL << 52U) - 1U)) | (1023ULL << 52U); // drop the exponent so conv.F is now in [1,2)
    // now approximate log10 from the log2 integer part and an expansion of ln around 1.5
    int expval = (int)(0.1760912590558 + exp2 * 0.301029995663981 + (conv.F - 1.5) * 0.289529654602168);
    1998:	f0000040 	adrp	x0, c000 <__func__.0+0x28>
    199c:	fd409017 	ldr	d23, [x0, #288]
    19a0:	f0000040 	adrp	x0, c000 <__func__.0+0x28>
    19a4:	fd409401 	ldr	d1, [x0, #296]
    19a8:	f0000040 	adrp	x0, c000 <__func__.0+0x28>
    19ac:	fd409816 	ldr	d22, [x0, #304]
    19b0:	1e604ce7 	fcsel	d7, d7, d0, mi  // mi = first
    // now we want to compute 10^expval but we want to be sure it won't overflow
    exp2 = (int)(expval * 3.321928094887362 + 0.5);
    19b4:	f0000040 	adrp	x0, c000 <__func__.0+0x28>
    19b8:	fd409c06 	ldr	d6, [x0, #312]
    const double z = expval * 2.302585092994046 - exp2 * 0.6931471805599453;
    19bc:	f0000040 	adrp	x0, c000 <__func__.0+0x28>
    19c0:	fd40a015 	ldr	d21, [x0, #320]
    19c4:	f0000040 	adrp	x0, c000 <__func__.0+0x28>
    19c8:	fd40a414 	ldr	d20, [x0, #328]
    int expval = (int)(0.1760912590558 + exp2 * 0.301029995663981 + (conv.F - 1.5) * 0.289529654602168);
    19cc:	1e6f1018 	fmov	d24, #1.500000000000000000e+00
    conv.F = value;
    19d0:	9e6600e1 	fmov	x1, d7
    exp2 = (int)(expval * 3.321928094887362 + 0.5);
    19d4:	1e6c1003 	fmov	d3, #5.000000000000000000e-01
    const double z2 = z * z;
    conv.U = (uint64_t)(exp2 + 1023) << 52U;
    // compute exp(z) using continued fractions, see https://en.wikipedia.org/wiki/Exponential_function#Continued_fractions_for_ex
    conv.F *= 1 + 2 * z / (2 - z + (z2 / (6 + (z2 / (10 + z2 / 14)))));
    19d8:	1e659002 	fmov	d2, #1.400000000000000000e+01
    19dc:	1e649011 	fmov	d17, #1.000000000000000000e+01
    19e0:	1e631013 	fmov	d19, #6.000000000000000000e+00
    19e4:	1e601010 	fmov	d16, #2.000000000000000000e+00
    19e8:	1e6e1012 	fmov	d18, #1.000000000000000000e+00
        prec = PRINTF_DEFAULT_FLOAT_PRECISION;
    19ec:	721600c3 	ands	w3, w6, #0x400
    conv.U = (conv.U & ((1ULL << 52U) - 1U)) | (1023ULL << 52U); // drop the exponent so conv.F is now in [1,2)
    19f0:	9240cc20 	and	x0, x1, #0xfffffffffffff
    int exp2 = (int)((conv.U >> 52U) & 0x07FFU) - 1023; // effectively log2
    19f4:	d374f821 	ubfx	x1, x1, #52, #11
    19f8:	510ffc21 	sub	w1, w1, #0x3ff
    conv.U = (conv.U & ((1ULL << 52U) - 1U)) | (1023ULL << 52U); // drop the exponent so conv.F is now in [1,2)
    19fc:	b24c2400 	orr	x0, x0, #0x3ff0000000000000
    1a00:	9e670005 	fmov	d5, x0
        prec = PRINTF_DEFAULT_FLOAT_PRECISION;
    1a04:	528000c2 	mov	w2, #0x6                   	// #6
    int expval = (int)(0.1760912590558 + exp2 * 0.301029995663981 + (conv.F - 1.5) * 0.289529654602168);
    1a08:	1e620024 	scvtf	d4, w1
        prec = PRINTF_DEFAULT_FLOAT_PRECISION;
    1a0c:	1a821084 	csel	w4, w4, w2, ne  // ne = any
    int expval = (int)(0.1760912590558 + exp2 * 0.301029995663981 + (conv.F - 1.5) * 0.289529654602168);
    1a10:	1e7838a5 	fsub	d5, d5, d24
    1a14:	1e770884 	fmul	d4, d4, d23
    1a18:	1e7608a5 	fmul	d5, d5, d22
    1a1c:	1e612884 	fadd	d4, d4, d1
    1a20:	1e652884 	fadd	d4, d4, d5
    1a24:	1e780098 	fcvtzs	w24, d4
    exp2 = (int)(expval * 3.321928094887362 + 0.5);
    1a28:	1e620301 	scvtf	d1, w24
    1a2c:	1e660824 	fmul	d4, d1, d6
    const double z = expval * 2.302585092994046 - exp2 * 0.6931471805599453;
    1a30:	1e750821 	fmul	d1, d1, d21
    exp2 = (int)(expval * 3.321928094887362 + 0.5);
    1a34:	1e632884 	fadd	d4, d4, d3
    1a38:	1e780080 	fcvtzs	w0, d4
    const double z = expval * 2.302585092994046 - exp2 * 0.6931471805599453;
    1a3c:	1e620003 	scvtf	d3, w0
    conv.U = (uint64_t)(exp2 + 1023) << 52U;
    1a40:	110ffc00 	add	w0, w0, #0x3ff
    1a44:	9e670004 	fmov	d4, x0
    1a48:	5f745484 	shl	d4, d4, #52
    const double z = expval * 2.302585092994046 - exp2 * 0.6931471805599453;
    1a4c:	1e740863 	fmul	d3, d3, d20
    1a50:	1e633821 	fsub	d1, d1, d3
    const double z2 = z * z;
    1a54:	1e610823 	fmul	d3, d1, d1
    conv.F *= 1 + 2 * z / (2 - z + (z2 / (6 + (z2 / (10 + z2 / 14)))));
    1a58:	1e613a05 	fsub	d5, d16, d1
    1a5c:	1e612821 	fadd	d1, d1, d1
    1a60:	1e621862 	fdiv	d2, d3, d2
    1a64:	1e712842 	fadd	d2, d2, d17
    1a68:	1e621862 	fdiv	d2, d3, d2
    1a6c:	1e732842 	fadd	d2, d2, d19
    1a70:	1e621863 	fdiv	d3, d3, d2
    1a74:	1e652863 	fadd	d3, d3, d5
    1a78:	1e631821 	fdiv	d1, d1, d3
    1a7c:	1e722821 	fadd	d1, d1, d18
    1a80:	1e640821 	fmul	d1, d1, d4
    // correct for rounding errors
    if (value < conv.F) {
    1a84:	1e672030 	fcmpe	d1, d7
    1a88:	54000c4c 	b.gt	1c10 <_etoa+0x2e0>
        expval--;
        conv.F /= 10;
    }

    // the exponent format is "%+03d" and largest value is "307", so set aside 4-5 characters
    unsigned int minwidth = ((expval < 100) && (expval > -100)) ? 4U : 5U;
    1a8c:	11018f00 	add	w0, w24, #0x63
    1a90:	7103181f 	cmp	w0, #0xc6
    1a94:	1a9f97fc 	cset	w28, hi  // hi = pmore
    1a98:	1100139c 	add	w28, w28, #0x4

    // in "%g" mode, "prec" is the number of *significant figures* not decimals
    if (flags & FLAGS_ADAPT_EXP) {
    1a9c:	36580134 	tbz	w20, #11, 1ac0 <_etoa+0x190>
        // do we want to fall-back to "%f" mode?
        if ((value >= 1e-4) && (value < 1e6)) {
    1aa0:	f0000040 	adrp	x0, c000 <__func__.0+0x28>
    1aa4:	fd40a802 	ldr	d2, [x0, #336]
    1aa8:	1e6220f0 	fcmpe	d7, d2
    1aac:	54000d2a 	b.ge	1c50 <_etoa+0x320>  // b.tcont
            // no characters in exponent
            minwidth = 0U;
            expval = 0;
        } else {
            // we use one sigfig for the whole part
            if ((prec > 0) && (flags & FLAGS_PRECISION)) {
    1ab0:	34000084 	cbz	w4, 1ac0 <_etoa+0x190>
                --prec;
    1ab4:	7100007f 	cmp	w3, #0x0
    1ab8:	1a9f07e0 	cset	w0, ne  // ne = any
    1abc:	4b000084 	sub	w4, w4, w0

    // will everything fit?
    unsigned int fwidth = width;
    if (width > minwidth) {
        // we didn't fall-back so subtract the characters required for the exponent
        fwidth -= minwidth;
    1ac0:	6b16039f 	cmp	w28, w22
    } else {
        // not enough characters, so go back to default sizing
        fwidth = 0U;
    }
    if ((flags & FLAGS_LEFT) && minwidth) {
    1ac4:	121f0280 	and	w0, w20, #0x2
        fwidth -= minwidth;
    1ac8:	4b1c02c5 	sub	w5, w22, w28
    1acc:	5280003a 	mov	w26, #0x1                   	// #1
    1ad0:	1a9f30a5 	csel	w5, w5, wzr, cc  // cc = lo, ul, last
    if ((flags & FLAGS_LEFT) && minwidth) {
    1ad4:	7100001f 	cmp	w0, #0x0
    1ad8:	1a9f07e0 	cset	w0, ne  // ne = any
    1adc:	b9007fe0 	str	w0, [sp, #124]
    1ae0:	1a9f00a5 	csel	w5, w5, wzr, eq  // eq = none
        // if we're padding on the right, DON'T pad the floating part
        fwidth = 0U;
    }

    // rescale the float value
    if (expval) {
    1ae4:	34000058 	cbz	w24, 1aec <_etoa+0x1bc>
        value /= conv.F;
    1ae8:	1e6118e7 	fdiv	d7, d7, d1
    }

    // output the floating part
    const size_t start_idx = idx;
    idx = _ftoa(out, buffer, idx, maxlen, negative ? -value : value, prec, fwidth, flags & ~FLAGS_ADAPT_EXP);
    1aec:	1e602018 	fcmpe	d0, #0.0
    1af0:	54000ac4 	b.mi	1c48 <_etoa+0x318>  // b.first
    1af4:	1e6040e0 	fmov	d0, d7
    1af8:	12147a86 	and	w6, w20, #0xfffff7ff
    1afc:	aa1b03e3 	mov	x3, x27
    1b00:	aa1303e2 	mov	x2, x19
    1b04:	aa1903e1 	mov	x1, x25
    1b08:	aa1703e0 	mov	x0, x23
    1b0c:	94000071 	bl	1cd0 <_ftoa>
    1b10:	aa0003f5 	mov	x21, x0

    // output the exponent part
    if (minwidth) {
    1b14:	3400051a 	cbz	w26, 1bb4 <_etoa+0x284>
        // output the exponential symbol
        out((flags & FLAGS_UPPERCASE) ? 'E' : 'e', buffer, idx++, maxlen);
    1b18:	f27b029f 	tst	x20, #0x20
    1b1c:	528008a1 	mov	w1, #0x45                  	// #69
    1b20:	aa1503e2 	mov	x2, x21
    1b24:	aa1b03e3 	mov	x3, x27
    1b28:	52800ca0 	mov	w0, #0x65                  	// #101
    1b2c:	1a801020 	csel	w0, w1, w0, ne  // ne = any
    1b30:	aa1903e1 	mov	x1, x25
    1b34:	d63f02e0 	blr	x23
        // output the exponent value
        idx = _ntoa_long(out, buffer, idx, maxlen, (expval < 0) ? -expval : expval, expval < 0, 10, 0, minwidth - 1, FLAGS_ZEROPAD | FLAGS_PLUS);
    1b38:	7100031f 	cmp	w24, #0x0
    1b3c:	528000a0 	mov	w0, #0x5                   	// #5
    1b40:	5a98a704 	cneg	w4, w24, lt  // lt = tstop
    1b44:	5100079c 	sub	w28, w28, #0x1
    1b48:	b90003fc 	str	w28, [sp]
        out((flags & FLAGS_UPPERCASE) ? 'E' : 'e', buffer, idx++, maxlen);
    1b4c:	910006a2 	add	x2, x21, #0x1
        idx = _ntoa_long(out, buffer, idx, maxlen, (expval < 0) ? -expval : expval, expval < 0, 10, 0, minwidth - 1, FLAGS_ZEROPAD | FLAGS_PLUS);
    1b50:	b9000be0 	str	w0, [sp, #8]
    1b54:	93407c84 	sxtw	x4, w4
    1b58:	531f7f05 	lsr	w5, w24, #31
    1b5c:	aa1b03e3 	mov	x3, x27
    1b60:	aa1903e1 	mov	x1, x25
    1b64:	aa1703e0 	mov	x0, x23
    1b68:	52800007 	mov	w7, #0x0                   	// #0
    1b6c:	d2800146 	mov	x6, #0xa                   	// #10
    1b70:	97fffebc 	bl	1660 <_ntoa_long>
    1b74:	aa0003f5 	mov	x21, x0
        // might need to right-pad spaces
        if (flags & FLAGS_LEFT) {
    1b78:	b9407fe0 	ldr	w0, [sp, #124]
    1b7c:	340001c0 	cbz	w0, 1bb4 <_etoa+0x284>
            while (idx - start_idx < width)
    1b80:	cb1302b3 	sub	x19, x21, x19
    1b84:	eb1302df 	cmp	x22, x19
    1b88:	54000169 	b.ls	1bb4 <_etoa+0x284>  // b.plast
    1b8c:	d503201f 	nop
                out(' ', buffer, idx++, maxlen);
    1b90:	aa1503e2 	mov	x2, x21
            while (idx - start_idx < width)
    1b94:	91000673 	add	x19, x19, #0x1
                out(' ', buffer, idx++, maxlen);
    1b98:	aa1b03e3 	mov	x3, x27
    1b9c:	aa1903e1 	mov	x1, x25
    1ba0:	52800400 	mov	w0, #0x20                  	// #32
    1ba4:	d63f02e0 	blr	x23
    1ba8:	910006b5 	add	x21, x21, #0x1
            while (idx - start_idx < width)
    1bac:	eb1302df 	cmp	x22, x19
    1bb0:	54ffff08 	b.hi	1b90 <_etoa+0x260>  // b.pmore
        }
    }
    return idx;
}
    1bb4:	aa1503e0 	mov	x0, x21
    1bb8:	a9417bfd 	ldp	x29, x30, [sp, #16]
    1bbc:	a94253f3 	ldp	x19, x20, [sp, #32]
    1bc0:	a9435bf5 	ldp	x21, x22, [sp, #48]
    1bc4:	a94463f7 	ldp	x23, x24, [sp, #64]
    1bc8:	a9456bf9 	ldp	x25, x26, [sp, #80]
    1bcc:	a94673fb 	ldp	x27, x28, [sp, #96]
    1bd0:	910203ff 	add	sp, sp, #0x80
    1bd4:	d65f03c0 	ret
        return _ftoa(out, buffer, idx, maxlen, value, prec, width, flags);
    1bd8:	2a1403e6 	mov	w6, w20
    1bdc:	2a1603e5 	mov	w5, w22
    1be0:	aa1b03e3 	mov	x3, x27
    1be4:	aa1303e2 	mov	x2, x19
    1be8:	aa1903e1 	mov	x1, x25
    1bec:	aa1703e0 	mov	x0, x23
}
    1bf0:	a9417bfd 	ldp	x29, x30, [sp, #16]
    1bf4:	a94253f3 	ldp	x19, x20, [sp, #32]
    1bf8:	a9435bf5 	ldp	x21, x22, [sp, #48]
    1bfc:	a94463f7 	ldp	x23, x24, [sp, #64]
    1c00:	a9456bf9 	ldp	x25, x26, [sp, #80]
    1c04:	a94673fb 	ldp	x27, x28, [sp, #96]
    1c08:	910203ff 	add	sp, sp, #0x80
    idx = _ftoa(out, buffer, idx, maxlen, negative ? -value : value, prec, fwidth, flags & ~FLAGS_ADAPT_EXP);
    1c0c:	14000031 	b	1cd0 <_ftoa>
        conv.F /= 10;
    1c10:	1e711821 	fdiv	d1, d1, d17
        expval--;
    1c14:	51000718 	sub	w24, w24, #0x1
    unsigned int minwidth = ((expval < 100) && (expval > -100)) ? 4U : 5U;
    1c18:	11018f00 	add	w0, w24, #0x63
    1c1c:	7103181f 	cmp	w0, #0xc6
    1c20:	1a9f97fc 	cset	w28, hi  // hi = pmore
    1c24:	1100139c 	add	w28, w28, #0x4
    if (flags & FLAGS_ADAPT_EXP) {
    1c28:	365ff4d4 	tbz	w20, #11, 1ac0 <_etoa+0x190>
    1c2c:	17ffff9d 	b	1aa0 <_etoa+0x170>
            flags |= FLAGS_PRECISION; // make sure _ftoa respects precision
    1c30:	2a0003f4 	mov	w20, w0
        fwidth = 0U;
    1c34:	52800005 	mov	w5, #0x0                   	// #0
            minwidth = 0U;
    1c38:	5280001c 	mov	w28, #0x0                   	// #0
            expval = 0;
    1c3c:	52800018 	mov	w24, #0x0                   	// #0
    if ((flags & FLAGS_LEFT) && minwidth) {
    1c40:	5280001a 	mov	w26, #0x0                   	// #0
    1c44:	b9007fff 	str	wzr, [sp, #124]
    idx = _ftoa(out, buffer, idx, maxlen, negative ? -value : value, prec, fwidth, flags & ~FLAGS_ADAPT_EXP);
    1c48:	1e6140e7 	fneg	d7, d7
    1c4c:	17ffffaa 	b	1af4 <_etoa+0x1c4>
        if ((value >= 1e-4) && (value < 1e6)) {
    1c50:	d2d09000 	mov	x0, #0x848000000000        	// #145685290680320
    1c54:	f2e825c0 	movk	x0, #0x412e, lsl #48
    1c58:	9e670002 	fmov	d2, x0
    1c5c:	1e6220f0 	fcmpe	d7, d2
    1c60:	54000044 	b.mi	1c68 <_etoa+0x338>  // b.first
    1c64:	17ffff93 	b	1ab0 <_etoa+0x180>
                prec = (unsigned)((int)prec - expval - 1);
    1c68:	6b180080 	subs	w0, w4, w24
    1c6c:	51000404 	sub	w4, w0, #0x1
            flags |= FLAGS_PRECISION; // make sure _ftoa respects precision
    1c70:	32160280 	orr	w0, w20, #0x400
                prec = (unsigned)((int)prec - expval - 1);
    1c74:	1a9fc084 	csel	w4, w4, wzr, gt
    if (width > minwidth) {
    1c78:	35000196 	cbnz	w22, 1ca8 <_etoa+0x378>
    idx = _ftoa(out, buffer, idx, maxlen, negative ? -value : value, prec, fwidth, flags & ~FLAGS_ADAPT_EXP);
    1c7c:	1e602018 	fcmpe	d0, #0.0
    1c80:	54fffd84 	b.mi	1c30 <_etoa+0x300>  // b.first
    1c84:	12147a86 	and	w6, w20, #0xfffff7ff
    1c88:	1e6040e0 	fmov	d0, d7
    1c8c:	321600c6 	orr	w6, w6, #0x400
    1c90:	aa1b03e3 	mov	x3, x27
    1c94:	aa1303e2 	mov	x2, x19
    1c98:	aa1903e1 	mov	x1, x25
    1c9c:	aa1703e0 	mov	x0, x23
    1ca0:	52800005 	mov	w5, #0x0                   	// #0
    1ca4:	17ffffd3 	b	1bf0 <_etoa+0x2c0>
            flags |= FLAGS_PRECISION; // make sure _ftoa respects precision
    1ca8:	2a0003f4 	mov	w20, w0
    if (width > minwidth) {
    1cac:	2a1603e5 	mov	w5, w22
    1cb0:	5280001a 	mov	w26, #0x0                   	// #0
    1cb4:	52800018 	mov	w24, #0x0                   	// #0
            minwidth = 0U;
    1cb8:	5280001c 	mov	w28, #0x0                   	// #0
    if (width > minwidth) {
    1cbc:	b9007fff 	str	wzr, [sp, #124]
    1cc0:	17ffff8b 	b	1aec <_etoa+0x1bc>
    1cc4:	d503201f 	nop
    1cc8:	d503201f 	nop
    1ccc:	d503201f 	nop

0000000000001cd0 <_ftoa>:
    if (value != value)
    1cd0:	1e602000 	fcmp	d0, d0
{
    1cd4:	2a0603e7 	mov	w7, w6
    if (value != value)
    1cd8:	54000e01 	b.ne	1e98 <_ftoa+0x1c8>  // b.any
    if (value < -DBL_MAX)
    1cdc:	92e00206 	mov	x6, #0xffefffffffffffff    	// #-4503599627370497
    1ce0:	9e6700c1 	fmov	d1, x6
    1ce4:	1e612010 	fcmpe	d0, d1
    1ce8:	54001184 	b.mi	1f18 <_ftoa+0x248>  // b.first
    1cec:	aa0003ef 	mov	x15, x0
    if (value > DBL_MAX)
    1cf0:	92f00200 	mov	x0, #0x7fefffffffffffff    	// #9218868437227405311
    1cf4:	9e670001 	fmov	d1, x0
    1cf8:	aa0103f0 	mov	x16, x1
    1cfc:	aa0203f1 	mov	x17, x2
    1d00:	aa0303f2 	mov	x18, x3
    1d04:	1e612010 	fcmpe	d0, d1
    1d08:	54000b2c 	b.gt	1e6c <_ftoa+0x19c>
    if ((value > PRINTF_MAX_FLOAT) || (value < -PRINTF_MAX_FLOAT)) {
    1d0c:	d2d9aca0 	mov	x0, #0xcd6500000000        	// #225833675390976
    1d10:	f2e839a0 	movk	x0, #0x41cd, lsl #48
    1d14:	9e670001 	fmov	d1, x0
    1d18:	1e612010 	fcmpe	d0, d1
    1d1c:	54000f2c 	b.gt	1f00 <_ftoa+0x230>
    1d20:	d2d9aca0 	mov	x0, #0xcd6500000000        	// #225833675390976
    1d24:	f2f839a0 	movk	x0, #0xc1cd, lsl #48
    1d28:	9e670001 	fmov	d1, x0
    1d2c:	1e612010 	fcmpe	d0, d1
    1d30:	54000e84 	b.mi	1f00 <_ftoa+0x230>  // b.first
    if (value < 0) {
    1d34:	1e602018 	fcmpe	d0, #0.0
{
    1d38:	a9bd7bfd 	stp	x29, x30, [sp, #-48]!
    1d3c:	910003fd 	mov	x29, sp
    if (value < 0) {
    1d40:	54000ca4 	b.mi	1ed4 <_ftoa+0x204>  // b.first
    bool negative = false;
    1d44:	52800003 	mov	w3, #0x0                   	// #0
    if (!(flags & FLAGS_PRECISION)) {
    1d48:	36500ce7 	tbz	w7, #10, 1ee4 <_ftoa+0x214>
    while ((len < PRINTF_FTOA_BUFFER_SIZE) && (prec > 9U)) {
    1d4c:	7100249f 	cmp	w4, #0x9
    1d50:	910043ec 	add	x12, sp, #0x10
    1d54:	d2800008 	mov	x8, #0x0                   	// #0
        buf[len++] = '0';
    1d58:	52800601 	mov	w1, #0x30                  	// #48
    while ((len < PRINTF_FTOA_BUFFER_SIZE) && (prec > 9U)) {
    1d5c:	54001929 	b.ls	2080 <_ftoa+0x3b0>  // b.plast
        buf[len++] = '0';
    1d60:	91000508 	add	x8, x8, #0x1
        prec--;
    1d64:	51000484 	sub	w4, w4, #0x1
        buf[len++] = '0';
    1d68:	8b080180 	add	x0, x12, x8
    while ((len < PRINTF_FTOA_BUFFER_SIZE) && (prec > 9U)) {
    1d6c:	f1007d1f 	cmp	x8, #0x1f
    1d70:	7a499880 	ccmp	w4, #0x9, #0x0, ls  // ls = plast
        buf[len++] = '0';
    1d74:	381ff001 	sturb	w1, [x0, #-1]
    while ((len < PRINTF_FTOA_BUFFER_SIZE) && (prec > 9U)) {
    1d78:	54ffff48 	b.hi	1d60 <_ftoa+0x90>  // b.pmore
    1d7c:	d2d9aca0 	mov	x0, #0xcd6500000000        	// #225833675390976
    1d80:	f2e839a0 	movk	x0, #0x41cd, lsl #48
    1d84:	9e670002 	fmov	d2, x0
    int whole = (int)value;
    1d88:	1e78000a 	fcvtzs	w10, d0
    if (diff > 0.5) {
    1d8c:	1e6c1003 	fmov	d3, #5.000000000000000000e-01
    double tmp = (value - whole) * pow10[prec];
    1d90:	1e620141 	scvtf	d1, w10
    1d94:	1e613801 	fsub	d1, d0, d1
    1d98:	1e620821 	fmul	d1, d1, d2
    unsigned long frac = (unsigned long)tmp;
    1d9c:	9e79002e 	fcvtzu	x14, d1
    diff = tmp - frac;
    1da0:	9e6301c4 	ucvtf	d4, x14
    1da4:	1e643821 	fsub	d1, d1, d4
    if (diff > 0.5) {
    1da8:	1e632030 	fcmpe	d1, d3
    1dac:	5400112c 	b.gt	1fd0 <_ftoa+0x300>
    } else if (diff < 0.5) {
    1db0:	54000084 	b.mi	1dc0 <_ftoa+0xf0>  // b.first
    } else if ((frac == 0U) || (frac & 1U)) {
    1db4:	b500154e 	cbnz	x14, 205c <_ftoa+0x38c>
        ++frac;
    1db8:	910005ce 	add	x14, x14, #0x1
    1dbc:	d503201f 	nop
    if (prec == 0U) {
    1dc0:	35000b64 	cbnz	w4, 1f2c <_ftoa+0x25c>
        diff = value - (double)whole;
    1dc4:	1e620141 	scvtf	d1, w10
        if ((!(diff < 0.5) || (diff > 0.5)) && (whole & 1)) {
    1dc8:	1e6c1002 	fmov	d2, #5.000000000000000000e-01
        diff = value - (double)whole;
    1dcc:	1e613800 	fsub	d0, d0, d1
        if ((!(diff < 0.5) || (diff > 0.5)) && (whole & 1)) {
    1dd0:	1e622010 	fcmpe	d0, d2
    1dd4:	540011a4 	b.mi	2008 <_ftoa+0x338>  // b.first
            ++whole;
    1dd8:	12000140 	and	w0, w10, #0x1
    1ddc:	0b00014a 	add	w10, w10, w0
        buf[len++] = (char)(48 + (whole % 10));
    1de0:	528ccce1 	mov	w1, #0x6667                	// #26215
    1de4:	72acccc1 	movk	w1, #0x6666, lsl #16
    1de8:	52800142 	mov	w2, #0xa                   	// #10
    1dec:	d503201f 	nop
    1df0:	9b217d49 	smull	x9, w10, w1
    while (len < PRINTF_FTOA_BUFFER_SIZE) {
    1df4:	f100811f 	cmp	x8, #0x20
    1df8:	54000c20 	b.eq	1f7c <_ftoa+0x2ac>  // b.none
        buf[len++] = (char)(48 + (whole % 10));
    1dfc:	9362fd29 	asr	x9, x9, #34
    1e00:	91000508 	add	x8, x8, #0x1
    1e04:	4b8a7d29 	sub	w9, w9, w10, asr #31
    1e08:	8b080180 	add	x0, x12, x8
    1e0c:	1b02a92b 	msub	w11, w9, w2, w10
        if (!(whole /= 10)) {
    1e10:	2a0903ea 	mov	w10, w9
        buf[len++] = (char)(48 + (whole % 10));
    1e14:	1100c169 	add	w9, w11, #0x30
    1e18:	381ff009 	sturb	w9, [x0, #-1]
        if (!(whole /= 10)) {
    1e1c:	35fffeaa 	cbnz	w10, 1df0 <_ftoa+0x120>
    if (!(flags & FLAGS_LEFT) && (flags & FLAGS_ZEROPAD)) {
    1e20:	120004e0 	and	w0, w7, #0x3
    1e24:	7100041f 	cmp	w0, #0x1
    1e28:	54000b00 	b.eq	1f88 <_ftoa+0x2b8>  // b.none
    if (len < PRINTF_FTOA_BUFFER_SIZE) {
    1e2c:	f1007d1f 	cmp	x8, #0x1f
    1e30:	540000a8 	b.hi	1e44 <_ftoa+0x174>  // b.pmore
        if (negative) {
    1e34:	34000de3 	cbz	w3, 1ff0 <_ftoa+0x320>
            buf[len++] = '-';
    1e38:	528005a0 	mov	w0, #0x2d                  	// #45
    1e3c:	38286980 	strb	w0, [x12, x8]
    1e40:	91000508 	add	x8, x8, #0x1
    return _out_rev(out, buffer, idx, maxlen, buf, len, width, flags);
    1e44:	2a0503e6 	mov	w6, w5
    1e48:	aa0c03e4 	mov	x4, x12
    1e4c:	aa0803e5 	mov	x5, x8
    1e50:	aa1203e3 	mov	x3, x18
    1e54:	aa1103e2 	mov	x2, x17
    1e58:	aa1003e1 	mov	x1, x16
    1e5c:	aa0f03e0 	mov	x0, x15
    1e60:	97fffdbc 	bl	1550 <_out_rev>
}
    1e64:	a8c37bfd 	ldp	x29, x30, [sp], #48
    1e68:	d65f03c0 	ret
        return _out_rev(out, buffer, idx, maxlen, (flags & FLAGS_PLUS) ? "fni+" : "fni", (flags & FLAGS_PLUS) ? 4U : 3U, width, flags);
    1e6c:	37100207 	tbnz	w7, #2, 1eac <_ftoa+0x1dc>
    1e70:	d2800060 	mov	x0, #0x3                   	// #3
    1e74:	2a0503e6 	mov	w6, w5
    1e78:	d0000044 	adrp	x4, b000 <_wcsnrtombs_l+0x130>
    1e7c:	913fc084 	add	x4, x4, #0xff0
    1e80:	aa0003e5 	mov	x5, x0
    1e84:	aa1203e3 	mov	x3, x18
    1e88:	aa1103e2 	mov	x2, x17
    1e8c:	aa1003e1 	mov	x1, x16
    1e90:	aa0f03e0 	mov	x0, x15
    1e94:	17fffdaf 	b	1550 <_out_rev>
        return _out_rev(out, buffer, idx, maxlen, "nan", 3, width, flags);
    1e98:	2a0503e6 	mov	w6, w5
    1e9c:	f0000044 	adrp	x4, c000 <__func__.0+0x28>
    1ea0:	d2800065 	mov	x5, #0x3                   	// #3
    1ea4:	91000084 	add	x4, x4, #0x0
    1ea8:	17fffdaa 	b	1550 <_out_rev>
        return _out_rev(out, buffer, idx, maxlen, (flags & FLAGS_PLUS) ? "fni+" : "fni", (flags & FLAGS_PLUS) ? 4U : 3U, width, flags);
    1eac:	d2800080 	mov	x0, #0x4                   	// #4
    1eb0:	2a0503e6 	mov	w6, w5
    1eb4:	d0000044 	adrp	x4, b000 <_wcsnrtombs_l+0x130>
    1eb8:	913fe084 	add	x4, x4, #0xff8
    1ebc:	aa0003e5 	mov	x5, x0
    1ec0:	aa1203e3 	mov	x3, x18
    1ec4:	aa1103e2 	mov	x2, x17
    1ec8:	aa1003e1 	mov	x1, x16
    1ecc:	aa0f03e0 	mov	x0, x15
    1ed0:	17fffda0 	b	1550 <_out_rev>
        value = 0 - value;
    1ed4:	2f00e401 	movi	d1, #0x0
        negative = true;
    1ed8:	52800023 	mov	w3, #0x1                   	// #1
        value = 0 - value;
    1edc:	1e603820 	fsub	d0, d1, d0
    if (!(flags & FLAGS_PRECISION)) {
    1ee0:	3757f367 	tbnz	w7, #10, 1d4c <_ftoa+0x7c>
    1ee4:	d2d09000 	mov	x0, #0x848000000000        	// #145685290680320
    1ee8:	910043ec 	add	x12, sp, #0x10
    1eec:	f2e825c0 	movk	x0, #0x412e, lsl #48
    1ef0:	d2800008 	mov	x8, #0x0                   	// #0
    1ef4:	9e670002 	fmov	d2, x0
        prec = PRINTF_DEFAULT_FLOAT_PRECISION;
    1ef8:	528000c4 	mov	w4, #0x6                   	// #6
    1efc:	17ffffa3 	b	1d88 <_ftoa+0xb8>
        return _etoa(out, buffer, idx, maxlen, value, prec, width, flags);
    1f00:	2a0703e6 	mov	w6, w7
    1f04:	aa1203e3 	mov	x3, x18
    1f08:	aa1103e2 	mov	x2, x17
    1f0c:	aa1003e1 	mov	x1, x16
    1f10:	aa0f03e0 	mov	x0, x15
    1f14:	17fffe87 	b	1930 <_etoa>
        return _out_rev(out, buffer, idx, maxlen, "fni-", 4, width, flags);
    1f18:	2a0503e6 	mov	w6, w5
    1f1c:	f0000044 	adrp	x4, c000 <__func__.0+0x28>
    1f20:	d2800085 	mov	x5, #0x4                   	// #4
    1f24:	91002084 	add	x4, x4, #0x8
    1f28:	17fffd8a 	b	1550 <_out_rev>
    1f2c:	51008081 	sub	w1, w4, #0x20
            buf[len++] = (char)(48U + (frac % 10U));
    1f30:	b202e7e2 	mov	x2, #0xcccccccccccccccc    	// #-3689348814741910324
    1f34:	0b080021 	add	w1, w1, w8
    1f38:	f29999a2 	movk	x2, #0xcccd
    1f3c:	1400000d 	b	1f70 <_ftoa+0x2a0>
    1f40:	d343fd6b 	lsr	x11, x11, #3
            if (!(frac /= 10U)) {
    1f44:	f10025df 	cmp	x14, #0x9
            --count;
    1f48:	51000480 	sub	w0, w4, #0x1
            buf[len++] = (char)(48U + (frac % 10U));
    1f4c:	91000509 	add	x9, x8, #0x1
    1f50:	8b0b096d 	add	x13, x11, x11, lsl #2
    1f54:	cb0d05cd 	sub	x13, x14, x13, lsl #1
            if (!(frac /= 10U)) {
    1f58:	aa0b03ee 	mov	x14, x11
            buf[len++] = (char)(48U + (frac % 10U));
    1f5c:	1100c1ab 	add	w11, w13, #0x30
    1f60:	3828698b 	strb	w11, [x12, x8]
            if (!(frac /= 10U)) {
    1f64:	54000569 	b.ls	2010 <_ftoa+0x340>  // b.plast
            --count;
    1f68:	2a0003e4 	mov	w4, w0
            buf[len++] = (char)(48U + (frac % 10U));
    1f6c:	aa0903e8 	mov	x8, x9
    1f70:	9bc27dcb 	umulh	x11, x14, x2
        while (len < PRINTF_FTOA_BUFFER_SIZE) {
    1f74:	6b01009f 	cmp	w4, w1
    1f78:	54fffe41 	b.ne	1f40 <_ftoa+0x270>  // b.any
    if (!(flags & FLAGS_LEFT) && (flags & FLAGS_ZEROPAD)) {
    1f7c:	120004e0 	and	w0, w7, #0x3
    1f80:	7100041f 	cmp	w0, #0x1
    1f84:	54fff601 	b.ne	1e44 <_ftoa+0x174>  // b.any
        if (width && (negative || (flags & (FLAGS_PLUS | FLAGS_SPACE)))) {
    1f88:	34fff525 	cbz	w5, 1e2c <_ftoa+0x15c>
    1f8c:	35000763 	cbnz	w3, 2078 <_ftoa+0x3a8>
    1f90:	721e04ff 	tst	w7, #0xc
    1f94:	54000721 	b.ne	2078 <_ftoa+0x3a8>  // b.any
        while ((len < width) && (len < PRINTF_FTOA_BUFFER_SIZE)) {
    1f98:	2a0503e1 	mov	w1, w5
    1f9c:	eb01011f 	cmp	x8, x1
    1fa0:	54fff462 	b.cs	1e2c <_ftoa+0x15c>  // b.hs, b.nlast
    1fa4:	f1007d1f 	cmp	x8, #0x1f
            buf[len++] = '0';
    1fa8:	52800602 	mov	w2, #0x30                  	// #48
        while ((len < width) && (len < PRINTF_FTOA_BUFFER_SIZE)) {
    1fac:	54fff4c8 	b.hi	1e44 <_ftoa+0x174>  // b.pmore
            buf[len++] = '0';
    1fb0:	91000508 	add	x8, x8, #0x1
    1fb4:	8b080180 	add	x0, x12, x8
        while ((len < width) && (len < PRINTF_FTOA_BUFFER_SIZE)) {
    1fb8:	eb01011f 	cmp	x8, x1
            buf[len++] = '0';
    1fbc:	381ff002 	sturb	w2, [x0, #-1]
        while ((len < width) && (len < PRINTF_FTOA_BUFFER_SIZE)) {
    1fc0:	54fff360 	b.eq	1e2c <_ftoa+0x15c>  // b.none
    1fc4:	f100811f 	cmp	x8, #0x20
    1fc8:	54ffff41 	b.ne	1fb0 <_ftoa+0x2e0>  // b.any
    1fcc:	17ffff9e 	b	1e44 <_ftoa+0x174>
        ++frac;
    1fd0:	910005ce 	add	x14, x14, #0x1
        if (frac >= pow10[prec]) {
    1fd4:	9e6301c1 	ucvtf	d1, x14
    1fd8:	1e622030 	fcmpe	d1, d2
    1fdc:	5400004a 	b.ge	1fe4 <_ftoa+0x314>  // b.tcont
    1fe0:	17ffff78 	b	1dc0 <_ftoa+0xf0>
            ++whole;
    1fe4:	1100054a 	add	w10, w10, #0x1
            frac = 0;
    1fe8:	d280000e 	mov	x14, #0x0                   	// #0
    1fec:	17ffff75 	b	1dc0 <_ftoa+0xf0>
        } else if (flags & FLAGS_PLUS) {
    1ff0:	371003c7 	tbnz	w7, #2, 2068 <_ftoa+0x398>
        } else if (flags & FLAGS_SPACE) {
    1ff4:	361ff287 	tbz	w7, #3, 1e44 <_ftoa+0x174>
            buf[len++] = ' ';
    1ff8:	52800400 	mov	w0, #0x20                  	// #32
    1ffc:	38286980 	strb	w0, [x12, x8]
    2000:	91000508 	add	x8, x8, #0x1
    2004:	17ffff90 	b	1e44 <_ftoa+0x174>
        if ((!(diff < 0.5) || (diff > 0.5)) && (whole & 1)) {
    2008:	54ffee8c 	b.gt	1dd8 <_ftoa+0x108>
    200c:	17ffff75 	b	1de0 <_ftoa+0x110>
        while ((len < PRINTF_FTOA_BUFFER_SIZE) && (count-- > 0U)) {
    2010:	f100813f 	cmp	x9, #0x20
    2014:	54000420 	b.eq	2098 <_ftoa+0x3c8>  // b.none
    2018:	91000901 	add	x1, x8, #0x2
    201c:	51000884 	sub	w4, w4, #0x2
    2020:	8b040021 	add	x1, x1, x4
            buf[len++] = '0';
    2024:	52800602 	mov	w2, #0x30                  	// #48
        while ((len < PRINTF_FTOA_BUFFER_SIZE) && (count-- > 0U)) {
    2028:	34000340 	cbz	w0, 2090 <_ftoa+0x3c0>
    202c:	d503201f 	nop
            buf[len++] = '0';
    2030:	91000529 	add	x9, x9, #0x1
    2034:	8b090180 	add	x0, x12, x9
        while ((len < PRINTF_FTOA_BUFFER_SIZE) && (count-- > 0U)) {
    2038:	f100813f 	cmp	x9, #0x20
            buf[len++] = '0';
    203c:	381ff002 	sturb	w2, [x0, #-1]
        while ((len < PRINTF_FTOA_BUFFER_SIZE) && (count-- > 0U)) {
    2040:	540002c0 	b.eq	2098 <_ftoa+0x3c8>  // b.none
    2044:	eb01013f 	cmp	x9, x1
    2048:	54ffff41 	b.ne	2030 <_ftoa+0x360>  // b.any
            buf[len++] = '.';
    204c:	528005c0 	mov	w0, #0x2e                  	// #46
    2050:	91000428 	add	x8, x1, #0x1
    2054:	38216980 	strb	w0, [x12, x1]
    2058:	17ffff62 	b	1de0 <_ftoa+0x110>
    } else if ((frac == 0U) || (frac & 1U)) {
    205c:	3607eb2e 	tbz	w14, #0, 1dc0 <_ftoa+0xf0>
        ++frac;
    2060:	910005ce 	add	x14, x14, #0x1
    2064:	17ffff57 	b	1dc0 <_ftoa+0xf0>
            buf[len++] = '+'; // ignore the space if the '+' exists
    2068:	52800560 	mov	w0, #0x2b                  	// #43
    206c:	38286980 	strb	w0, [x12, x8]
    2070:	91000508 	add	x8, x8, #0x1
    2074:	17ffff74 	b	1e44 <_ftoa+0x174>
            width--;
    2078:	510004a5 	sub	w5, w5, #0x1
    207c:	17ffffc7 	b	1f98 <_ftoa+0x2c8>
    double tmp = (value - whole) * pow10[prec];
    2080:	d0000040 	adrp	x0, c000 <__func__.0+0x28>
    2084:	91034000 	add	x0, x0, #0xd0
    2088:	fc645802 	ldr	d2, [x0, w4, uxtw #3]
    208c:	17ffff3f 	b	1d88 <_ftoa+0xb8>
        while ((len < PRINTF_FTOA_BUFFER_SIZE) && (count-- > 0U)) {
    2090:	aa0903e1 	mov	x1, x9
    2094:	17ffffee 	b	204c <_ftoa+0x37c>
            buf[len++] = '0';
    2098:	aa0903e8 	mov	x8, x9
    209c:	17ffffb8 	b	1f7c <_ftoa+0x2ac>

00000000000020a0 <_out_char>:
    if (character) {
    20a0:	72001c00 	ands	w0, w0, #0xff
    20a4:	54000041 	b.ne	20ac <_out_char+0xc>  // b.any
}
    20a8:	d65f03c0 	ret
        _putchar(character);
    20ac:	17fffd05 	b	14c0 <putc>

00000000000020b0 <_out_fct>:
    if (character) {
    20b0:	72001c00 	ands	w0, w0, #0xff
    20b4:	54000080 	b.eq	20c4 <_out_fct+0x14>  // b.none
        ((out_fct_wrap_type*)buffer)->fct(character, ((out_fct_wrap_type*)buffer)->arg);
    20b8:	a9400422 	ldp	x2, x1, [x1]
    20bc:	aa0203f0 	mov	x16, x2
    20c0:	d61f0200 	br	x16
}
    20c4:	d65f03c0 	ret
    20c8:	d503201f 	nop
    20cc:	d503201f 	nop

00000000000020d0 <_vsnprintf>:
#endif // PRINTF_SUPPORT_EXPONENTIAL
#endif // PRINTF_SUPPORT_FLOAT

// internal vsnprintf
static int _vsnprintf(out_fct_type out, char* buffer, const size_t maxlen, const char* format, va_list va)
{
    20d0:	d102c3ff 	sub	sp, sp, #0xb0
    unsigned int flags, width, precision, n;
    size_t idx = 0U;

    if (!buffer) {
        // use null output function
        out = _out_null;
    20d4:	f100003f 	cmp	x1, #0x0
{
    20d8:	a9017bfd 	stp	x29, x30, [sp, #16]
    20dc:	910043fd 	add	x29, sp, #0x10
    20e0:	a90253f3 	stp	x19, x20, [sp, #32]
        out = _out_null;
    20e4:	f0fffff3 	adrp	x19, 1000 <ipc_msg_send_nowait>
    20e8:	91150273 	add	x19, x19, #0x540
{
    20ec:	a9056bf9 	stp	x25, x26, [sp, #80]
        out = _out_null;
    20f0:	9a800273 	csel	x19, x19, x0, eq  // eq = none
{
    20f4:	aa0103fa 	mov	x26, x1
    20f8:	a90673fb 	stp	x27, x28, [sp, #96]
    20fc:	aa0203fc 	mov	x28, x2
    }

    while (*format) {
    2100:	d280001b 	mov	x27, #0x0                   	// #0
    2104:	b9401880 	ldr	w0, [x4, #24]
    2108:	b9007be0 	str	w0, [sp, #120]
    210c:	f9400480 	ldr	x0, [x4, #8]
    2110:	f90047e0 	str	x0, [sp, #136]
    2114:	39400065 	ldrb	w5, [x3]
    2118:	f9400880 	ldr	x0, [x4, #16]
    211c:	f9004be0 	str	x0, [sp, #144]
    2120:	b9401c80 	ldr	w0, [x4, #28]
    2124:	b900abe0 	str	w0, [sp, #168]
    2128:	f9400094 	ldr	x20, [x4]
    212c:	34003ae5 	cbz	w5, 2888 <_vsnprintf+0x7b8>
    2130:	a90463f7 	stp	x23, x24, [sp, #64]
        default:
            break;
        }

        // evaluate specifier
        switch (*format) {
    2134:	d0000058 	adrp	x24, c000 <__func__.0+0x28>
    2138:	91004300 	add	x0, x24, #0x10
    213c:	aa0303f9 	mov	x25, x3
    2140:	f90043e0 	str	x0, [sp, #128]
    2144:	d0000040 	adrp	x0, c000 <__func__.0+0x28>
    2148:	9102e000 	add	x0, x0, #0xb8
    214c:	f9004fe0 	str	x0, [sp, #152]
    2150:	1400000a 	b	2178 <_vsnprintf+0xa8>
            out(*format, buffer, idx++, maxlen);
    2154:	91000764 	add	x4, x27, #0x1
    2158:	2a0503e0 	mov	w0, w5
            out('%', buffer, idx++, maxlen);
            format++;
            break;

        default:
            out(*format, buffer, idx++, maxlen);
    215c:	aa1b03e2 	mov	x2, x27
    2160:	aa1c03e3 	mov	x3, x28
    2164:	aa1a03e1 	mov	x1, x26
    2168:	aa0403fb 	mov	x27, x4
    216c:	d63f0260 	blr	x19
    while (*format) {
    2170:	39400325 	ldrb	w5, [x25]
    2174:	34000c85 	cbz	w5, 2304 <_vsnprintf+0x234>
            format++;
    2178:	91000739 	add	x25, x25, #0x1
        if (*format != '%') {
    217c:	710094bf 	cmp	w5, #0x25
    2180:	54fffea1 	b.ne	2154 <_vsnprintf+0x84>  // b.any
            switch (*format) {
    2184:	aa1903e8 	mov	x8, x25
        flags = 0U;
    2188:	52800006 	mov	w6, #0x0                   	// #0
            switch (*format) {
    218c:	38401500 	ldrb	w0, [x8], #1
    2190:	7100ac1f 	cmp	w0, #0x2b
    2194:	54000180 	b.eq	21c4 <_vsnprintf+0xf4>  // b.none
    2198:	540001c8 	b.hi	21d0 <_vsnprintf+0x100>  // b.pmore
    219c:	7100801f 	cmp	w0, #0x20
    21a0:	54000260 	b.eq	21ec <_vsnprintf+0x11c>  // b.none
    21a4:	71008c1f 	cmp	w0, #0x23
    21a8:	540002e1 	b.ne	2204 <_vsnprintf+0x134>  // b.any
                flags |= FLAGS_HASH;
    21ac:	321c00c6 	orr	w6, w6, #0x10
            format++;
    21b0:	aa0803f9 	mov	x25, x8
            switch (*format) {
    21b4:	aa1903e8 	mov	x8, x25
    21b8:	38401500 	ldrb	w0, [x8], #1
    21bc:	7100ac1f 	cmp	w0, #0x2b
    21c0:	54fffec1 	b.ne	2198 <_vsnprintf+0xc8>  // b.any
                flags |= FLAGS_PLUS;
    21c4:	321e00c6 	orr	w6, w6, #0x4
            format++;
    21c8:	aa0803f9 	mov	x25, x8
    21cc:	17fffffa 	b	21b4 <_vsnprintf+0xe4>
            switch (*format) {
    21d0:	7100b41f 	cmp	w0, #0x2d
    21d4:	54000120 	b.eq	21f8 <_vsnprintf+0x128>  // b.none
    21d8:	7100c01f 	cmp	w0, #0x30
    21dc:	540062c1 	b.ne	2e34 <_vsnprintf+0xd64>  // b.any
                flags |= FLAGS_ZEROPAD;
    21e0:	320000c6 	orr	w6, w6, #0x1
            format++;
    21e4:	aa0803f9 	mov	x25, x8
    21e8:	17fffff3 	b	21b4 <_vsnprintf+0xe4>
                flags |= FLAGS_SPACE;
    21ec:	321d00c6 	orr	w6, w6, #0x8
            format++;
    21f0:	aa0803f9 	mov	x25, x8
    21f4:	17fffff0 	b	21b4 <_vsnprintf+0xe4>
                flags |= FLAGS_LEFT;
    21f8:	321f00c6 	orr	w6, w6, #0x2
            format++;
    21fc:	aa0803f9 	mov	x25, x8
    2200:	17ffffed 	b	21b4 <_vsnprintf+0xe4>
        } else if (*format == '*') {
    2204:	7100a81f 	cmp	w0, #0x2a
        width = 0U;
    2208:	52800018 	mov	w24, #0x0                   	// #0
        } else if (*format == '*') {
    220c:	540002e0 	b.eq	2268 <_vsnprintf+0x198>  // b.none
        precision = 0U;
    2210:	52800017 	mov	w23, #0x0                   	// #0
        switch (*format) {
    2214:	7101b01f 	cmp	w0, #0x6c
            format++;
    2218:	aa0803e4 	mov	x4, x8
        switch (*format) {
    221c:	54001f20 	b.eq	2600 <_vsnprintf+0x530>  // b.none
    2220:	54000588 	b.hi	22d0 <_vsnprintf+0x200>  // b.pmore
    2224:	7101a01f 	cmp	w0, #0x68
    2228:	54001e20 	b.eq	25ec <_vsnprintf+0x51c>  // b.none
    222c:	7101a81f 	cmp	w0, #0x6a
    2230:	54006241 	b.ne	2e78 <_vsnprintf+0xda8>  // b.any
        switch (*format) {
    2234:	39400720 	ldrb	w0, [x25, #1]
            flags |= (sizeof(size_t) == sizeof(long) ? FLAGS_LONG : FLAGS_LONG_LONG);
    2238:	321800c6 	orr	w6, w6, #0x100
        switch (*format) {
    223c:	51009402 	sub	w2, w0, #0x25
            format++;
    2240:	91000499 	add	x25, x4, #0x1
        switch (*format) {
    2244:	71014c5f 	cmp	w2, #0x53
    2248:	54000069 	b.ls	2254 <_vsnprintf+0x184>  // b.plast
            out(*format, buffer, idx++, maxlen);
    224c:	91000764 	add	x4, x27, #0x1
    2250:	17ffffc3 	b	215c <_vsnprintf+0x8c>
        switch (*format) {
    2254:	f94043e1 	ldr	x1, [sp, #128]
    2258:	78625821 	ldrh	w1, [x1, w2, uxtw #1]
    225c:	10000062 	adr	x2, 2268 <_vsnprintf+0x198>
    2260:	8b21a841 	add	x1, x2, w1, sxth #2
    2264:	d61f0020 	br	x1
            const int w = va_arg(va, int);
    2268:	b9407be0 	ldr	w0, [sp, #120]
    226c:	37f806c0 	tbnz	w0, #31, 2344 <_vsnprintf+0x274>
    2270:	91002e82 	add	x2, x20, #0xb
    2274:	aa1403e0 	mov	x0, x20
    2278:	927df054 	and	x20, x2, #0xfffffffffffffff8
    227c:	b9400018 	ldr	w24, [x0]
            if (w < 0) {
    2280:	36f80078 	tbz	w24, #31, 228c <_vsnprintf+0x1bc>
                flags |= FLAGS_LEFT; // reverse padding
    2284:	321f00c6 	orr	w6, w6, #0x2
                width = (unsigned int)-w;
    2288:	4b1803f8 	neg	w24, w24
        if (*format == '.') {
    228c:	39400720 	ldrb	w0, [x25, #1]
            format++;
    2290:	aa0803f9 	mov	x25, x8
    2294:	91000508 	add	x8, x8, #0x1
        if (*format == '.') {
    2298:	7100b81f 	cmp	w0, #0x2e
    229c:	54fffba1 	b.ne	2210 <_vsnprintf+0x140>  // b.any
            if (_is_digit(*format)) {
    22a0:	39400720 	ldrb	w0, [x25, #1]
            flags |= FLAGS_PRECISION;
    22a4:	321600c6 	orr	w6, w6, #0x400
            format++;
    22a8:	aa0803e4 	mov	x4, x8
    return (ch >= '0') && (ch <= '9');
    22ac:	5100c002 	sub	w2, w0, #0x30
            if (_is_digit(*format)) {
    22b0:	12001c42 	and	w2, w2, #0xff
    22b4:	7100245f 	cmp	w2, #0x9
    22b8:	54001b29 	b.ls	261c <_vsnprintf+0x54c>  // b.plast
            } else if (*format == '*') {
    22bc:	7100a81f 	cmp	w0, #0x2a
    22c0:	54002a20 	b.eq	2804 <_vsnprintf+0x734>  // b.none
            format++;
    22c4:	aa0803f9 	mov	x25, x8
    22c8:	91000508 	add	x8, x8, #0x1
    22cc:	17ffffd1 	b	2210 <_vsnprintf+0x140>
        switch (*format) {
    22d0:	7101d01f 	cmp	w0, #0x74
    22d4:	54fffb00 	b.eq	2234 <_vsnprintf+0x164>  // b.none
    22d8:	7101e81f 	cmp	w0, #0x7a
    22dc:	54fffac0 	b.eq	2234 <_vsnprintf+0x164>  // b.none
        switch (*format) {
    22e0:	5101bc02 	sub	w2, w0, #0x6f
            format++;
    22e4:	aa0803f9 	mov	x25, x8
        switch (*format) {
    22e8:	7100245f 	cmp	w2, #0x9
    22ec:	54fffb08 	b.hi	224c <_vsnprintf+0x17c>  // b.pmore
    22f0:	f9404fe1 	ldr	x1, [sp, #152]
    22f4:	78625821 	ldrh	w1, [x1, w2, uxtw #1]
    22f8:	10000062 	adr	x2, 2304 <_vsnprintf+0x234>
    22fc:	8b21a841 	add	x1, x2, w1, sxth #2
    2300:	d61f0020 	br	x1
    2304:	a94463f7 	ldp	x23, x24, [sp, #64]

    // termination
    out((char)0, buffer, idx < maxlen ? idx : maxlen - 1U, maxlen);

    // return written chars without terminating \0
    return (int)idx;
    2308:	2a1b03f4 	mov	w20, w27
    out((char)0, buffer, idx < maxlen ? idx : maxlen - 1U, maxlen);
    230c:	eb1b039f 	cmp	x28, x27
    2310:	d1000782 	sub	x2, x28, #0x1
    2314:	aa1a03e1 	mov	x1, x26
    2318:	9a9b9042 	csel	x2, x2, x27, ls  // ls = plast
    231c:	aa1c03e3 	mov	x3, x28
    2320:	52800000 	mov	w0, #0x0                   	// #0
    2324:	d63f0260 	blr	x19
}
    2328:	2a1403e0 	mov	w0, w20
    232c:	a9417bfd 	ldp	x29, x30, [sp, #16]
    2330:	a94253f3 	ldp	x19, x20, [sp, #32]
    2334:	a9456bf9 	ldp	x25, x26, [sp, #80]
    2338:	a94673fb 	ldp	x27, x28, [sp, #96]
    233c:	9102c3ff 	add	sp, sp, #0xb0
    2340:	d65f03c0 	ret
            const int w = va_arg(va, int);
    2344:	b9407be0 	ldr	w0, [sp, #120]
    2348:	11002002 	add	w2, w0, #0x8
    234c:	7100005f 	cmp	w2, #0x0
    2350:	5400228d 	b.le	27a0 <_vsnprintf+0x6d0>
    2354:	91002e84 	add	x4, x20, #0xb
    2358:	aa1403e0 	mov	x0, x20
    235c:	927df094 	and	x20, x4, #0xfffffffffffffff8
    2360:	b9007be2 	str	w2, [sp, #120]
    2364:	17ffffc6 	b	227c <_vsnprintf+0x1ac>
            if (*format == 'x' || *format == 'X') {
    2368:	121a7802 	and	w2, w0, #0xffffffdf
    236c:	7101605f 	cmp	w2, #0x58
    2370:	54001781 	b.ne	2660 <_vsnprintf+0x590>  // b.any
            if (*format == 'X') {
    2374:	7101601f 	cmp	w0, #0x58
    2378:	54003c81 	b.ne	2b08 <_vsnprintf+0xa38>  // b.any
                flags |= FLAGS_UPPERCASE;
    237c:	321b00c6 	orr	w6, w6, #0x20
    2380:	d2800208 	mov	x8, #0x10                  	// #16
                flags &= ~(FLAGS_PLUS | FLAGS_SPACE);
    2384:	121c74c6 	and	w6, w6, #0xfffffff3
    2388:	140000c0 	b	2688 <_vsnprintf+0x5b8>
            if ((*format == 'g') || (*format == 'G'))
    238c:	121a7802 	and	w2, w0, #0xffffffdf
            if ((*format == 'E') || (*format == 'G'))
    2390:	121e7800 	and	w0, w0, #0xfffffffd
                flags |= FLAGS_ADAPT_EXP;
    2394:	71011c5f 	cmp	w2, #0x47
    2398:	321500c2 	orr	w2, w6, #0x800
    239c:	1a860046 	csel	w6, w2, w6, eq  // eq = none
                flags |= FLAGS_UPPERCASE;
    23a0:	7101141f 	cmp	w0, #0x45
    23a4:	321b00c0 	orr	w0, w6, #0x20
    23a8:	1a860006 	csel	w6, w0, w6, eq  // eq = none
            idx = _etoa(out, buffer, idx, maxlen, va_arg(va, double), precision, width, flags);
    23ac:	b940abe0 	ldr	w0, [sp, #168]
    23b0:	37f81c20 	tbnz	w0, #31, 2734 <_vsnprintf+0x664>
    23b4:	91003e82 	add	x2, x20, #0xf
    23b8:	aa1403e0 	mov	x0, x20
    23bc:	927df054 	and	x20, x2, #0xfffffffffffffff8
    23c0:	fd400000 	ldr	d0, [x0]
    23c4:	aa1b03e2 	mov	x2, x27
    23c8:	2a1803e5 	mov	w5, w24
    23cc:	2a1703e4 	mov	w4, w23
    23d0:	aa1c03e3 	mov	x3, x28
    23d4:	aa1a03e1 	mov	x1, x26
    23d8:	aa1303e0 	mov	x0, x19
    23dc:	97fffd55 	bl	1930 <_etoa>
    23e0:	aa0003fb 	mov	x27, x0
            break;
    23e4:	17ffff63 	b	2170 <_vsnprintf+0xa0>
                flags |= FLAGS_UPPERCASE;
    23e8:	7101181f 	cmp	w0, #0x46
    23ec:	321b00c0 	orr	w0, w6, #0x20
    23f0:	1a860006 	csel	w6, w0, w6, eq  // eq = none
            idx = _ftoa(out, buffer, idx, maxlen, va_arg(va, double), precision, width, flags);
    23f4:	b940abe0 	ldr	w0, [sp, #168]
    23f8:	37f818c0 	tbnz	w0, #31, 2710 <_vsnprintf+0x640>
    23fc:	91003e82 	add	x2, x20, #0xf
    2400:	aa1403e0 	mov	x0, x20
    2404:	927df054 	and	x20, x2, #0xfffffffffffffff8
    2408:	fd400000 	ldr	d0, [x0]
    240c:	aa1b03e2 	mov	x2, x27
    2410:	2a1803e5 	mov	w5, w24
    2414:	2a1703e4 	mov	w4, w23
    2418:	aa1c03e3 	mov	x3, x28
    241c:	aa1a03e1 	mov	x1, x26
    2420:	aa1303e0 	mov	x0, x19
    2424:	97fffe2b 	bl	1cd0 <_ftoa>
    2428:	aa0003fb 	mov	x27, x0
            break;
    242c:	17ffff51 	b	2170 <_vsnprintf+0xa0>
            out('%', buffer, idx++, maxlen);
    2430:	91000760 	add	x0, x27, #0x1
    2434:	aa1b03e2 	mov	x2, x27
    2438:	aa1c03e3 	mov	x3, x28
    243c:	aa0003fb 	mov	x27, x0
    2440:	aa1a03e1 	mov	x1, x26
    2444:	528004a0 	mov	w0, #0x25                  	// #37
    2448:	d63f0260 	blr	x19
            break;
    244c:	17ffff49 	b	2170 <_vsnprintf+0xa0>
            flags |= FLAGS_ZEROPAD | FLAGS_UPPERCASE;
    2450:	52800420 	mov	w0, #0x21                  	// #33
    2454:	2a0000c6 	orr	w6, w6, w0
                idx = _ntoa_long_long(out, buffer, idx, maxlen, (uintptr_t)va_arg(va, void*), false, 16U, precision, width, flags);
    2458:	b9407be0 	ldr	w0, [sp, #120]
    245c:	37f817e0 	tbnz	w0, #31, 2758 <_vsnprintf+0x688>
    2460:	91003e82 	add	x2, x20, #0xf
    2464:	aa1403e0 	mov	x0, x20
    2468:	927df054 	and	x20, x2, #0xfffffffffffffff8
    246c:	2a1703e7 	mov	w7, w23
    2470:	aa1b03e2 	mov	x2, x27
    2474:	f9400004 	ldr	x4, [x0]
    2478:	52800200 	mov	w0, #0x10                  	// #16
    247c:	b90003e0 	str	w0, [sp]
    2480:	b9000be6 	str	w6, [sp, #8]
    2484:	d2800206 	mov	x6, #0x10                  	// #16
    2488:	52800005 	mov	w5, #0x0                   	// #0
    248c:	aa1c03e3 	mov	x3, x28
    2490:	aa1a03e1 	mov	x1, x26
    2494:	aa1303e0 	mov	x0, x19
    2498:	97fffc72 	bl	1660 <_ntoa_long>
    249c:	aa0003fb 	mov	x27, x0
            break;
    24a0:	17ffff34 	b	2170 <_vsnprintf+0xa0>
            if (!(flags & FLAGS_LEFT)) {
    24a4:	a9035bf5 	stp	x21, x22, [sp, #48]
    24a8:	36082306 	tbz	w6, #1, 2908 <_vsnprintf+0x838>
            out((char)va_arg(va, int), buffer, idx++, maxlen);
    24ac:	b9407be0 	ldr	w0, [sp, #120]
    24b0:	37f82a20 	tbnz	w0, #31, 29f4 <_vsnprintf+0x924>
    24b4:	91002e82 	add	x2, x20, #0xb
    24b8:	aa1403e0 	mov	x0, x20
    24bc:	927df054 	and	x20, x2, #0xfffffffffffffff8
    24c0:	39400000 	ldrb	w0, [x0]
    24c4:	aa1b03e2 	mov	x2, x27
    24c8:	aa1c03e3 	mov	x3, x28
    24cc:	aa1a03e1 	mov	x1, x26
    24d0:	91000775 	add	x21, x27, #0x1
    24d4:	d63f0260 	blr	x19
                while (l++ < width) {
    24d8:	51000b00 	sub	w0, w24, #0x2
    24dc:	91000b6a 	add	x10, x27, #0x2
    24e0:	7100071f 	cmp	w24, #0x1
    24e4:	8b00015b 	add	x27, x10, x0
    24e8:	540007c9 	b.ls	25e0 <_vsnprintf+0x510>  // b.plast
    24ec:	d503201f 	nop
                    out(' ', buffer, idx++, maxlen);
    24f0:	aa1503e2 	mov	x2, x21
    24f4:	aa1c03e3 	mov	x3, x28
    24f8:	910006b5 	add	x21, x21, #0x1
    24fc:	aa1a03e1 	mov	x1, x26
    2500:	52800400 	mov	w0, #0x20                  	// #32
    2504:	d63f0260 	blr	x19
                while (l++ < width) {
    2508:	eb1b02bf 	cmp	x21, x27
    250c:	54ffff21 	b.ne	24f0 <_vsnprintf+0x420>  // b.any
    2510:	a9435bf5 	ldp	x21, x22, [sp, #48]
    2514:	17ffff17 	b	2170 <_vsnprintf+0xa0>
            const char* p = va_arg(va, char*);
    2518:	b9407be0 	ldr	w0, [sp, #120]
    251c:	a9035bf5 	stp	x21, x22, [sp, #48]
    2520:	37f812e0 	tbnz	w0, #31, 277c <_vsnprintf+0x6ac>
    2524:	91003e82 	add	x2, x20, #0xf
    2528:	aa1403e0 	mov	x0, x20
    252c:	927df054 	and	x20, x2, #0xfffffffffffffff8
    2530:	f9400015 	ldr	x21, [x0]
    for (s = str; *s && maxsize--; ++s)
    2534:	394002a8 	ldrb	w8, [x21]
    2538:	2a0803e0 	mov	w0, w8
            unsigned int l = _strnlen_s(p, precision ? precision : (size_t)-1);
    253c:	350017d7 	cbnz	w23, 2834 <_vsnprintf+0x764>
    for (s = str; *s && maxsize--; ++s)
    2540:	92800022 	mov	x2, #0xfffffffffffffffe    	// #-2
    2544:	340035c8 	cbz	w8, 2bfc <_vsnprintf+0xb2c>
    2548:	91000456 	add	x22, x2, #0x1
    254c:	aa1503e2 	mov	x2, x21
    2550:	8b1602b6 	add	x22, x21, x22
    2554:	14000003 	b	2560 <_vsnprintf+0x490>
    2558:	eb0202df 	cmp	x22, x2
    255c:	54001900 	b.eq	287c <_vsnprintf+0x7ac>  // b.none
    2560:	38401c44 	ldrb	w4, [x2, #1]!
    2564:	35ffffa4 	cbnz	w4, 2558 <_vsnprintf+0x488>
    return (unsigned int)(s - str);
    2568:	4b150041 	sub	w1, w2, w21
    256c:	b900a3e1 	str	w1, [sp, #160]
            if (flags & FLAGS_PRECISION) {
    2570:	121600c1 	and	w1, w6, #0x400
    2574:	b9007fe1 	str	w1, [sp, #124]
    2578:	365000a6 	tbz	w6, #10, 258c <_vsnprintf+0x4bc>
                l = (l < precision ? l : precision);
    257c:	b940a3e1 	ldr	w1, [sp, #160]
    2580:	6b17003f 	cmp	w1, w23
    2584:	1a979021 	csel	w1, w1, w23, ls  // ls = plast
    2588:	b900a3e1 	str	w1, [sp, #160]
            if (!(flags & FLAGS_LEFT)) {
    258c:	121f00c1 	and	w1, w6, #0x2
    2590:	b900afe1 	str	w1, [sp, #172]
    2594:	36081826 	tbz	w6, #1, 2898 <_vsnprintf+0x7c8>
            while ((*p != 0) && (!(flags & FLAGS_PRECISION) || precision--)) {
    2598:	34001108 	cbz	w8, 27b8 <_vsnprintf+0x6e8>
    259c:	aa1b03e2 	mov	x2, x27
    25a0:	cb1b02b6 	sub	x22, x21, x27
    25a4:	14000002 	b	25ac <_vsnprintf+0x4dc>
                out(*(p++), buffer, idx++, maxlen);
    25a8:	aa1503e2 	mov	x2, x21
            while ((*p != 0) && (!(flags & FLAGS_PRECISION) || precision--)) {
    25ac:	b9407fe1 	ldr	w1, [sp, #124]
    25b0:	34000081 	cbz	w1, 25c0 <_vsnprintf+0x4f0>
    25b4:	510006e4 	sub	w4, w23, #0x1
    25b8:	340016d7 	cbz	w23, 2890 <_vsnprintf+0x7c0>
    25bc:	2a0403f7 	mov	w23, w4
                out(*(p++), buffer, idx++, maxlen);
    25c0:	91000455 	add	x21, x2, #0x1
    25c4:	aa1c03e3 	mov	x3, x28
    25c8:	aa1a03e1 	mov	x1, x26
    25cc:	d63f0260 	blr	x19
            while ((*p != 0) && (!(flags & FLAGS_PRECISION) || precision--)) {
    25d0:	38756ac0 	ldrb	w0, [x22, x21]
    25d4:	35fffea0 	cbnz	w0, 25a8 <_vsnprintf+0x4d8>
            if (flags & FLAGS_LEFT) {
    25d8:	b940afe0 	ldr	w0, [sp, #172]
    25dc:	35000ec0 	cbnz	w0, 27b4 <_vsnprintf+0x6e4>
                while (l++ < width) {
    25e0:	aa1503fb 	mov	x27, x21
    25e4:	a9435bf5 	ldp	x21, x22, [sp, #48]
    25e8:	17fffee2 	b	2170 <_vsnprintf+0xa0>
            if (*format == 'h') {
    25ec:	39400720 	ldrb	w0, [x25, #1]
    25f0:	7101a01f 	cmp	w0, #0x68
    25f4:	540013c0 	b.eq	286c <_vsnprintf+0x79c>  // b.none
            flags |= FLAGS_SHORT;
    25f8:	321900c6 	orr	w6, w6, #0x80
    25fc:	17ffff10 	b	223c <_vsnprintf+0x16c>
            if (*format == 'l') {
    2600:	39400720 	ldrb	w0, [x25, #1]
    2604:	7101b01f 	cmp	w0, #0x6c
    2608:	54ffe181 	b.ne	2238 <_vsnprintf+0x168>  // b.any
        switch (*format) {
    260c:	39400b20 	ldrb	w0, [x25, #2]
                flags |= FLAGS_LONG_LONG;
    2610:	321804c6 	orr	w6, w6, #0x300
                format++;
    2614:	91000b24 	add	x4, x25, #0x2
    2618:	17ffff09 	b	223c <_vsnprintf+0x16c>
    unsigned int i = 0U;
    261c:	52800017 	mov	w23, #0x0                   	// #0
        i = i * 10U + (unsigned int)(*((*str)++) - '0');
    2620:	52800148 	mov	w8, #0xa                   	// #10
    2624:	d503201f 	nop
    2628:	1b0802e7 	madd	w7, w23, w8, w0
    while (_is_digit(**str)) {
    262c:	38401c80 	ldrb	w0, [x4, #1]!
    return (ch >= '0') && (ch <= '9');
    2630:	5100c002 	sub	w2, w0, #0x30
        i = i * 10U + (unsigned int)(*((*str)++) - '0');
    2634:	5100c0f7 	sub	w23, w7, #0x30
    while (_is_digit(**str)) {
    2638:	12001c42 	and	w2, w2, #0xff
    263c:	7100245f 	cmp	w2, #0x9
    2640:	54ffff49 	b.ls	2628 <_vsnprintf+0x558>  // b.plast
    2644:	aa0403f9 	mov	x25, x4
    2648:	91000488 	add	x8, x4, #0x1
    264c:	17fffef2 	b	2214 <_vsnprintf+0x144>
            if (*format == 'x' || *format == 'X') {
    2650:	121a7802 	and	w2, w0, #0xffffffdf
    2654:	7101605f 	cmp	w2, #0x58
    2658:	54002580 	b.eq	2b08 <_vsnprintf+0xa38>  // b.none
    265c:	d503201f 	nop
            } else if (*format == 'o') {
    2660:	7101bc1f 	cmp	w0, #0x6f
    2664:	540021a0 	b.eq	2a98 <_vsnprintf+0x9c8>  // b.none
            } else if (*format == 'b') {
    2668:	7101881f 	cmp	w0, #0x62
    266c:	54002820 	b.eq	2b70 <_vsnprintf+0xaa0>  // b.none
                flags &= ~FLAGS_HASH; // no hash for dec format
    2670:	121b78c6 	and	w6, w6, #0xffffffef
    2674:	d2800148 	mov	x8, #0xa                   	// #10
            if ((*format != 'i') && (*format != 'd')) {
    2678:	7101a41f 	cmp	w0, #0x69
    267c:	52800c82 	mov	w2, #0x64                  	// #100
    2680:	7a421004 	ccmp	w0, w2, #0x4, ne  // ne = any
    2684:	54ffe801 	b.ne	2384 <_vsnprintf+0x2b4>  // b.any
                flags &= ~FLAGS_ZEROPAD;
    2688:	f27600df 	tst	x6, #0x400
    268c:	121f78c2 	and	w2, w6, #0xfffffffe
    2690:	1a861046 	csel	w6, w2, w6, ne  // ne = any
            if ((*format == 'i') || (*format == 'd')) {
    2694:	7101a41f 	cmp	w0, #0x69
    2698:	52800c84 	mov	w4, #0x64                  	// #100
                if (flags & FLAGS_LONG_LONG) {
    269c:	121700c2 	and	w2, w6, #0x200
            if ((*format == 'i') || (*format == 'd')) {
    26a0:	7a441004 	ccmp	w0, w4, #0x4, ne  // ne = any
                    const long long value = va_arg(va, long long);
    26a4:	b9407be0 	ldr	w0, [sp, #120]
            if ((*format == 'i') || (*format == 'd')) {
    26a8:	54000ce1 	b.ne	2844 <_vsnprintf+0x774>  // b.any
                if (flags & FLAGS_LONG_LONG) {
    26ac:	35002122 	cbnz	w2, 2ad0 <_vsnprintf+0xa00>
                } else if (flags & FLAGS_LONG) {
    26b0:	37402306 	tbnz	w6, #8, 2b10 <_vsnprintf+0xa40>
                    const int value = (flags & FLAGS_CHAR) ? (char)va_arg(va, int) : (flags & FLAGS_SHORT) ? (short int)va_arg(va, int)
    26b4:	37301b26 	tbnz	w6, #6, 2a18 <_vsnprintf+0x948>
                                                                                                           : va_arg(va, int);
    26b8:	36382926 	tbz	w6, #7, 2bdc <_vsnprintf+0xb0c>
                    const int value = (flags & FLAGS_CHAR) ? (char)va_arg(va, int) : (flags & FLAGS_SHORT) ? (short int)va_arg(va, int)
    26bc:	37f83300 	tbnz	w0, #31, 2d1c <_vsnprintf+0xc4c>
    26c0:	91002e82 	add	x2, x20, #0xb
    26c4:	aa1403e0 	mov	x0, x20
    26c8:	927df054 	and	x20, x2, #0xfffffffffffffff8
    26cc:	79c00005 	ldrsh	w5, [x0]
                    idx = _ntoa_long(out, buffer, idx, maxlen, (unsigned int)(value > 0 ? value : 0 - value), value < 0, base, precision, width, flags);
    26d0:	710000bf 	cmp	w5, #0x0
    26d4:	5a85a4a4 	cneg	w4, w5, lt  // lt = tstop
    26d8:	12003c84 	and	w4, w4, #0xffff
    26dc:	2a1703e7 	mov	w7, w23
    26e0:	531f7ca5 	lsr	w5, w5, #31
    26e4:	93407c84 	sxtw	x4, w4
    26e8:	aa1b03e2 	mov	x2, x27
    26ec:	b9000be6 	str	w6, [sp, #8]
    26f0:	aa0803e6 	mov	x6, x8
    26f4:	b90003f8 	str	w24, [sp]
                    idx = _ntoa_long(out, buffer, idx, maxlen, value, false, base, precision, width, flags);
    26f8:	aa1c03e3 	mov	x3, x28
    26fc:	aa1a03e1 	mov	x1, x26
    2700:	aa1303e0 	mov	x0, x19
    2704:	97fffbd7 	bl	1660 <_ntoa_long>
    2708:	aa0003fb 	mov	x27, x0
            break;
    270c:	17fffe99 	b	2170 <_vsnprintf+0xa0>
            idx = _ftoa(out, buffer, idx, maxlen, va_arg(va, double), precision, width, flags);
    2710:	b940abe0 	ldr	w0, [sp, #168]
    2714:	11004002 	add	w2, w0, #0x10
    2718:	7100005f 	cmp	w2, #0x0
    271c:	54001b4d 	b.le	2a84 <_vsnprintf+0x9b4>
    2720:	91003e84 	add	x4, x20, #0xf
    2724:	aa1403e0 	mov	x0, x20
    2728:	927df094 	and	x20, x4, #0xfffffffffffffff8
    272c:	b900abe2 	str	w2, [sp, #168]
    2730:	17ffff36 	b	2408 <_vsnprintf+0x338>
            idx = _etoa(out, buffer, idx, maxlen, va_arg(va, double), precision, width, flags);
    2734:	b940abe0 	ldr	w0, [sp, #168]
    2738:	11004002 	add	w2, w0, #0x10
    273c:	7100005f 	cmp	w2, #0x0
    2740:	5400198d 	b.le	2a70 <_vsnprintf+0x9a0>
    2744:	91003e84 	add	x4, x20, #0xf
    2748:	aa1403e0 	mov	x0, x20
    274c:	927df094 	and	x20, x4, #0xfffffffffffffff8
    2750:	b900abe2 	str	w2, [sp, #168]
    2754:	17ffff1b 	b	23c0 <_vsnprintf+0x2f0>
                idx = _ntoa_long_long(out, buffer, idx, maxlen, (uintptr_t)va_arg(va, void*), false, 16U, precision, width, flags);
    2758:	b9407be0 	ldr	w0, [sp, #120]
    275c:	11002002 	add	w2, w0, #0x8
    2760:	7100005f 	cmp	w2, #0x0
    2764:	540017cd 	b.le	2a5c <_vsnprintf+0x98c>
    2768:	91003e84 	add	x4, x20, #0xf
    276c:	aa1403e0 	mov	x0, x20
    2770:	927df094 	and	x20, x4, #0xfffffffffffffff8
    2774:	b9007be2 	str	w2, [sp, #120]
    2778:	17ffff3d 	b	246c <_vsnprintf+0x39c>
            const char* p = va_arg(va, char*);
    277c:	b9407be0 	ldr	w0, [sp, #120]
    2780:	11002002 	add	w2, w0, #0x8
    2784:	7100005f 	cmp	w2, #0x0
    2788:	5400160d 	b.le	2a48 <_vsnprintf+0x978>
    278c:	91003e84 	add	x4, x20, #0xf
    2790:	aa1403e0 	mov	x0, x20
    2794:	927df094 	and	x20, x4, #0xfffffffffffffff8
    2798:	b9007be2 	str	w2, [sp, #120]
    279c:	17ffff65 	b	2530 <_vsnprintf+0x460>
            const int w = va_arg(va, int);
    27a0:	f94047e1 	ldr	x1, [sp, #136]
    27a4:	b9407be0 	ldr	w0, [sp, #120]
    27a8:	b9007be2 	str	w2, [sp, #120]
    27ac:	8b20c020 	add	x0, x1, w0, sxtw
    27b0:	17fffeb3 	b	227c <_vsnprintf+0x1ac>
    27b4:	aa1503fb 	mov	x27, x21
                while (l++ < width) {
    27b8:	b940a3e0 	ldr	w0, [sp, #160]
    27bc:	6b18001f 	cmp	w0, w24
    27c0:	540009e2 	b.cs	28fc <_vsnprintf+0x82c>  // b.hs, b.nlast
    27c4:	51000704 	sub	w4, w24, #0x1
    27c8:	91000776 	add	x22, x27, #0x1
    27cc:	4b000084 	sub	w4, w4, w0
    27d0:	8b160095 	add	x21, x4, x22
    27d4:	14000002 	b	27dc <_vsnprintf+0x70c>
    27d8:	910006d6 	add	x22, x22, #0x1
                    out(' ', buffer, idx++, maxlen);
    27dc:	aa1b03e2 	mov	x2, x27
    27e0:	aa1c03e3 	mov	x3, x28
    27e4:	aa1a03e1 	mov	x1, x26
    27e8:	52800400 	mov	w0, #0x20                  	// #32
    27ec:	d63f0260 	blr	x19
    27f0:	aa1603fb 	mov	x27, x22
                while (l++ < width) {
    27f4:	eb1502df 	cmp	x22, x21
    27f8:	54ffff01 	b.ne	27d8 <_vsnprintf+0x708>  // b.any
                while (l++ < width) {
    27fc:	aa1503fb 	mov	x27, x21
    2800:	17ffff79 	b	25e4 <_vsnprintf+0x514>
                const int prec = (int)va_arg(va, int);
    2804:	b9407be0 	ldr	w0, [sp, #120]
    2808:	37f80b80 	tbnz	w0, #31, 2978 <_vsnprintf+0x8a8>
    280c:	91002e82 	add	x2, x20, #0xb
    2810:	aa1403e0 	mov	x0, x20
    2814:	927df054 	and	x20, x2, #0xfffffffffffffff8
                precision = prec > 0 ? (unsigned int)prec : 0U;
    2818:	b9400007 	ldr	w7, [x0]
                format++;
    281c:	91000b39 	add	x25, x25, #0x2
        switch (*format) {
    2820:	39400320 	ldrb	w0, [x25]
    2824:	91000728 	add	x8, x25, #0x1
                precision = prec > 0 ? (unsigned int)prec : 0U;
    2828:	710000ff 	cmp	w7, #0x0
    282c:	1a9fa0f7 	csel	w23, w7, wzr, ge  // ge = tcont
                format++;
    2830:	17fffe79 	b	2214 <_vsnprintf+0x144>
            unsigned int l = _strnlen_s(p, precision ? precision : (size_t)-1);
    2834:	2a1703e2 	mov	w2, w23
    for (s = str; *s && maxsize--; ++s)
    2838:	34001e28 	cbz	w8, 2bfc <_vsnprintf+0xb2c>
    283c:	d1000442 	sub	x2, x2, #0x1
    2840:	17ffff42 	b	2548 <_vsnprintf+0x478>
                if (flags & FLAGS_LONG_LONG) {
    2844:	35001302 	cbnz	w2, 2aa4 <_vsnprintf+0x9d4>
                } else if (flags & FLAGS_LONG) {
    2848:	37401806 	tbnz	w6, #8, 2b48 <_vsnprintf+0xa78>
                    const unsigned int value = (flags & FLAGS_CHAR) ? (unsigned char)va_arg(va, unsigned int) : (flags & FLAGS_SHORT) ? (unsigned short int)va_arg(va, unsigned int)
    284c:	37300ba6 	tbnz	w6, #6, 29c0 <_vsnprintf+0x8f0>
                                                                                                                                      : va_arg(va, unsigned int);
    2850:	36381ba6 	tbz	w6, #7, 2bc4 <_vsnprintf+0xaf4>
                    const unsigned int value = (flags & FLAGS_CHAR) ? (unsigned char)va_arg(va, unsigned int) : (flags & FLAGS_SHORT) ? (unsigned short int)va_arg(va, unsigned int)
    2854:	37f82500 	tbnz	w0, #31, 2cf4 <_vsnprintf+0xc24>
    2858:	aa1403e0 	mov	x0, x20
    285c:	91002e82 	add	x2, x20, #0xb
    2860:	927df054 	and	x20, x2, #0xfffffffffffffff8
    2864:	79400004 	ldrh	w4, [x0]
    2868:	1400005b 	b	29d4 <_vsnprintf+0x904>
        switch (*format) {
    286c:	39400b20 	ldrb	w0, [x25, #2]
                flags |= FLAGS_CHAR;
    2870:	321a04c6 	orr	w6, w6, #0xc0
                format++;
    2874:	91000b24 	add	x4, x25, #0x2
    2878:	17fffe71 	b	223c <_vsnprintf+0x16c>
    return (unsigned int)(s - str);
    287c:	4b1502c1 	sub	w1, w22, w21
    2880:	b900a3e1 	str	w1, [sp, #160]
    2884:	17ffff3b 	b	2570 <_vsnprintf+0x4a0>
    while (*format) {
    2888:	52800014 	mov	w20, #0x0                   	// #0
    288c:	17fffea0 	b	230c <_vsnprintf+0x23c>
    2890:	aa0203f5 	mov	x21, x2
    2894:	17ffff51 	b	25d8 <_vsnprintf+0x508>
                while (l++ < width) {
    2898:	b940a3e1 	ldr	w1, [sp, #160]
    289c:	6b18003f 	cmp	w1, w24
    28a0:	11000420 	add	w0, w1, #0x1
    28a4:	54002242 	b.cs	2cec <_vsnprintf+0xc1c>  // b.hs, b.nlast
    28a8:	51000700 	sub	w0, w24, #0x1
    28ac:	91000776 	add	x22, x27, #0x1
    28b0:	4b010000 	sub	w0, w0, w1
    28b4:	8b160000 	add	x0, x0, x22
    28b8:	f90053e0 	str	x0, [sp, #160]
    28bc:	14000002 	b	28c4 <_vsnprintf+0x7f4>
    28c0:	910006d6 	add	x22, x22, #0x1
                    out(' ', buffer, idx++, maxlen);
    28c4:	aa1b03e2 	mov	x2, x27
    28c8:	52800400 	mov	w0, #0x20                  	// #32
    28cc:	aa1c03e3 	mov	x3, x28
    28d0:	aa1a03e1 	mov	x1, x26
    28d4:	d63f0260 	blr	x19
    28d8:	aa1603fb 	mov	x27, x22
                while (l++ < width) {
    28dc:	f94053e0 	ldr	x0, [sp, #160]
    28e0:	eb16001f 	cmp	x0, x22
    28e4:	54fffee1 	b.ne	28c0 <_vsnprintf+0x7f0>  // b.any
    28e8:	394002a8 	ldrb	w8, [x21]
    28ec:	11000700 	add	w0, w24, #0x1
    28f0:	b900a3e0 	str	w0, [sp, #160]
            while ((*p != 0) && (!(flags & FLAGS_PRECISION) || precision--)) {
    28f4:	2a0803e0 	mov	w0, w8
    28f8:	35ffe528 	cbnz	w8, 259c <_vsnprintf+0x4cc>
                while (l++ < width) {
    28fc:	aa1b03f5 	mov	x21, x27
                while (l++ < width) {
    2900:	aa1503fb 	mov	x27, x21
    2904:	17ffff38 	b	25e4 <_vsnprintf+0x514>
                while (l++ < width) {
    2908:	7100071f 	cmp	w24, #0x1
    290c:	54001ec9 	b.ls	2ce4 <_vsnprintf+0xc14>  // b.plast
    2910:	51000b05 	sub	w5, w24, #0x2
    2914:	91000776 	add	x22, x27, #0x1
    2918:	8b0502d5 	add	x21, x22, x5
    291c:	14000002 	b	2924 <_vsnprintf+0x854>
    2920:	910006d6 	add	x22, x22, #0x1
                    out(' ', buffer, idx++, maxlen);
    2924:	aa1b03e2 	mov	x2, x27
    2928:	aa1c03e3 	mov	x3, x28
    292c:	aa1a03e1 	mov	x1, x26
    2930:	52800400 	mov	w0, #0x20                  	// #32
    2934:	d63f0260 	blr	x19
    2938:	aa1603fb 	mov	x27, x22
                while (l++ < width) {
    293c:	eb1502df 	cmp	x22, x21
    2940:	54ffff01 	b.ne	2920 <_vsnprintf+0x850>  // b.any
            out((char)va_arg(va, int), buffer, idx++, maxlen);
    2944:	b9407be0 	ldr	w0, [sp, #120]
    2948:	37f802a0 	tbnz	w0, #31, 299c <_vsnprintf+0x8cc>
    294c:	91002e82 	add	x2, x20, #0xb
    2950:	aa1403e0 	mov	x0, x20
    2954:	927df054 	and	x20, x2, #0xfffffffffffffff8
    2958:	39400000 	ldrb	w0, [x0]
    295c:	aa1503e2 	mov	x2, x21
    2960:	910006bb 	add	x27, x21, #0x1
    2964:	aa1c03e3 	mov	x3, x28
    2968:	aa1a03e1 	mov	x1, x26
    296c:	d63f0260 	blr	x19
            if (flags & FLAGS_LEFT) {
    2970:	a9435bf5 	ldp	x21, x22, [sp, #48]
    2974:	17fffdff 	b	2170 <_vsnprintf+0xa0>
                const int prec = (int)va_arg(va, int);
    2978:	b9407be0 	ldr	w0, [sp, #120]
    297c:	11002002 	add	w2, w0, #0x8
    2980:	7100005f 	cmp	w2, #0x0
    2984:	5400058d 	b.le	2a34 <_vsnprintf+0x964>
    2988:	91002e84 	add	x4, x20, #0xb
    298c:	aa1403e0 	mov	x0, x20
    2990:	927df094 	and	x20, x4, #0xfffffffffffffff8
    2994:	b9007be2 	str	w2, [sp, #120]
    2998:	17ffffa0 	b	2818 <_vsnprintf+0x748>
            out((char)va_arg(va, int), buffer, idx++, maxlen);
    299c:	b9407be0 	ldr	w0, [sp, #120]
    29a0:	11002002 	add	w2, w0, #0x8
    29a4:	7100005f 	cmp	w2, #0x0
    29a8:	540016ed 	b.le	2c84 <_vsnprintf+0xbb4>
    29ac:	91002e84 	add	x4, x20, #0xb
    29b0:	aa1403e0 	mov	x0, x20
    29b4:	927df094 	and	x20, x4, #0xfffffffffffffff8
    29b8:	b9007be2 	str	w2, [sp, #120]
    29bc:	17ffffe7 	b	2958 <_vsnprintf+0x888>
                    const unsigned int value = (flags & FLAGS_CHAR) ? (unsigned char)va_arg(va, unsigned int) : (flags & FLAGS_SHORT) ? (unsigned short int)va_arg(va, unsigned int)
    29c0:	37f81220 	tbnz	w0, #31, 2c04 <_vsnprintf+0xb34>
    29c4:	91002e82 	add	x2, x20, #0xb
    29c8:	aa1403e0 	mov	x0, x20
    29cc:	927df054 	and	x20, x2, #0xfffffffffffffff8
    29d0:	39400004 	ldrb	w4, [x0]
                    idx = _ntoa_long(out, buffer, idx, maxlen, value, false, base, precision, width, flags);
    29d4:	2a1703e7 	mov	w7, w23
    29d8:	2a0403e4 	mov	w4, w4
    29dc:	b9000be6 	str	w6, [sp, #8]
    29e0:	aa0803e6 	mov	x6, x8
    29e4:	b90003f8 	str	w24, [sp]
    29e8:	aa1b03e2 	mov	x2, x27
    29ec:	52800005 	mov	w5, #0x0                   	// #0
    29f0:	17ffff42 	b	26f8 <_vsnprintf+0x628>
            out((char)va_arg(va, int), buffer, idx++, maxlen);
    29f4:	b9407be0 	ldr	w0, [sp, #120]
    29f8:	11002002 	add	w2, w0, #0x8
    29fc:	7100005f 	cmp	w2, #0x0
    2a00:	5400138d 	b.le	2c70 <_vsnprintf+0xba0>
    2a04:	91002e84 	add	x4, x20, #0xb
    2a08:	aa1403e0 	mov	x0, x20
    2a0c:	927df094 	and	x20, x4, #0xfffffffffffffff8
    2a10:	b9007be2 	str	w2, [sp, #120]
    2a14:	17fffeab 	b	24c0 <_vsnprintf+0x3f0>
                    const int value = (flags & FLAGS_CHAR) ? (char)va_arg(va, int) : (flags & FLAGS_SHORT) ? (short int)va_arg(va, int)
    2a18:	37f81080 	tbnz	w0, #31, 2c28 <_vsnprintf+0xb58>
    2a1c:	91002e82 	add	x2, x20, #0xb
    2a20:	aa1403e0 	mov	x0, x20
    2a24:	927df054 	and	x20, x2, #0xfffffffffffffff8
    2a28:	39400005 	ldrb	w5, [x0]
    2a2c:	2a0503e4 	mov	w4, w5
    2a30:	17ffff2b 	b	26dc <_vsnprintf+0x60c>
                const int prec = (int)va_arg(va, int);
    2a34:	f94047e1 	ldr	x1, [sp, #136]
    2a38:	b9407be0 	ldr	w0, [sp, #120]
    2a3c:	b9007be2 	str	w2, [sp, #120]
    2a40:	8b20c020 	add	x0, x1, w0, sxtw
    2a44:	17ffff75 	b	2818 <_vsnprintf+0x748>
            const char* p = va_arg(va, char*);
    2a48:	f94047e1 	ldr	x1, [sp, #136]
    2a4c:	b9407be0 	ldr	w0, [sp, #120]
    2a50:	b9007be2 	str	w2, [sp, #120]
    2a54:	8b20c020 	add	x0, x1, w0, sxtw
    2a58:	17fffeb6 	b	2530 <_vsnprintf+0x460>
                idx = _ntoa_long_long(out, buffer, idx, maxlen, (uintptr_t)va_arg(va, void*), false, 16U, precision, width, flags);
    2a5c:	f94047e1 	ldr	x1, [sp, #136]
    2a60:	b9407be0 	ldr	w0, [sp, #120]
    2a64:	b9007be2 	str	w2, [sp, #120]
    2a68:	8b20c020 	add	x0, x1, w0, sxtw
    2a6c:	17fffe80 	b	246c <_vsnprintf+0x39c>
            idx = _etoa(out, buffer, idx, maxlen, va_arg(va, double), precision, width, flags);
    2a70:	f9404be1 	ldr	x1, [sp, #144]
    2a74:	b940abe0 	ldr	w0, [sp, #168]
    2a78:	b900abe2 	str	w2, [sp, #168]
    2a7c:	8b20c020 	add	x0, x1, w0, sxtw
    2a80:	17fffe50 	b	23c0 <_vsnprintf+0x2f0>
            idx = _ftoa(out, buffer, idx, maxlen, va_arg(va, double), precision, width, flags);
    2a84:	f9404be1 	ldr	x1, [sp, #144]
    2a88:	b940abe0 	ldr	w0, [sp, #168]
    2a8c:	b900abe2 	str	w2, [sp, #168]
    2a90:	8b20c020 	add	x0, x1, w0, sxtw
    2a94:	17fffe5d 	b	2408 <_vsnprintf+0x338>
                flags &= ~(FLAGS_PLUS | FLAGS_SPACE);
    2a98:	121c74c6 	and	w6, w6, #0xfffffff3
    2a9c:	d2800108 	mov	x8, #0x8                   	// #8
    2aa0:	17fffefa 	b	2688 <_vsnprintf+0x5b8>
                    idx = _ntoa_long_long(out, buffer, idx, maxlen, va_arg(va, unsigned long long), false, base, precision, width, flags);
    2aa4:	37f807e0 	tbnz	w0, #31, 2ba0 <_vsnprintf+0xad0>
    2aa8:	91003e82 	add	x2, x20, #0xf
    2aac:	aa1403e0 	mov	x0, x20
    2ab0:	927df054 	and	x20, x2, #0xfffffffffffffff8
    2ab4:	2a1703e7 	mov	w7, w23
    2ab8:	aa1b03e2 	mov	x2, x27
    2abc:	f9400004 	ldr	x4, [x0]
    2ac0:	b90003f8 	str	w24, [sp]
    2ac4:	b9000be6 	str	w6, [sp, #8]
    2ac8:	aa0803e6 	mov	x6, x8
    2acc:	17fffe6f 	b	2488 <_vsnprintf+0x3b8>
                    const long long value = va_arg(va, long long);
    2ad0:	37f80560 	tbnz	w0, #31, 2b7c <_vsnprintf+0xaac>
    2ad4:	91003e82 	add	x2, x20, #0xf
    2ad8:	aa1403e0 	mov	x0, x20
    2adc:	927df054 	and	x20, x2, #0xfffffffffffffff8
    2ae0:	f9400005 	ldr	x5, [x0]
                    idx = _ntoa_long_long(out, buffer, idx, maxlen, (unsigned long long)(value > 0 ? value : 0 - value), value < 0, base, precision, width, flags);
    2ae4:	2a1703e7 	mov	w7, w23
    2ae8:	aa1b03e2 	mov	x2, x27
    2aec:	b90003f8 	str	w24, [sp]
    2af0:	f10000bf 	cmp	x5, #0x0
    2af4:	b9000be6 	str	w6, [sp, #8]
    2af8:	da85a4a4 	cneg	x4, x5, lt  // lt = tstop
    2afc:	aa0803e6 	mov	x6, x8
    2b00:	d37ffca5 	lsr	x5, x5, #63
    2b04:	17fffe62 	b	248c <_vsnprintf+0x3bc>
                flags &= ~FLAGS_HASH; // no hash for dec format
    2b08:	d2800208 	mov	x8, #0x10                  	// #16
    2b0c:	17fffedb 	b	2678 <_vsnprintf+0x5a8>
                    const long value = va_arg(va, long);
    2b10:	37f80c40 	tbnz	w0, #31, 2c98 <_vsnprintf+0xbc8>
    2b14:	91003e82 	add	x2, x20, #0xf
    2b18:	aa1403e0 	mov	x0, x20
    2b1c:	927df054 	and	x20, x2, #0xfffffffffffffff8
    2b20:	f9400005 	ldr	x5, [x0]
                    idx = _ntoa_long(out, buffer, idx, maxlen, (unsigned long)(value > 0 ? value : 0 - value), value < 0, base, precision, width, flags);
    2b24:	2a1703e7 	mov	w7, w23
    2b28:	aa1b03e2 	mov	x2, x27
    2b2c:	b90003f8 	str	w24, [sp]
    2b30:	f10000bf 	cmp	x5, #0x0
    2b34:	b9000be6 	str	w6, [sp, #8]
    2b38:	da85a4a4 	cneg	x4, x5, lt  // lt = tstop
    2b3c:	aa0803e6 	mov	x6, x8
    2b40:	d37ffca5 	lsr	x5, x5, #63
    2b44:	17fffeed 	b	26f8 <_vsnprintf+0x628>
                    idx = _ntoa_long(out, buffer, idx, maxlen, va_arg(va, unsigned long), false, base, precision, width, flags);
    2b48:	37f80820 	tbnz	w0, #31, 2c4c <_vsnprintf+0xb7c>
    2b4c:	91003e82 	add	x2, x20, #0xf
    2b50:	aa1403e0 	mov	x0, x20
    2b54:	927df054 	and	x20, x2, #0xfffffffffffffff8
    2b58:	2a1703e7 	mov	w7, w23
    2b5c:	f9400004 	ldr	x4, [x0]
    2b60:	b90003f8 	str	w24, [sp]
    2b64:	b9000be6 	str	w6, [sp, #8]
    2b68:	aa0803e6 	mov	x6, x8
    2b6c:	17ffff9f 	b	29e8 <_vsnprintf+0x918>
                flags &= ~(FLAGS_PLUS | FLAGS_SPACE);
    2b70:	121c74c6 	and	w6, w6, #0xfffffff3
    2b74:	d2800048 	mov	x8, #0x2                   	// #2
    2b78:	17fffec4 	b	2688 <_vsnprintf+0x5b8>
                    const long long value = va_arg(va, long long);
    2b7c:	b9407be0 	ldr	w0, [sp, #120]
    2b80:	11002002 	add	w2, w0, #0x8
    2b84:	7100005f 	cmp	w2, #0x0
    2b88:	54000a4d 	b.le	2cd0 <_vsnprintf+0xc00>
    2b8c:	91003e84 	add	x4, x20, #0xf
    2b90:	aa1403e0 	mov	x0, x20
    2b94:	927df094 	and	x20, x4, #0xfffffffffffffff8
    2b98:	b9007be2 	str	w2, [sp, #120]
    2b9c:	17ffffd1 	b	2ae0 <_vsnprintf+0xa10>
                    idx = _ntoa_long_long(out, buffer, idx, maxlen, va_arg(va, unsigned long long), false, base, precision, width, flags);
    2ba0:	b9407be0 	ldr	w0, [sp, #120]
    2ba4:	11002002 	add	w2, w0, #0x8
    2ba8:	7100005f 	cmp	w2, #0x0
    2bac:	5400088d 	b.le	2cbc <_vsnprintf+0xbec>
    2bb0:	91003e84 	add	x4, x20, #0xf
    2bb4:	aa1403e0 	mov	x0, x20
    2bb8:	927df094 	and	x20, x4, #0xfffffffffffffff8
    2bbc:	b9007be2 	str	w2, [sp, #120]
    2bc0:	17ffffbd 	b	2ab4 <_vsnprintf+0x9e4>
                                                                                                                                      : va_arg(va, unsigned int);
    2bc4:	37f80d00 	tbnz	w0, #31, 2d64 <_vsnprintf+0xc94>
    2bc8:	aa1403e0 	mov	x0, x20
    2bcc:	91002e82 	add	x2, x20, #0xb
    2bd0:	927df054 	and	x20, x2, #0xfffffffffffffff8
    2bd4:	b9400004 	ldr	w4, [x0]
    2bd8:	17ffff7f 	b	29d4 <_vsnprintf+0x904>
                                                                                                           : va_arg(va, int);
    2bdc:	37f80b20 	tbnz	w0, #31, 2d40 <_vsnprintf+0xc70>
    2be0:	91002e82 	add	x2, x20, #0xb
    2be4:	aa1403e0 	mov	x0, x20
    2be8:	927df054 	and	x20, x2, #0xfffffffffffffff8
    2bec:	b9400005 	ldr	w5, [x0]
                    idx = _ntoa_long(out, buffer, idx, maxlen, (unsigned int)(value > 0 ? value : 0 - value), value < 0, base, precision, width, flags);
    2bf0:	710000bf 	cmp	w5, #0x0
    2bf4:	5a85a4a4 	cneg	w4, w5, lt  // lt = tstop
    2bf8:	17fffeb9 	b	26dc <_vsnprintf+0x60c>
    for (s = str; *s && maxsize--; ++s)
    2bfc:	b900a3ff 	str	wzr, [sp, #160]
    2c00:	17fffe5c 	b	2570 <_vsnprintf+0x4a0>
                    const unsigned int value = (flags & FLAGS_CHAR) ? (unsigned char)va_arg(va, unsigned int) : (flags & FLAGS_SHORT) ? (unsigned short int)va_arg(va, unsigned int)
    2c04:	b9407be0 	ldr	w0, [sp, #120]
    2c08:	11002002 	add	w2, w0, #0x8
    2c0c:	7100005f 	cmp	w2, #0x0
    2c10:	54000bed 	b.le	2d8c <_vsnprintf+0xcbc>
    2c14:	91002e84 	add	x4, x20, #0xb
    2c18:	aa1403e0 	mov	x0, x20
    2c1c:	927df094 	and	x20, x4, #0xfffffffffffffff8
    2c20:	b9007be2 	str	w2, [sp, #120]
    2c24:	17ffff6b 	b	29d0 <_vsnprintf+0x900>
                    const int value = (flags & FLAGS_CHAR) ? (char)va_arg(va, int) : (flags & FLAGS_SHORT) ? (short int)va_arg(va, int)
    2c28:	b9407be0 	ldr	w0, [sp, #120]
    2c2c:	11002002 	add	w2, w0, #0x8
    2c30:	7100005f 	cmp	w2, #0x0
    2c34:	54000b6d 	b.le	2da0 <_vsnprintf+0xcd0>
    2c38:	91002e84 	add	x4, x20, #0xb
    2c3c:	aa1403e0 	mov	x0, x20
    2c40:	927df094 	and	x20, x4, #0xfffffffffffffff8
    2c44:	b9007be2 	str	w2, [sp, #120]
    2c48:	17ffff78 	b	2a28 <_vsnprintf+0x958>
                    idx = _ntoa_long(out, buffer, idx, maxlen, va_arg(va, unsigned long), false, base, precision, width, flags);
    2c4c:	b9407be0 	ldr	w0, [sp, #120]
    2c50:	11002002 	add	w2, w0, #0x8
    2c54:	7100005f 	cmp	w2, #0x0
    2c58:	54000aed 	b.le	2db4 <_vsnprintf+0xce4>
    2c5c:	91003e84 	add	x4, x20, #0xf
    2c60:	aa1403e0 	mov	x0, x20
    2c64:	927df094 	and	x20, x4, #0xfffffffffffffff8
    2c68:	b9007be2 	str	w2, [sp, #120]
    2c6c:	17ffffbb 	b	2b58 <_vsnprintf+0xa88>
            out((char)va_arg(va, int), buffer, idx++, maxlen);
    2c70:	f94047e1 	ldr	x1, [sp, #136]
    2c74:	b9407be0 	ldr	w0, [sp, #120]
    2c78:	b9007be2 	str	w2, [sp, #120]
    2c7c:	8b20c020 	add	x0, x1, w0, sxtw
    2c80:	17fffe10 	b	24c0 <_vsnprintf+0x3f0>
    2c84:	f94047e1 	ldr	x1, [sp, #136]
    2c88:	b9407be0 	ldr	w0, [sp, #120]
    2c8c:	b9007be2 	str	w2, [sp, #120]
    2c90:	8b20c020 	add	x0, x1, w0, sxtw
    2c94:	17ffff31 	b	2958 <_vsnprintf+0x888>
                    const long value = va_arg(va, long);
    2c98:	b9407be0 	ldr	w0, [sp, #120]
    2c9c:	11002002 	add	w2, w0, #0x8
    2ca0:	7100005f 	cmp	w2, #0x0
    2ca4:	5400092d 	b.le	2dc8 <_vsnprintf+0xcf8>
    2ca8:	91003e84 	add	x4, x20, #0xf
    2cac:	aa1403e0 	mov	x0, x20
    2cb0:	927df094 	and	x20, x4, #0xfffffffffffffff8
    2cb4:	b9007be2 	str	w2, [sp, #120]
    2cb8:	17ffff9a 	b	2b20 <_vsnprintf+0xa50>
                    idx = _ntoa_long_long(out, buffer, idx, maxlen, va_arg(va, unsigned long long), false, base, precision, width, flags);
    2cbc:	f94047e1 	ldr	x1, [sp, #136]
    2cc0:	b9407be0 	ldr	w0, [sp, #120]
    2cc4:	b9007be2 	str	w2, [sp, #120]
    2cc8:	8b20c020 	add	x0, x1, w0, sxtw
    2ccc:	17ffff7a 	b	2ab4 <_vsnprintf+0x9e4>
                    const long long value = va_arg(va, long long);
    2cd0:	f94047e1 	ldr	x1, [sp, #136]
    2cd4:	b9407be0 	ldr	w0, [sp, #120]
    2cd8:	b9007be2 	str	w2, [sp, #120]
    2cdc:	8b20c020 	add	x0, x1, w0, sxtw
    2ce0:	17ffff80 	b	2ae0 <_vsnprintf+0xa10>
                while (l++ < width) {
    2ce4:	aa1b03f5 	mov	x21, x27
    2ce8:	17ffff17 	b	2944 <_vsnprintf+0x874>
                while (l++ < width) {
    2cec:	b900a3e0 	str	w0, [sp, #160]
    2cf0:	17ffff01 	b	28f4 <_vsnprintf+0x824>
                    const unsigned int value = (flags & FLAGS_CHAR) ? (unsigned char)va_arg(va, unsigned int) : (flags & FLAGS_SHORT) ? (unsigned short int)va_arg(va, unsigned int)
    2cf4:	b9407be0 	ldr	w0, [sp, #120]
    2cf8:	11002002 	add	w2, w0, #0x8
    2cfc:	7100005f 	cmp	w2, #0x0
    2d00:	5400078d 	b.le	2df0 <_vsnprintf+0xd20>
    2d04:	aa1403e0 	mov	x0, x20
    2d08:	91002e84 	add	x4, x20, #0xb
    2d0c:	927df094 	and	x20, x4, #0xfffffffffffffff8
    2d10:	b9007be2 	str	w2, [sp, #120]
    2d14:	79400004 	ldrh	w4, [x0]
    2d18:	17ffff2f 	b	29d4 <_vsnprintf+0x904>
                    const int value = (flags & FLAGS_CHAR) ? (char)va_arg(va, int) : (flags & FLAGS_SHORT) ? (short int)va_arg(va, int)
    2d1c:	b9407be0 	ldr	w0, [sp, #120]
    2d20:	11002002 	add	w2, w0, #0x8
    2d24:	7100005f 	cmp	w2, #0x0
    2d28:	540005ad 	b.le	2ddc <_vsnprintf+0xd0c>
    2d2c:	91002e84 	add	x4, x20, #0xb
    2d30:	aa1403e0 	mov	x0, x20
    2d34:	927df094 	and	x20, x4, #0xfffffffffffffff8
    2d38:	b9007be2 	str	w2, [sp, #120]
    2d3c:	17fffe64 	b	26cc <_vsnprintf+0x5fc>
                                                                                                           : va_arg(va, int);
    2d40:	b9407be0 	ldr	w0, [sp, #120]
    2d44:	11002002 	add	w2, w0, #0x8
    2d48:	7100005f 	cmp	w2, #0x0
    2d4c:	540005ed 	b.le	2e08 <_vsnprintf+0xd38>
    2d50:	91002e84 	add	x4, x20, #0xb
    2d54:	aa1403e0 	mov	x0, x20
    2d58:	927df094 	and	x20, x4, #0xfffffffffffffff8
    2d5c:	b9007be2 	str	w2, [sp, #120]
    2d60:	17ffffa3 	b	2bec <_vsnprintf+0xb1c>
                                                                                                                                      : va_arg(va, unsigned int);
    2d64:	b9407be0 	ldr	w0, [sp, #120]
    2d68:	11002002 	add	w2, w0, #0x8
    2d6c:	7100005f 	cmp	w2, #0x0
    2d70:	5400056d 	b.le	2e1c <_vsnprintf+0xd4c>
    2d74:	aa1403e0 	mov	x0, x20
    2d78:	91002e84 	add	x4, x20, #0xb
    2d7c:	927df094 	and	x20, x4, #0xfffffffffffffff8
    2d80:	b9007be2 	str	w2, [sp, #120]
    2d84:	b9400004 	ldr	w4, [x0]
    2d88:	17ffff13 	b	29d4 <_vsnprintf+0x904>
                    const unsigned int value = (flags & FLAGS_CHAR) ? (unsigned char)va_arg(va, unsigned int) : (flags & FLAGS_SHORT) ? (unsigned short int)va_arg(va, unsigned int)
    2d8c:	f94047e1 	ldr	x1, [sp, #136]
    2d90:	b9407be0 	ldr	w0, [sp, #120]
    2d94:	b9007be2 	str	w2, [sp, #120]
    2d98:	8b20c020 	add	x0, x1, w0, sxtw
    2d9c:	17ffff0d 	b	29d0 <_vsnprintf+0x900>
                    const int value = (flags & FLAGS_CHAR) ? (char)va_arg(va, int) : (flags & FLAGS_SHORT) ? (short int)va_arg(va, int)
    2da0:	f94047e1 	ldr	x1, [sp, #136]
    2da4:	b9407be0 	ldr	w0, [sp, #120]
    2da8:	b9007be2 	str	w2, [sp, #120]
    2dac:	8b20c020 	add	x0, x1, w0, sxtw
    2db0:	17ffff1e 	b	2a28 <_vsnprintf+0x958>
                    idx = _ntoa_long(out, buffer, idx, maxlen, va_arg(va, unsigned long), false, base, precision, width, flags);
    2db4:	f94047e1 	ldr	x1, [sp, #136]
    2db8:	b9407be0 	ldr	w0, [sp, #120]
    2dbc:	b9007be2 	str	w2, [sp, #120]
    2dc0:	8b20c020 	add	x0, x1, w0, sxtw
    2dc4:	17ffff65 	b	2b58 <_vsnprintf+0xa88>
                    const long value = va_arg(va, long);
    2dc8:	f94047e1 	ldr	x1, [sp, #136]
    2dcc:	b9407be0 	ldr	w0, [sp, #120]
    2dd0:	b9007be2 	str	w2, [sp, #120]
    2dd4:	8b20c020 	add	x0, x1, w0, sxtw
    2dd8:	17ffff52 	b	2b20 <_vsnprintf+0xa50>
                    const int value = (flags & FLAGS_CHAR) ? (char)va_arg(va, int) : (flags & FLAGS_SHORT) ? (short int)va_arg(va, int)
    2ddc:	f94047e1 	ldr	x1, [sp, #136]
    2de0:	b9407be0 	ldr	w0, [sp, #120]
    2de4:	b9007be2 	str	w2, [sp, #120]
    2de8:	8b20c020 	add	x0, x1, w0, sxtw
    2dec:	17fffe38 	b	26cc <_vsnprintf+0x5fc>
                    const unsigned int value = (flags & FLAGS_CHAR) ? (unsigned char)va_arg(va, unsigned int) : (flags & FLAGS_SHORT) ? (unsigned short int)va_arg(va, unsigned int)
    2df0:	f94047e1 	ldr	x1, [sp, #136]
    2df4:	b9407be0 	ldr	w0, [sp, #120]
    2df8:	b9007be2 	str	w2, [sp, #120]
    2dfc:	8b20c020 	add	x0, x1, w0, sxtw
    2e00:	79400004 	ldrh	w4, [x0]
    2e04:	17fffef4 	b	29d4 <_vsnprintf+0x904>
                                                                                                           : va_arg(va, int);
    2e08:	f94047e1 	ldr	x1, [sp, #136]
    2e0c:	b9407be0 	ldr	w0, [sp, #120]
    2e10:	b9007be2 	str	w2, [sp, #120]
    2e14:	8b20c020 	add	x0, x1, w0, sxtw
    2e18:	17ffff75 	b	2bec <_vsnprintf+0xb1c>
                                                                                                                                      : va_arg(va, unsigned int);
    2e1c:	f94047e1 	ldr	x1, [sp, #136]
    2e20:	b9407be0 	ldr	w0, [sp, #120]
    2e24:	b9007be2 	str	w2, [sp, #120]
    2e28:	8b20c020 	add	x0, x1, w0, sxtw
    2e2c:	b9400004 	ldr	w4, [x0]
    2e30:	17fffee9 	b	29d4 <_vsnprintf+0x904>
    return (ch >= '0') && (ch <= '9');
    2e34:	5100c002 	sub	w2, w0, #0x30
    unsigned int i = 0U;
    2e38:	52800018 	mov	w24, #0x0                   	// #0
        if (_is_digit(*format)) {
    2e3c:	12001c42 	and	w2, w2, #0xff
    2e40:	7100245f 	cmp	w2, #0x9
    2e44:	54ffa2a8 	b.hi	2298 <_vsnprintf+0x1c8>  // b.pmore
        i = i * 10U + (unsigned int)(*((*str)++) - '0');
    2e48:	52800142 	mov	w2, #0xa                   	// #10
    2e4c:	d503201f 	nop
    2e50:	1b020305 	madd	w5, w24, w2, w0
    while (_is_digit(**str)) {
    2e54:	39400100 	ldrb	w0, [x8]
        i = i * 10U + (unsigned int)(*((*str)++) - '0');
    2e58:	aa0803f9 	mov	x25, x8
    2e5c:	91000508 	add	x8, x8, #0x1
    return (ch >= '0') && (ch <= '9');
    2e60:	5100c004 	sub	w4, w0, #0x30
        i = i * 10U + (unsigned int)(*((*str)++) - '0');
    2e64:	5100c0b8 	sub	w24, w5, #0x30
    while (_is_digit(**str)) {
    2e68:	12001c84 	and	w4, w4, #0xff
    2e6c:	7100249f 	cmp	w4, #0x9
    2e70:	54ffff09 	b.ls	2e50 <_vsnprintf+0xd80>  // b.plast
    2e74:	17fffd09 	b	2298 <_vsnprintf+0x1c8>
        switch (*format) {
    2e78:	aa1903e4 	mov	x4, x25
    2e7c:	17fffcf0 	b	223c <_vsnprintf+0x16c>

0000000000002e80 <printf>:

///////////////////////////////////////////////////////////////////////////////

int printf(const char* format, ...)
{
    2e80:	a9ad7bfd 	stp	x29, x30, [sp, #-304]!
    2e84:	910003fd 	mov	x29, sp
    2e88:	f9000bf3 	str	x19, [sp, #16]
    2e8c:	aa0003f3 	mov	x19, x0
    2e90:	3d801fe0 	str	q0, [sp, #112]
    2e94:	3d8023e1 	str	q1, [sp, #128]
    2e98:	3d8027e2 	str	q2, [sp, #144]
    2e9c:	3d802be3 	str	q3, [sp, #160]
    2ea0:	3d802fe4 	str	q4, [sp, #176]
    2ea4:	3d8033e5 	str	q5, [sp, #192]
    2ea8:	3d8037e6 	str	q6, [sp, #208]
    2eac:	3d803be7 	str	q7, [sp, #224]
    2eb0:	a90f8be1 	stp	x1, x2, [sp, #248]
    2eb4:	a91093e3 	stp	x3, x4, [sp, #264]
    2eb8:	a9119be5 	stp	x5, x6, [sp, #280]
    2ebc:	f90097e7 	str	x7, [sp, #296]
    if (!init_uart_mmio()) {
    2ec0:	97fff968 	bl	1460 <init_uart_mmio>
    2ec4:	72001c1f 	tst	w0, #0xff
    2ec8:	540002e0 	b.eq	2f24 <printf+0xa4>  // b.none
        return -1;
    }
    va_list va;
    va_start(va, format);
    2ecc:	9103c3e0 	add	x0, sp, #0xf0
    2ed0:	9104c3e3 	add	x3, sp, #0x130
    2ed4:	9104c3e4 	add	x4, sp, #0x130
    2ed8:	128006e2 	mov	w2, #0xffffffc8            	// #-56
    2edc:	12800fe1 	mov	w1, #0xffffff80            	// #-128
    2ee0:	a90513e3 	stp	x3, x4, [sp, #80]
    char buffer[1];
    const int ret = _vsnprintf(_out_char, buffer, (size_t)-1, format, va);
    2ee4:	aa1303e3 	mov	x3, x19
    va_start(va, format);
    2ee8:	f90033e0 	str	x0, [sp, #96]
    const int ret = _vsnprintf(_out_char, buffer, (size_t)-1, format, va);
    2eec:	910083e4 	add	x4, sp, #0x20
    va_start(va, format);
    2ef0:	290d07e2 	stp	w2, w1, [sp, #104]
    const int ret = _vsnprintf(_out_char, buffer, (size_t)-1, format, va);
    2ef4:	90000000 	adrp	x0, 2000 <_ftoa+0x330>
    2ef8:	91028000 	add	x0, x0, #0xa0
    2efc:	910123e1 	add	x1, sp, #0x48
    2f00:	a94527e8 	ldp	x8, x9, [sp, #80]
    2f04:	92800002 	mov	x2, #0xffffffffffffffff    	// #-1
    2f08:	a9461fe6 	ldp	x6, x7, [sp, #96]
    2f0c:	a90227e8 	stp	x8, x9, [sp, #32]
    2f10:	a9031fe6 	stp	x6, x7, [sp, #48]
    2f14:	97fffc6f 	bl	20d0 <_vsnprintf>
    va_end(va);
    return ret;
}
    2f18:	f9400bf3 	ldr	x19, [sp, #16]
    2f1c:	a8d37bfd 	ldp	x29, x30, [sp], #304
    2f20:	d65f03c0 	ret
        return -1;
    2f24:	12800000 	mov	w0, #0xffffffff            	// #-1
    2f28:	17fffffc 	b	2f18 <printf+0x98>
    2f2c:	d503201f 	nop

0000000000002f30 <sprintf_>:

int sprintf_(char* buffer, const char* format, ...)
{
    2f30:	a9b07bfd 	stp	x29, x30, [sp, #-256]!
    va_list va;
    va_start(va, format);
    2f34:	128005e9 	mov	w9, #0xffffffd0            	// #-48
    2f38:	12800fe8 	mov	w8, #0xffffff80            	// #-128
{
    2f3c:	910003fd 	mov	x29, sp
    va_start(va, format);
    2f40:	910343eb 	add	x11, sp, #0xd0
    2f44:	910403ea 	add	x10, sp, #0x100
    2f48:	a9032bea 	stp	x10, x10, [sp, #48]
{
    2f4c:	aa0103ea 	mov	x10, x1
    const int ret = _vsnprintf(_out_buffer, buffer, (size_t)-1, format, va);
    2f50:	aa0003e1 	mov	x1, x0
    va_start(va, format);
    2f54:	f90023eb 	str	x11, [sp, #64]
    const int ret = _vsnprintf(_out_buffer, buffer, (size_t)-1, format, va);
    2f58:	f0ffffe0 	adrp	x0, 1000 <ipc_msg_send_nowait>
    2f5c:	91148000 	add	x0, x0, #0x520
    va_start(va, format);
    2f60:	290923e9 	stp	w9, w8, [sp, #72]
    const int ret = _vsnprintf(_out_buffer, buffer, (size_t)-1, format, va);
    2f64:	a94337ec 	ldp	x12, x13, [sp, #48]
    2f68:	a90137ec 	stp	x12, x13, [sp, #16]
    2f6c:	a94427e8 	ldp	x8, x9, [sp, #64]
    2f70:	a90227e8 	stp	x8, x9, [sp, #32]
{
    2f74:	3d8017e0 	str	q0, [sp, #80]
    2f78:	3d801be1 	str	q1, [sp, #96]
    2f7c:	3d801fe2 	str	q2, [sp, #112]
    2f80:	3d8023e3 	str	q3, [sp, #128]
    2f84:	3d8027e4 	str	q4, [sp, #144]
    2f88:	3d802be5 	str	q5, [sp, #160]
    2f8c:	3d802fe6 	str	q6, [sp, #176]
    2f90:	3d8033e7 	str	q7, [sp, #192]
    2f94:	a90d0fe2 	stp	x2, x3, [sp, #208]
    const int ret = _vsnprintf(_out_buffer, buffer, (size_t)-1, format, va);
    2f98:	aa0a03e3 	mov	x3, x10
    2f9c:	92800002 	mov	x2, #0xffffffffffffffff    	// #-1
{
    2fa0:	a90e17e4 	stp	x4, x5, [sp, #224]
    const int ret = _vsnprintf(_out_buffer, buffer, (size_t)-1, format, va);
    2fa4:	910043e4 	add	x4, sp, #0x10
{
    2fa8:	a90f1fe6 	stp	x6, x7, [sp, #240]
    const int ret = _vsnprintf(_out_buffer, buffer, (size_t)-1, format, va);
    2fac:	97fffc49 	bl	20d0 <_vsnprintf>
    va_end(va);
    return ret;
}
    2fb0:	a8d07bfd 	ldp	x29, x30, [sp], #256
    2fb4:	d65f03c0 	ret
    2fb8:	d503201f 	nop
    2fbc:	d503201f 	nop

0000000000002fc0 <snprintf_>:

int snprintf_(char* buffer, size_t count, const char* format, ...)
{
    2fc0:	a9b07bfd 	stp	x29, x30, [sp, #-256]!
    va_list va;
    va_start(va, format);
    2fc4:	128004eb 	mov	w11, #0xffffffd8            	// #-40
    2fc8:	12800fe9 	mov	w9, #0xffffff80            	// #-128
{
    2fcc:	910003fd 	mov	x29, sp
    va_start(va, format);
    2fd0:	910343ea 	add	x10, sp, #0xd0
    2fd4:	910403e8 	add	x8, sp, #0x100
    2fd8:	a90323e8 	stp	x8, x8, [sp, #48]
{
    2fdc:	aa0103e8 	mov	x8, x1
    const int ret = _vsnprintf(_out_buffer, buffer, count, format, va);
    2fe0:	aa0003e1 	mov	x1, x0
    va_start(va, format);
    2fe4:	f90023ea 	str	x10, [sp, #64]
{
    2fe8:	aa0203ea 	mov	x10, x2
    va_start(va, format);
    2fec:	290927eb 	stp	w11, w9, [sp, #72]
    const int ret = _vsnprintf(_out_buffer, buffer, count, format, va);
    2ff0:	aa0803e2 	mov	x2, x8
    2ff4:	a94337ec 	ldp	x12, x13, [sp, #48]
    2ff8:	f0ffffe0 	adrp	x0, 1000 <ipc_msg_send_nowait>
    2ffc:	a94427e8 	ldp	x8, x9, [sp, #64]
    3000:	91148000 	add	x0, x0, #0x520
    3004:	a90137ec 	stp	x12, x13, [sp, #16]
    3008:	a90227e8 	stp	x8, x9, [sp, #32]
{
    300c:	3d8017e0 	str	q0, [sp, #80]
    3010:	3d801be1 	str	q1, [sp, #96]
    3014:	3d801fe2 	str	q2, [sp, #112]
    3018:	3d8023e3 	str	q3, [sp, #128]
    301c:	3d8027e4 	str	q4, [sp, #144]
    3020:	3d802be5 	str	q5, [sp, #160]
    3024:	3d802fe6 	str	q6, [sp, #176]
    3028:	3d8033e7 	str	q7, [sp, #192]
    302c:	a90d93e3 	stp	x3, x4, [sp, #216]
    const int ret = _vsnprintf(_out_buffer, buffer, count, format, va);
    3030:	910043e4 	add	x4, sp, #0x10
    3034:	aa0a03e3 	mov	x3, x10
{
    3038:	a90e9be5 	stp	x5, x6, [sp, #232]
    303c:	f9007fe7 	str	x7, [sp, #248]
    const int ret = _vsnprintf(_out_buffer, buffer, count, format, va);
    3040:	97fffc24 	bl	20d0 <_vsnprintf>
    va_end(va);
    return ret;
}
    3044:	a8d07bfd 	ldp	x29, x30, [sp], #256
    3048:	d65f03c0 	ret
    304c:	d503201f 	nop

0000000000003050 <vprintf_>:

int vprintf_(const char* format, va_list va)
{
    3050:	a9bc7bfd 	stp	x29, x30, [sp, #-64]!
    char buffer[1];
    return _vsnprintf(_out_char, buffer, (size_t)-1, format, va);
    3054:	aa0003e3 	mov	x3, x0
    3058:	92800002 	mov	x2, #0xffffffffffffffff    	// #-1
{
    305c:	910003fd 	mov	x29, sp
    return _vsnprintf(_out_char, buffer, (size_t)-1, format, va);
    3060:	a9402428 	ldp	x8, x9, [x1]
    3064:	910043e4 	add	x4, sp, #0x10
    3068:	a9411c26 	ldp	x6, x7, [x1, #16]
    306c:	f0ffffe0 	adrp	x0, 2000 <_ftoa+0x330>
    3070:	9100e3e1 	add	x1, sp, #0x38
    3074:	91028000 	add	x0, x0, #0xa0
    3078:	a90127e8 	stp	x8, x9, [sp, #16]
    307c:	a9021fe6 	stp	x6, x7, [sp, #32]
    3080:	97fffc14 	bl	20d0 <_vsnprintf>
}
    3084:	a8c47bfd 	ldp	x29, x30, [sp], #64
    3088:	d65f03c0 	ret
    308c:	d503201f 	nop

0000000000003090 <vsnprintf_>:

int vsnprintf_(char* buffer, size_t count, const char* format, va_list va)
{
    3090:	aa0303e4 	mov	x4, x3
    3094:	a9bd7bfd 	stp	x29, x30, [sp, #-48]!
    3098:	aa0103e5 	mov	x5, x1
    309c:	910003fd 	mov	x29, sp
    return _vsnprintf(_out_buffer, buffer, count, format, va);
    30a0:	a9402488 	ldp	x8, x9, [x4]
    30a4:	aa0003e1 	mov	x1, x0
    30a8:	a9411c86 	ldp	x6, x7, [x4, #16]
    30ac:	aa0203e3 	mov	x3, x2
    30b0:	910043e4 	add	x4, sp, #0x10
    30b4:	aa0503e2 	mov	x2, x5
    30b8:	d0ffffe0 	adrp	x0, 1000 <ipc_msg_send_nowait>
    30bc:	91148000 	add	x0, x0, #0x520
    30c0:	a90127e8 	stp	x8, x9, [sp, #16]
    30c4:	a9021fe6 	stp	x6, x7, [sp, #32]
    30c8:	97fffc02 	bl	20d0 <_vsnprintf>
}
    30cc:	a8c37bfd 	ldp	x29, x30, [sp], #48
    30d0:	d65f03c0 	ret
    30d4:	d503201f 	nop
    30d8:	d503201f 	nop
    30dc:	d503201f 	nop

00000000000030e0 <fctprintf>:

int fctprintf(void (*out)(char character, void* arg), void* arg, const char* format, ...)
{
    30e0:	a9af7bfd 	stp	x29, x30, [sp, #-272]!
    va_list va;
    va_start(va, format);
    30e4:	128004e9 	mov	w9, #0xffffffd8            	// #-40
    30e8:	12800fe8 	mov	w8, #0xffffff80            	// #-128
{
    30ec:	910003fd 	mov	x29, sp
    va_start(va, format);
    30f0:	910443ea 	add	x10, sp, #0x110
    30f4:	910383eb 	add	x11, sp, #0xe0
    30f8:	f90023ea 	str	x10, [sp, #64]
{
    30fc:	aa0203ea 	mov	x10, x2
    va_start(va, format);
    3100:	910443e2 	add	x2, sp, #0x110
    3104:	f90027e2 	str	x2, [sp, #72]
    3108:	f9002beb 	str	x11, [sp, #80]
{
    310c:	aa0003ec 	mov	x12, x0
    va_start(va, format);
    3110:	290b23e9 	stp	w9, w8, [sp, #88]
{
    3114:	aa0103eb 	mov	x11, x1
    const out_fct_wrap_type out_fct_wrap = { out, arg };
    const int ret = _vsnprintf(_out_fct, (char*)(uintptr_t)&out_fct_wrap, (size_t)-1, format, va);
    3118:	a9443fee 	ldp	x14, x15, [sp, #64]
    311c:	9100c3e1 	add	x1, sp, #0x30
    3120:	a94527e8 	ldp	x8, x9, [sp, #80]
    3124:	92800002 	mov	x2, #0xffffffffffffffff    	// #-1
    3128:	f0ffffe0 	adrp	x0, 2000 <_ftoa+0x330>
    312c:	9102c000 	add	x0, x0, #0xb0
    3130:	a9013fee 	stp	x14, x15, [sp, #16]
    3134:	a90227e8 	stp	x8, x9, [sp, #32]
    const out_fct_wrap_type out_fct_wrap = { out, arg };
    3138:	f9001bec 	str	x12, [sp, #48]
    313c:	f9001feb 	str	x11, [sp, #56]
{
    3140:	3d801be0 	str	q0, [sp, #96]
    3144:	3d801fe1 	str	q1, [sp, #112]
    3148:	3d8023e2 	str	q2, [sp, #128]
    314c:	3d8027e3 	str	q3, [sp, #144]
    3150:	3d802be4 	str	q4, [sp, #160]
    3154:	3d802fe5 	str	q5, [sp, #176]
    3158:	3d8033e6 	str	q6, [sp, #192]
    315c:	3d8037e7 	str	q7, [sp, #208]
    3160:	a90e93e3 	stp	x3, x4, [sp, #232]
    const int ret = _vsnprintf(_out_fct, (char*)(uintptr_t)&out_fct_wrap, (size_t)-1, format, va);
    3164:	910043e4 	add	x4, sp, #0x10
    3168:	aa0a03e3 	mov	x3, x10
{
    316c:	a90f9be5 	stp	x5, x6, [sp, #248]
    3170:	f90087e7 	str	x7, [sp, #264]
    const int ret = _vsnprintf(_out_fct, (char*)(uintptr_t)&out_fct_wrap, (size_t)-1, format, va);
    3174:	97fffbd7 	bl	20d0 <_vsnprintf>
    va_end(va);
    return ret;
    3178:	a8d17bfd 	ldp	x29, x30, [sp], #272
    317c:	d65f03c0 	ret

0000000000003180 <spawn>:
 */
#include "usyscall.h"
#include "libmem.h"

int spawn(struct Session* session, int fd, ipc_read_fn ipc_read, ipc_fsize_fn ipc_fsize, char* name, char** argv)
{
    3180:	a9ba7bfd 	stp	x29, x30, [sp, #-96]!
    3184:	910003fd 	mov	x29, sp
    3188:	a90153f3 	stp	x19, x20, [sp, #16]
    318c:	a9025bf5 	stp	x21, x22, [sp, #32]
    3190:	2a0103f6 	mov	w22, w1
    3194:	a90363f7 	stp	x23, x24, [sp, #48]
    3198:	aa0203f8 	mov	x24, x2
    319c:	aa0003f7 	mov	x23, x0
    31a0:	a9046bf9 	stp	x25, x26, [sp, #64]
    31a4:	aa0403f9 	mov	x25, x4
    31a8:	aa0503fa 	mov	x26, x5
    /* read elf image */
    int file_size = ipc_fsize(session, fd);
    31ac:	d63f0060 	blr	x3
    31b0:	2a0003f4 	mov	w20, w0
    void* img = malloc(file_size);
    31b4:	93407c00 	sxtw	x0, w0
    31b8:	94000202 	bl	39c0 <malloc>
    int read_len = 0;
    while (read_len < file_size) {
    31bc:	7100029f 	cmp	w20, #0x0
    void* img = malloc(file_size);
    31c0:	aa0003f5 	mov	x21, x0
    while (read_len < file_size) {
    31c4:	5400022d 	b.le	3208 <spawn+0x88>
    31c8:	52800013 	mov	w19, #0x0                   	// #0
    31cc:	f9002bfb 	str	x27, [sp, #80]
    31d0:	5282001b 	mov	w27, #0x1000                	// #4096
    31d4:	d503201f 	nop
        int cur_read_len = file_size - read_len < 4096 ? file_size - read_len : 4096;
    31d8:	4b130284 	sub	w4, w20, w19
        if (cur_read_len < 0) {
            return -1;
        }
        read_len += ipc_read(session, fd, (char*)((uintptr_t)img + read_len), read_len, cur_read_len);
    31dc:	2a1303e3 	mov	w3, w19
        int cur_read_len = file_size - read_len < 4096 ? file_size - read_len : 4096;
    31e0:	7140049f 	cmp	w4, #0x1, lsl #12
        read_len += ipc_read(session, fd, (char*)((uintptr_t)img + read_len), read_len, cur_read_len);
    31e4:	8b33c2a2 	add	x2, x21, w19, sxtw
    31e8:	1a9bd084 	csel	w4, w4, w27, le
    31ec:	2a1603e1 	mov	w1, w22
    31f0:	aa1703e0 	mov	x0, x23
    31f4:	d63f0300 	blr	x24
    31f8:	0b000273 	add	w19, w19, w0
    while (read_len < file_size) {
    31fc:	6b13029f 	cmp	w20, w19
    3200:	54fffecc 	b.gt	31d8 <spawn+0x58>
    3204:	f9402bfb 	ldr	x27, [sp, #80]
    }
    /* sys call */
    int ret = syscall(SYSCALL_SPAWN, (uintptr_t)img, (uintptr_t)name, (uintptr_t)argv, 0);
    3208:	aa1a03e3 	mov	x3, x26
    320c:	aa1903e2 	mov	x2, x25
    3210:	aa1503e1 	mov	x1, x21
    3214:	d2800004 	mov	x4, #0x0                   	// #0
    3218:	52800020 	mov	w0, #0x1                   	// #1
    321c:	940000b9 	bl	3500 <syscall>
    3220:	2a0003f3 	mov	w19, w0
    free(img);
    3224:	aa1503e0 	mov	x0, x21
    3228:	9400028a 	bl	3c50 <free>
    return ret;
}
    322c:	2a1303e0 	mov	w0, w19
    3230:	a94153f3 	ldp	x19, x20, [sp, #16]
    3234:	a9425bf5 	ldp	x21, x22, [sp, #32]
    3238:	a94363f7 	ldp	x23, x24, [sp, #48]
    323c:	a9446bf9 	ldp	x25, x26, [sp, #64]
    3240:	a8c67bfd 	ldp	x29, x30, [sp], #96
    3244:	d65f03c0 	ret
    3248:	d503201f 	nop
    324c:	d503201f 	nop

0000000000003250 <thread>:

int thread(void* entry, char* name, char** argv)
{
    3250:	aa0103e4 	mov	x4, x1
    return syscall(SYSCALL_THREAD, (uintptr_t)entry, (uintptr_t)name, (uintptr_t)argv, 0);
    3254:	aa0203e3 	mov	x3, x2
    3258:	aa0003e1 	mov	x1, x0
    325c:	aa0403e2 	mov	x2, x4
    3260:	52800120 	mov	w0, #0x9                   	// #9
    3264:	d2800004 	mov	x4, #0x0                   	// #0
    3268:	140000a6 	b	3500 <syscall>
    326c:	d503201f 	nop

0000000000003270 <exit>:
}

void exit(int status)
{
    syscall(SYSCALL_EXIT, (uintptr_t)status, 0, 0, 0);
    3270:	93407c01 	sxtw	x1, w0
    3274:	d2800004 	mov	x4, #0x0                   	// #0
    3278:	d2800003 	mov	x3, #0x0                   	// #0
    327c:	d2800002 	mov	x2, #0x0                   	// #0
    3280:	52800040 	mov	w0, #0x2                   	// #2
    3284:	1400009f 	b	3500 <syscall>
    3288:	d503201f 	nop
    328c:	d503201f 	nop

0000000000003290 <yield>:
}

int yield(task_yield_reason reason)
{
    return syscall(SYSCALL_YIELD, (uintptr_t)reason, 0, 0, 0);
    3290:	2a0003e1 	mov	w1, w0
    3294:	d2800004 	mov	x4, #0x0                   	// #0
    3298:	d2800003 	mov	x3, #0x0                   	// #0
    329c:	d2800002 	mov	x2, #0x0                   	// #0
    32a0:	52800060 	mov	w0, #0x3                   	// #3
    32a4:	14000097 	b	3500 <syscall>
    32a8:	d503201f 	nop
    32ac:	d503201f 	nop

00000000000032b0 <kill>:
}

int kill(int pid)
{
    return syscall(SYSCALL_KILL, (intptr_t)pid, 0, 0, 0);
    32b0:	93407c01 	sxtw	x1, w0
    32b4:	d2800004 	mov	x4, #0x0                   	// #0
    32b8:	d2800003 	mov	x3, #0x0                   	// #0
    32bc:	d2800002 	mov	x2, #0x0                   	// #0
    32c0:	52800180 	mov	w0, #0xc                   	// #12
    32c4:	1400008f 	b	3500 <syscall>
    32c8:	d503201f 	nop
    32cc:	d503201f 	nop

00000000000032d0 <register_server>:
}

int register_server(char* name)
{
    return syscall(SYSCALL_SERVER, (intptr_t)name, 0, 0, 0);
    32d0:	aa0003e1 	mov	x1, x0
    32d4:	d2800004 	mov	x4, #0x0                   	// #0
    32d8:	d2800003 	mov	x3, #0x0                   	// #0
    32dc:	d2800002 	mov	x2, #0x0                   	// #0
    32e0:	528000a0 	mov	w0, #0x5                   	// #5
    32e4:	14000087 	b	3500 <syscall>
    32e8:	d503201f 	nop
    32ec:	d503201f 	nop

00000000000032f0 <session>:
}

int session(char* path, int capacity, struct Session* user_session)
{
    32f0:	2a0103e4 	mov	w4, w1
    return syscall(SYSCALL_SESSION, (intptr_t)path, (intptr_t)capacity, (intptr_t)user_session, 0);
    32f4:	aa0203e3 	mov	x3, x2
    32f8:	aa0003e1 	mov	x1, x0
    32fc:	528000c0 	mov	w0, #0x6                   	// #6
    3300:	93407c82 	sxtw	x2, w4
    3304:	d2800004 	mov	x4, #0x0                   	// #0
    3308:	1400007e 	b	3500 <syscall>
    330c:	d503201f 	nop

0000000000003310 <poll_session>:
}

int poll_session(struct Session* userland_session_arr, int arr_capacity)
{
    3310:	93407c22 	sxtw	x2, w1
    return syscall(SYSCALL_POLL_SESSION, (intptr_t)userland_session_arr, (intptr_t)arr_capacity, 0, 0);
    3314:	d2800004 	mov	x4, #0x0                   	// #0
    3318:	aa0003e1 	mov	x1, x0
    331c:	d2800003 	mov	x3, #0x0                   	// #0
    3320:	528000e0 	mov	w0, #0x7                   	// #7
    3324:	14000077 	b	3500 <syscall>
    3328:	d503201f 	nop
    332c:	d503201f 	nop

0000000000003330 <close_session>:
}

int close_session(struct Session* session)
{
    return syscall(SYSCALL_CLOSE_SESSION, (intptr_t)session, 0, 0, 0);
    3330:	aa0003e1 	mov	x1, x0
    3334:	d2800004 	mov	x4, #0x0                   	// #0
    3338:	d2800003 	mov	x3, #0x0                   	// #0
    333c:	d2800002 	mov	x2, #0x0                   	// #0
    3340:	52800100 	mov	w0, #0x8                   	// #8
    3344:	1400006f 	b	3500 <syscall>
    3348:	d503201f 	nop
    334c:	d503201f 	nop

0000000000003350 <get_memblock_info>:
}

int get_memblock_info(sys_state_info* info)
{
    return syscall(SYSCALL_SYS_STATE, SYS_STATE_MEMBLOCK_INFO, (intptr_t)info, 0, 0);
    3350:	aa0003e2 	mov	x2, x0
    3354:	d2800004 	mov	x4, #0x0                   	// #0
    3358:	d2800003 	mov	x3, #0x0                   	// #0
    335c:	d2800061 	mov	x1, #0x3                   	// #3
    3360:	52800140 	mov	w0, #0xa                   	// #10
    3364:	14000067 	b	3500 <syscall>
    3368:	d503201f 	nop
    336c:	d503201f 	nop

0000000000003370 <set_priority>:
}

int set_priority(sys_state_info* info)
{
    return syscall(SYSCALL_SYS_STATE, SYS_STATE_SET_TASK_PRIORITY, (intptr_t)info, 0, 0);
    3370:	aa0003e2 	mov	x2, x0
    3374:	d2800004 	mov	x4, #0x0                   	// #0
    3378:	d2800003 	mov	x3, #0x0                   	// #0
    337c:	d2800021 	mov	x1, #0x1                   	// #1
    3380:	52800140 	mov	w0, #0xa                   	// #10
    3384:	1400005f 	b	3500 <syscall>
    3388:	d503201f 	nop
    338c:	d503201f 	nop

0000000000003390 <task_heap_base>:
}

int task_heap_base()
{
    return syscall(SYSCALL_SYS_STATE, SYS_STATE_GET_HEAP_BASE, 0, 0, 0);
    3390:	d2800004 	mov	x4, #0x0                   	// #0
    3394:	d2800003 	mov	x3, #0x0                   	// #0
    3398:	d2800002 	mov	x2, #0x0                   	// #0
    339c:	d2800041 	mov	x1, #0x2                   	// #2
    33a0:	52800140 	mov	w0, #0xa                   	// #10
    33a4:	14000057 	b	3500 <syscall>
    33a8:	d503201f 	nop
    33ac:	d503201f 	nop

00000000000033b0 <show_task>:
}

int show_task()
{
    return syscall(SYSCALL_SYS_STATE, SYS_STATE_SHOW_TASKS, 0, 0, 0);
    33b0:	d2800004 	mov	x4, #0x0                   	// #0
    33b4:	d2800003 	mov	x3, #0x0                   	// #0
    33b8:	d2800002 	mov	x2, #0x0                   	// #0
    33bc:	d2800081 	mov	x1, #0x4                   	// #4
    33c0:	52800140 	mov	w0, #0xa                   	// #10
    33c4:	1400004f 	b	3500 <syscall>
    33c8:	d503201f 	nop
    33cc:	d503201f 	nop

00000000000033d0 <show_mem>:
}

int show_mem()
{
    return syscall(SYSCALL_SYS_STATE, SYS_STATE_SHOW_MEM_INFO, 0, 0, 0);
    33d0:	d2800004 	mov	x4, #0x0                   	// #0
    33d4:	d2800003 	mov	x3, #0x0                   	// #0
    33d8:	d2800002 	mov	x2, #0x0                   	// #0
    33dc:	d28000a1 	mov	x1, #0x5                   	// #5
    33e0:	52800140 	mov	w0, #0xa                   	// #10
    33e4:	14000047 	b	3500 <syscall>
    33e8:	d503201f 	nop
    33ec:	d503201f 	nop

00000000000033f0 <show_cpu>:
}

int show_cpu()
{
    return syscall(SYSCALL_SYS_STATE, SYS_STATE_SHOW_CPU_INFO, 0, 0, 0);
    33f0:	d2800004 	mov	x4, #0x0                   	// #0
    33f4:	d2800003 	mov	x3, #0x0                   	// #0
    33f8:	d2800002 	mov	x2, #0x0                   	// #0
    33fc:	d28000c1 	mov	x1, #0x6                   	// #6
    3400:	52800140 	mov	w0, #0xa                   	// #10
    3404:	1400003f 	b	3500 <syscall>
    3408:	d503201f 	nop
    340c:	d503201f 	nop

0000000000003410 <mmap>:
}

int mmap(uintptr_t vaddr, uintptr_t paddr, int len, bool is_dev)
{
    3410:	2a0203e5 	mov	w5, w2
    return syscall(SYSCALL_MMAP, vaddr, paddr, (intptr_t)len, (intptr_t)is_dev);
    3414:	92401c64 	and	x4, x3, #0xff
    3418:	aa0103e2 	mov	x2, x1
    341c:	aa0003e1 	mov	x1, x0
    3420:	93407ca3 	sxtw	x3, w5
    3424:	52800080 	mov	w0, #0x4                   	// #4
    3428:	14000036 	b	3500 <syscall>
    342c:	d503201f 	nop

0000000000003430 <register_irq>:
}

int register_irq(int irq, int opcode)
{
    return syscall(SYSCALL_REGISTER_IRQ, (intptr_t)irq, (intptr_t)opcode, 0, 0);
    3430:	93407c22 	sxtw	x2, w1
    3434:	d2800004 	mov	x4, #0x0                   	// #0
    3438:	93407c01 	sxtw	x1, w0
    343c:	d2800003 	mov	x3, #0x0                   	// #0
    3440:	52800160 	mov	w0, #0xb                   	// #11
    3444:	1400002f 	b	3500 <syscall>
    3448:	d503201f 	nop
    344c:	d503201f 	nop

0000000000003450 <semaphore_new>:
}

int semaphore_new(int val)
{
    return syscall(SYSCALL_SEMAPHORE, (intptr_t)SYS_SEM_NEW, (intptr_t)val, 0, 0);
    3450:	93407c02 	sxtw	x2, w0
    3454:	d2800004 	mov	x4, #0x0                   	// #0
    3458:	d2800003 	mov	x3, #0x0                   	// #0
    345c:	d2800001 	mov	x1, #0x0                   	// #0
    3460:	528001a0 	mov	w0, #0xd                   	// #13
    3464:	14000027 	b	3500 <syscall>
    3468:	d503201f 	nop
    346c:	d503201f 	nop

0000000000003470 <semaphore_free>:
}

bool semaphore_free(int sem_id)
{
    3470:	a9bf7bfd 	stp	x29, x30, [sp, #-16]!
    return syscall(SYSCALL_SEMAPHORE, (intptr_t)SYS_SEM_FREE, (intptr_t)sem_id, 0, 0);
    3474:	93407c02 	sxtw	x2, w0
    3478:	d2800004 	mov	x4, #0x0                   	// #0
{
    347c:	910003fd 	mov	x29, sp
    return syscall(SYSCALL_SEMAPHORE, (intptr_t)SYS_SEM_FREE, (intptr_t)sem_id, 0, 0);
    3480:	d2800003 	mov	x3, #0x0                   	// #0
    3484:	d2800021 	mov	x1, #0x1                   	// #1
    3488:	528001a0 	mov	w0, #0xd                   	// #13
    348c:	9400001d 	bl	3500 <syscall>
    3490:	7100001f 	cmp	w0, #0x0
}
    3494:	1a9f07e0 	cset	w0, ne  // ne = any
    3498:	a8c17bfd 	ldp	x29, x30, [sp], #16
    349c:	d65f03c0 	ret

00000000000034a0 <semaphore_wait>:

bool semaphore_wait(int sem_id)
{
    34a0:	a9bf7bfd 	stp	x29, x30, [sp, #-16]!
    return syscall(SYSCALL_SEMAPHORE, (intptr_t)SYS_SEM_WAIT, (intptr_t)sem_id, 0, 0);
    34a4:	93407c02 	sxtw	x2, w0
    34a8:	d2800004 	mov	x4, #0x0                   	// #0
{
    34ac:	910003fd 	mov	x29, sp
    return syscall(SYSCALL_SEMAPHORE, (intptr_t)SYS_SEM_WAIT, (intptr_t)sem_id, 0, 0);
    34b0:	d2800003 	mov	x3, #0x0                   	// #0
    34b4:	d2800061 	mov	x1, #0x3                   	// #3
    34b8:	528001a0 	mov	w0, #0xd                   	// #13
    34bc:	94000011 	bl	3500 <syscall>
    34c0:	7100001f 	cmp	w0, #0x0
}
    34c4:	1a9f07e0 	cset	w0, ne  // ne = any
    34c8:	a8c17bfd 	ldp	x29, x30, [sp], #16
    34cc:	d65f03c0 	ret

00000000000034d0 <semaphore_signal>:

bool semaphore_signal(int sem_id)
{
    34d0:	a9bf7bfd 	stp	x29, x30, [sp, #-16]!
    return syscall(SYSCALL_SEMAPHORE, (intptr_t)SYS_SEM_SIGNAL, (intptr_t)sem_id, 0, 0);
    34d4:	93407c02 	sxtw	x2, w0
    34d8:	d2800004 	mov	x4, #0x0                   	// #0
{
    34dc:	910003fd 	mov	x29, sp
    return syscall(SYSCALL_SEMAPHORE, (intptr_t)SYS_SEM_SIGNAL, (intptr_t)sem_id, 0, 0);
    34e0:	d2800003 	mov	x3, #0x0                   	// #0
    34e4:	d2800041 	mov	x1, #0x2                   	// #2
    34e8:	528001a0 	mov	w0, #0xd                   	// #13
    34ec:	94000005 	bl	3500 <syscall>
    34f0:	7100001f 	cmp	w0, #0x0
    34f4:	1a9f07e0 	cset	w0, ne  // ne = any
    34f8:	a8c17bfd 	ldp	x29, x30, [sp], #16
    34fc:	d65f03c0 	ret

0000000000003500 <syscall>:
 * See the Mulan PSL v2 for more details.
 */
#include "usyscall.h"

int syscall(int sys_num, intptr_t a1, intptr_t a2, intptr_t a3, intptr_t a4)
{
    3500:	2a0003e5 	mov	w5, w0
    3504:	aa0103e6 	mov	x6, x1
    3508:	aa0203e7 	mov	x7, x2
    350c:	aa0303e8 	mov	x8, x3
    3510:	aa0403e9 	mov	x9, x4
    int ret = -1;

    __asm__ volatile(
    3514:	aa0503e0 	mov	x0, x5
    3518:	aa0603e1 	mov	x1, x6
    351c:	aa0703e2 	mov	x2, x7
    3520:	aa0803e3 	mov	x3, x8
    3524:	aa0903e4 	mov	x4, x9
    3528:	d4000001 	svc	#0x0
    352c:	d5033b9f 	dsb	ish
    3530:	d5033fdf 	isb
    3534:	aa0003e5 	mov	x5, x0
        : "=r"(ret)
        : "r"(sys_num), "r"(a1), "r"(a2), "r"(a3), "r"(a4)
        : "memory", "r0", "r1", "r2", "r3", "r4");

    return ret;
    3538:	2a0503e0 	mov	w0, w5
    353c:	d65f03c0 	ret

0000000000003540 <insert_node>:
    int list = 0;
    void* search_ptr = ptr;
    void* insert_ptr = NULL;

    // Select segregated list
    while ((list < LISTLIMIT - 1) && (size > 1)) {
    3540:	f100043f 	cmp	x1, #0x1
    int list = 0;
    3544:	52800002 	mov	w2, #0x0                   	// #0
    while ((list < LISTLIMIT - 1) && (size > 1)) {
    3548:	540000e9 	b.ls	3564 <insert_node+0x24>  // b.plast
    354c:	d503201f 	nop
        size >>= 1;
        list++;
    3550:	11000442 	add	w2, w2, #0x1
        size >>= 1;
    3554:	d341fc21 	lsr	x1, x1, #1
    while ((list < LISTLIMIT - 1) && (size > 1)) {
    3558:	7100485f 	cmp	w2, #0x12
    355c:	fa41d820 	ccmp	x1, #0x1, #0x0, le
    3560:	54ffff88 	b.hi	3550 <insert_node+0x10>  // b.pmore
    }

    // Keep size ascending order and search
    search_ptr = segregated_free_lists[list];
    3564:	93407c44 	sxtw	x4, w2
    3568:	d0000046 	adrp	x6, d000 <__global_locale+0x20>
    356c:	912800c6 	add	x6, x6, #0xa00
    void* insert_ptr = NULL;
    3570:	d2800005 	mov	x5, #0x0                   	// #0
    search_ptr = segregated_free_lists[list];
    3574:	f86478c2 	ldr	x2, [x6, x4, lsl #3]
    while ((search_ptr != NULL) && (size > GET_SIZE(HDRP(search_ptr)))) {
    3578:	b50000c2 	cbnz	x2, 3590 <insert_node+0x50>
    357c:	14000018 	b	35dc <insert_node+0x9c>
        insert_ptr = search_ptr;
        search_ptr = PRED(search_ptr);
    3580:	f9400043 	ldr	x3, [x2]
    while ((search_ptr != NULL) && (size > GET_SIZE(HDRP(search_ptr)))) {
    3584:	aa0203e5 	mov	x5, x2
    3588:	b4000223 	cbz	x3, 35cc <insert_node+0x8c>
    358c:	aa0303e2 	mov	x2, x3
    3590:	b85fc043 	ldur	w3, [x2, #-4]
    3594:	927d7063 	and	x3, x3, #0xfffffff8
    3598:	eb01007f 	cmp	x3, x1
    359c:	54ffff23 	b.cc	3580 <insert_node+0x40>  // b.lo, b.ul, b.last
    }

    // Set predecessor and successor
    if (search_ptr != NULL) {
        if (insert_ptr != NULL) {
    35a0:	b40000c5 	cbz	x5, 35b8 <insert_node+0x78>
            SET_PTR(PRED_PTR(ptr), search_ptr);
    35a4:	f9000002 	str	x2, [x0]
            SET_PTR(SUCC_PTR(search_ptr), ptr);
    35a8:	f8004040 	stur	x0, [x2, #4]
            SET_PTR(SUCC_PTR(ptr), insert_ptr);
    35ac:	f8004005 	stur	x5, [x0, #4]
            SET_PTR(PRED_PTR(insert_ptr), ptr);
    35b0:	f90000a0 	str	x0, [x5]
            segregated_free_lists[list] = ptr;
        }
    }

    return;
}
    35b4:	d65f03c0 	ret
            SET_PTR(PRED_PTR(ptr), search_ptr);
    35b8:	f9000002 	str	x2, [x0]
            SET_PTR(SUCC_PTR(search_ptr), ptr);
    35bc:	f8004040 	stur	x0, [x2, #4]
            SET_PTR(SUCC_PTR(ptr), NULL);
    35c0:	f800401f 	stur	xzr, [x0, #4]
            segregated_free_lists[list] = ptr;
    35c4:	f82478c0 	str	x0, [x6, x4, lsl #3]
}
    35c8:	d65f03c0 	ret
            SET_PTR(PRED_PTR(ptr), NULL);
    35cc:	f900001f 	str	xzr, [x0]
            SET_PTR(SUCC_PTR(ptr), insert_ptr);
    35d0:	f8004002 	stur	x2, [x0, #4]
            SET_PTR(PRED_PTR(insert_ptr), ptr);
    35d4:	f9000040 	str	x0, [x2]
}
    35d8:	d65f03c0 	ret
            SET_PTR(PRED_PTR(ptr), NULL);
    35dc:	f900001f 	str	xzr, [x0]
            SET_PTR(SUCC_PTR(ptr), NULL);
    35e0:	f800401f 	stur	xzr, [x0, #4]
            segregated_free_lists[list] = ptr;
    35e4:	f82478c0 	str	x0, [x6, x4, lsl #3]
}
    35e8:	d65f03c0 	ret
    35ec:	d503201f 	nop

00000000000035f0 <delete_node>:

static void delete_node(void* ptr)
{
    int list = 0;
    size_t size = GET_SIZE(HDRP(ptr));
    35f0:	b85fc001 	ldur	w1, [x0, #-4]
    35f4:	121d7022 	and	w2, w1, #0xfffffff8
    35f8:	927d7021 	and	x1, x1, #0xfffffff8

    // Select segregated list
    while ((list < LISTLIMIT - 1) && (size > 1)) {
    35fc:	7100045f 	cmp	w2, #0x1
    int list = 0;
    3600:	52800002 	mov	w2, #0x0                   	// #0
    while ((list < LISTLIMIT - 1) && (size > 1)) {
    3604:	540000c9 	b.ls	361c <delete_node+0x2c>  // b.plast
        size >>= 1;
        list++;
    3608:	11000442 	add	w2, w2, #0x1
        size >>= 1;
    360c:	d341fc21 	lsr	x1, x1, #1
    while ((list < LISTLIMIT - 1) && (size > 1)) {
    3610:	7100485f 	cmp	w2, #0x12
    3614:	fa41d820 	ccmp	x1, #0x1, #0x0, le
    3618:	54ffff88 	b.hi	3608 <delete_node+0x18>  // b.pmore
    }

    if (PRED(ptr) != NULL) {
    361c:	f9400003 	ldr	x3, [x0]
        if (SUCC(ptr) != NULL) {
    3620:	f8404001 	ldur	x1, [x0, #4]
    if (PRED(ptr) != NULL) {
    3624:	b40001a3 	cbz	x3, 3658 <delete_node+0x68>
        if (SUCC(ptr) != NULL) {
    3628:	b40000c1 	cbz	x1, 3640 <delete_node+0x50>
            SET_PTR(SUCC_PTR(PRED(ptr)), SUCC(ptr));
    362c:	f8004061 	stur	x1, [x3, #4]
            SET_PTR(PRED_PTR(SUCC(ptr)), PRED(ptr));
    3630:	f8404001 	ldur	x1, [x0, #4]
    3634:	f9400000 	ldr	x0, [x0]
    3638:	f9000020 	str	x0, [x1]
            segregated_free_lists[list] = NULL;
        }
    }

    return;
}
    363c:	d65f03c0 	ret
            segregated_free_lists[list] = PRED(ptr);
    3640:	d0000041 	adrp	x1, d000 <__global_locale+0x20>
    3644:	91280021 	add	x1, x1, #0xa00
            SET_PTR(SUCC_PTR(PRED(ptr)), NULL);
    3648:	f800407f 	stur	xzr, [x3, #4]
            segregated_free_lists[list] = PRED(ptr);
    364c:	f9400000 	ldr	x0, [x0]
    3650:	f822d820 	str	x0, [x1, w2, sxtw #3]
}
    3654:	d65f03c0 	ret
        if (SUCC(ptr) != NULL) {
    3658:	b4000061 	cbz	x1, 3664 <delete_node+0x74>
            SET_PTR(PRED_PTR(SUCC(ptr)), NULL);
    365c:	f900003f 	str	xzr, [x1]
}
    3660:	d65f03c0 	ret
            segregated_free_lists[list] = NULL;
    3664:	d0000040 	adrp	x0, d000 <__global_locale+0x20>
    3668:	91280000 	add	x0, x0, #0xa00
    366c:	f822d81f 	str	xzr, [x0, w2, sxtw #3]
}
    3670:	d65f03c0 	ret
    3674:	d503201f 	nop
    3678:	d503201f 	nop
    367c:	d503201f 	nop

0000000000003680 <coalesce>:

static void* coalesce(void* ptr)
{
    3680:	aa0003e7 	mov	x7, x0
    size_t prev_alloc = GET_ALLOC(HDRP(PREV_BLKP(ptr)));
    3684:	b85f8000 	ldur	w0, [x0, #-8]
    3688:	927d7000 	and	x0, x0, #0xfffffff8
    368c:	cb0000e0 	sub	x0, x7, x0
    3690:	b85fc0e2 	ldur	w2, [x7, #-4]
    size_t next_alloc = GET_ALLOC(HDRP(NEXT_BLKP(ptr)));
    3694:	927d7045 	and	x5, x2, #0xfffffff8
    3698:	121d7044 	and	w4, w2, #0xfffffff8
    size_t prev_alloc = GET_ALLOC(HDRP(PREV_BLKP(ptr)));
    369c:	b85fc000 	ldur	w0, [x0, #-4]
    size_t next_alloc = GET_ALLOC(HDRP(NEXT_BLKP(ptr)));
    36a0:	8b0500e3 	add	x3, x7, x5
    36a4:	b85fc062 	ldur	w2, [x3, #-4]
    size_t size = GET_SIZE(HDRP(ptr));

    // Do not coalesce with previous block if the previous block is tagged with Reallocation tag
    if (GET_TAG(HDRP(PREV_BLKP(ptr))))
    36a8:	37080600 	tbnz	w0, #1, 3768 <coalesce+0xe8>
    size_t prev_alloc = GET_ALLOC(HDRP(PREV_BLKP(ptr)));
    36ac:	92400003 	and	x3, x0, #0x1
        prev_alloc = 1;

    if (prev_alloc && next_alloc) { // Case 1
    36b0:	72000041 	ands	w1, w2, #0x1
    36b4:	12000000 	and	w0, w0, #0x1
    36b8:	7a401804 	ccmp	w0, #0x0, #0x4, ne  // ne = any
    36bc:	54000601 	b.ne	377c <coalesce+0xfc>  // b.any
{
    36c0:	a9bf7bfd 	stp	x29, x30, [sp, #-16]!
        return ptr;
    } else if (prev_alloc && !next_alloc) { // Case 2
    36c4:	6a22001f 	bics	wzr, w0, w2
{
    36c8:	910003fd 	mov	x29, sp
    } else if (prev_alloc && !next_alloc) { // Case 2
    36cc:	540005c1 	b.ne	3784 <coalesce+0x104>  // b.any
        delete_node(ptr);
        delete_node(NEXT_BLKP(ptr));
        size += GET_SIZE(HDRP(NEXT_BLKP(ptr)));
        PUT(HDRP(ptr), PACK(size, 0));
        PUT(FTRP(ptr), PACK(size, 0));
    } else if (!prev_alloc && next_alloc) { // Case 3
    36d0:	52000063 	eor	w3, w3, #0x1
        delete_node(ptr);
    36d4:	aa0703e0 	mov	x0, x7
    } else if (!prev_alloc && next_alloc) { // Case 3
    36d8:	6a03003f 	tst	w1, w3
    36dc:	540008a0 	b.eq	37f0 <coalesce+0x170>  // b.none
        delete_node(ptr);
    36e0:	97ffffc4 	bl	35f0 <delete_node>
        delete_node(PREV_BLKP(ptr));
    36e4:	b85f80e0 	ldur	w0, [x7, #-8]
    36e8:	927d7000 	and	x0, x0, #0xfffffff8
    36ec:	cb0000e0 	sub	x0, x7, x0
    36f0:	97ffffc0 	bl	35f0 <delete_node>
        size += GET_SIZE(HDRP(PREV_BLKP(ptr)));
        PUT(FTRP(ptr), PACK(size, 0));
    36f4:	297f00e1 	ldp	w1, w0, [x7, #-8]
        size += GET_SIZE(HDRP(PREV_BLKP(ptr)));
    36f8:	92800063 	mov	x3, #0xfffffffffffffffc    	// #-4
    36fc:	927d7021 	and	x1, x1, #0xfffffff8
        PUT(FTRP(ptr), PACK(size, 0));
    3700:	927d7000 	and	x0, x0, #0xfffffff8
        size += GET_SIZE(HDRP(PREV_BLKP(ptr)));
    3704:	cb010061 	sub	x1, x3, x1
        PUT(FTRP(ptr), PACK(size, 0));
    3708:	d1002000 	sub	x0, x0, #0x8
    370c:	b86168e1 	ldr	w1, [x7, x1]
    3710:	b86068e6 	ldr	w6, [x7, x0]
    3714:	121d7022 	and	w2, w1, #0xfffffff8
        size += GET_SIZE(HDRP(PREV_BLKP(ptr)));
    3718:	927d7021 	and	x1, x1, #0xfffffff8
        PUT(FTRP(ptr), PACK(size, 0));
    371c:	0b020084 	add	w4, w4, w2
    3720:	121f00c6 	and	w6, w6, #0x2
    3724:	2a0400c6 	orr	w6, w6, w4
    3728:	b82068e6 	str	w6, [x7, x0]
        size += GET_SIZE(HDRP(PREV_BLKP(ptr)));
    372c:	8b050021 	add	x1, x1, x5
        PUT(HDRP(PREV_BLKP(ptr)), PACK(size, 0));
    3730:	b85f80e0 	ldur	w0, [x7, #-8]
    3734:	927d7000 	and	x0, x0, #0xfffffff8
    3738:	cb000060 	sub	x0, x3, x0
    373c:	b86068e2 	ldr	w2, [x7, x0]
    3740:	121f0042 	and	w2, w2, #0x2
        delete_node(ptr);
        delete_node(PREV_BLKP(ptr));
        delete_node(NEXT_BLKP(ptr));
        size += GET_SIZE(HDRP(PREV_BLKP(ptr))) + GET_SIZE(HDRP(NEXT_BLKP(ptr)));
        PUT(HDRP(PREV_BLKP(ptr)), PACK(size, 0));
        PUT(FTRP(NEXT_BLKP(ptr)), PACK(size, 0));
    3744:	2a020082 	orr	w2, w4, w2
    3748:	b82068e2 	str	w2, [x7, x0]
        ptr = PREV_BLKP(ptr);
    374c:	b85f80e0 	ldur	w0, [x7, #-8]
    3750:	927d7000 	and	x0, x0, #0xfffffff8
    3754:	cb0000e7 	sub	x7, x7, x0
    }

    insert_node(ptr, size);
    3758:	aa0703e0 	mov	x0, x7
    375c:	97ffff79 	bl	3540 <insert_node>

    return ptr;
}
    3760:	a8c17bfd 	ldp	x29, x30, [sp], #16
    3764:	d65f03c0 	ret
    if (prev_alloc && next_alloc) { // Case 1
    3768:	72000041 	ands	w1, w2, #0x1
    376c:	52800020 	mov	w0, #0x1                   	// #1
        prev_alloc = 1;
    3770:	d2800023 	mov	x3, #0x1                   	// #1
    if (prev_alloc && next_alloc) { // Case 1
    3774:	7a401804 	ccmp	w0, #0x0, #0x4, ne  // ne = any
    3778:	54fffa40 	b.eq	36c0 <coalesce+0x40>  // b.none
}
    377c:	aa0703e0 	mov	x0, x7
    3780:	d65f03c0 	ret
        delete_node(ptr);
    3784:	aa0703e0 	mov	x0, x7
    3788:	97ffff9a 	bl	35f0 <delete_node>
        delete_node(NEXT_BLKP(ptr));
    378c:	b85fc0e0 	ldur	w0, [x7, #-4]
    3790:	927d7000 	and	x0, x0, #0xfffffff8
    3794:	8b0000e0 	add	x0, x7, x0
    3798:	97ffff96 	bl	35f0 <delete_node>
        size += GET_SIZE(HDRP(NEXT_BLKP(ptr)));
    379c:	b85fc0e0 	ldur	w0, [x7, #-4]
    37a0:	927d7001 	and	x1, x0, #0xfffffff8
        PUT(HDRP(ptr), PACK(size, 0));
    37a4:	121f0000 	and	w0, w0, #0x2
        size += GET_SIZE(HDRP(NEXT_BLKP(ptr)));
    37a8:	8b0100e1 	add	x1, x7, x1
    37ac:	b85fc021 	ldur	w1, [x1, #-4]
    37b0:	121d7022 	and	w2, w1, #0xfffffff8
    37b4:	927d7021 	and	x1, x1, #0xfffffff8
        PUT(HDRP(ptr), PACK(size, 0));
    37b8:	0b020084 	add	w4, w4, w2
        size += GET_SIZE(HDRP(NEXT_BLKP(ptr)));
    37bc:	8b050021 	add	x1, x1, x5
        PUT(HDRP(ptr), PACK(size, 0));
    37c0:	2a040000 	orr	w0, w0, w4
    37c4:	b81fc0e0 	stur	w0, [x7, #-4]
        PUT(FTRP(ptr), PACK(size, 0));
    37c8:	927d7000 	and	x0, x0, #0xfffffff8
    37cc:	d1002000 	sub	x0, x0, #0x8
    37d0:	b86068e2 	ldr	w2, [x7, x0]
    37d4:	121f0042 	and	w2, w2, #0x2
    37d8:	2a040042 	orr	w2, w2, w4
    37dc:	b82068e2 	str	w2, [x7, x0]
    insert_node(ptr, size);
    37e0:	aa0703e0 	mov	x0, x7
    37e4:	97ffff57 	bl	3540 <insert_node>
}
    37e8:	a8c17bfd 	ldp	x29, x30, [sp], #16
    37ec:	d65f03c0 	ret
        delete_node(ptr);
    37f0:	97ffff80 	bl	35f0 <delete_node>
        delete_node(PREV_BLKP(ptr));
    37f4:	b85f80e0 	ldur	w0, [x7, #-8]
    37f8:	927d7000 	and	x0, x0, #0xfffffff8
    37fc:	cb0000e0 	sub	x0, x7, x0
    3800:	97ffff7c 	bl	35f0 <delete_node>
        delete_node(NEXT_BLKP(ptr));
    3804:	b85fc0e0 	ldur	w0, [x7, #-4]
    3808:	927d7000 	and	x0, x0, #0xfffffff8
    380c:	8b0000e0 	add	x0, x7, x0
    3810:	97ffff78 	bl	35f0 <delete_node>
        size += GET_SIZE(HDRP(PREV_BLKP(ptr))) + GET_SIZE(HDRP(NEXT_BLKP(ptr)));
    3814:	297f04e0 	ldp	w0, w1, [x7, #-8]
    3818:	92800063 	mov	x3, #0xfffffffffffffffc    	// #-4
    381c:	927d7000 	and	x0, x0, #0xfffffff8
    3820:	927d7021 	and	x1, x1, #0xfffffff8
    3824:	cb000063 	sub	x3, x3, x0
    3828:	8b0100e1 	add	x1, x7, x1
    382c:	b86368e0 	ldr	w0, [x7, x3]
    3830:	b85fc021 	ldur	w1, [x1, #-4]
    3834:	121d7002 	and	w2, w0, #0xfffffff8
        PUT(HDRP(PREV_BLKP(ptr)), PACK(size, 0));
    3838:	121f0000 	and	w0, w0, #0x2
        size += GET_SIZE(HDRP(PREV_BLKP(ptr))) + GET_SIZE(HDRP(NEXT_BLKP(ptr)));
    383c:	121d7021 	and	w1, w1, #0xfffffff8
    3840:	0b020021 	add	w1, w1, w2
        PUT(HDRP(PREV_BLKP(ptr)), PACK(size, 0));
    3844:	0b040022 	add	w2, w1, w4
    3848:	2a020000 	orr	w0, w0, w2
    384c:	b82368e0 	str	w0, [x7, x3]
        size += GET_SIZE(HDRP(PREV_BLKP(ptr))) + GET_SIZE(HDRP(NEXT_BLKP(ptr)));
    3850:	8b2140a1 	add	x1, x5, w1, uxtw
        PUT(FTRP(NEXT_BLKP(ptr)), PACK(size, 0));
    3854:	b85fc0e0 	ldur	w0, [x7, #-4]
    3858:	927d7000 	and	x0, x0, #0xfffffff8
    385c:	8b0000e4 	add	x4, x7, x0
    3860:	d1002003 	sub	x3, x0, #0x8
    3864:	b85fc080 	ldur	w0, [x4, #-4]
    3868:	927d7000 	and	x0, x0, #0xfffffff8
    386c:	8b030000 	add	x0, x0, x3
    3870:	b86068e4 	ldr	w4, [x7, x0]
    3874:	121f0084 	and	w4, w4, #0x2
    3878:	17ffffb3 	b	3744 <coalesce+0xc4>
    387c:	d503201f 	nop

0000000000003880 <mem_sbrk>:
{
    3880:	a9be7bfd 	stp	x29, x30, [sp, #-32]!
    3884:	910003fd 	mov	x29, sp
    3888:	a90153f3 	stp	x19, x20, [sp, #16]
    uintptr_t userland_heap_size = userland_heap_top - userland_heap_base;
    388c:	d0000053 	adrp	x19, d000 <__global_locale+0x20>
    3890:	91280273 	add	x19, x19, #0xa00
{
    3894:	aa0003f4 	mov	x20, x0
    uintptr_t userland_heap_size = userland_heap_top - userland_heap_base;
    3898:	a94a0660 	ldp	x0, x1, [x19, #160]
    if (userland_heap_size - requested_heap_size >= size) {
    389c:	f9405a62 	ldr	x2, [x19, #176]
    38a0:	8b020021 	add	x1, x1, x2
    38a4:	cb010003 	sub	x3, x0, x1
    38a8:	eb03029f 	cmp	x20, x3
    38ac:	540001a9 	b.ls	38e0 <mem_sbrk+0x60>  // b.plast
    uintptr_t size_needed = size - (userland_heap_size - requested_heap_size);
    38b0:	cb000282 	sub	x2, x20, x0
    userland_heap_top = mmap(userland_heap_top, (uintptr_t)NULL, size_needed, false);
    38b4:	52800003 	mov	w3, #0x0                   	// #0
    38b8:	0b020022 	add	w2, w1, w2
    38bc:	d2800001 	mov	x1, #0x0                   	// #0
    38c0:	97fffed4 	bl	3410 <mmap>
    38c4:	93407c00 	sxtw	x0, w0
    if (userland_heap_size - requested_heap_size >= size) {
    38c8:	a94a8a61 	ldp	x1, x2, [x19, #168]
    userland_heap_top = mmap(userland_heap_top, (uintptr_t)NULL, size_needed, false);
    38cc:	f9005260 	str	x0, [x19, #160]
    if (userland_heap_size - requested_heap_size >= size) {
    38d0:	8b020021 	add	x1, x1, x2
    38d4:	cb010003 	sub	x3, x0, x1
    38d8:	eb14007f 	cmp	x3, x20
    38dc:	54fffea3 	b.cc	38b0 <mem_sbrk+0x30>  // b.lo, b.ul, b.last
        requested_heap_size += size;
    38e0:	8b020294 	add	x20, x20, x2
}
    38e4:	aa0103e0 	mov	x0, x1
        requested_heap_size += size;
    38e8:	f9005a74 	str	x20, [x19, #176]
}
    38ec:	a94153f3 	ldp	x19, x20, [sp, #16]
    38f0:	a8c27bfd 	ldp	x29, x30, [sp], #32
    38f4:	d65f03c0 	ret
    38f8:	d503201f 	nop
    38fc:	d503201f 	nop

0000000000003900 <mm_init>:
    return ptr;
}

static bool malloc_inited = false;
int mm_init(void)
{
    3900:	a9be7bfd 	stp	x29, x30, [sp, #-32]!
    3904:	910003fd 	mov	x29, sp
    3908:	f9000bf3 	str	x19, [sp, #16]
    // init heap
    userland_heap_base = task_heap_base();
    390c:	d0000053 	adrp	x19, d000 <__global_locale+0x20>
    3910:	91280273 	add	x19, x19, #0xa00
    3914:	97fffe9f 	bl	3390 <task_heap_base>
    3918:	aa1303e1 	mov	x1, x19
    391c:	91028262 	add	x2, x19, #0xa0
    3920:	93407c00 	sxtw	x0, w0
    3924:	a90a0260 	stp	x0, x0, [x19, #160]
    userland_heap_top = userland_heap_base;
    requested_heap_size = 0;
    3928:	f9005a7f 	str	xzr, [x19, #176]

    int list;
    char* heap_start; // Pointer to beginning of heap

    // Initialize segregated free lists
    for (list = 0; list < LISTLIMIT; list++) {
    392c:	d503201f 	nop
        segregated_free_lists[list] = NULL;
    3930:	f800843f 	str	xzr, [x1], #8
    for (list = 0; list < LISTLIMIT; list++) {
    3934:	eb02003f 	cmp	x1, x2
    3938:	54ffffc1 	b.ne	3930 <mm_init+0x30>  // b.any
    }

    // Allocate memory for the initial empty heap
    if ((long)(heap_start = mem_sbrk(4 * WSIZE)) == -1)
    393c:	d2800200 	mov	x0, #0x10                  	// #16
    3940:	97ffffd0 	bl	3880 <mem_sbrk>
    3944:	aa0003e1 	mov	x1, x0
    3948:	b100041f 	cmn	x0, #0x1
    394c:	54000300 	b.eq	39ac <mm_init+0xac>  // b.none
        return -1;

    PUT_NOTAG(heap_start, 0); /* Alignment padding */
    PUT_NOTAG(heap_start + (1 * WSIZE), PACK(DSIZE, 1)); /* Prologue header */
    PUT_NOTAG(heap_start + (2 * WSIZE), PACK(DSIZE, 1)); /* Prologue footer */
    3950:	d2800122 	mov	x2, #0x9                   	// #9
    PUT_NOTAG(heap_start, 0); /* Alignment padding */
    3954:	d2c00120 	mov	x0, #0x900000000           	// #38654705664
    PUT_NOTAG(heap_start + (2 * WSIZE), PACK(DSIZE, 1)); /* Prologue footer */
    3958:	f2c00022 	movk	x2, #0x1, lsl #32
    395c:	a9000820 	stp	x0, x2, [x1]
    if ((ptr = mem_sbrk(asize)) == (void*)-1)
    3960:	d2800800 	mov	x0, #0x40                  	// #64
    3964:	97ffffc7 	bl	3880 <mem_sbrk>
    3968:	b100041f 	cmn	x0, #0x1
    396c:	54000200 	b.eq	39ac <mm_init+0xac>  // b.none
    PUT_NOTAG(FTRP(ptr), PACK(asize, 0));
    3970:	d2800803 	mov	x3, #0x40                  	// #64
    PUT_NOTAG(HDRP(ptr), PACK(asize, 0));
    3974:	52800804 	mov	w4, #0x40                  	// #64
    PUT_NOTAG(FTRP(ptr), PACK(asize, 0));
    3978:	f2c00023 	movk	x3, #0x1, lsl #32
    insert_node(ptr, asize);
    397c:	d2800801 	mov	x1, #0x40                  	// #64
    PUT_NOTAG(HDRP(ptr), PACK(asize, 0));
    3980:	b81fc004 	stur	w4, [x0, #-4]
    PUT_NOTAG(FTRP(ptr), PACK(asize, 0));
    3984:	f9001c03 	str	x3, [x0, #56]
    insert_node(ptr, asize);
    3988:	97fffeee 	bl	3540 <insert_node>
    return coalesce(ptr);
    398c:	97ffff3d 	bl	3680 <coalesce>
    PUT_NOTAG(heap_start + (3 * WSIZE), PACK(0, 1)); /* Epilogue header */

    if (extend_heap(INITCHUNKSIZE) == NULL)
    3990:	b40000e0 	cbz	x0, 39ac <mm_init+0xac>
        return -1;

    malloc_inited = true;
    3994:	52800021 	mov	w1, #0x1                   	// #1
    return 0;
    3998:	52800000 	mov	w0, #0x0                   	// #0
    malloc_inited = true;
    399c:	3902e261 	strb	w1, [x19, #184]
}
    39a0:	f9400bf3 	ldr	x19, [sp, #16]
    39a4:	a8c27bfd 	ldp	x29, x30, [sp], #32
    39a8:	d65f03c0 	ret
        return -1;
    39ac:	12800000 	mov	w0, #0xffffffff            	// #-1
}
    39b0:	f9400bf3 	ldr	x19, [sp, #16]
    39b4:	a8c27bfd 	ldp	x29, x30, [sp], #32
    39b8:	d65f03c0 	ret
    39bc:	d503201f 	nop

00000000000039c0 <malloc>:

void* malloc(size_t size)
{
    39c0:	a9bd7bfd 	stp	x29, x30, [sp, #-48]!
    39c4:	910003fd 	mov	x29, sp
    39c8:	a90153f3 	stp	x19, x20, [sp, #16]
    while (!malloc_inited) {
    39cc:	d0000054 	adrp	x20, d000 <__global_locale+0x20>
    39d0:	91280294 	add	x20, x20, #0xa00
{
    39d4:	aa0003f3 	mov	x19, x0
    while (!malloc_inited) {
    39d8:	3942e280 	ldrb	w0, [x20, #184]
    39dc:	35000080 	cbnz	w0, 39ec <malloc+0x2c>
        mm_init();
    39e0:	97ffffc8 	bl	3900 <mm_init>
    while (!malloc_inited) {
    39e4:	3942e281 	ldrb	w1, [x20, #184]
    39e8:	34ffffc1 	cbz	w1, 39e0 <malloc+0x20>
    size_t asize; /* Adjusted block size */
    size_t extendsize; /* Amount to extend heap if no fit */
    void* ptr = NULL; /* Pointer */

    // Ignore size 0 cases
    if (size == 0)
    39ec:	b4000e73 	cbz	x19, 3bb8 <malloc+0x1f8>

    // Align block size
    if (size <= DSIZE) {
        asize = 2 * DSIZE;
    } else {
        asize = ALIGN(size + DSIZE);
    39f0:	91003e60 	add	x0, x19, #0xf
    39f4:	f100227f 	cmp	x19, #0x8
    39f8:	927df013 	and	x19, x0, #0xfffffffffffffff8
    39fc:	d2800200 	mov	x0, #0x10                  	// #16
    3a00:	9a808273 	csel	x19, x19, x0, hi  // hi = pmore
        asize = 2 * DSIZE;
    3a04:	d2800002 	mov	x2, #0x0                   	// #0
    3a08:	aa1303e3 	mov	x3, x19
    3a0c:	14000005 	b	3a20 <malloc+0x60>
    }

    int list = 0;
    size_t searchsize = asize;
    // Search for free block in segregated list
    while (list < LISTLIMIT) {
    3a10:	91000442 	add	x2, x2, #0x1
            }
            if (ptr != NULL)
                break;
        }

        searchsize >>= 1;
    3a14:	d341fc63 	lsr	x3, x3, #1
    while (list < LISTLIMIT) {
    3a18:	f100505f 	cmp	x2, #0x14
    3a1c:	54000720 	b.eq	3b00 <malloc+0x140>  // b.none
        if ((list == LISTLIMIT - 1) || ((searchsize <= 1) && (segregated_free_lists[list] != NULL))) {
    3a20:	f1004c5f 	cmp	x2, #0x13
    3a24:	540006a0 	b.eq	3af8 <malloc+0x138>  // b.none
    3a28:	f100047f 	cmp	x3, #0x1
    3a2c:	54ffff28 	b.hi	3a10 <malloc+0x50>  // b.pmore
    3a30:	f8627a87 	ldr	x7, [x20, x2, lsl #3]
    3a34:	b4fffee7 	cbz	x7, 3a10 <malloc+0x50>
    3a38:	14000003 	b	3a44 <malloc+0x84>
                ptr = PRED(ptr);
    3a3c:	f94000e7 	ldr	x7, [x7]
            while ((ptr != NULL) && ((asize > GET_SIZE(HDRP(ptr))) || (GET_TAG(HDRP(ptr))))) {
    3a40:	b4fffe87 	cbz	x7, 3a10 <malloc+0x50>
    3a44:	b85fc0e0 	ldur	w0, [x7, #-4]
    3a48:	927d7001 	and	x1, x0, #0xfffffff8
    3a4c:	121d7005 	and	w5, w0, #0xfffffff8
    3a50:	eb13003f 	cmp	x1, x19
    3a54:	54ffff43 	b.cc	3a3c <malloc+0x7c>  // b.lo, b.ul, b.last
    3a58:	370fff20 	tbnz	w0, #1, 3a3c <malloc+0x7c>
    size_t remainder = ptr_size - asize;
    3a5c:	cb130024 	sub	x4, x1, x19
    delete_node(ptr);
    3a60:	aa0703e0 	mov	x0, x7
    3a64:	97fffee3 	bl	35f0 <delete_node>
        PUT(HDRP(ptr), PACK(ptr_size, 1));
    3a68:	b85fc0e0 	ldur	w0, [x7, #-4]
    if (remainder <= DSIZE * 2) {
    3a6c:	f100409f 	cmp	x4, #0x10
    3a70:	54000849 	b.ls	3b78 <malloc+0x1b8>  // b.plast
    else if (asize >= 100) {
    3a74:	f1018e7f 	cmp	x19, #0x63
        PUT(HDRP(ptr), PACK(ptr_size, 1));
    3a78:	121f0000 	and	w0, w0, #0x2
    else if (asize >= 100) {
    3a7c:	54000a88 	b.hi	3bcc <malloc+0x20c>  // b.pmore
        PUT(HDRP(ptr), PACK(asize, 1));
    3a80:	2a130000 	orr	w0, w0, w19
        insert_node(NEXT_BLKP(ptr), remainder);
    3a84:	aa0403e1 	mov	x1, x4
        PUT(FTRP(ptr), PACK(asize, 1));
    3a88:	927d7002 	and	x2, x0, #0xfffffff8
        PUT(HDRP(ptr), PACK(asize, 1));
    3a8c:	32000000 	orr	w0, w0, #0x1
        PUT(FTRP(ptr), PACK(asize, 1));
    3a90:	d1002042 	sub	x2, x2, #0x8
        PUT(HDRP(ptr), PACK(asize, 1));
    3a94:	b81fc0e0 	stur	w0, [x7, #-4]
        PUT(FTRP(ptr), PACK(asize, 1));
    3a98:	b86268e0 	ldr	w0, [x7, x2]
    3a9c:	121f0000 	and	w0, w0, #0x2
    3aa0:	2a130000 	orr	w0, w0, w19
    3aa4:	32000000 	orr	w0, w0, #0x1
    3aa8:	b82268e0 	str	w0, [x7, x2]
        PUT_NOTAG(HDRP(NEXT_BLKP(ptr)), PACK(remainder, 0));
    3aac:	b85fc0e0 	ldur	w0, [x7, #-4]
    3ab0:	927d7000 	and	x0, x0, #0xfffffff8
    3ab4:	8b0000e0 	add	x0, x7, x0
    3ab8:	b81fc004 	stur	w4, [x0, #-4]
        PUT_NOTAG(FTRP(NEXT_BLKP(ptr)), PACK(remainder, 0));
    3abc:	b85fc0e0 	ldur	w0, [x7, #-4]
    3ac0:	927d7000 	and	x0, x0, #0xfffffff8
    3ac4:	8b0000e0 	add	x0, x7, x0
    3ac8:	b85fc002 	ldur	w2, [x0, #-4]
    3acc:	927d7042 	and	x2, x2, #0xfffffff8
    3ad0:	8b020000 	add	x0, x0, x2
    3ad4:	b81f8004 	stur	w4, [x0, #-8]
        insert_node(NEXT_BLKP(ptr), remainder);
    3ad8:	b85fc0e0 	ldur	w0, [x7, #-4]
    3adc:	927d7000 	and	x0, x0, #0xfffffff8
    3ae0:	8b0000e0 	add	x0, x7, x0
    3ae4:	97fffe97 	bl	3540 <insert_node>
    // Place and divide block
    ptr = place(ptr, asize);

    // Return pointer to newly allocated block
    return ptr;
}
    3ae8:	aa0703e0 	mov	x0, x7
    3aec:	a94153f3 	ldp	x19, x20, [sp, #16]
    3af0:	a8c37bfd 	ldp	x29, x30, [sp], #48
    3af4:	d65f03c0 	ret
            ptr = segregated_free_lists[list];
    3af8:	f9404e87 	ldr	x7, [x20, #152]
            while ((ptr != NULL) && ((asize > GET_SIZE(HDRP(ptr))) || (GET_TAG(HDRP(ptr))))) {
    3afc:	b5fffa47 	cbnz	x7, 3a44 <malloc+0x84>
        extendsize = MAX(asize, CHUNKSIZE);
    3b00:	f140067f 	cmp	x19, #0x1, lsl #12
    3b04:	d2820000 	mov	x0, #0x1000                	// #4096
    3b08:	9a802260 	csel	x0, x19, x0, cs  // cs = hs, nlast
    3b0c:	f90013f5 	str	x21, [sp, #32]
    asize = ALIGN(size);
    3b10:	91001c14 	add	x20, x0, #0x7
    3b14:	aa0003f5 	mov	x21, x0
    if ((ptr = mem_sbrk(asize)) == (void*)-1)
    3b18:	97ffff5a 	bl	3880 <mem_sbrk>
    3b1c:	aa0003e3 	mov	x3, x0
    3b20:	b100041f 	cmn	x0, #0x1
    3b24:	54000480 	b.eq	3bb4 <malloc+0x1f4>  // b.none
    PUT_NOTAG(HDRP(ptr), PACK(asize, 0));
    3b28:	927d7282 	and	x2, x20, #0xfffffff8
    insert_node(ptr, asize);
    3b2c:	aa1503e1 	mov	x1, x21
    PUT_NOTAG(FTRP(ptr), PACK(asize, 0));
    3b30:	8b020062 	add	x2, x3, x2
    PUT_NOTAG(HDRP(ptr), PACK(asize, 0));
    3b34:	b81fc075 	stur	w21, [x3, #-4]
    PUT_NOTAG(HDRP(NEXT_BLKP(ptr)), PACK(0, 1));
    3b38:	52800023 	mov	w3, #0x1                   	// #1
    3b3c:	293f0c55 	stp	w21, w3, [x2, #-8]
    insert_node(ptr, asize);
    3b40:	97fffe80 	bl	3540 <insert_node>
    return coalesce(ptr);
    3b44:	97fffecf 	bl	3680 <coalesce>
    3b48:	aa0003e7 	mov	x7, x0
        if ((ptr = extend_heap(extendsize)) == NULL)
    3b4c:	b4000340 	cbz	x0, 3bb4 <malloc+0x1f4>
    3b50:	b85fc001 	ldur	w1, [x0, #-4]
    delete_node(ptr);
    3b54:	aa0703e0 	mov	x0, x7
    size_t ptr_size = GET_SIZE(HDRP(ptr));
    3b58:	f94013f5 	ldr	x21, [sp, #32]
    size_t remainder = ptr_size - asize;
    3b5c:	121d7025 	and	w5, w1, #0xfffffff8
    size_t ptr_size = GET_SIZE(HDRP(ptr));
    3b60:	927d7021 	and	x1, x1, #0xfffffff8
    size_t remainder = ptr_size - asize;
    3b64:	cb130024 	sub	x4, x1, x19
    delete_node(ptr);
    3b68:	97fffea2 	bl	35f0 <delete_node>
        PUT(HDRP(ptr), PACK(ptr_size, 1));
    3b6c:	b85fc0e0 	ldur	w0, [x7, #-4]
    if (remainder <= DSIZE * 2) {
    3b70:	f100409f 	cmp	x4, #0x10
    3b74:	54fff808 	b.hi	3a74 <malloc+0xb4>  // b.pmore
        PUT(HDRP(ptr), PACK(ptr_size, 1));
    3b78:	121f0000 	and	w0, w0, #0x2
    3b7c:	2a050000 	orr	w0, w0, w5
        PUT(FTRP(ptr), PACK(ptr_size, 1));
    3b80:	927d7001 	and	x1, x0, #0xfffffff8
        PUT(HDRP(ptr), PACK(ptr_size, 1));
    3b84:	32000000 	orr	w0, w0, #0x1
        PUT(FTRP(ptr), PACK(ptr_size, 1));
    3b88:	d1002021 	sub	x1, x1, #0x8
        PUT(HDRP(ptr), PACK(ptr_size, 1));
    3b8c:	b81fc0e0 	stur	w0, [x7, #-4]
        PUT(FTRP(ptr), PACK(ptr_size, 1));
    3b90:	b86168e0 	ldr	w0, [x7, x1]
    3b94:	121f0000 	and	w0, w0, #0x2
    3b98:	2a050000 	orr	w0, w0, w5
    3b9c:	32000000 	orr	w0, w0, #0x1
    3ba0:	b82168e0 	str	w0, [x7, x1]
}
    3ba4:	aa0703e0 	mov	x0, x7
    3ba8:	a94153f3 	ldp	x19, x20, [sp, #16]
    3bac:	a8c37bfd 	ldp	x29, x30, [sp], #48
    3bb0:	d65f03c0 	ret
    3bb4:	f94013f5 	ldr	x21, [sp, #32]
        return NULL;
    3bb8:	d2800007 	mov	x7, #0x0                   	// #0
}
    3bbc:	aa0703e0 	mov	x0, x7
    3bc0:	a94153f3 	ldp	x19, x20, [sp, #16]
    3bc4:	a8c37bfd 	ldp	x29, x30, [sp], #48
    3bc8:	d65f03c0 	ret
        PUT(HDRP(ptr), PACK(remainder, 0));
    3bcc:	2a040000 	orr	w0, w0, w4
    3bd0:	b81fc0e0 	stur	w0, [x7, #-4]
        PUT(FTRP(ptr), PACK(remainder, 0));
    3bd4:	927d7000 	and	x0, x0, #0xfffffff8
        PUT_NOTAG(HDRP(NEXT_BLKP(ptr)), PACK(asize, 1));
    3bd8:	32000273 	orr	w19, w19, #0x1
        PUT(FTRP(ptr), PACK(remainder, 0));
    3bdc:	d1002002 	sub	x2, x0, #0x8
        insert_node(ptr, remainder);
    3be0:	aa0703e0 	mov	x0, x7
    3be4:	aa0403e1 	mov	x1, x4
        PUT(FTRP(ptr), PACK(remainder, 0));
    3be8:	b86268e3 	ldr	w3, [x7, x2]
    3bec:	121f0063 	and	w3, w3, #0x2
    3bf0:	2a040063 	orr	w3, w3, w4
    3bf4:	b82268e3 	str	w3, [x7, x2]
        PUT_NOTAG(HDRP(NEXT_BLKP(ptr)), PACK(asize, 1));
    3bf8:	b85fc0e2 	ldur	w2, [x7, #-4]
    3bfc:	927d7042 	and	x2, x2, #0xfffffff8
    3c00:	8b0200e2 	add	x2, x7, x2
    3c04:	b81fc053 	stur	w19, [x2, #-4]
        PUT_NOTAG(FTRP(NEXT_BLKP(ptr)), PACK(asize, 1));
    3c08:	b85fc0e2 	ldur	w2, [x7, #-4]
    3c0c:	927d7042 	and	x2, x2, #0xfffffff8
    3c10:	8b0200e2 	add	x2, x7, x2
    3c14:	b85fc043 	ldur	w3, [x2, #-4]
    3c18:	927d7063 	and	x3, x3, #0xfffffff8
    3c1c:	8b030042 	add	x2, x2, x3
    3c20:	b81f8053 	stur	w19, [x2, #-8]
        insert_node(ptr, remainder);
    3c24:	97fffe47 	bl	3540 <insert_node>
        return NEXT_BLKP(ptr);
    3c28:	b85fc0e0 	ldur	w0, [x7, #-4]
}
    3c2c:	a94153f3 	ldp	x19, x20, [sp, #16]
        return NEXT_BLKP(ptr);
    3c30:	927d7000 	and	x0, x0, #0xfffffff8
    3c34:	8b0000e7 	add	x7, x7, x0
}
    3c38:	aa0703e0 	mov	x0, x7
    3c3c:	a8c37bfd 	ldp	x29, x30, [sp], #48
    3c40:	d65f03c0 	ret
    3c44:	d503201f 	nop
    3c48:	d503201f 	nop
    3c4c:	d503201f 	nop

0000000000003c50 <free>:

void free(void* ptr)
{
    3c50:	a9bf7bfd 	stp	x29, x30, [sp, #-16]!
    3c54:	910003fd 	mov	x29, sp
    3c58:	b85fc004 	ldur	w4, [x0, #-4]
    size_t size = GET_SIZE(HDRP(ptr));
    3c5c:	927d7081 	and	x1, x4, #0xfffffff8

    REMOVE_RATAG(HDRP(NEXT_BLKP(ptr)));
    3c60:	121d7085 	and	w5, w4, #0xfffffff8
    3c64:	d1001024 	sub	x4, x1, #0x4
    3c68:	b8646802 	ldr	w2, [x0, x4]
    3c6c:	121e7842 	and	w2, w2, #0xfffffffd
    3c70:	b8246802 	str	w2, [x0, x4]
    PUT(HDRP(ptr), PACK(size, 0));
    3c74:	b85fc002 	ldur	w2, [x0, #-4]
    3c78:	121f0042 	and	w2, w2, #0x2
    3c7c:	2a050042 	orr	w2, w2, w5
    3c80:	b81fc002 	stur	w2, [x0, #-4]
    PUT(FTRP(ptr), PACK(size, 0));
    3c84:	927d7042 	and	x2, x2, #0xfffffff8
    3c88:	d1002042 	sub	x2, x2, #0x8
    3c8c:	b8626804 	ldr	w4, [x0, x2]
    3c90:	121f0084 	and	w4, w4, #0x2
    3c94:	2a050084 	orr	w4, w4, w5
    3c98:	b8226804 	str	w4, [x0, x2]

    insert_node(ptr, size);
    3c9c:	97fffe29 	bl	3540 <insert_node>
    coalesce(ptr);

    return;
}
    3ca0:	a8c17bfd 	ldp	x29, x30, [sp], #16
    coalesce(ptr);
    3ca4:	17fffe77 	b	3680 <coalesce>
    3ca8:	d503201f 	nop
    3cac:	d503201f 	nop

0000000000003cb0 <_exit>:
#include <sys/types.h>

// _exit: 
void _exit(int status)
{
    while (1) { }
    3cb0:	14000000 	b	3cb0 <_exit>
    3cb4:	d503201f 	nop
    3cb8:	d503201f 	nop
    3cbc:	d503201f 	nop

0000000000003cc0 <_sbrk>:
{
    extern char end; /* Defined by the linker */
    static char* heap_end;
    char* prev_heap_end;

    if (heap_end == 0) {
    3cc0:	d0000043 	adrp	x3, d000 <__global_locale+0x20>
    3cc4:	f9456061 	ldr	x1, [x3, #2752]
    3cc8:	d0000042 	adrp	x2, d000 <__global_locale+0x20>
    3ccc:	91372042 	add	x2, x2, #0xdc8
    3cd0:	f100003f 	cmp	x1, #0x0
    3cd4:	9a810041 	csel	x1, x2, x1, eq  // eq = none
    prev_heap_end = heap_end;

    // 
    //  incr 

    heap_end += incr;
    3cd8:	8b000022 	add	x2, x1, x0
    return (void*)prev_heap_end;
}
    3cdc:	aa0103e0 	mov	x0, x1
    heap_end += incr;
    3ce0:	f9056062 	str	x2, [x3, #2752]
}
    3ce4:	d65f03c0 	ret
    3ce8:	d503201f 	nop
    3cec:	d503201f 	nop

0000000000003cf0 <_write>:

// _write: 
ssize_t _write(int file, const void* ptr, size_t len)
{
    3cf0:	aa0203e0 	mov	x0, x2
    // 
    // 

    return len; // 
}
    3cf4:	d65f03c0 	ret
    3cf8:	d503201f 	nop
    3cfc:	d503201f 	nop

0000000000003d00 <_close>:

// _close: 
int _close(int file)
{
    return -1; // 
}
    3d00:	12800000 	mov	w0, #0xffffffff            	// #-1
    3d04:	d65f03c0 	ret
    3d08:	d503201f 	nop
    3d0c:	d503201f 	nop

0000000000003d10 <_fstat>:

// _fstat: 
int _fstat(int file, struct stat* st)
{
    return 0; // 
}
    3d10:	52800000 	mov	w0, #0x0                   	// #0
    3d14:	d65f03c0 	ret
    3d18:	d503201f 	nop
    3d1c:	d503201f 	nop

0000000000003d20 <_isatty>:

// _isatty: TTY
int _isatty(int file)
{
    return 1; // TTY
}
    3d20:	52800020 	mov	w0, #0x1                   	// #1
    3d24:	d65f03c0 	ret
    3d28:	d503201f 	nop
    3d2c:	d503201f 	nop

0000000000003d30 <_lseek>:

// _lseek: /
off_t _lseek(int file, off_t offset, int whence)
{
    return -1; // 
}
    3d30:	92800000 	mov	x0, #0xffffffffffffffff    	// #-1
    3d34:	d65f03c0 	ret
    3d38:	d503201f 	nop
    3d3c:	d503201f 	nop

0000000000003d40 <_read>:

// _read: 
ssize_t _read(int file, void* ptr, size_t len)
{
    return 0; // 
}
    3d40:	d2800000 	mov	x0, #0x0                   	// #0
    3d44:	d65f03c0 	ret
    3d48:	d503201f 	nop
    3d4c:	d503201f 	nop

0000000000003d50 <_kill>:

// _kill: 
int _kill(int pid, int sig)
{
    return -1; // 
}
    3d50:	12800000 	mov	w0, #0xffffffff            	// #-1
    3d54:	d65f03c0 	ret
    3d58:	d503201f 	nop
    3d5c:	d503201f 	nop

0000000000003d60 <_getpid>:

// _getpid: ID
int _getpid()
{
    return 1; // ID
}
    3d60:	52800020 	mov	w0, #0x1                   	// #1
    3d64:	d65f03c0 	ret
    3d68:	d503201f 	nop
    3d6c:	d503201f 	nop

0000000000003d70 <__assert_func>:
    3d70:	a9bf7bfd 	stp	x29, x30, [sp, #-16]!
    3d74:	b0000044 	adrp	x4, c000 <__func__.0+0x28>
    3d78:	aa0003e7 	mov	x7, x0
    3d7c:	910003fd 	mov	x29, sp
    3d80:	f9443885 	ldr	x5, [x4, #2160]
    3d84:	aa0203e6 	mov	x6, x2
    3d88:	2a0103e4 	mov	w4, w1
    3d8c:	aa0303e2 	mov	x2, x3
    3d90:	f9400ca0 	ldr	x0, [x5, #24]
    3d94:	b4000106 	cbz	x6, 3db4 <__assert_func+0x44>
    3d98:	b0000045 	adrp	x5, c000 <__func__.0+0x28>
    3d9c:	910560a5 	add	x5, x5, #0x158
    3da0:	aa0703e3 	mov	x3, x7
    3da4:	b0000041 	adrp	x1, c000 <__func__.0+0x28>
    3da8:	9105a021 	add	x1, x1, #0x168
    3dac:	94000049 	bl	3ed0 <fiprintf>
    3db0:	94000a00 	bl	65b0 <abort>
    3db4:	90000045 	adrp	x5, b000 <_wcsnrtombs_l+0x130>
    3db8:	913c00a5 	add	x5, x5, #0xf00
    3dbc:	aa0503e6 	mov	x6, x5
    3dc0:	17fffff8 	b	3da0 <__assert_func+0x30>
    3dc4:	d503201f 	nop
    3dc8:	d503201f 	nop
    3dcc:	d503201f 	nop

0000000000003dd0 <__assert>:
    3dd0:	a9bf7bfd 	stp	x29, x30, [sp, #-16]!
    3dd4:	aa0203e3 	mov	x3, x2
    3dd8:	d2800002 	mov	x2, #0x0                   	// #0
    3ddc:	910003fd 	mov	x29, sp
    3de0:	97ffffe4 	bl	3d70 <__assert_func>
    3de4:	d503201f 	nop
    3de8:	d503201f 	nop
    3dec:	d503201f 	nop

0000000000003df0 <atexit>:
    3df0:	aa0003e1 	mov	x1, x0
    3df4:	d2800003 	mov	x3, #0x0                   	// #0
    3df8:	d2800002 	mov	x2, #0x0                   	// #0
    3dfc:	52800000 	mov	w0, #0x0                   	// #0
    3e00:	140009f4 	b	65d0 <__register_exitproc>
    3e04:	d503201f 	nop
    3e08:	d503201f 	nop
    3e0c:	d503201f 	nop

0000000000003e10 <__libc_fini_array>:
    3e10:	a9be7bfd 	stp	x29, x30, [sp, #-32]!
    3e14:	b0000041 	adrp	x1, c000 <__func__.0+0x28>
    3e18:	b0000040 	adrp	x0, c000 <__func__.0+0x28>
    3e1c:	910003fd 	mov	x29, sp
    3e20:	a90153f3 	stp	x19, x20, [sp, #16]
    3e24:	f940cc33 	ldr	x19, [x1, #408]
    3e28:	f940d014 	ldr	x20, [x0, #416]
    3e2c:	cb140273 	sub	x19, x19, x20
    3e30:	9343fe73 	asr	x19, x19, #3
    3e34:	b40000b3 	cbz	x19, 3e48 <__libc_fini_array+0x38>
    3e38:	d1000673 	sub	x19, x19, #0x1
    3e3c:	f8737a80 	ldr	x0, [x20, x19, lsl #3]
    3e40:	d63f0000 	blr	x0
    3e44:	b5ffffb3 	cbnz	x19, 3e38 <__libc_fini_array+0x28>
    3e48:	a94153f3 	ldp	x19, x20, [sp, #16]
    3e4c:	a8c27bfd 	ldp	x29, x30, [sp], #32
    3e50:	14001f99 	b	bcb4 <_fini>
    3e54:	d503201f 	nop
    3e58:	d503201f 	nop
    3e5c:	d503201f 	nop

0000000000003e60 <_fiprintf_r>:
    3e60:	a9b07bfd 	stp	x29, x30, [sp, #-256]!
    3e64:	128004e9 	mov	w9, #0xffffffd8            	// #-40
    3e68:	12800fe8 	mov	w8, #0xffffff80            	// #-128
    3e6c:	910003fd 	mov	x29, sp
    3e70:	910343ea 	add	x10, sp, #0xd0
    3e74:	910403eb 	add	x11, sp, #0x100
    3e78:	a9032feb 	stp	x11, x11, [sp, #48]
    3e7c:	f90023ea 	str	x10, [sp, #64]
    3e80:	290923e9 	stp	w9, w8, [sp, #72]
    3e84:	a9432fea 	ldp	x10, x11, [sp, #48]
    3e88:	a9012fea 	stp	x10, x11, [sp, #16]
    3e8c:	a94427e8 	ldp	x8, x9, [sp, #64]
    3e90:	a90227e8 	stp	x8, x9, [sp, #32]
    3e94:	3d8017e0 	str	q0, [sp, #80]
    3e98:	3d801be1 	str	q1, [sp, #96]
    3e9c:	3d801fe2 	str	q2, [sp, #112]
    3ea0:	3d8023e3 	str	q3, [sp, #128]
    3ea4:	3d8027e4 	str	q4, [sp, #144]
    3ea8:	3d802be5 	str	q5, [sp, #160]
    3eac:	3d802fe6 	str	q6, [sp, #176]
    3eb0:	3d8033e7 	str	q7, [sp, #192]
    3eb4:	a90d93e3 	stp	x3, x4, [sp, #216]
    3eb8:	910043e3 	add	x3, sp, #0x10
    3ebc:	a90e9be5 	stp	x5, x6, [sp, #232]
    3ec0:	f9007fe7 	str	x7, [sp, #248]
    3ec4:	940001ef 	bl	4680 <_vfiprintf_r>
    3ec8:	a8d07bfd 	ldp	x29, x30, [sp], #256
    3ecc:	d65f03c0 	ret

0000000000003ed0 <fiprintf>:
    3ed0:	a9b07bfd 	stp	x29, x30, [sp, #-256]!
    3ed4:	b0000048 	adrp	x8, c000 <__func__.0+0x28>
    3ed8:	aa0003eb 	mov	x11, x0
    3edc:	910003fd 	mov	x29, sp
    3ee0:	910343ec 	add	x12, sp, #0xd0
    3ee4:	910403ea 	add	x10, sp, #0x100
    3ee8:	f9443900 	ldr	x0, [x8, #2160]
    3eec:	128005e9 	mov	w9, #0xffffffd0            	// #-48
    3ef0:	12800fe8 	mov	w8, #0xffffff80            	// #-128
    3ef4:	a9032bea 	stp	x10, x10, [sp, #48]
    3ef8:	aa0103ea 	mov	x10, x1
    3efc:	f90023ec 	str	x12, [sp, #64]
    3f00:	aa0b03e1 	mov	x1, x11
    3f04:	290923e9 	stp	w9, w8, [sp, #72]
    3f08:	a94337ec 	ldp	x12, x13, [sp, #48]
    3f0c:	a90137ec 	stp	x12, x13, [sp, #16]
    3f10:	a94427e8 	ldp	x8, x9, [sp, #64]
    3f14:	a90227e8 	stp	x8, x9, [sp, #32]
    3f18:	3d8017e0 	str	q0, [sp, #80]
    3f1c:	3d801be1 	str	q1, [sp, #96]
    3f20:	3d801fe2 	str	q2, [sp, #112]
    3f24:	3d8023e3 	str	q3, [sp, #128]
    3f28:	3d8027e4 	str	q4, [sp, #144]
    3f2c:	3d802be5 	str	q5, [sp, #160]
    3f30:	3d802fe6 	str	q6, [sp, #176]
    3f34:	3d8033e7 	str	q7, [sp, #192]
    3f38:	a90d0fe2 	stp	x2, x3, [sp, #208]
    3f3c:	910043e3 	add	x3, sp, #0x10
    3f40:	aa0a03e2 	mov	x2, x10
    3f44:	a90e17e4 	stp	x4, x5, [sp, #224]
    3f48:	a90f1fe6 	stp	x6, x7, [sp, #240]
    3f4c:	940001cd 	bl	4680 <_vfiprintf_r>
    3f50:	a8d07bfd 	ldp	x29, x30, [sp], #256
    3f54:	d65f03c0 	ret
    3f58:	d503201f 	nop
    3f5c:	d503201f 	nop

0000000000003f60 <__libc_init_array>:
    3f60:	a9bd7bfd 	stp	x29, x30, [sp, #-48]!
    3f64:	b0000041 	adrp	x1, c000 <__func__.0+0x28>
    3f68:	b0000040 	adrp	x0, c000 <__func__.0+0x28>
    3f6c:	910003fd 	mov	x29, sp
    3f70:	a90153f3 	stp	x19, x20, [sp, #16]
    3f74:	f940d834 	ldr	x20, [x1, #432]
    3f78:	f90013f5 	str	x21, [sp, #32]
    3f7c:	f940dc15 	ldr	x21, [x0, #440]
    3f80:	cb150294 	sub	x20, x20, x21
    3f84:	9343fe94 	asr	x20, x20, #3
    3f88:	b40000f4 	cbz	x20, 3fa4 <__libc_init_array+0x44>
    3f8c:	d2800013 	mov	x19, #0x0                   	// #0
    3f90:	f8737aa0 	ldr	x0, [x21, x19, lsl #3]
    3f94:	91000673 	add	x19, x19, #0x1
    3f98:	d63f0000 	blr	x0
    3f9c:	eb13029f 	cmp	x20, x19
    3fa0:	54ffff81 	b.ne	3f90 <__libc_init_array+0x30>  // b.any
    3fa4:	940ff017 	bl	400000 <_init>
    3fa8:	b0000041 	adrp	x1, c000 <__func__.0+0x28>
    3fac:	b0000040 	adrp	x0, c000 <__func__.0+0x28>
    3fb0:	f940e034 	ldr	x20, [x1, #448]
    3fb4:	f940e415 	ldr	x21, [x0, #456]
    3fb8:	cb150294 	sub	x20, x20, x21
    3fbc:	9343fe94 	asr	x20, x20, #3
    3fc0:	b40000f4 	cbz	x20, 3fdc <__libc_init_array+0x7c>
    3fc4:	d2800013 	mov	x19, #0x0                   	// #0
    3fc8:	f8737aa0 	ldr	x0, [x21, x19, lsl #3]
    3fcc:	91000673 	add	x19, x19, #0x1
    3fd0:	d63f0000 	blr	x0
    3fd4:	eb13029f 	cmp	x20, x19
    3fd8:	54ffff81 	b.ne	3fc8 <__libc_init_array+0x68>  // b.any
    3fdc:	a94153f3 	ldp	x19, x20, [sp, #16]
    3fe0:	f94013f5 	ldr	x21, [sp, #32]
    3fe4:	a8c37bfd 	ldp	x29, x30, [sp], #48
    3fe8:	d65f03c0 	ret
    3fec:	d503201f 	nop
    3ff0:	d503201f 	nop
    3ff4:	d503201f 	nop
    3ff8:	d503201f 	nop
    3ffc:	d503201f 	nop

0000000000004000 <memcpy>:
    4000:	f9800020 	prfm	pldl1keep, [x1]
    4004:	8b020024 	add	x4, x1, x2
    4008:	8b020005 	add	x5, x0, x2
    400c:	f100405f 	cmp	x2, #0x10
    4010:	54000209 	b.ls	4050 <memcpy+0x50>  // b.plast
    4014:	f101805f 	cmp	x2, #0x60
    4018:	54000648 	b.hi	40e0 <memcpy+0xe0>  // b.pmore
    401c:	d1000449 	sub	x9, x2, #0x1
    4020:	a9401c26 	ldp	x6, x7, [x1]
    4024:	37300469 	tbnz	w9, #6, 40b0 <memcpy+0xb0>
    4028:	a97f348c 	ldp	x12, x13, [x4, #-16]
    402c:	362800a9 	tbz	w9, #5, 4040 <memcpy+0x40>
    4030:	a9412428 	ldp	x8, x9, [x1, #16]
    4034:	a97e2c8a 	ldp	x10, x11, [x4, #-32]
    4038:	a9012408 	stp	x8, x9, [x0, #16]
    403c:	a93e2caa 	stp	x10, x11, [x5, #-32]
    4040:	a9001c06 	stp	x6, x7, [x0]
    4044:	a93f34ac 	stp	x12, x13, [x5, #-16]
    4048:	d65f03c0 	ret
    404c:	d503201f 	nop
    4050:	f100205f 	cmp	x2, #0x8
    4054:	540000e3 	b.cc	4070 <memcpy+0x70>  // b.lo, b.ul, b.last
    4058:	f9400026 	ldr	x6, [x1]
    405c:	f85f8087 	ldur	x7, [x4, #-8]
    4060:	f9000006 	str	x6, [x0]
    4064:	f81f80a7 	stur	x7, [x5, #-8]
    4068:	d65f03c0 	ret
    406c:	d503201f 	nop
    4070:	361000c2 	tbz	w2, #2, 4088 <memcpy+0x88>
    4074:	b9400026 	ldr	w6, [x1]
    4078:	b85fc087 	ldur	w7, [x4, #-4]
    407c:	b9000006 	str	w6, [x0]
    4080:	b81fc0a7 	stur	w7, [x5, #-4]
    4084:	d65f03c0 	ret
    4088:	b4000102 	cbz	x2, 40a8 <memcpy+0xa8>
    408c:	d341fc49 	lsr	x9, x2, #1
    4090:	39400026 	ldrb	w6, [x1]
    4094:	385ff087 	ldurb	w7, [x4, #-1]
    4098:	38696828 	ldrb	w8, [x1, x9]
    409c:	39000006 	strb	w6, [x0]
    40a0:	38296808 	strb	w8, [x0, x9]
    40a4:	381ff0a7 	sturb	w7, [x5, #-1]
    40a8:	d65f03c0 	ret
    40ac:	d503201f 	nop
    40b0:	a9412428 	ldp	x8, x9, [x1, #16]
    40b4:	a9422c2a 	ldp	x10, x11, [x1, #32]
    40b8:	a943342c 	ldp	x12, x13, [x1, #48]
    40bc:	a97e0881 	ldp	x1, x2, [x4, #-32]
    40c0:	a97f0c84 	ldp	x4, x3, [x4, #-16]
    40c4:	a9001c06 	stp	x6, x7, [x0]
    40c8:	a9012408 	stp	x8, x9, [x0, #16]
    40cc:	a9022c0a 	stp	x10, x11, [x0, #32]
    40d0:	a903340c 	stp	x12, x13, [x0, #48]
    40d4:	a93e08a1 	stp	x1, x2, [x5, #-32]
    40d8:	a93f0ca4 	stp	x4, x3, [x5, #-16]
    40dc:	d65f03c0 	ret
    40e0:	92400c09 	and	x9, x0, #0xf
    40e4:	927cec03 	and	x3, x0, #0xfffffffffffffff0
    40e8:	a940342c 	ldp	x12, x13, [x1]
    40ec:	cb090021 	sub	x1, x1, x9
    40f0:	8b090042 	add	x2, x2, x9
    40f4:	a9411c26 	ldp	x6, x7, [x1, #16]
    40f8:	a900340c 	stp	x12, x13, [x0]
    40fc:	a9422428 	ldp	x8, x9, [x1, #32]
    4100:	a9432c2a 	ldp	x10, x11, [x1, #48]
    4104:	a9c4342c 	ldp	x12, x13, [x1, #64]!
    4108:	f1024042 	subs	x2, x2, #0x90
    410c:	54000169 	b.ls	4138 <memcpy+0x138>  // b.plast
    4110:	a9011c66 	stp	x6, x7, [x3, #16]
    4114:	a9411c26 	ldp	x6, x7, [x1, #16]
    4118:	a9022468 	stp	x8, x9, [x3, #32]
    411c:	a9422428 	ldp	x8, x9, [x1, #32]
    4120:	a9032c6a 	stp	x10, x11, [x3, #48]
    4124:	a9432c2a 	ldp	x10, x11, [x1, #48]
    4128:	a984346c 	stp	x12, x13, [x3, #64]!
    412c:	a9c4342c 	ldp	x12, x13, [x1, #64]!
    4130:	f1010042 	subs	x2, x2, #0x40
    4134:	54fffee8 	b.hi	4110 <memcpy+0x110>  // b.pmore
    4138:	a97c0881 	ldp	x1, x2, [x4, #-64]
    413c:	a9011c66 	stp	x6, x7, [x3, #16]
    4140:	a97d1c86 	ldp	x6, x7, [x4, #-48]
    4144:	a9022468 	stp	x8, x9, [x3, #32]
    4148:	a97e2488 	ldp	x8, x9, [x4, #-32]
    414c:	a9032c6a 	stp	x10, x11, [x3, #48]
    4150:	a97f2c8a 	ldp	x10, x11, [x4, #-16]
    4154:	a904346c 	stp	x12, x13, [x3, #64]
    4158:	a93c08a1 	stp	x1, x2, [x5, #-64]
    415c:	a93d1ca6 	stp	x6, x7, [x5, #-48]
    4160:	a93e24a8 	stp	x8, x9, [x5, #-32]
    4164:	a93f2caa 	stp	x10, x11, [x5, #-16]
    4168:	d65f03c0 	ret
    416c:	d503201f 	nop
    4170:	d503201f 	nop
    4174:	d503201f 	nop
    4178:	d503201f 	nop
    417c:	d503201f 	nop

0000000000004180 <memmove>:
    4180:	cb010005 	sub	x5, x0, x1
    4184:	f101805f 	cmp	x2, #0x60
    4188:	fa4280a2 	ccmp	x5, x2, #0x2, hi  // hi = pmore
    418c:	54fff3a2 	b.cs	4000 <memcpy>  // b.hs, b.nlast
    4190:	b40004c5 	cbz	x5, 4228 <memmove+0xa8>
    4194:	8b020004 	add	x4, x0, x2
    4198:	8b020023 	add	x3, x1, x2
    419c:	92400c85 	and	x5, x4, #0xf
    41a0:	a97f346c 	ldp	x12, x13, [x3, #-16]
    41a4:	cb050063 	sub	x3, x3, x5
    41a8:	cb050042 	sub	x2, x2, x5
    41ac:	a97f1c66 	ldp	x6, x7, [x3, #-16]
    41b0:	a93f348c 	stp	x12, x13, [x4, #-16]
    41b4:	a97e2468 	ldp	x8, x9, [x3, #-32]
    41b8:	a97d2c6a 	ldp	x10, x11, [x3, #-48]
    41bc:	a9fc346c 	ldp	x12, x13, [x3, #-64]!
    41c0:	cb050084 	sub	x4, x4, x5
    41c4:	f1020042 	subs	x2, x2, #0x80
    41c8:	54000189 	b.ls	41f8 <memmove+0x78>  // b.plast
    41cc:	d503201f 	nop
    41d0:	a93f1c86 	stp	x6, x7, [x4, #-16]
    41d4:	a97f1c66 	ldp	x6, x7, [x3, #-16]
    41d8:	a93e2488 	stp	x8, x9, [x4, #-32]
    41dc:	a97e2468 	ldp	x8, x9, [x3, #-32]
    41e0:	a93d2c8a 	stp	x10, x11, [x4, #-48]
    41e4:	a97d2c6a 	ldp	x10, x11, [x3, #-48]
    41e8:	a9bc348c 	stp	x12, x13, [x4, #-64]!
    41ec:	a9fc346c 	ldp	x12, x13, [x3, #-64]!
    41f0:	f1010042 	subs	x2, x2, #0x40
    41f4:	54fffee8 	b.hi	41d0 <memmove+0x50>  // b.pmore
    41f8:	a9431422 	ldp	x2, x5, [x1, #48]
    41fc:	a93f1c86 	stp	x6, x7, [x4, #-16]
    4200:	a9421c26 	ldp	x6, x7, [x1, #32]
    4204:	a93e2488 	stp	x8, x9, [x4, #-32]
    4208:	a9412428 	ldp	x8, x9, [x1, #16]
    420c:	a93d2c8a 	stp	x10, x11, [x4, #-48]
    4210:	a9402c2a 	ldp	x10, x11, [x1]
    4214:	a93c348c 	stp	x12, x13, [x4, #-64]
    4218:	a9031402 	stp	x2, x5, [x0, #48]
    421c:	a9021c06 	stp	x6, x7, [x0, #32]
    4220:	a9012408 	stp	x8, x9, [x0, #16]
    4224:	a9002c0a 	stp	x10, x11, [x0]
    4228:	d65f03c0 	ret
    422c:	d503201f 	nop
    4230:	d503201f 	nop
    4234:	d503201f 	nop
    4238:	d503201f 	nop
    423c:	d503201f 	nop

0000000000004240 <memset>:
    4240:	4e010c20 	dup	v0.16b, w1
    4244:	8b020004 	add	x4, x0, x2
    4248:	f101805f 	cmp	x2, #0x60
    424c:	540003c8 	b.hi	42c4 <memset+0x84>  // b.pmore
    4250:	f100405f 	cmp	x2, #0x10
    4254:	54000202 	b.cs	4294 <memset+0x54>  // b.hs, b.nlast
    4258:	4e083c01 	mov	x1, v0.d[0]
    425c:	361800a2 	tbz	w2, #3, 4270 <memset+0x30>
    4260:	f9000001 	str	x1, [x0]
    4264:	f81f8081 	stur	x1, [x4, #-8]
    4268:	d65f03c0 	ret
    426c:	d503201f 	nop
    4270:	36100082 	tbz	w2, #2, 4280 <memset+0x40>
    4274:	b9000001 	str	w1, [x0]
    4278:	b81fc081 	stur	w1, [x4, #-4]
    427c:	d65f03c0 	ret
    4280:	b4000082 	cbz	x2, 4290 <memset+0x50>
    4284:	39000001 	strb	w1, [x0]
    4288:	36080042 	tbz	w2, #1, 4290 <memset+0x50>
    428c:	781fe081 	sturh	w1, [x4, #-2]
    4290:	d65f03c0 	ret
    4294:	3d800000 	str	q0, [x0]
    4298:	373000c2 	tbnz	w2, #6, 42b0 <memset+0x70>
    429c:	3c9f0080 	stur	q0, [x4, #-16]
    42a0:	36280062 	tbz	w2, #5, 42ac <memset+0x6c>
    42a4:	3d800400 	str	q0, [x0, #16]
    42a8:	3c9e0080 	stur	q0, [x4, #-32]
    42ac:	d65f03c0 	ret
    42b0:	3d800400 	str	q0, [x0, #16]
    42b4:	ad010000 	stp	q0, q0, [x0, #32]
    42b8:	ad3f0080 	stp	q0, q0, [x4, #-32]
    42bc:	d65f03c0 	ret
    42c0:	d503201f 	nop
    42c4:	12001c21 	and	w1, w1, #0xff
    42c8:	927cec03 	and	x3, x0, #0xfffffffffffffff0
    42cc:	3d800000 	str	q0, [x0]
    42d0:	f104005f 	cmp	x2, #0x100
    42d4:	7a402820 	ccmp	w1, #0x0, #0x0, cs  // cs = hs, nlast
    42d8:	54000180 	b.eq	4308 <memset+0xc8>  // b.none
    42dc:	cb030082 	sub	x2, x4, x3
    42e0:	d1004063 	sub	x3, x3, #0x10
    42e4:	d1014042 	sub	x2, x2, #0x50
    42e8:	ad010060 	stp	q0, q0, [x3, #32]
