
shell:     file format elf64-littleaarch64


Disassembly of section .text:

0000000000000000 <main>:
    }
    return len;
}

int main(void)
{
       0:	a9bd7bfd 	stp	x29, x30, [sp, #-48]!
    shell.write = userShellWrite;
       4:	90000003 	adrp	x3, 0 <main>
       8:	91088063 	add	x3, x3, #0x220
{
       c:	910003fd 	mov	x29, sp
      10:	f90013f5 	str	x21, [sp, #32]
    shell.write = userShellWrite;
      14:	b0000095 	adrp	x21, 11000 <__global_locale+0x180>
      18:	912222b5 	add	x21, x21, #0x888
    shell.read = userShellRead;
      1c:	90000004 	adrp	x4, 0 <main>
      20:	9109c084 	add	x4, x4, #0x270
    shell.write = userShellWrite;
      24:	910022a0 	add	x0, x21, #0x8
{
      28:	a90153f3 	stp	x19, x20, [sp, #16]

    shellInit(&shell, shellBuffer, 512);
      2c:	910342a1 	add	x1, x21, #0xd0
      30:	f0000073 	adrp	x19, f000 <_fstat_r+0x40>
      34:	91110273 	add	x19, x19, #0x440

    while (connect_session(&session_fs, "MemFS", 8092) < 0)
      38:	910b42b4 	add	x20, x21, #0x2d0
    shellInit(&shell, shellBuffer, 512);
      3c:	52804002 	mov	w2, #0x200                 	// #512
    shell.write = userShellWrite;
      40:	a90b8c04 	stp	x4, x3, [x0, #184]
    shellInit(&shell, shellBuffer, 512);
      44:	94000f6f 	bl	3e00 <shellInit>
    while (connect_session(&session_fs, "MemFS", 8092) < 0)
      48:	aa1303e1 	mov	x1, x19
      4c:	aa1403e0 	mov	x0, x20
      50:	5283f382 	mov	w2, #0x1f9c                	// #8092
      54:	940019cb 	bl	6780 <connect_session>
      58:	37ffff80 	tbnz	w0, #31, 48 <main+0x48>
        ;
    if (!session_fs.buf) {
      5c:	f9400a80 	ldr	x0, [x20, #16]
      60:	b4000180 	cbz	x0, 90 <main+0x90>
        printf("session connect faield\n");
        return -1;
    }
    shellTask(&shell);
      64:	910022a0 	add	x0, x21, #0x8
      68:	9400138a 	bl	4e90 <shellTask>

    free_session(&session_fs);
      6c:	aa1403e0 	mov	x0, x20
      70:	940019cc 	bl	67a0 <free_session>

    exit(0);
      74:	52800000 	mov	w0, #0x0                   	// #0
      78:	94001a62 	bl	6a00 <exit>
    return 0;
      7c:	52800000 	mov	w0, #0x0                   	// #0
}
      80:	a94153f3 	ldp	x19, x20, [sp, #16]
      84:	f94013f5 	ldr	x21, [sp, #32]
      88:	a8c37bfd 	ldp	x29, x30, [sp], #48
      8c:	d65f03c0 	ret
        printf("session connect faield\n");
      90:	f0000060 	adrp	x0, f000 <_fstat_r+0x40>
      94:	91112000 	add	x0, x0, #0x448
      98:	9400071e 	bl	1d10 <printf>
        return -1;
      9c:	12800000 	mov	w0, #0xffffffff            	// #-1
      a0:	17fffff8 	b	80 <main+0x80>
      a4:	d503201f 	nop
      a8:	d503201f 	nop
      ac:	d503201f 	nop

00000000000000b0 <deregister_tm_clones>:
      b0:	b0000080 	adrp	x0, 11000 <__global_locale+0x180>
      b4:	91214000 	add	x0, x0, #0x850
      b8:	b0000081 	adrp	x1, 11000 <__global_locale+0x180>
      bc:	91214021 	add	x1, x1, #0x850
      c0:	eb00003f 	cmp	x1, x0
      c4:	540000c0 	b.eq	dc <deregister_tm_clones+0x2c>  // b.none
      c8:	f0000061 	adrp	x1, f000 <_fstat_r+0x40>
      cc:	f9420c21 	ldr	x1, [x1, #1048]
      d0:	b4000061 	cbz	x1, dc <deregister_tm_clones+0x2c>
      d4:	aa0103f0 	mov	x16, x1
      d8:	d61f0200 	br	x16
      dc:	d65f03c0 	ret

00000000000000e0 <register_tm_clones>:
      e0:	b0000080 	adrp	x0, 11000 <__global_locale+0x180>
      e4:	91214000 	add	x0, x0, #0x850
      e8:	b0000081 	adrp	x1, 11000 <__global_locale+0x180>
      ec:	91214021 	add	x1, x1, #0x850
      f0:	cb000021 	sub	x1, x1, x0
      f4:	d37ffc22 	lsr	x2, x1, #63
      f8:	8b810c41 	add	x1, x2, x1, asr #3
      fc:	9341fc21 	asr	x1, x1, #1
     100:	b40000c1 	cbz	x1, 118 <register_tm_clones+0x38>
     104:	f0000062 	adrp	x2, f000 <_fstat_r+0x40>
     108:	f9421042 	ldr	x2, [x2, #1056]
     10c:	b4000062 	cbz	x2, 118 <register_tm_clones+0x38>
     110:	aa0203f0 	mov	x16, x2
     114:	d61f0200 	br	x16
     118:	d65f03c0 	ret
     11c:	d503201f 	nop

0000000000000120 <__do_global_dtors_aux>:
     120:	a9be7bfd 	stp	x29, x30, [sp, #-32]!
     124:	910003fd 	mov	x29, sp
     128:	f9000bf3 	str	x19, [sp, #16]
     12c:	b0000093 	adrp	x19, 11000 <__global_locale+0x180>
     130:	39614260 	ldrb	w0, [x19, #2128]
     134:	35000140 	cbnz	w0, 15c <__do_global_dtors_aux+0x3c>
     138:	97ffffde 	bl	b0 <deregister_tm_clones>
     13c:	f0000060 	adrp	x0, f000 <_fstat_r+0x40>
     140:	f9421400 	ldr	x0, [x0, #1064]
     144:	b4000080 	cbz	x0, 154 <__do_global_dtors_aux+0x34>
     148:	90000080 	adrp	x0, 10000 <__func__.0+0x10>
     14c:	911bb000 	add	x0, x0, #0x6ec
     150:	d503201f 	nop
     154:	52800020 	mov	w0, #0x1                   	// #1
     158:	39214260 	strb	w0, [x19, #2128]
     15c:	f9400bf3 	ldr	x19, [sp, #16]
     160:	a8c27bfd 	ldp	x29, x30, [sp], #32
     164:	d65f03c0 	ret
     168:	d503201f 	nop
     16c:	d503201f 	nop

0000000000000170 <frame_dummy>:
     170:	f0000060 	adrp	x0, f000 <_fstat_r+0x40>
     174:	f9421800 	ldr	x0, [x0, #1072]
     178:	b4000140 	cbz	x0, 1a0 <frame_dummy+0x30>
     17c:	a9bf7bfd 	stp	x29, x30, [sp, #-16]!
     180:	b0000081 	adrp	x1, 11000 <__global_locale+0x180>
     184:	90000080 	adrp	x0, 10000 <__func__.0+0x10>
     188:	910003fd 	mov	x29, sp
     18c:	91216021 	add	x1, x1, #0x858
     190:	911bb000 	add	x0, x0, #0x6ec
     194:	d503201f 	nop
     198:	a8c17bfd 	ldp	x29, x30, [sp], #16
     19c:	17ffffd1 	b	e0 <register_tm_clones>
     1a0:	17ffffd0 	b	e0 <register_tm_clones>
     1a4:	d503201f 	nop

00000000000001a8 <_mainCRTStartup>:
     1a8:	58000281 	ldr	x1, 1f8 <_cpu_init_hook+0x4>
     1ac:	927cec20 	and	x0, x1, #0xfffffffffffffff0
     1b0:	9100001f 	mov	sp, x0
     1b4:	d280001d 	mov	x29, #0x0                   	// #0
     1b8:	a9bf77fd 	stp	x29, x29, [sp, #-16]!
     1bc:	910003fd 	mov	x29, sp
     1c0:	9400000d 	bl	1f4 <_cpu_init_hook>
     1c4:	580001e0 	ldr	x0, 200 <_cpu_init_hook+0xc>
     1c8:	52800001 	mov	w1, #0x0                   	// #0
     1cc:	580001e2 	ldr	x2, 208 <_cpu_init_hook+0x14>
     1d0:	cb000042 	sub	x2, x2, x0
     1d4:	94001dfb 	bl	79c0 <memset>
     1d8:	580001c0 	ldr	x0, 210 <_cpu_init_hook+0x1c>
     1dc:	94001ce9 	bl	7580 <atexit>
     1e0:	94001d44 	bl	76f0 <__libc_init_array>
     1e4:	d2800000 	mov	x0, #0x0                   	// #0
     1e8:	d2800001 	mov	x1, #0x0                   	// #0
     1ec:	97ffff85 	bl	0 <main>
     1f0:	14001a04 	b	6a00 <exit>

00000000000001f4 <_cpu_init_hook>:
     1f4:	d65f03c0 	ret
	...
     200:	00011850 	.word	0x00011850
     204:	00000000 	.word	0x00000000
     208:	00011f88 	.word	0x00011f88
     20c:	00000000 	.word	0x00000000
     210:	000075a0 	.word	0x000075a0
     214:	00000000 	.word	0x00000000
     218:	d503201f 	.word	0xd503201f
     21c:	d503201f 	.word	0xd503201f

0000000000000220 <userShellWrite>:
{
     220:	a9bd7bfd 	stp	x29, x30, [sp, #-48]!
     224:	910003fd 	mov	x29, sp
     228:	a9025bf5 	stp	x21, x22, [sp, #32]
    while (length--) {
     22c:	72003c36 	ands	w22, w1, #0xffff
     230:	54000180 	b.eq	260 <userShellWrite+0x40>  // b.none
     234:	8b362015 	add	x21, x0, w22, uxth
     238:	a90153f3 	stp	x19, x20, [sp, #16]
     23c:	f0000074 	adrp	x20, f000 <_fstat_r+0x40>
     240:	9110e294 	add	x20, x20, #0x438
     244:	aa0003f3 	mov	x19, x0
        printf("%c", *data++);
     248:	38401661 	ldrb	w1, [x19], #1
     24c:	aa1403e0 	mov	x0, x20
     250:	940006b0 	bl	1d10 <printf>
    while (length--) {
     254:	eb15027f 	cmp	x19, x21
     258:	54ffff81 	b.ne	248 <userShellWrite+0x28>  // b.any
     25c:	a94153f3 	ldp	x19, x20, [sp, #16]
}
     260:	2a1603e0 	mov	w0, w22
     264:	a9425bf5 	ldp	x21, x22, [sp, #32]
     268:	a8c37bfd 	ldp	x29, x30, [sp], #48
     26c:	d65f03c0 	ret

0000000000000270 <userShellRead>:
{
     270:	a9bd7bfd 	stp	x29, x30, [sp, #-48]!
     274:	910003fd 	mov	x29, sp
     278:	a9025bf5 	stp	x21, x22, [sp, #32]
    while (length--) {
     27c:	72003c36 	ands	w22, w1, #0xffff
     280:	540002c0 	b.eq	2d8 <userShellRead+0x68>  // b.none
     284:	8b362015 	add	x21, x0, w22, uxth
     288:	a90153f3 	stp	x19, x20, [sp, #16]
     28c:	b0000094 	adrp	x20, 11000 <__global_locale+0x180>
     290:	91222294 	add	x20, x20, #0x888
     294:	aa0003f3 	mov	x19, x0
     298:	14000004 	b	2a8 <userShellRead+0x38>
        *data++ = cur_read;
     29c:	38001661 	strb	w1, [x19], #1
    while (length--) {
     2a0:	eb15027f 	cmp	x19, x21
     2a4:	54000180 	b.eq	2d4 <userShellRead+0x64>  // b.none
        cur_read = getc();
     2a8:	9400003a 	bl	390 <getc>
     2ac:	39000280 	strb	w0, [x20]
     2b0:	12001c01 	and	w1, w0, #0xff
        if (cur_read == 0xff) {
     2b4:	7103fc3f 	cmp	w1, #0xff
     2b8:	54ffff21 	b.ne	29c <userShellRead+0x2c>  // b.any
            yield(SYS_TASK_YIELD_NO_REASON);
     2bc:	52800000 	mov	w0, #0x0                   	// #0
     2c0:	940019d8 	bl	6a20 <yield>
        *data++ = cur_read;
     2c4:	39400281 	ldrb	w1, [x20]
     2c8:	38001661 	strb	w1, [x19], #1
    while (length--) {
     2cc:	eb15027f 	cmp	x19, x21
     2d0:	54fffec1 	b.ne	2a8 <userShellRead+0x38>  // b.any
     2d4:	a94153f3 	ldp	x19, x20, [sp, #16]
}
     2d8:	2a1603e0 	mov	w0, w22
     2dc:	a9425bf5 	ldp	x21, x22, [sp, #32]
     2e0:	a8c37bfd 	ldp	x29, x30, [sp], #48
     2e4:	d65f03c0 	ret
     2e8:	d503201f 	nop
     2ec:	d503201f 	nop

00000000000002f0 <init_uart_mmio>:
#ifndef CONFIG_SYS_NS16550_CLK
#define CONFIG_SYS_NS16550_CLK 0
#endif

bool init_uart_mmio()
{
     2f0:	a9be7bfd 	stp	x29, x30, [sp, #-32]!
        if (-1 == mmap(UART_ADDR, UART_ADDR, 4096, true)) {
            return false;
        }
        mapped = 1;
    }
    return true;
     2f4:	52800020 	mov	w0, #0x1                   	// #1
{
     2f8:	910003fd 	mov	x29, sp
     2fc:	f9000bf3 	str	x19, [sp, #16]
    if (mapped == 0) {
     300:	b0000093 	adrp	x19, 11000 <__global_locale+0x180>
     304:	b94b7261 	ldr	w1, [x19, #2928]
     308:	34000081 	cbz	w1, 318 <init_uart_mmio+0x28>
}
     30c:	f9400bf3 	ldr	x19, [sp, #16]
     310:	a8c27bfd 	ldp	x29, x30, [sp], #32
     314:	d65f03c0 	ret
        if (-1 == mmap(UART_ADDR, UART_ADDR, 4096, true)) {
     318:	2a0003e3 	mov	w3, w0
     31c:	d2bfccc1 	mov	x1, #0xfe660000            	// #4268097536
     320:	52820002 	mov	w2, #0x1000                	// #4096
     324:	aa0103e0 	mov	x0, x1
     328:	94001a1e 	bl	6ba0 <mmap>
     32c:	3100041f 	cmn	w0, #0x1
            return false;
     330:	52800000 	mov	w0, #0x0                   	// #0
        if (-1 == mmap(UART_ADDR, UART_ADDR, 4096, true)) {
     334:	54fffec0 	b.eq	30c <init_uart_mmio+0x1c>  // b.none
        mapped = 1;
     338:	52800021 	mov	w1, #0x1                   	// #1
    return true;
     33c:	2a0103e0 	mov	w0, w1
        mapped = 1;
     340:	b90b7261 	str	w1, [x19, #2928]
}
     344:	f9400bf3 	ldr	x19, [sp, #16]
     348:	a8c27bfd 	ldp	x29, x30, [sp], #32
     34c:	d65f03c0 	ret

0000000000000350 <putc>:

void putc(char ch)
{
     350:	12001c00 	and	w0, w0, #0xff
    static struct NS16550* com_port = (struct NS16550*)UART_ADDR;

    if (ch == '\n') {
     354:	7100281f 	cmp	w0, #0xa
     358:	540000c0 	b.eq	370 <putc+0x20>  // b.none
    return in_le32(addr);
     35c:	d2bfccc2 	mov	x2, #0xfe660000            	// #4268097536
     360:	b9401441 	ldr	w1, [x2, #20]
        putc('\r');
    }

    while (!(serial_din(&com_port->lsr) & UART_LSR_THRE))
     364:	362fffe1 	tbz	w1, #5, 360 <putc+0x10>
    out_le32(addr, value);
     368:	b9000040 	str	w0, [x2]
        ;
    serial_dout(&com_port->thr, ch);
}
     36c:	d65f03c0 	ret
    return in_le32(addr);
     370:	d2bfccc2 	mov	x2, #0xfe660000            	// #4268097536
     374:	d503201f 	nop
     378:	b9401441 	ldr	w1, [x2, #20]
    while (!(serial_din(&com_port->lsr) & UART_LSR_THRE))
     37c:	362fffe1 	tbz	w1, #5, 378 <putc+0x28>
    out_le32(addr, value);
     380:	528001a1 	mov	w1, #0xd                   	// #13
     384:	b9000041 	str	w1, [x2]
}
     388:	17fffff5 	b	35c <putc+0xc>
     38c:	d503201f 	nop

0000000000000390 <getc>:
    return in_le32(addr);
     390:	d2bfccc1 	mov	x1, #0xfe660000            	// #4268097536
     394:	d503201f 	nop
     398:	b9401420 	ldr	w0, [x1, #20]

char getc(void)
{
    static struct NS16550* com_port = (struct NS16550*)UART_ADDR;

    while (!(serial_din(&com_port->lsr) & UART_LSR_DR))
     39c:	3607ffe0 	tbz	w0, #0, 398 <getc+0x8>
    return in_le32(addr);
     3a0:	b9400020 	ldr	w0, [x1]
        ;

    return serial_din(&com_port->rbr);
     3a4:	d65f03c0 	ret
     3a8:	d503201f 	nop
     3ac:	d503201f 	nop

00000000000003b0 <_out_buffer>:
} out_fct_wrap_type;

// internal buffer output
static inline void _out_buffer(char character, void* buffer, size_t idx, size_t maxlen)
{
    if (idx < maxlen) {
     3b0:	eb03005f 	cmp	x2, x3
{
     3b4:	12001c00 	and	w0, w0, #0xff
    if (idx < maxlen) {
     3b8:	54000042 	b.cs	3c0 <_out_buffer+0x10>  // b.hs, b.nlast
        ((char*)buffer)[idx] = character;
     3bc:	38226820 	strb	w0, [x1, x2]
    }
}
     3c0:	d65f03c0 	ret
     3c4:	d503201f 	nop
     3c8:	d503201f 	nop
     3cc:	d503201f 	nop

00000000000003d0 <_out_null>:
{
    (void)character;
    (void)buffer;
    (void)idx;
    (void)maxlen;
}
     3d0:	d65f03c0 	ret
     3d4:	d503201f 	nop
     3d8:	d503201f 	nop
     3dc:	d503201f 	nop

00000000000003e0 <_out_rev>:
    return i;
}

// output the specified string in reverse, taking care of any zero-padding
static size_t _out_rev(out_fct_type out, char* buffer, size_t idx, size_t maxlen, const char* buf, size_t len, unsigned int width, unsigned int flags)
{
     3e0:	a9ba7bfd 	stp	x29, x30, [sp, #-96]!
     3e4:	910003fd 	mov	x29, sp
     3e8:	a90153f3 	stp	x19, x20, [sp, #16]
     3ec:	aa0503f3 	mov	x19, x5
     3f0:	aa0203f4 	mov	x20, x2
     3f4:	a9025bf5 	stp	x21, x22, [sp, #32]
     3f8:	aa0003f5 	mov	x21, x0
     3fc:	aa0103f6 	mov	x22, x1
     400:	a90363f7 	stp	x23, x24, [sp, #48]
     404:	aa0203f7 	mov	x23, x2
     408:	aa0403f8 	mov	x24, x4
     40c:	a9046bf9 	stp	x25, x26, [sp, #64]
     410:	2a0703fa 	mov	w26, w7
     414:	2a0603f9 	mov	w25, w6
     418:	a90573fb 	stp	x27, x28, [sp, #80]
    const size_t start_idx = idx;

    // pad spaces up to given width
    if (!(flags & FLAGS_LEFT) && !(flags & FLAGS_ZEROPAD)) {
     41c:	f240075f 	tst	x26, #0x3
{
     420:	aa0303fb 	mov	x27, x3
    if (!(flags & FLAGS_LEFT) && !(flags & FLAGS_ZEROPAD)) {
     424:	540001e1 	b.ne	460 <_out_rev+0x80>  // b.any
        for (size_t i = len; i < width; i++) {
     428:	2a0603e0 	mov	w0, w6
     42c:	aa0203fc 	mov	x28, x2
     430:	cb050014 	sub	x20, x0, x5
     434:	eb0000bf 	cmp	x5, x0
     438:	8b020294 	add	x20, x20, x2
     43c:	54000542 	b.cs	4e4 <_out_rev+0x104>  // b.hs, b.nlast
            out(' ', buffer, idx++, maxlen);
     440:	aa1c03e2 	mov	x2, x28
     444:	aa1b03e3 	mov	x3, x27
     448:	9100079c 	add	x28, x28, #0x1
     44c:	aa1603e1 	mov	x1, x22
     450:	52800400 	mov	w0, #0x20                  	// #32
     454:	d63f02a0 	blr	x21
        for (size_t i = len; i < width; i++) {
     458:	eb1c029f 	cmp	x20, x28
     45c:	54ffff21 	b.ne	440 <_out_rev+0x60>  // b.any
        }
    }

    // reverse string
    while (len) {
     460:	8b14027c 	add	x28, x19, x20
     464:	b4000133 	cbz	x19, 488 <_out_rev+0xa8>
     468:	cb130382 	sub	x2, x28, x19
        out(buf[--len], buffer, idx++, maxlen);
     46c:	d1000673 	sub	x19, x19, #0x1
     470:	aa1c03f4 	mov	x20, x28
     474:	aa1b03e3 	mov	x3, x27
     478:	aa1603e1 	mov	x1, x22
     47c:	38736b00 	ldrb	w0, [x24, x19]
     480:	d63f02a0 	blr	x21
    while (len) {
     484:	b5ffff33 	cbnz	x19, 468 <_out_rev+0x88>
    }

    // append pad spaces up to given width
    if (flags & FLAGS_LEFT) {
     488:	360801fa 	tbz	w26, #1, 4c4 <_out_rev+0xe4>
        while (idx - start_idx < width) {
     48c:	cb170297 	sub	x23, x20, x23
     490:	2a1903f9 	mov	w25, w25
     494:	eb1902ff 	cmp	x23, x25
     498:	54000162 	b.cs	4c4 <_out_rev+0xe4>  // b.hs, b.nlast
     49c:	d503201f 	nop
            out(' ', buffer, idx++, maxlen);
     4a0:	aa1403e2 	mov	x2, x20
        while (idx - start_idx < width) {
     4a4:	910006f7 	add	x23, x23, #0x1
            out(' ', buffer, idx++, maxlen);
     4a8:	aa1b03e3 	mov	x3, x27
     4ac:	aa1603e1 	mov	x1, x22
     4b0:	52800400 	mov	w0, #0x20                  	// #32
     4b4:	d63f02a0 	blr	x21
     4b8:	91000694 	add	x20, x20, #0x1
        while (idx - start_idx < width) {
     4bc:	eb1902ff 	cmp	x23, x25
     4c0:	54ffff03 	b.cc	4a0 <_out_rev+0xc0>  // b.lo, b.ul, b.last
        }
    }

    return idx;
}
     4c4:	aa1403e0 	mov	x0, x20
     4c8:	a94153f3 	ldp	x19, x20, [sp, #16]
     4cc:	a9425bf5 	ldp	x21, x22, [sp, #32]
     4d0:	a94363f7 	ldp	x23, x24, [sp, #48]
     4d4:	a9446bf9 	ldp	x25, x26, [sp, #64]
     4d8:	a94573fb 	ldp	x27, x28, [sp, #80]
     4dc:	a8c67bfd 	ldp	x29, x30, [sp], #96
     4e0:	d65f03c0 	ret
        for (size_t i = len; i < width; i++) {
     4e4:	aa0203f4 	mov	x20, x2
     4e8:	17ffffde 	b	460 <_out_rev+0x80>
     4ec:	d503201f 	nop

00000000000004f0 <_ntoa_long>:
    return _out_rev(out, buffer, idx, maxlen, buf, len, width, flags);
}

// internal itoa for 'long' type
static size_t _ntoa_long(out_fct_type out, char* buffer, size_t idx, size_t maxlen, unsigned long value, bool negative, unsigned long base, unsigned int prec, unsigned int width, unsigned int flags)
{
     4f0:	a9bd7bfd 	stp	x29, x30, [sp, #-48]!
     4f4:	aa0603eb 	mov	x11, x6
     4f8:	aa0403e9 	mov	x9, x4
     4fc:	910003fd 	mov	x29, sp
     500:	b9403be8 	ldr	w8, [sp, #56]
     504:	2a0703ef 	mov	w15, w7
     508:	b94033e6 	ldr	w6, [sp, #48]
     50c:	12001cb2 	and	w18, w5, #0xff
    if (!value) {
        flags &= ~FLAGS_HASH;
    }

    // write if precision != 0 and value is != 0
    if (!(flags & FLAGS_PRECISION) || value) {
     510:	12160110 	and	w16, w8, #0x400
    if (!value) {
     514:	b5000c64 	cbnz	x4, 6a0 <_ntoa_long+0x1b0>
        flags &= ~FLAGS_HASH;
     518:	121b7907 	and	w7, w8, #0xffffffef
    if (!(flags & FLAGS_PRECISION) || value) {
     51c:	34000730 	cbz	w16, 600 <_ntoa_long+0x110>
    if (!(flags & FLAGS_LEFT)) {
     520:	121f0111 	and	w17, w8, #0x2
     524:	37080fc8 	tbnz	w8, #1, 71c <_ntoa_long+0x22c>
    size_t len = 0U;
     528:	d2800005 	mov	x5, #0x0                   	// #0
        while ((len < prec) && (len < PRINTF_NTOA_BUFFER_SIZE)) {
     52c:	2a0f03e9 	mov	w9, w15
     530:	f1007cbf 	cmp	x5, #0x1f
     534:	910043e4 	add	x4, sp, #0x10
     538:	1a9f87ea 	cset	w10, ls  // ls = plast
     53c:	eb05013f 	cmp	x9, x5
     540:	1a9f97e8 	cset	w8, hi  // hi = pmore
        if (width && (flags & FLAGS_ZEROPAD) && (negative || (flags & (FLAGS_PLUS | FLAGS_SPACE)))) {
     544:	120000ec 	and	w12, w7, #0x1
        while ((len < prec) && (len < PRINTF_NTOA_BUFFER_SIZE)) {
     548:	0a080148 	and	w8, w10, w8
        if (width && (flags & FLAGS_ZEROPAD) && (negative || (flags & (FLAGS_PLUS | FLAGS_SPACE)))) {
     54c:	350009c6 	cbnz	w6, 684 <_ntoa_long+0x194>
        while ((len < prec) && (len < PRINTF_NTOA_BUFFER_SIZE)) {
     550:	34000108 	cbz	w8, 570 <_ntoa_long+0x80>
            buf[len++] = '0';
     554:	5280060a 	mov	w10, #0x30                  	// #48
     558:	910004a5 	add	x5, x5, #0x1
     55c:	8b050088 	add	x8, x4, x5
        while ((len < prec) && (len < PRINTF_NTOA_BUFFER_SIZE)) {
     560:	eb05013f 	cmp	x9, x5
     564:	fa5f88a2 	ccmp	x5, #0x1f, #0x2, hi  // hi = pmore
            buf[len++] = '0';
     568:	381ff10a 	sturb	w10, [x8, #-1]
        while ((len < prec) && (len < PRINTF_NTOA_BUFFER_SIZE)) {
     56c:	54ffff69 	b.ls	558 <_ntoa_long+0x68>  // b.plast
        while ((flags & FLAGS_ZEROPAD) && (len < width) && (len < PRINTF_NTOA_BUFFER_SIZE)) {
     570:	340001cc 	cbz	w12, 5a8 <_ntoa_long+0xb8>
     574:	f1007cbf 	cmp	x5, #0x1f
     578:	1a9f87ea 	cset	w10, ls  // ls = plast
     57c:	7100015f 	cmp	w10, #0x0
     580:	2a0603e9 	mov	w9, w6
     584:	fa451120 	ccmp	x9, x5, #0x0, ne  // ne = any
     588:	54000109 	b.ls	5a8 <_ntoa_long+0xb8>  // b.plast
            buf[len++] = '0';
     58c:	5280060a 	mov	w10, #0x30                  	// #48
     590:	910004a5 	add	x5, x5, #0x1
     594:	8b050088 	add	x8, x4, x5
        while ((flags & FLAGS_ZEROPAD) && (len < width) && (len < PRINTF_NTOA_BUFFER_SIZE)) {
     598:	eb05013f 	cmp	x9, x5
     59c:	fa5f88a2 	ccmp	x5, #0x1f, #0x2, hi  // hi = pmore
            buf[len++] = '0';
     5a0:	381ff10a 	sturb	w10, [x8, #-1]
        while ((flags & FLAGS_ZEROPAD) && (len < width) && (len < PRINTF_NTOA_BUFFER_SIZE)) {
     5a4:	54ffff69 	b.ls	590 <_ntoa_long+0xa0>  // b.plast
    if (flags & FLAGS_HASH) {
     5a8:	340001b1 	cbz	w17, 5dc <_ntoa_long+0xec>
        if (!(flags & FLAGS_PRECISION) && len && ((len == prec) || (len == width))) {
     5ac:	350008b0 	cbnz	w16, 6c0 <_ntoa_long+0x1d0>
     5b0:	b50007e5 	cbnz	x5, 6ac <_ntoa_long+0x1bc>
        if ((base == 16U) && !(flags & FLAGS_UPPERCASE) && (len < PRINTF_NTOA_BUFFER_SIZE)) {
     5b4:	f100417f 	cmp	x11, #0x10
     5b8:	54000f20 	b.eq	79c <_ntoa_long+0x2ac>  // b.none
        } else if ((base == 2U) && (len < PRINTF_NTOA_BUFFER_SIZE)) {
     5bc:	f100097f 	cmp	x11, #0x2
     5c0:	54000f21 	b.ne	7a4 <_ntoa_long+0x2b4>  // b.any
            buf[len++] = 'b';
     5c4:	52800c48 	mov	w8, #0x62                  	// #98
     5c8:	d2800025 	mov	x5, #0x1                   	// #1
     5cc:	390043e8 	strb	w8, [sp, #16]
            buf[len++] = '0';
     5d0:	52800608 	mov	w8, #0x30                  	// #48
     5d4:	38256888 	strb	w8, [x4, x5]
     5d8:	910004a5 	add	x5, x5, #0x1
    if (len < PRINTF_NTOA_BUFFER_SIZE) {
     5dc:	f10080bf 	cmp	x5, #0x20
     5e0:	540000a0 	b.eq	5f4 <_ntoa_long+0x104>  // b.none
        if (negative) {
     5e4:	340008d2 	cbz	w18, 6fc <_ntoa_long+0x20c>
            buf[len++] = '-';
     5e8:	528005a8 	mov	w8, #0x2d                  	// #45
     5ec:	38256888 	strb	w8, [x4, x5]
     5f0:	910004a5 	add	x5, x5, #0x1
    return _out_rev(out, buffer, idx, maxlen, buf, len, width, flags);
     5f4:	97ffff7b 	bl	3e0 <_out_rev>
            value /= base;
        } while (value && (len < PRINTF_NTOA_BUFFER_SIZE));
    }

    return _ntoa_format(out, buffer, idx, maxlen, buf, len, negative, (unsigned int)base, prec, width, flags);
}
     5f8:	a8c37bfd 	ldp	x29, x30, [sp], #48
     5fc:	d65f03c0 	ret
    if (!(flags & FLAGS_PRECISION) || value) {
     600:	52800011 	mov	w17, #0x0                   	// #0
     604:	f27b00ff 	tst	x7, #0x20
     608:	52800c24 	mov	w4, #0x61                  	// #97
     60c:	5280082e 	mov	w14, #0x41                  	// #65
     610:	1a8411ce 	csel	w14, w14, w4, ne  // ne = any
            buf[len++] = digit < 10 ? '0' + digit : (flags & FLAGS_UPPERCASE ? 'A' : 'a') + digit - 10;
     614:	510029ce 	sub	w14, w14, #0xa
     618:	910043e4 	add	x4, sp, #0x10
     61c:	d2800005 	mov	x5, #0x0                   	// #0
            const char digit = (char)(value % base);
     620:	9acb092c 	udiv	x12, x9, x11
            buf[len++] = digit < 10 ? '0' + digit : (flags & FLAGS_UPPERCASE ? 'A' : 'a') + digit - 10;
     624:	910004a5 	add	x5, x5, #0x1
     628:	8b05008d 	add	x13, x4, x5
            const char digit = (char)(value % base);
     62c:	9b0ba58a 	msub	x10, x12, x11, x9
     630:	12001d48 	and	w8, w10, #0xff
            buf[len++] = digit < 10 ? '0' + digit : (flags & FLAGS_UPPERCASE ? 'A' : 'a') + digit - 10;
     634:	f100255f 	cmp	x10, #0x9
     638:	1100c10a 	add	w10, w8, #0x30
     63c:	0b0e0108 	add	w8, w8, w14
     640:	12001d4a 	and	w10, w10, #0xff
     644:	12001d08 	and	w8, w8, #0xff
     648:	1a8a8108 	csel	w8, w8, w10, hi  // hi = pmore
     64c:	381ff1a8 	sturb	w8, [x13, #-1]
        } while (value && (len < PRINTF_NTOA_BUFFER_SIZE));
     650:	eb0b013f 	cmp	x9, x11
            value /= base;
     654:	aa0c03e9 	mov	x9, x12
        } while (value && (len < PRINTF_NTOA_BUFFER_SIZE));
     658:	fa5f28a2 	ccmp	x5, #0x1f, #0x2, cs  // cs = hs, nlast
     65c:	54fffe29 	b.ls	620 <_ntoa_long+0x130>  // b.plast
    if (!(flags & FLAGS_LEFT)) {
     660:	370ffa47 	tbnz	w7, #1, 5a8 <_ntoa_long+0xb8>
        while ((len < prec) && (len < PRINTF_NTOA_BUFFER_SIZE)) {
     664:	f1007cbf 	cmp	x5, #0x1f
     668:	2a0f03e9 	mov	w9, w15
     66c:	1a9f87ea 	cset	w10, ls  // ls = plast
     670:	eb05013f 	cmp	x9, x5
     674:	1a9f97e8 	cset	w8, hi  // hi = pmore
        if (width && (flags & FLAGS_ZEROPAD) && (negative || (flags & (FLAGS_PLUS | FLAGS_SPACE)))) {
     678:	120000ec 	and	w12, w7, #0x1
        while ((len < prec) && (len < PRINTF_NTOA_BUFFER_SIZE)) {
     67c:	0a080148 	and	w8, w10, w8
        if (width && (flags & FLAGS_ZEROPAD) && (negative || (flags & (FLAGS_PLUS | FLAGS_SPACE)))) {
     680:	34fff686 	cbz	w6, 550 <_ntoa_long+0x60>
     684:	3400048c 	cbz	w12, 714 <_ntoa_long+0x224>
     688:	35000072 	cbnz	w18, 694 <_ntoa_long+0x1a4>
     68c:	721e04ff 	tst	w7, #0xc
     690:	54000040 	b.eq	698 <_ntoa_long+0x1a8>  // b.none
            width--;
     694:	510004c6 	sub	w6, w6, #0x1
        while ((len < prec) && (len < PRINTF_NTOA_BUFFER_SIZE)) {
     698:	35fff5e8 	cbnz	w8, 554 <_ntoa_long+0x64>
     69c:	17ffffb8 	b	57c <_ntoa_long+0x8c>
    if (flags & FLAGS_HASH) {
     6a0:	121c0111 	and	w17, w8, #0x10
     6a4:	2a0803e7 	mov	w7, w8
     6a8:	17ffffd7 	b	604 <_ntoa_long+0x114>
        if (!(flags & FLAGS_PRECISION) && len && ((len == prec) || (len == width))) {
     6ac:	eb2f40bf 	cmp	x5, w15, uxtw
     6b0:	54000480 	b.eq	740 <_ntoa_long+0x250>  // b.none
     6b4:	eb2640bf 	cmp	x5, w6, uxtw
     6b8:	54000440 	b.eq	740 <_ntoa_long+0x250>  // b.none
     6bc:	d503201f 	nop
        } else if ((base == 2U) && (len < PRINTF_NTOA_BUFFER_SIZE)) {
     6c0:	f1007cbf 	cmp	x5, #0x1f
     6c4:	1a9f87e8 	cset	w8, ls  // ls = plast
        if ((base == 16U) && !(flags & FLAGS_UPPERCASE) && (len < PRINTF_NTOA_BUFFER_SIZE)) {
     6c8:	f100417f 	cmp	x11, #0x10
     6cc:	54000480 	b.eq	75c <_ntoa_long+0x26c>  // b.none
        } else if ((base == 2U) && (len < PRINTF_NTOA_BUFFER_SIZE)) {
     6d0:	7100011f 	cmp	w8, #0x0
     6d4:	7a421960 	ccmp	w11, #0x2, #0x0, ne  // ne = any
     6d8:	54000081 	b.ne	6e8 <_ntoa_long+0x1f8>  // b.any
            buf[len++] = 'b';
     6dc:	52800c48 	mov	w8, #0x62                  	// #98
     6e0:	38256888 	strb	w8, [x4, x5]
     6e4:	910004a5 	add	x5, x5, #0x1
        if (len < PRINTF_NTOA_BUFFER_SIZE) {
     6e8:	f10080bf 	cmp	x5, #0x20
     6ec:	54fff721 	b.ne	5d0 <_ntoa_long+0xe0>  // b.any
    return _out_rev(out, buffer, idx, maxlen, buf, len, width, flags);
     6f0:	97ffff3c 	bl	3e0 <_out_rev>
}
     6f4:	a8c37bfd 	ldp	x29, x30, [sp], #48
     6f8:	d65f03c0 	ret
        } else if (flags & FLAGS_PLUS) {
     6fc:	37100167 	tbnz	w7, #2, 728 <_ntoa_long+0x238>
        } else if (flags & FLAGS_SPACE) {
     700:	361ff7a7 	tbz	w7, #3, 5f4 <_ntoa_long+0x104>
            buf[len++] = ' ';
     704:	52800408 	mov	w8, #0x20                  	// #32
     708:	38256888 	strb	w8, [x4, x5]
     70c:	910004a5 	add	x5, x5, #0x1
     710:	17ffffb9 	b	5f4 <_ntoa_long+0x104>
        while ((len < prec) && (len < PRINTF_NTOA_BUFFER_SIZE)) {
     714:	35fff208 	cbnz	w8, 554 <_ntoa_long+0x64>
     718:	17ffffa4 	b	5a8 <_ntoa_long+0xb8>
     71c:	910043e4 	add	x4, sp, #0x10
    size_t len = 0U;
     720:	d2800005 	mov	x5, #0x0                   	// #0
     724:	17ffffb0 	b	5e4 <_ntoa_long+0xf4>
            buf[len++] = '+'; // ignore the space if the '+' exists
     728:	52800568 	mov	w8, #0x2b                  	// #43
     72c:	38256888 	strb	w8, [x4, x5]
     730:	910004a5 	add	x5, x5, #0x1
    return _out_rev(out, buffer, idx, maxlen, buf, len, width, flags);
     734:	97ffff2b 	bl	3e0 <_out_rev>
}
     738:	a8c37bfd 	ldp	x29, x30, [sp], #48
     73c:	d65f03c0 	ret
            if (len && (base == 16U)) {
     740:	f10004aa 	subs	x10, x5, #0x1
                len--;
     744:	d10008a5 	sub	x5, x5, #0x2
            if (len && (base == 16U)) {
     748:	1a9f07e8 	cset	w8, ne  // ne = any
     74c:	7100417f 	cmp	w11, #0x10
     750:	1a9f17e9 	cset	w9, eq  // eq = none
     754:	6a090108 	ands	w8, w8, w9
     758:	54000160 	b.eq	784 <_ntoa_long+0x294>  // b.none
        if ((base == 16U) && !(flags & FLAGS_UPPERCASE) && (len < PRINTF_NTOA_BUFFER_SIZE)) {
     75c:	721b00e9 	ands	w9, w7, #0x20
     760:	7a400904 	ccmp	w8, #0x0, #0x4, eq  // eq = none
     764:	54000141 	b.ne	78c <_ntoa_long+0x29c>  // b.any
        } else if ((base == 16U) && (flags & FLAGS_UPPERCASE) && (len < PRINTF_NTOA_BUFFER_SIZE)) {
     768:	7100013f 	cmp	w9, #0x0
     76c:	7a401904 	ccmp	w8, #0x0, #0x4, ne  // ne = any
     770:	54fffbc0 	b.eq	6e8 <_ntoa_long+0x1f8>  // b.none
            buf[len++] = 'X';
     774:	52800b08 	mov	w8, #0x58                  	// #88
     778:	38256888 	strb	w8, [x4, x5]
     77c:	910004a5 	add	x5, x5, #0x1
     780:	17ffffda 	b	6e8 <_ntoa_long+0x1f8>
            len--;
     784:	aa0a03e5 	mov	x5, x10
     788:	17ffffce 	b	6c0 <_ntoa_long+0x1d0>
            buf[len++] = 'x';
     78c:	52800f08 	mov	w8, #0x78                  	// #120
     790:	38256888 	strb	w8, [x4, x5]
     794:	910004a5 	add	x5, x5, #0x1
     798:	17ffffd4 	b	6e8 <_ntoa_long+0x1f8>
        if ((base == 16U) && !(flags & FLAGS_UPPERCASE) && (len < PRINTF_NTOA_BUFFER_SIZE)) {
     79c:	52800028 	mov	w8, #0x1                   	// #1
     7a0:	17ffffef 	b	75c <_ntoa_long+0x26c>
            buf[len++] = '0';
     7a4:	52800608 	mov	w8, #0x30                  	// #48
     7a8:	d2800025 	mov	x5, #0x1                   	// #1
     7ac:	390043e8 	strb	w8, [sp, #16]
    if (len < PRINTF_NTOA_BUFFER_SIZE) {
     7b0:	17ffff8d 	b	5e4 <_ntoa_long+0xf4>
     7b4:	d503201f 	nop
     7b8:	d503201f 	nop
     7bc:	d503201f 	nop

00000000000007c0 <_etoa>:
}

#if defined(PRINTF_SUPPORT_EXPONENTIAL)
// internal ftoa variant for exponential floating-point type, contributed by Martijn Jasperse <m.jasperse@gmail.com>
static size_t _etoa(out_fct_type out, char* buffer, size_t idx, size_t maxlen, double value, unsigned int prec, unsigned int width, unsigned int flags)
{
     7c0:	d10203ff 	sub	sp, sp, #0x80
    // check for NaN and special values
    if ((value != value) || (value > DBL_MAX) || (value < -DBL_MAX)) {
     7c4:	1e602000 	fcmp	d0, d0
{
     7c8:	a9017bfd 	stp	x29, x30, [sp, #16]
     7cc:	910043fd 	add	x29, sp, #0x10
     7d0:	a90253f3 	stp	x19, x20, [sp, #32]
     7d4:	aa0203f3 	mov	x19, x2
     7d8:	2a0603f4 	mov	w20, w6
     7dc:	a9035bf5 	stp	x21, x22, [sp, #48]
     7e0:	2a0503f6 	mov	w22, w5
     7e4:	a90463f7 	stp	x23, x24, [sp, #64]
     7e8:	aa0003f7 	mov	x23, x0
     7ec:	a9056bf9 	stp	x25, x26, [sp, #80]
     7f0:	aa0103f9 	mov	x25, x1
     7f4:	a90673fb 	stp	x27, x28, [sp, #96]
     7f8:	aa0303fb 	mov	x27, x3
    if ((value != value) || (value > DBL_MAX) || (value < -DBL_MAX)) {
     7fc:	54001361 	b.ne	a68 <_etoa+0x2a8>  // b.any
     800:	92f00200 	mov	x0, #0x7fefffffffffffff    	// #9218868437227405311
     804:	9e670001 	fmov	d1, x0
     808:	1e612010 	fcmpe	d0, d1
     80c:	540012ec 	b.gt	a68 <_etoa+0x2a8>
     810:	92e00200 	mov	x0, #0xffefffffffffffff    	// #-4503599627370497
     814:	9e670001 	fmov	d1, x0
     818:	1e612010 	fcmpe	d0, d1
     81c:	54001264 	b.mi	a68 <_etoa+0x2a8>  // b.first
        return _ftoa(out, buffer, idx, maxlen, value, prec, width, flags);
    }

    // determine the sign
    const bool negative = value < 0;
    if (negative) {
     820:	1e602018 	fcmpe	d0, #0.0
     824:	1e614007 	fneg	d7, d0

    conv.F = value;
    int exp2 = (int)((conv.U >> 52U) & 0x07FFU) - 1023; // effectively log2
    conv.U = (conv.U & ((1ULL << 52U) - 1U)) | (1023ULL << 52U); // drop the exponent so conv.F is now in [1,2)
    // now approximate log10 from the log2 integer part and an expansion of ln around 1.5
    int expval = (int)(0.1760912590558 + exp2 * 0.301029995663981 + (conv.F - 1.5) * 0.289529654602168);
     828:	f0000060 	adrp	x0, f000 <_fstat_r+0x40>
     82c:	fd42c817 	ldr	d23, [x0, #1424]
     830:	f0000060 	adrp	x0, f000 <_fstat_r+0x40>
     834:	fd42cc01 	ldr	d1, [x0, #1432]
     838:	f0000060 	adrp	x0, f000 <_fstat_r+0x40>
     83c:	fd42d016 	ldr	d22, [x0, #1440]
     840:	1e604ce7 	fcsel	d7, d7, d0, mi  // mi = first
    // now we want to compute 10^expval but we want to be sure it won't overflow
    exp2 = (int)(expval * 3.321928094887362 + 0.5);
     844:	f0000060 	adrp	x0, f000 <_fstat_r+0x40>
     848:	fd42d406 	ldr	d6, [x0, #1448]
    const double z = expval * 2.302585092994046 - exp2 * 0.6931471805599453;
     84c:	f0000060 	adrp	x0, f000 <_fstat_r+0x40>
     850:	fd42d815 	ldr	d21, [x0, #1456]
     854:	f0000060 	adrp	x0, f000 <_fstat_r+0x40>
     858:	fd42dc14 	ldr	d20, [x0, #1464]
    int expval = (int)(0.1760912590558 + exp2 * 0.301029995663981 + (conv.F - 1.5) * 0.289529654602168);
     85c:	1e6f1018 	fmov	d24, #1.500000000000000000e+00
    conv.F = value;
     860:	9e6600e1 	fmov	x1, d7
    exp2 = (int)(expval * 3.321928094887362 + 0.5);
     864:	1e6c1003 	fmov	d3, #5.000000000000000000e-01
    const double z2 = z * z;
    conv.U = (uint64_t)(exp2 + 1023) << 52U;
    // compute exp(z) using continued fractions, see https://en.wikipedia.org/wiki/Exponential_function#Continued_fractions_for_ex
    conv.F *= 1 + 2 * z / (2 - z + (z2 / (6 + (z2 / (10 + z2 / 14)))));
     868:	1e659002 	fmov	d2, #1.400000000000000000e+01
     86c:	1e649011 	fmov	d17, #1.000000000000000000e+01
     870:	1e631013 	fmov	d19, #6.000000000000000000e+00
     874:	1e601010 	fmov	d16, #2.000000000000000000e+00
     878:	1e6e1012 	fmov	d18, #1.000000000000000000e+00
        prec = PRINTF_DEFAULT_FLOAT_PRECISION;
     87c:	721600c3 	ands	w3, w6, #0x400
    conv.U = (conv.U & ((1ULL << 52U) - 1U)) | (1023ULL << 52U); // drop the exponent so conv.F is now in [1,2)
     880:	9240cc20 	and	x0, x1, #0xfffffffffffff
    int exp2 = (int)((conv.U >> 52U) & 0x07FFU) - 1023; // effectively log2
     884:	d374f821 	ubfx	x1, x1, #52, #11
     888:	510ffc21 	sub	w1, w1, #0x3ff
    conv.U = (conv.U & ((1ULL << 52U) - 1U)) | (1023ULL << 52U); // drop the exponent so conv.F is now in [1,2)
     88c:	b24c2400 	orr	x0, x0, #0x3ff0000000000000
     890:	9e670005 	fmov	d5, x0
        prec = PRINTF_DEFAULT_FLOAT_PRECISION;
     894:	528000c2 	mov	w2, #0x6                   	// #6
    int expval = (int)(0.1760912590558 + exp2 * 0.301029995663981 + (conv.F - 1.5) * 0.289529654602168);
     898:	1e620024 	scvtf	d4, w1
        prec = PRINTF_DEFAULT_FLOAT_PRECISION;
     89c:	1a821084 	csel	w4, w4, w2, ne  // ne = any
    int expval = (int)(0.1760912590558 + exp2 * 0.301029995663981 + (conv.F - 1.5) * 0.289529654602168);
     8a0:	1e7838a5 	fsub	d5, d5, d24
     8a4:	1e770884 	fmul	d4, d4, d23
     8a8:	1e7608a5 	fmul	d5, d5, d22
     8ac:	1e612884 	fadd	d4, d4, d1
     8b0:	1e652884 	fadd	d4, d4, d5
     8b4:	1e780098 	fcvtzs	w24, d4
    exp2 = (int)(expval * 3.321928094887362 + 0.5);
     8b8:	1e620301 	scvtf	d1, w24
     8bc:	1e660824 	fmul	d4, d1, d6
    const double z = expval * 2.302585092994046 - exp2 * 0.6931471805599453;
     8c0:	1e750821 	fmul	d1, d1, d21
    exp2 = (int)(expval * 3.321928094887362 + 0.5);
     8c4:	1e632884 	fadd	d4, d4, d3
     8c8:	1e780080 	fcvtzs	w0, d4
    const double z = expval * 2.302585092994046 - exp2 * 0.6931471805599453;
     8cc:	1e620003 	scvtf	d3, w0
    conv.U = (uint64_t)(exp2 + 1023) << 52U;
     8d0:	110ffc00 	add	w0, w0, #0x3ff
     8d4:	9e670004 	fmov	d4, x0
     8d8:	5f745484 	shl	d4, d4, #52
    const double z = expval * 2.302585092994046 - exp2 * 0.6931471805599453;
     8dc:	1e740863 	fmul	d3, d3, d20
     8e0:	1e633821 	fsub	d1, d1, d3
    const double z2 = z * z;
     8e4:	1e610823 	fmul	d3, d1, d1
    conv.F *= 1 + 2 * z / (2 - z + (z2 / (6 + (z2 / (10 + z2 / 14)))));
     8e8:	1e613a05 	fsub	d5, d16, d1
     8ec:	1e612821 	fadd	d1, d1, d1
     8f0:	1e621862 	fdiv	d2, d3, d2
     8f4:	1e712842 	fadd	d2, d2, d17
     8f8:	1e621862 	fdiv	d2, d3, d2
     8fc:	1e732842 	fadd	d2, d2, d19
     900:	1e621863 	fdiv	d3, d3, d2
     904:	1e652863 	fadd	d3, d3, d5
     908:	1e631821 	fdiv	d1, d1, d3
     90c:	1e722821 	fadd	d1, d1, d18
     910:	1e640821 	fmul	d1, d1, d4
    // correct for rounding errors
    if (value < conv.F) {
     914:	1e672030 	fcmpe	d1, d7
     918:	54000c4c 	b.gt	aa0 <_etoa+0x2e0>
        expval--;
        conv.F /= 10;
    }

    // the exponent format is "%+03d" and largest value is "307", so set aside 4-5 characters
    unsigned int minwidth = ((expval < 100) && (expval > -100)) ? 4U : 5U;
     91c:	11018f00 	add	w0, w24, #0x63
     920:	7103181f 	cmp	w0, #0xc6
     924:	1a9f97fc 	cset	w28, hi  // hi = pmore
     928:	1100139c 	add	w28, w28, #0x4

    // in "%g" mode, "prec" is the number of *significant figures* not decimals
    if (flags & FLAGS_ADAPT_EXP) {
     92c:	36580134 	tbz	w20, #11, 950 <_etoa+0x190>
        // do we want to fall-back to "%f" mode?
        if ((value >= 1e-4) && (value < 1e6)) {
     930:	f0000060 	adrp	x0, f000 <_fstat_r+0x40>
     934:	fd42e002 	ldr	d2, [x0, #1472]
     938:	1e6220f0 	fcmpe	d7, d2
     93c:	54000d2a 	b.ge	ae0 <_etoa+0x320>  // b.tcont
            // no characters in exponent
            minwidth = 0U;
            expval = 0;
        } else {
            // we use one sigfig for the whole part
            if ((prec > 0) && (flags & FLAGS_PRECISION)) {
     940:	34000084 	cbz	w4, 950 <_etoa+0x190>
                --prec;
     944:	7100007f 	cmp	w3, #0x0
     948:	1a9f07e0 	cset	w0, ne  // ne = any
     94c:	4b000084 	sub	w4, w4, w0

    // will everything fit?
    unsigned int fwidth = width;
    if (width > minwidth) {
        // we didn't fall-back so subtract the characters required for the exponent
        fwidth -= minwidth;
     950:	6b16039f 	cmp	w28, w22
    } else {
        // not enough characters, so go back to default sizing
        fwidth = 0U;
    }
    if ((flags & FLAGS_LEFT) && minwidth) {
     954:	121f0280 	and	w0, w20, #0x2
        fwidth -= minwidth;
     958:	4b1c02c5 	sub	w5, w22, w28
     95c:	5280003a 	mov	w26, #0x1                   	// #1
     960:	1a9f30a5 	csel	w5, w5, wzr, cc  // cc = lo, ul, last
    if ((flags & FLAGS_LEFT) && minwidth) {
     964:	7100001f 	cmp	w0, #0x0
     968:	1a9f07e0 	cset	w0, ne  // ne = any
     96c:	b9007fe0 	str	w0, [sp, #124]
     970:	1a9f00a5 	csel	w5, w5, wzr, eq  // eq = none
        // if we're padding on the right, DON'T pad the floating part
        fwidth = 0U;
    }

    // rescale the float value
    if (expval) {
     974:	34000058 	cbz	w24, 97c <_etoa+0x1bc>
        value /= conv.F;
     978:	1e6118e7 	fdiv	d7, d7, d1
    }

    // output the floating part
    const size_t start_idx = idx;
    idx = _ftoa(out, buffer, idx, maxlen, negative ? -value : value, prec, fwidth, flags & ~FLAGS_ADAPT_EXP);
     97c:	1e602018 	fcmpe	d0, #0.0
     980:	54000ac4 	b.mi	ad8 <_etoa+0x318>  // b.first
     984:	1e6040e0 	fmov	d0, d7
     988:	12147a86 	and	w6, w20, #0xfffff7ff
     98c:	aa1b03e3 	mov	x3, x27
     990:	aa1303e2 	mov	x2, x19
     994:	aa1903e1 	mov	x1, x25
     998:	aa1703e0 	mov	x0, x23
     99c:	94000071 	bl	b60 <_ftoa>
     9a0:	aa0003f5 	mov	x21, x0

    // output the exponent part
    if (minwidth) {
     9a4:	3400051a 	cbz	w26, a44 <_etoa+0x284>
        // output the exponential symbol
        out((flags & FLAGS_UPPERCASE) ? 'E' : 'e', buffer, idx++, maxlen);
     9a8:	f27b029f 	tst	x20, #0x20
     9ac:	528008a1 	mov	w1, #0x45                  	// #69
     9b0:	aa1503e2 	mov	x2, x21
     9b4:	aa1b03e3 	mov	x3, x27
     9b8:	52800ca0 	mov	w0, #0x65                  	// #101
     9bc:	1a801020 	csel	w0, w1, w0, ne  // ne = any
     9c0:	aa1903e1 	mov	x1, x25
     9c4:	d63f02e0 	blr	x23
        // output the exponent value
        idx = _ntoa_long(out, buffer, idx, maxlen, (expval < 0) ? -expval : expval, expval < 0, 10, 0, minwidth - 1, FLAGS_ZEROPAD | FLAGS_PLUS);
     9c8:	7100031f 	cmp	w24, #0x0
     9cc:	528000a0 	mov	w0, #0x5                   	// #5
     9d0:	5a98a704 	cneg	w4, w24, lt  // lt = tstop
     9d4:	5100079c 	sub	w28, w28, #0x1
     9d8:	b90003fc 	str	w28, [sp]
        out((flags & FLAGS_UPPERCASE) ? 'E' : 'e', buffer, idx++, maxlen);
     9dc:	910006a2 	add	x2, x21, #0x1
        idx = _ntoa_long(out, buffer, idx, maxlen, (expval < 0) ? -expval : expval, expval < 0, 10, 0, minwidth - 1, FLAGS_ZEROPAD | FLAGS_PLUS);
     9e0:	b9000be0 	str	w0, [sp, #8]
     9e4:	93407c84 	sxtw	x4, w4
     9e8:	531f7f05 	lsr	w5, w24, #31
     9ec:	aa1b03e3 	mov	x3, x27
     9f0:	aa1903e1 	mov	x1, x25
     9f4:	aa1703e0 	mov	x0, x23
     9f8:	52800007 	mov	w7, #0x0                   	// #0
     9fc:	d2800146 	mov	x6, #0xa                   	// #10
     a00:	97fffebc 	bl	4f0 <_ntoa_long>
     a04:	aa0003f5 	mov	x21, x0
        // might need to right-pad spaces
        if (flags & FLAGS_LEFT) {
     a08:	b9407fe0 	ldr	w0, [sp, #124]
     a0c:	340001c0 	cbz	w0, a44 <_etoa+0x284>
            while (idx - start_idx < width)
     a10:	cb1302b3 	sub	x19, x21, x19
     a14:	eb1302df 	cmp	x22, x19
     a18:	54000169 	b.ls	a44 <_etoa+0x284>  // b.plast
     a1c:	d503201f 	nop
                out(' ', buffer, idx++, maxlen);
     a20:	aa1503e2 	mov	x2, x21
            while (idx - start_idx < width)
     a24:	91000673 	add	x19, x19, #0x1
                out(' ', buffer, idx++, maxlen);
     a28:	aa1b03e3 	mov	x3, x27
     a2c:	aa1903e1 	mov	x1, x25
     a30:	52800400 	mov	w0, #0x20                  	// #32
     a34:	d63f02e0 	blr	x23
     a38:	910006b5 	add	x21, x21, #0x1
            while (idx - start_idx < width)
     a3c:	eb1302df 	cmp	x22, x19
     a40:	54ffff08 	b.hi	a20 <_etoa+0x260>  // b.pmore
        }
    }
    return idx;
}
     a44:	aa1503e0 	mov	x0, x21
     a48:	a9417bfd 	ldp	x29, x30, [sp, #16]
     a4c:	a94253f3 	ldp	x19, x20, [sp, #32]
     a50:	a9435bf5 	ldp	x21, x22, [sp, #48]
     a54:	a94463f7 	ldp	x23, x24, [sp, #64]
     a58:	a9456bf9 	ldp	x25, x26, [sp, #80]
     a5c:	a94673fb 	ldp	x27, x28, [sp, #96]
     a60:	910203ff 	add	sp, sp, #0x80
     a64:	d65f03c0 	ret
        return _ftoa(out, buffer, idx, maxlen, value, prec, width, flags);
     a68:	2a1403e6 	mov	w6, w20
     a6c:	2a1603e5 	mov	w5, w22
     a70:	aa1b03e3 	mov	x3, x27
     a74:	aa1303e2 	mov	x2, x19
     a78:	aa1903e1 	mov	x1, x25
     a7c:	aa1703e0 	mov	x0, x23
}
     a80:	a9417bfd 	ldp	x29, x30, [sp, #16]
     a84:	a94253f3 	ldp	x19, x20, [sp, #32]
     a88:	a9435bf5 	ldp	x21, x22, [sp, #48]
     a8c:	a94463f7 	ldp	x23, x24, [sp, #64]
     a90:	a9456bf9 	ldp	x25, x26, [sp, #80]
     a94:	a94673fb 	ldp	x27, x28, [sp, #96]
     a98:	910203ff 	add	sp, sp, #0x80
    idx = _ftoa(out, buffer, idx, maxlen, negative ? -value : value, prec, fwidth, flags & ~FLAGS_ADAPT_EXP);
     a9c:	14000031 	b	b60 <_ftoa>
        conv.F /= 10;
     aa0:	1e711821 	fdiv	d1, d1, d17
        expval--;
     aa4:	51000718 	sub	w24, w24, #0x1
    unsigned int minwidth = ((expval < 100) && (expval > -100)) ? 4U : 5U;
     aa8:	11018f00 	add	w0, w24, #0x63
     aac:	7103181f 	cmp	w0, #0xc6
     ab0:	1a9f97fc 	cset	w28, hi  // hi = pmore
     ab4:	1100139c 	add	w28, w28, #0x4
    if (flags & FLAGS_ADAPT_EXP) {
     ab8:	365ff4d4 	tbz	w20, #11, 950 <_etoa+0x190>
     abc:	17ffff9d 	b	930 <_etoa+0x170>
            flags |= FLAGS_PRECISION; // make sure _ftoa respects precision
     ac0:	2a0003f4 	mov	w20, w0
        fwidth = 0U;
     ac4:	52800005 	mov	w5, #0x0                   	// #0
            minwidth = 0U;
     ac8:	5280001c 	mov	w28, #0x0                   	// #0
            expval = 0;
     acc:	52800018 	mov	w24, #0x0                   	// #0
    if ((flags & FLAGS_LEFT) && minwidth) {
     ad0:	5280001a 	mov	w26, #0x0                   	// #0
     ad4:	b9007fff 	str	wzr, [sp, #124]
    idx = _ftoa(out, buffer, idx, maxlen, negative ? -value : value, prec, fwidth, flags & ~FLAGS_ADAPT_EXP);
     ad8:	1e6140e7 	fneg	d7, d7
     adc:	17ffffaa 	b	984 <_etoa+0x1c4>
        if ((value >= 1e-4) && (value < 1e6)) {
     ae0:	d2d09000 	mov	x0, #0x848000000000        	// #145685290680320
     ae4:	f2e825c0 	movk	x0, #0x412e, lsl #48
     ae8:	9e670002 	fmov	d2, x0
     aec:	1e6220f0 	fcmpe	d7, d2
     af0:	54000044 	b.mi	af8 <_etoa+0x338>  // b.first
     af4:	17ffff93 	b	940 <_etoa+0x180>
                prec = (unsigned)((int)prec - expval - 1);
     af8:	6b180080 	subs	w0, w4, w24
     afc:	51000404 	sub	w4, w0, #0x1
            flags |= FLAGS_PRECISION; // make sure _ftoa respects precision
     b00:	32160280 	orr	w0, w20, #0x400
                prec = (unsigned)((int)prec - expval - 1);
     b04:	1a9fc084 	csel	w4, w4, wzr, gt
    if (width > minwidth) {
     b08:	35000196 	cbnz	w22, b38 <_etoa+0x378>
    idx = _ftoa(out, buffer, idx, maxlen, negative ? -value : value, prec, fwidth, flags & ~FLAGS_ADAPT_EXP);
     b0c:	1e602018 	fcmpe	d0, #0.0
     b10:	54fffd84 	b.mi	ac0 <_etoa+0x300>  // b.first
     b14:	12147a86 	and	w6, w20, #0xfffff7ff
     b18:	1e6040e0 	fmov	d0, d7
     b1c:	321600c6 	orr	w6, w6, #0x400
     b20:	aa1b03e3 	mov	x3, x27
     b24:	aa1303e2 	mov	x2, x19
     b28:	aa1903e1 	mov	x1, x25
     b2c:	aa1703e0 	mov	x0, x23
     b30:	52800005 	mov	w5, #0x0                   	// #0
     b34:	17ffffd3 	b	a80 <_etoa+0x2c0>
            flags |= FLAGS_PRECISION; // make sure _ftoa respects precision
     b38:	2a0003f4 	mov	w20, w0
    if (width > minwidth) {
     b3c:	2a1603e5 	mov	w5, w22
     b40:	5280001a 	mov	w26, #0x0                   	// #0
     b44:	52800018 	mov	w24, #0x0                   	// #0
            minwidth = 0U;
     b48:	5280001c 	mov	w28, #0x0                   	// #0
    if (width > minwidth) {
     b4c:	b9007fff 	str	wzr, [sp, #124]
     b50:	17ffff8b 	b	97c <_etoa+0x1bc>
     b54:	d503201f 	nop
     b58:	d503201f 	nop
     b5c:	d503201f 	nop

0000000000000b60 <_ftoa>:
    if (value != value)
     b60:	1e602000 	fcmp	d0, d0
{
     b64:	2a0603e7 	mov	w7, w6
    if (value != value)
     b68:	54000e01 	b.ne	d28 <_ftoa+0x1c8>  // b.any
    if (value < -DBL_MAX)
     b6c:	92e00206 	mov	x6, #0xffefffffffffffff    	// #-4503599627370497
     b70:	9e6700c1 	fmov	d1, x6
     b74:	1e612010 	fcmpe	d0, d1
     b78:	54001184 	b.mi	da8 <_ftoa+0x248>  // b.first
     b7c:	aa0003ef 	mov	x15, x0
    if (value > DBL_MAX)
     b80:	92f00200 	mov	x0, #0x7fefffffffffffff    	// #9218868437227405311
     b84:	9e670001 	fmov	d1, x0
     b88:	aa0103f0 	mov	x16, x1
     b8c:	aa0203f1 	mov	x17, x2
     b90:	aa0303f2 	mov	x18, x3
     b94:	1e612010 	fcmpe	d0, d1
     b98:	54000b2c 	b.gt	cfc <_ftoa+0x19c>
    if ((value > PRINTF_MAX_FLOAT) || (value < -PRINTF_MAX_FLOAT)) {
     b9c:	d2d9aca0 	mov	x0, #0xcd6500000000        	// #225833675390976
     ba0:	f2e839a0 	movk	x0, #0x41cd, lsl #48
     ba4:	9e670001 	fmov	d1, x0
     ba8:	1e612010 	fcmpe	d0, d1
     bac:	54000f2c 	b.gt	d90 <_ftoa+0x230>
     bb0:	d2d9aca0 	mov	x0, #0xcd6500000000        	// #225833675390976
     bb4:	f2f839a0 	movk	x0, #0xc1cd, lsl #48
     bb8:	9e670001 	fmov	d1, x0
     bbc:	1e612010 	fcmpe	d0, d1
     bc0:	54000e84 	b.mi	d90 <_ftoa+0x230>  // b.first
    if (value < 0) {
     bc4:	1e602018 	fcmpe	d0, #0.0
{
     bc8:	a9bd7bfd 	stp	x29, x30, [sp, #-48]!
     bcc:	910003fd 	mov	x29, sp
    if (value < 0) {
     bd0:	54000ca4 	b.mi	d64 <_ftoa+0x204>  // b.first
    bool negative = false;
     bd4:	52800003 	mov	w3, #0x0                   	// #0
    if (!(flags & FLAGS_PRECISION)) {
     bd8:	36500ce7 	tbz	w7, #10, d74 <_ftoa+0x214>
    while ((len < PRINTF_FTOA_BUFFER_SIZE) && (prec > 9U)) {
     bdc:	7100249f 	cmp	w4, #0x9
     be0:	910043ec 	add	x12, sp, #0x10
     be4:	d2800008 	mov	x8, #0x0                   	// #0
        buf[len++] = '0';
     be8:	52800601 	mov	w1, #0x30                  	// #48
    while ((len < PRINTF_FTOA_BUFFER_SIZE) && (prec > 9U)) {
     bec:	54001929 	b.ls	f10 <_ftoa+0x3b0>  // b.plast
        buf[len++] = '0';
     bf0:	91000508 	add	x8, x8, #0x1
        prec--;
     bf4:	51000484 	sub	w4, w4, #0x1
        buf[len++] = '0';
     bf8:	8b080180 	add	x0, x12, x8
    while ((len < PRINTF_FTOA_BUFFER_SIZE) && (prec > 9U)) {
     bfc:	f1007d1f 	cmp	x8, #0x1f
     c00:	7a499880 	ccmp	w4, #0x9, #0x0, ls  // ls = plast
        buf[len++] = '0';
     c04:	381ff001 	sturb	w1, [x0, #-1]
    while ((len < PRINTF_FTOA_BUFFER_SIZE) && (prec > 9U)) {
     c08:	54ffff48 	b.hi	bf0 <_ftoa+0x90>  // b.pmore
     c0c:	d2d9aca0 	mov	x0, #0xcd6500000000        	// #225833675390976
     c10:	f2e839a0 	movk	x0, #0x41cd, lsl #48
     c14:	9e670002 	fmov	d2, x0
    int whole = (int)value;
     c18:	1e78000a 	fcvtzs	w10, d0
    if (diff > 0.5) {
     c1c:	1e6c1003 	fmov	d3, #5.000000000000000000e-01
    double tmp = (value - whole) * pow10[prec];
     c20:	1e620141 	scvtf	d1, w10
     c24:	1e613801 	fsub	d1, d0, d1
     c28:	1e620821 	fmul	d1, d1, d2
    unsigned long frac = (unsigned long)tmp;
     c2c:	9e79002e 	fcvtzu	x14, d1
    diff = tmp - frac;
     c30:	9e6301c4 	ucvtf	d4, x14
     c34:	1e643821 	fsub	d1, d1, d4
    if (diff > 0.5) {
     c38:	1e632030 	fcmpe	d1, d3
     c3c:	5400112c 	b.gt	e60 <_ftoa+0x300>
    } else if (diff < 0.5) {
     c40:	54000084 	b.mi	c50 <_ftoa+0xf0>  // b.first
    } else if ((frac == 0U) || (frac & 1U)) {
     c44:	b500154e 	cbnz	x14, eec <_ftoa+0x38c>
        ++frac;
     c48:	910005ce 	add	x14, x14, #0x1
     c4c:	d503201f 	nop
    if (prec == 0U) {
     c50:	35000b64 	cbnz	w4, dbc <_ftoa+0x25c>
        diff = value - (double)whole;
     c54:	1e620141 	scvtf	d1, w10
        if ((!(diff < 0.5) || (diff > 0.5)) && (whole & 1)) {
     c58:	1e6c1002 	fmov	d2, #5.000000000000000000e-01
        diff = value - (double)whole;
     c5c:	1e613800 	fsub	d0, d0, d1
        if ((!(diff < 0.5) || (diff > 0.5)) && (whole & 1)) {
     c60:	1e622010 	fcmpe	d0, d2
     c64:	540011a4 	b.mi	e98 <_ftoa+0x338>  // b.first
            ++whole;
     c68:	12000140 	and	w0, w10, #0x1
     c6c:	0b00014a 	add	w10, w10, w0
        buf[len++] = (char)(48 + (whole % 10));
     c70:	528ccce1 	mov	w1, #0x6667                	// #26215
     c74:	72acccc1 	movk	w1, #0x6666, lsl #16
     c78:	52800142 	mov	w2, #0xa                   	// #10
     c7c:	d503201f 	nop
     c80:	9b217d49 	smull	x9, w10, w1
    while (len < PRINTF_FTOA_BUFFER_SIZE) {
     c84:	f100811f 	cmp	x8, #0x20
     c88:	54000c20 	b.eq	e0c <_ftoa+0x2ac>  // b.none
        buf[len++] = (char)(48 + (whole % 10));
     c8c:	9362fd29 	asr	x9, x9, #34
     c90:	91000508 	add	x8, x8, #0x1
     c94:	4b8a7d29 	sub	w9, w9, w10, asr #31
     c98:	8b080180 	add	x0, x12, x8
     c9c:	1b02a92b 	msub	w11, w9, w2, w10
        if (!(whole /= 10)) {
     ca0:	2a0903ea 	mov	w10, w9
        buf[len++] = (char)(48 + (whole % 10));
     ca4:	1100c169 	add	w9, w11, #0x30
     ca8:	381ff009 	sturb	w9, [x0, #-1]
        if (!(whole /= 10)) {
     cac:	35fffeaa 	cbnz	w10, c80 <_ftoa+0x120>
    if (!(flags & FLAGS_LEFT) && (flags & FLAGS_ZEROPAD)) {
     cb0:	120004e0 	and	w0, w7, #0x3
     cb4:	7100041f 	cmp	w0, #0x1
     cb8:	54000b00 	b.eq	e18 <_ftoa+0x2b8>  // b.none
    if (len < PRINTF_FTOA_BUFFER_SIZE) {
     cbc:	f1007d1f 	cmp	x8, #0x1f
     cc0:	540000a8 	b.hi	cd4 <_ftoa+0x174>  // b.pmore
        if (negative) {
     cc4:	34000de3 	cbz	w3, e80 <_ftoa+0x320>
            buf[len++] = '-';
     cc8:	528005a0 	mov	w0, #0x2d                  	// #45
     ccc:	38286980 	strb	w0, [x12, x8]
     cd0:	91000508 	add	x8, x8, #0x1
    return _out_rev(out, buffer, idx, maxlen, buf, len, width, flags);
     cd4:	2a0503e6 	mov	w6, w5
     cd8:	aa0c03e4 	mov	x4, x12
     cdc:	aa0803e5 	mov	x5, x8
     ce0:	aa1203e3 	mov	x3, x18
     ce4:	aa1103e2 	mov	x2, x17
     ce8:	aa1003e1 	mov	x1, x16
     cec:	aa0f03e0 	mov	x0, x15
     cf0:	97fffdbc 	bl	3e0 <_out_rev>
}
     cf4:	a8c37bfd 	ldp	x29, x30, [sp], #48
     cf8:	d65f03c0 	ret
        return _out_rev(out, buffer, idx, maxlen, (flags & FLAGS_PLUS) ? "fni+" : "fni", (flags & FLAGS_PLUS) ? 4U : 3U, width, flags);
     cfc:	37100207 	tbnz	w7, #2, d3c <_ftoa+0x1dc>
     d00:	d2800060 	mov	x0, #0x3                   	// #3
     d04:	2a0503e6 	mov	w6, w5
     d08:	f0000064 	adrp	x4, f000 <_fstat_r+0x40>
     d0c:	91118084 	add	x4, x4, #0x460
     d10:	aa0003e5 	mov	x5, x0
     d14:	aa1203e3 	mov	x3, x18
     d18:	aa1103e2 	mov	x2, x17
     d1c:	aa1003e1 	mov	x1, x16
     d20:	aa0f03e0 	mov	x0, x15
     d24:	17fffdaf 	b	3e0 <_out_rev>
        return _out_rev(out, buffer, idx, maxlen, "nan", 3, width, flags);
     d28:	2a0503e6 	mov	w6, w5
     d2c:	f0000064 	adrp	x4, f000 <_fstat_r+0x40>
     d30:	d2800065 	mov	x5, #0x3                   	// #3
     d34:	9111c084 	add	x4, x4, #0x470
     d38:	17fffdaa 	b	3e0 <_out_rev>
        return _out_rev(out, buffer, idx, maxlen, (flags & FLAGS_PLUS) ? "fni+" : "fni", (flags & FLAGS_PLUS) ? 4U : 3U, width, flags);
     d3c:	d2800080 	mov	x0, #0x4                   	// #4
     d40:	2a0503e6 	mov	w6, w5
     d44:	f0000064 	adrp	x4, f000 <_fstat_r+0x40>
     d48:	9111a084 	add	x4, x4, #0x468
     d4c:	aa0003e5 	mov	x5, x0
     d50:	aa1203e3 	mov	x3, x18
     d54:	aa1103e2 	mov	x2, x17
     d58:	aa1003e1 	mov	x1, x16
     d5c:	aa0f03e0 	mov	x0, x15
     d60:	17fffda0 	b	3e0 <_out_rev>
        value = 0 - value;
     d64:	2f00e401 	movi	d1, #0x0
        negative = true;
     d68:	52800023 	mov	w3, #0x1                   	// #1
        value = 0 - value;
     d6c:	1e603820 	fsub	d0, d1, d0
    if (!(flags & FLAGS_PRECISION)) {
     d70:	3757f367 	tbnz	w7, #10, bdc <_ftoa+0x7c>
     d74:	d2d09000 	mov	x0, #0x848000000000        	// #145685290680320
     d78:	910043ec 	add	x12, sp, #0x10
     d7c:	f2e825c0 	movk	x0, #0x412e, lsl #48
     d80:	d2800008 	mov	x8, #0x0                   	// #0
     d84:	9e670002 	fmov	d2, x0
        prec = PRINTF_DEFAULT_FLOAT_PRECISION;
     d88:	528000c4 	mov	w4, #0x6                   	// #6
     d8c:	17ffffa3 	b	c18 <_ftoa+0xb8>
        return _etoa(out, buffer, idx, maxlen, value, prec, width, flags);
     d90:	2a0703e6 	mov	w6, w7
     d94:	aa1203e3 	mov	x3, x18
     d98:	aa1103e2 	mov	x2, x17
     d9c:	aa1003e1 	mov	x1, x16
     da0:	aa0f03e0 	mov	x0, x15
     da4:	17fffe87 	b	7c0 <_etoa>
        return _out_rev(out, buffer, idx, maxlen, "fni-", 4, width, flags);
     da8:	2a0503e6 	mov	w6, w5
     dac:	f0000064 	adrp	x4, f000 <_fstat_r+0x40>
     db0:	d2800085 	mov	x5, #0x4                   	// #4
     db4:	9111e084 	add	x4, x4, #0x478
     db8:	17fffd8a 	b	3e0 <_out_rev>
     dbc:	51008081 	sub	w1, w4, #0x20
            buf[len++] = (char)(48U + (frac % 10U));
     dc0:	b202e7e2 	mov	x2, #0xcccccccccccccccc    	// #-3689348814741910324
     dc4:	0b080021 	add	w1, w1, w8
     dc8:	f29999a2 	movk	x2, #0xcccd
     dcc:	1400000d 	b	e00 <_ftoa+0x2a0>
     dd0:	d343fd6b 	lsr	x11, x11, #3
            if (!(frac /= 10U)) {
     dd4:	f10025df 	cmp	x14, #0x9
            --count;
     dd8:	51000480 	sub	w0, w4, #0x1
            buf[len++] = (char)(48U + (frac % 10U));
     ddc:	91000509 	add	x9, x8, #0x1
     de0:	8b0b096d 	add	x13, x11, x11, lsl #2
     de4:	cb0d05cd 	sub	x13, x14, x13, lsl #1
            if (!(frac /= 10U)) {
     de8:	aa0b03ee 	mov	x14, x11
            buf[len++] = (char)(48U + (frac % 10U));
     dec:	1100c1ab 	add	w11, w13, #0x30
     df0:	3828698b 	strb	w11, [x12, x8]
            if (!(frac /= 10U)) {
     df4:	54000569 	b.ls	ea0 <_ftoa+0x340>  // b.plast
            --count;
     df8:	2a0003e4 	mov	w4, w0
            buf[len++] = (char)(48U + (frac % 10U));
     dfc:	aa0903e8 	mov	x8, x9
     e00:	9bc27dcb 	umulh	x11, x14, x2
        while (len < PRINTF_FTOA_BUFFER_SIZE) {
     e04:	6b01009f 	cmp	w4, w1
     e08:	54fffe41 	b.ne	dd0 <_ftoa+0x270>  // b.any
    if (!(flags & FLAGS_LEFT) && (flags & FLAGS_ZEROPAD)) {
     e0c:	120004e0 	and	w0, w7, #0x3
     e10:	7100041f 	cmp	w0, #0x1
     e14:	54fff601 	b.ne	cd4 <_ftoa+0x174>  // b.any
        if (width && (negative || (flags & (FLAGS_PLUS | FLAGS_SPACE)))) {
     e18:	34fff525 	cbz	w5, cbc <_ftoa+0x15c>
     e1c:	35000763 	cbnz	w3, f08 <_ftoa+0x3a8>
     e20:	721e04ff 	tst	w7, #0xc
     e24:	54000721 	b.ne	f08 <_ftoa+0x3a8>  // b.any
        while ((len < width) && (len < PRINTF_FTOA_BUFFER_SIZE)) {
     e28:	2a0503e1 	mov	w1, w5
     e2c:	eb01011f 	cmp	x8, x1
     e30:	54fff462 	b.cs	cbc <_ftoa+0x15c>  // b.hs, b.nlast
     e34:	f1007d1f 	cmp	x8, #0x1f
            buf[len++] = '0';
     e38:	52800602 	mov	w2, #0x30                  	// #48
        while ((len < width) && (len < PRINTF_FTOA_BUFFER_SIZE)) {
     e3c:	54fff4c8 	b.hi	cd4 <_ftoa+0x174>  // b.pmore
            buf[len++] = '0';
     e40:	91000508 	add	x8, x8, #0x1
     e44:	8b080180 	add	x0, x12, x8
        while ((len < width) && (len < PRINTF_FTOA_BUFFER_SIZE)) {
     e48:	eb01011f 	cmp	x8, x1
            buf[len++] = '0';
     e4c:	381ff002 	sturb	w2, [x0, #-1]
        while ((len < width) && (len < PRINTF_FTOA_BUFFER_SIZE)) {
     e50:	54fff360 	b.eq	cbc <_ftoa+0x15c>  // b.none
     e54:	f100811f 	cmp	x8, #0x20
     e58:	54ffff41 	b.ne	e40 <_ftoa+0x2e0>  // b.any
     e5c:	17ffff9e 	b	cd4 <_ftoa+0x174>
        ++frac;
     e60:	910005ce 	add	x14, x14, #0x1
        if (frac >= pow10[prec]) {
     e64:	9e6301c1 	ucvtf	d1, x14
     e68:	1e622030 	fcmpe	d1, d2
     e6c:	5400004a 	b.ge	e74 <_ftoa+0x314>  // b.tcont
     e70:	17ffff78 	b	c50 <_ftoa+0xf0>
            ++whole;
     e74:	1100054a 	add	w10, w10, #0x1
            frac = 0;
     e78:	d280000e 	mov	x14, #0x0                   	// #0
     e7c:	17ffff75 	b	c50 <_ftoa+0xf0>
        } else if (flags & FLAGS_PLUS) {
     e80:	371003c7 	tbnz	w7, #2, ef8 <_ftoa+0x398>
        } else if (flags & FLAGS_SPACE) {
     e84:	361ff287 	tbz	w7, #3, cd4 <_ftoa+0x174>
            buf[len++] = ' ';
     e88:	52800400 	mov	w0, #0x20                  	// #32
     e8c:	38286980 	strb	w0, [x12, x8]
     e90:	91000508 	add	x8, x8, #0x1
     e94:	17ffff90 	b	cd4 <_ftoa+0x174>
        if ((!(diff < 0.5) || (diff > 0.5)) && (whole & 1)) {
     e98:	54ffee8c 	b.gt	c68 <_ftoa+0x108>
     e9c:	17ffff75 	b	c70 <_ftoa+0x110>
        while ((len < PRINTF_FTOA_BUFFER_SIZE) && (count-- > 0U)) {
     ea0:	f100813f 	cmp	x9, #0x20
     ea4:	54000420 	b.eq	f28 <_ftoa+0x3c8>  // b.none
     ea8:	91000901 	add	x1, x8, #0x2
     eac:	51000884 	sub	w4, w4, #0x2
     eb0:	8b040021 	add	x1, x1, x4
            buf[len++] = '0';
     eb4:	52800602 	mov	w2, #0x30                  	// #48
        while ((len < PRINTF_FTOA_BUFFER_SIZE) && (count-- > 0U)) {
     eb8:	34000340 	cbz	w0, f20 <_ftoa+0x3c0>
     ebc:	d503201f 	nop
            buf[len++] = '0';
     ec0:	91000529 	add	x9, x9, #0x1
     ec4:	8b090180 	add	x0, x12, x9
        while ((len < PRINTF_FTOA_BUFFER_SIZE) && (count-- > 0U)) {
     ec8:	f100813f 	cmp	x9, #0x20
            buf[len++] = '0';
     ecc:	381ff002 	sturb	w2, [x0, #-1]
        while ((len < PRINTF_FTOA_BUFFER_SIZE) && (count-- > 0U)) {
     ed0:	540002c0 	b.eq	f28 <_ftoa+0x3c8>  // b.none
     ed4:	eb01013f 	cmp	x9, x1
     ed8:	54ffff41 	b.ne	ec0 <_ftoa+0x360>  // b.any
            buf[len++] = '.';
     edc:	528005c0 	mov	w0, #0x2e                  	// #46
     ee0:	91000428 	add	x8, x1, #0x1
     ee4:	38216980 	strb	w0, [x12, x1]
     ee8:	17ffff62 	b	c70 <_ftoa+0x110>
    } else if ((frac == 0U) || (frac & 1U)) {
     eec:	3607eb2e 	tbz	w14, #0, c50 <_ftoa+0xf0>
        ++frac;
     ef0:	910005ce 	add	x14, x14, #0x1
     ef4:	17ffff57 	b	c50 <_ftoa+0xf0>
            buf[len++] = '+'; // ignore the space if the '+' exists
     ef8:	52800560 	mov	w0, #0x2b                  	// #43
     efc:	38286980 	strb	w0, [x12, x8]
     f00:	91000508 	add	x8, x8, #0x1
     f04:	17ffff74 	b	cd4 <_ftoa+0x174>
            width--;
     f08:	510004a5 	sub	w5, w5, #0x1
     f0c:	17ffffc7 	b	e28 <_ftoa+0x2c8>
    double tmp = (value - whole) * pow10[prec];
     f10:	f0000060 	adrp	x0, f000 <_fstat_r+0x40>
     f14:	91150000 	add	x0, x0, #0x540
     f18:	fc645802 	ldr	d2, [x0, w4, uxtw #3]
     f1c:	17ffff3f 	b	c18 <_ftoa+0xb8>
        while ((len < PRINTF_FTOA_BUFFER_SIZE) && (count-- > 0U)) {
     f20:	aa0903e1 	mov	x1, x9
     f24:	17ffffee 	b	edc <_ftoa+0x37c>
            buf[len++] = '0';
     f28:	aa0903e8 	mov	x8, x9
     f2c:	17ffffb8 	b	e0c <_ftoa+0x2ac>

0000000000000f30 <_out_char>:
    if (character) {
     f30:	72001c00 	ands	w0, w0, #0xff
     f34:	54000041 	b.ne	f3c <_out_char+0xc>  // b.any
}
     f38:	d65f03c0 	ret
        _putchar(character);
     f3c:	17fffd05 	b	350 <putc>

0000000000000f40 <_out_fct>:
    if (character) {
     f40:	72001c00 	ands	w0, w0, #0xff
     f44:	54000080 	b.eq	f54 <_out_fct+0x14>  // b.none
        ((out_fct_wrap_type*)buffer)->fct(character, ((out_fct_wrap_type*)buffer)->arg);
     f48:	a9400422 	ldp	x2, x1, [x1]
     f4c:	aa0203f0 	mov	x16, x2
     f50:	d61f0200 	br	x16
}
     f54:	d65f03c0 	ret
     f58:	d503201f 	nop
     f5c:	d503201f 	nop

0000000000000f60 <_vsnprintf>:
#endif // PRINTF_SUPPORT_EXPONENTIAL
#endif // PRINTF_SUPPORT_FLOAT

// internal vsnprintf
static int _vsnprintf(out_fct_type out, char* buffer, const size_t maxlen, const char* format, va_list va)
{
     f60:	d102c3ff 	sub	sp, sp, #0xb0
    unsigned int flags, width, precision, n;
    size_t idx = 0U;

    if (!buffer) {
        // use null output function
        out = _out_null;
     f64:	f100003f 	cmp	x1, #0x0
{
     f68:	a9017bfd 	stp	x29, x30, [sp, #16]
     f6c:	910043fd 	add	x29, sp, #0x10
     f70:	a90253f3 	stp	x19, x20, [sp, #32]
        out = _out_null;
     f74:	90000013 	adrp	x19, 0 <main>
     f78:	910f4273 	add	x19, x19, #0x3d0
{
     f7c:	a9056bf9 	stp	x25, x26, [sp, #80]
        out = _out_null;
     f80:	9a800273 	csel	x19, x19, x0, eq  // eq = none
{
     f84:	aa0103fa 	mov	x26, x1
     f88:	a90673fb 	stp	x27, x28, [sp, #96]
     f8c:	aa0203fc 	mov	x28, x2
    }

    while (*format) {
     f90:	d280001b 	mov	x27, #0x0                   	// #0
     f94:	b9401880 	ldr	w0, [x4, #24]
     f98:	b9007be0 	str	w0, [sp, #120]
     f9c:	f9400480 	ldr	x0, [x4, #8]
     fa0:	f90047e0 	str	x0, [sp, #136]
     fa4:	39400065 	ldrb	w5, [x3]
     fa8:	f9400880 	ldr	x0, [x4, #16]
     fac:	f9004be0 	str	x0, [sp, #144]
     fb0:	b9401c80 	ldr	w0, [x4, #28]
     fb4:	b900abe0 	str	w0, [sp, #168]
     fb8:	f9400094 	ldr	x20, [x4]
     fbc:	34003ae5 	cbz	w5, 1718 <_vsnprintf+0x7b8>
     fc0:	a90463f7 	stp	x23, x24, [sp, #64]
        default:
            break;
        }

        // evaluate specifier
        switch (*format) {
     fc4:	f0000078 	adrp	x24, f000 <_fstat_r+0x40>
     fc8:	91120300 	add	x0, x24, #0x480
     fcc:	aa0303f9 	mov	x25, x3
     fd0:	f90043e0 	str	x0, [sp, #128]
     fd4:	f0000060 	adrp	x0, f000 <_fstat_r+0x40>
     fd8:	9114a000 	add	x0, x0, #0x528
     fdc:	f9004fe0 	str	x0, [sp, #152]
     fe0:	1400000a 	b	1008 <_vsnprintf+0xa8>
            out(*format, buffer, idx++, maxlen);
     fe4:	91000764 	add	x4, x27, #0x1
     fe8:	2a0503e0 	mov	w0, w5
            out('%', buffer, idx++, maxlen);
            format++;
            break;

        default:
            out(*format, buffer, idx++, maxlen);
     fec:	aa1b03e2 	mov	x2, x27
     ff0:	aa1c03e3 	mov	x3, x28
     ff4:	aa1a03e1 	mov	x1, x26
     ff8:	aa0403fb 	mov	x27, x4
     ffc:	d63f0260 	blr	x19
    while (*format) {
    1000:	39400325 	ldrb	w5, [x25]
    1004:	34000c85 	cbz	w5, 1194 <_vsnprintf+0x234>
            format++;
    1008:	91000739 	add	x25, x25, #0x1
        if (*format != '%') {
    100c:	710094bf 	cmp	w5, #0x25
    1010:	54fffea1 	b.ne	fe4 <_vsnprintf+0x84>  // b.any
            switch (*format) {
    1014:	aa1903e8 	mov	x8, x25
        flags = 0U;
    1018:	52800006 	mov	w6, #0x0                   	// #0
            switch (*format) {
    101c:	38401500 	ldrb	w0, [x8], #1
    1020:	7100ac1f 	cmp	w0, #0x2b
    1024:	54000180 	b.eq	1054 <_vsnprintf+0xf4>  // b.none
    1028:	540001c8 	b.hi	1060 <_vsnprintf+0x100>  // b.pmore
    102c:	7100801f 	cmp	w0, #0x20
    1030:	54000260 	b.eq	107c <_vsnprintf+0x11c>  // b.none
    1034:	71008c1f 	cmp	w0, #0x23
    1038:	540002e1 	b.ne	1094 <_vsnprintf+0x134>  // b.any
                flags |= FLAGS_HASH;
    103c:	321c00c6 	orr	w6, w6, #0x10
            format++;
    1040:	aa0803f9 	mov	x25, x8
            switch (*format) {
    1044:	aa1903e8 	mov	x8, x25
    1048:	38401500 	ldrb	w0, [x8], #1
    104c:	7100ac1f 	cmp	w0, #0x2b
    1050:	54fffec1 	b.ne	1028 <_vsnprintf+0xc8>  // b.any
                flags |= FLAGS_PLUS;
    1054:	321e00c6 	orr	w6, w6, #0x4
            format++;
    1058:	aa0803f9 	mov	x25, x8
    105c:	17fffffa 	b	1044 <_vsnprintf+0xe4>
            switch (*format) {
    1060:	7100b41f 	cmp	w0, #0x2d
    1064:	54000120 	b.eq	1088 <_vsnprintf+0x128>  // b.none
    1068:	7100c01f 	cmp	w0, #0x30
    106c:	540062c1 	b.ne	1cc4 <_vsnprintf+0xd64>  // b.any
                flags |= FLAGS_ZEROPAD;
    1070:	320000c6 	orr	w6, w6, #0x1
            format++;
    1074:	aa0803f9 	mov	x25, x8
    1078:	17fffff3 	b	1044 <_vsnprintf+0xe4>
                flags |= FLAGS_SPACE;
    107c:	321d00c6 	orr	w6, w6, #0x8
            format++;
    1080:	aa0803f9 	mov	x25, x8
    1084:	17fffff0 	b	1044 <_vsnprintf+0xe4>
                flags |= FLAGS_LEFT;
    1088:	321f00c6 	orr	w6, w6, #0x2
            format++;
    108c:	aa0803f9 	mov	x25, x8
    1090:	17ffffed 	b	1044 <_vsnprintf+0xe4>
        } else if (*format == '*') {
    1094:	7100a81f 	cmp	w0, #0x2a
        width = 0U;
    1098:	52800018 	mov	w24, #0x0                   	// #0
        } else if (*format == '*') {
    109c:	540002e0 	b.eq	10f8 <_vsnprintf+0x198>  // b.none
        precision = 0U;
    10a0:	52800017 	mov	w23, #0x0                   	// #0
        switch (*format) {
    10a4:	7101b01f 	cmp	w0, #0x6c
            format++;
    10a8:	aa0803e4 	mov	x4, x8
        switch (*format) {
    10ac:	54001f20 	b.eq	1490 <_vsnprintf+0x530>  // b.none
    10b0:	54000588 	b.hi	1160 <_vsnprintf+0x200>  // b.pmore
    10b4:	7101a01f 	cmp	w0, #0x68
    10b8:	54001e20 	b.eq	147c <_vsnprintf+0x51c>  // b.none
    10bc:	7101a81f 	cmp	w0, #0x6a
    10c0:	54006241 	b.ne	1d08 <_vsnprintf+0xda8>  // b.any
        switch (*format) {
    10c4:	39400720 	ldrb	w0, [x25, #1]
            flags |= (sizeof(size_t) == sizeof(long) ? FLAGS_LONG : FLAGS_LONG_LONG);
    10c8:	321800c6 	orr	w6, w6, #0x100
        switch (*format) {
    10cc:	51009402 	sub	w2, w0, #0x25
            format++;
    10d0:	91000499 	add	x25, x4, #0x1
        switch (*format) {
    10d4:	71014c5f 	cmp	w2, #0x53
    10d8:	54000069 	b.ls	10e4 <_vsnprintf+0x184>  // b.plast
            out(*format, buffer, idx++, maxlen);
    10dc:	91000764 	add	x4, x27, #0x1
    10e0:	17ffffc3 	b	fec <_vsnprintf+0x8c>
        switch (*format) {
    10e4:	f94043e1 	ldr	x1, [sp, #128]
    10e8:	78625821 	ldrh	w1, [x1, w2, uxtw #1]
    10ec:	10000062 	adr	x2, 10f8 <_vsnprintf+0x198>
    10f0:	8b21a841 	add	x1, x2, w1, sxth #2
    10f4:	d61f0020 	br	x1
            const int w = va_arg(va, int);
    10f8:	b9407be0 	ldr	w0, [sp, #120]
    10fc:	37f806c0 	tbnz	w0, #31, 11d4 <_vsnprintf+0x274>
    1100:	91002e82 	add	x2, x20, #0xb
    1104:	aa1403e0 	mov	x0, x20
    1108:	927df054 	and	x20, x2, #0xfffffffffffffff8
    110c:	b9400018 	ldr	w24, [x0]
            if (w < 0) {
    1110:	36f80078 	tbz	w24, #31, 111c <_vsnprintf+0x1bc>
                flags |= FLAGS_LEFT; // reverse padding
    1114:	321f00c6 	orr	w6, w6, #0x2
                width = (unsigned int)-w;
    1118:	4b1803f8 	neg	w24, w24
        if (*format == '.') {
    111c:	39400720 	ldrb	w0, [x25, #1]
            format++;
    1120:	aa0803f9 	mov	x25, x8
    1124:	91000508 	add	x8, x8, #0x1
        if (*format == '.') {
    1128:	7100b81f 	cmp	w0, #0x2e
    112c:	54fffba1 	b.ne	10a0 <_vsnprintf+0x140>  // b.any
            if (_is_digit(*format)) {
    1130:	39400720 	ldrb	w0, [x25, #1]
            flags |= FLAGS_PRECISION;
    1134:	321600c6 	orr	w6, w6, #0x400
            format++;
    1138:	aa0803e4 	mov	x4, x8
    return (ch >= '0') && (ch <= '9');
    113c:	5100c002 	sub	w2, w0, #0x30
            if (_is_digit(*format)) {
    1140:	12001c42 	and	w2, w2, #0xff
    1144:	7100245f 	cmp	w2, #0x9
    1148:	54001b29 	b.ls	14ac <_vsnprintf+0x54c>  // b.plast
            } else if (*format == '*') {
    114c:	7100a81f 	cmp	w0, #0x2a
    1150:	54002a20 	b.eq	1694 <_vsnprintf+0x734>  // b.none
            format++;
    1154:	aa0803f9 	mov	x25, x8
    1158:	91000508 	add	x8, x8, #0x1
    115c:	17ffffd1 	b	10a0 <_vsnprintf+0x140>
        switch (*format) {
    1160:	7101d01f 	cmp	w0, #0x74
    1164:	54fffb00 	b.eq	10c4 <_vsnprintf+0x164>  // b.none
    1168:	7101e81f 	cmp	w0, #0x7a
    116c:	54fffac0 	b.eq	10c4 <_vsnprintf+0x164>  // b.none
        switch (*format) {
    1170:	5101bc02 	sub	w2, w0, #0x6f
            format++;
    1174:	aa0803f9 	mov	x25, x8
        switch (*format) {
    1178:	7100245f 	cmp	w2, #0x9
    117c:	54fffb08 	b.hi	10dc <_vsnprintf+0x17c>  // b.pmore
    1180:	f9404fe1 	ldr	x1, [sp, #152]
    1184:	78625821 	ldrh	w1, [x1, w2, uxtw #1]
    1188:	10000062 	adr	x2, 1194 <_vsnprintf+0x234>
    118c:	8b21a841 	add	x1, x2, w1, sxth #2
    1190:	d61f0020 	br	x1
    1194:	a94463f7 	ldp	x23, x24, [sp, #64]

    // termination
    out((char)0, buffer, idx < maxlen ? idx : maxlen - 1U, maxlen);

    // return written chars without terminating \0
    return (int)idx;
    1198:	2a1b03f4 	mov	w20, w27
    out((char)0, buffer, idx < maxlen ? idx : maxlen - 1U, maxlen);
    119c:	eb1b039f 	cmp	x28, x27
    11a0:	d1000782 	sub	x2, x28, #0x1
    11a4:	aa1a03e1 	mov	x1, x26
    11a8:	9a9b9042 	csel	x2, x2, x27, ls  // ls = plast
    11ac:	aa1c03e3 	mov	x3, x28
    11b0:	52800000 	mov	w0, #0x0                   	// #0
    11b4:	d63f0260 	blr	x19
}
    11b8:	2a1403e0 	mov	w0, w20
    11bc:	a9417bfd 	ldp	x29, x30, [sp, #16]
    11c0:	a94253f3 	ldp	x19, x20, [sp, #32]
    11c4:	a9456bf9 	ldp	x25, x26, [sp, #80]
    11c8:	a94673fb 	ldp	x27, x28, [sp, #96]
    11cc:	9102c3ff 	add	sp, sp, #0xb0
    11d0:	d65f03c0 	ret
            const int w = va_arg(va, int);
    11d4:	b9407be0 	ldr	w0, [sp, #120]
    11d8:	11002002 	add	w2, w0, #0x8
    11dc:	7100005f 	cmp	w2, #0x0
    11e0:	5400228d 	b.le	1630 <_vsnprintf+0x6d0>
    11e4:	91002e84 	add	x4, x20, #0xb
    11e8:	aa1403e0 	mov	x0, x20
    11ec:	927df094 	and	x20, x4, #0xfffffffffffffff8
    11f0:	b9007be2 	str	w2, [sp, #120]
    11f4:	17ffffc6 	b	110c <_vsnprintf+0x1ac>
            if (*format == 'x' || *format == 'X') {
    11f8:	121a7802 	and	w2, w0, #0xffffffdf
    11fc:	7101605f 	cmp	w2, #0x58
    1200:	54001781 	b.ne	14f0 <_vsnprintf+0x590>  // b.any
            if (*format == 'X') {
    1204:	7101601f 	cmp	w0, #0x58
    1208:	54003c81 	b.ne	1998 <_vsnprintf+0xa38>  // b.any
                flags |= FLAGS_UPPERCASE;
    120c:	321b00c6 	orr	w6, w6, #0x20
    1210:	d2800208 	mov	x8, #0x10                  	// #16
                flags &= ~(FLAGS_PLUS | FLAGS_SPACE);
    1214:	121c74c6 	and	w6, w6, #0xfffffff3
    1218:	140000c0 	b	1518 <_vsnprintf+0x5b8>
            if ((*format == 'g') || (*format == 'G'))
    121c:	121a7802 	and	w2, w0, #0xffffffdf
            if ((*format == 'E') || (*format == 'G'))
    1220:	121e7800 	and	w0, w0, #0xfffffffd
                flags |= FLAGS_ADAPT_EXP;
    1224:	71011c5f 	cmp	w2, #0x47
    1228:	321500c2 	orr	w2, w6, #0x800
    122c:	1a860046 	csel	w6, w2, w6, eq  // eq = none
                flags |= FLAGS_UPPERCASE;
    1230:	7101141f 	cmp	w0, #0x45
    1234:	321b00c0 	orr	w0, w6, #0x20
    1238:	1a860006 	csel	w6, w0, w6, eq  // eq = none
            idx = _etoa(out, buffer, idx, maxlen, va_arg(va, double), precision, width, flags);
    123c:	b940abe0 	ldr	w0, [sp, #168]
    1240:	37f81c20 	tbnz	w0, #31, 15c4 <_vsnprintf+0x664>
    1244:	91003e82 	add	x2, x20, #0xf
    1248:	aa1403e0 	mov	x0, x20
    124c:	927df054 	and	x20, x2, #0xfffffffffffffff8
    1250:	fd400000 	ldr	d0, [x0]
    1254:	aa1b03e2 	mov	x2, x27
    1258:	2a1803e5 	mov	w5, w24
    125c:	2a1703e4 	mov	w4, w23
    1260:	aa1c03e3 	mov	x3, x28
    1264:	aa1a03e1 	mov	x1, x26
    1268:	aa1303e0 	mov	x0, x19
    126c:	97fffd55 	bl	7c0 <_etoa>
    1270:	aa0003fb 	mov	x27, x0
            break;
    1274:	17ffff63 	b	1000 <_vsnprintf+0xa0>
                flags |= FLAGS_UPPERCASE;
    1278:	7101181f 	cmp	w0, #0x46
    127c:	321b00c0 	orr	w0, w6, #0x20
    1280:	1a860006 	csel	w6, w0, w6, eq  // eq = none
            idx = _ftoa(out, buffer, idx, maxlen, va_arg(va, double), precision, width, flags);
    1284:	b940abe0 	ldr	w0, [sp, #168]
    1288:	37f818c0 	tbnz	w0, #31, 15a0 <_vsnprintf+0x640>
    128c:	91003e82 	add	x2, x20, #0xf
    1290:	aa1403e0 	mov	x0, x20
    1294:	927df054 	and	x20, x2, #0xfffffffffffffff8
    1298:	fd400000 	ldr	d0, [x0]
    129c:	aa1b03e2 	mov	x2, x27
    12a0:	2a1803e5 	mov	w5, w24
    12a4:	2a1703e4 	mov	w4, w23
    12a8:	aa1c03e3 	mov	x3, x28
    12ac:	aa1a03e1 	mov	x1, x26
    12b0:	aa1303e0 	mov	x0, x19
    12b4:	97fffe2b 	bl	b60 <_ftoa>
    12b8:	aa0003fb 	mov	x27, x0
            break;
    12bc:	17ffff51 	b	1000 <_vsnprintf+0xa0>
            out('%', buffer, idx++, maxlen);
    12c0:	91000760 	add	x0, x27, #0x1
    12c4:	aa1b03e2 	mov	x2, x27
    12c8:	aa1c03e3 	mov	x3, x28
    12cc:	aa0003fb 	mov	x27, x0
    12d0:	aa1a03e1 	mov	x1, x26
    12d4:	528004a0 	mov	w0, #0x25                  	// #37
    12d8:	d63f0260 	blr	x19
            break;
    12dc:	17ffff49 	b	1000 <_vsnprintf+0xa0>
            flags |= FLAGS_ZEROPAD | FLAGS_UPPERCASE;
    12e0:	52800420 	mov	w0, #0x21                  	// #33
    12e4:	2a0000c6 	orr	w6, w6, w0
                idx = _ntoa_long_long(out, buffer, idx, maxlen, (uintptr_t)va_arg(va, void*), false, 16U, precision, width, flags);
    12e8:	b9407be0 	ldr	w0, [sp, #120]
    12ec:	37f817e0 	tbnz	w0, #31, 15e8 <_vsnprintf+0x688>
    12f0:	91003e82 	add	x2, x20, #0xf
    12f4:	aa1403e0 	mov	x0, x20
    12f8:	927df054 	and	x20, x2, #0xfffffffffffffff8
    12fc:	2a1703e7 	mov	w7, w23
    1300:	aa1b03e2 	mov	x2, x27
    1304:	f9400004 	ldr	x4, [x0]
    1308:	52800200 	mov	w0, #0x10                  	// #16
    130c:	b90003e0 	str	w0, [sp]
    1310:	b9000be6 	str	w6, [sp, #8]
    1314:	d2800206 	mov	x6, #0x10                  	// #16
    1318:	52800005 	mov	w5, #0x0                   	// #0
    131c:	aa1c03e3 	mov	x3, x28
    1320:	aa1a03e1 	mov	x1, x26
    1324:	aa1303e0 	mov	x0, x19
    1328:	97fffc72 	bl	4f0 <_ntoa_long>
    132c:	aa0003fb 	mov	x27, x0
            break;
    1330:	17ffff34 	b	1000 <_vsnprintf+0xa0>
            if (!(flags & FLAGS_LEFT)) {
    1334:	a9035bf5 	stp	x21, x22, [sp, #48]
    1338:	36082306 	tbz	w6, #1, 1798 <_vsnprintf+0x838>
            out((char)va_arg(va, int), buffer, idx++, maxlen);
    133c:	b9407be0 	ldr	w0, [sp, #120]
    1340:	37f82a20 	tbnz	w0, #31, 1884 <_vsnprintf+0x924>
    1344:	91002e82 	add	x2, x20, #0xb
    1348:	aa1403e0 	mov	x0, x20
    134c:	927df054 	and	x20, x2, #0xfffffffffffffff8
    1350:	39400000 	ldrb	w0, [x0]
    1354:	aa1b03e2 	mov	x2, x27
    1358:	aa1c03e3 	mov	x3, x28
    135c:	aa1a03e1 	mov	x1, x26
    1360:	91000775 	add	x21, x27, #0x1
    1364:	d63f0260 	blr	x19
                while (l++ < width) {
    1368:	51000b00 	sub	w0, w24, #0x2
    136c:	91000b6a 	add	x10, x27, #0x2
    1370:	7100071f 	cmp	w24, #0x1
    1374:	8b00015b 	add	x27, x10, x0
    1378:	540007c9 	b.ls	1470 <_vsnprintf+0x510>  // b.plast
    137c:	d503201f 	nop
                    out(' ', buffer, idx++, maxlen);
    1380:	aa1503e2 	mov	x2, x21
    1384:	aa1c03e3 	mov	x3, x28
    1388:	910006b5 	add	x21, x21, #0x1
    138c:	aa1a03e1 	mov	x1, x26
    1390:	52800400 	mov	w0, #0x20                  	// #32
    1394:	d63f0260 	blr	x19
                while (l++ < width) {
    1398:	eb1b02bf 	cmp	x21, x27
    139c:	54ffff21 	b.ne	1380 <_vsnprintf+0x420>  // b.any
    13a0:	a9435bf5 	ldp	x21, x22, [sp, #48]
    13a4:	17ffff17 	b	1000 <_vsnprintf+0xa0>
            const char* p = va_arg(va, char*);
    13a8:	b9407be0 	ldr	w0, [sp, #120]
    13ac:	a9035bf5 	stp	x21, x22, [sp, #48]
    13b0:	37f812e0 	tbnz	w0, #31, 160c <_vsnprintf+0x6ac>
    13b4:	91003e82 	add	x2, x20, #0xf
    13b8:	aa1403e0 	mov	x0, x20
    13bc:	927df054 	and	x20, x2, #0xfffffffffffffff8
    13c0:	f9400015 	ldr	x21, [x0]
    for (s = str; *s && maxsize--; ++s)
    13c4:	394002a8 	ldrb	w8, [x21]
    13c8:	2a0803e0 	mov	w0, w8
            unsigned int l = _strnlen_s(p, precision ? precision : (size_t)-1);
    13cc:	350017d7 	cbnz	w23, 16c4 <_vsnprintf+0x764>
    for (s = str; *s && maxsize--; ++s)
    13d0:	92800022 	mov	x2, #0xfffffffffffffffe    	// #-2
    13d4:	340035c8 	cbz	w8, 1a8c <_vsnprintf+0xb2c>
    13d8:	91000456 	add	x22, x2, #0x1
    13dc:	aa1503e2 	mov	x2, x21
    13e0:	8b1602b6 	add	x22, x21, x22
    13e4:	14000003 	b	13f0 <_vsnprintf+0x490>
    13e8:	eb0202df 	cmp	x22, x2
    13ec:	54001900 	b.eq	170c <_vsnprintf+0x7ac>  // b.none
    13f0:	38401c44 	ldrb	w4, [x2, #1]!
    13f4:	35ffffa4 	cbnz	w4, 13e8 <_vsnprintf+0x488>
    return (unsigned int)(s - str);
    13f8:	4b150041 	sub	w1, w2, w21
    13fc:	b900a3e1 	str	w1, [sp, #160]
            if (flags & FLAGS_PRECISION) {
    1400:	121600c1 	and	w1, w6, #0x400
    1404:	b9007fe1 	str	w1, [sp, #124]
    1408:	365000a6 	tbz	w6, #10, 141c <_vsnprintf+0x4bc>
                l = (l < precision ? l : precision);
    140c:	b940a3e1 	ldr	w1, [sp, #160]
    1410:	6b17003f 	cmp	w1, w23
    1414:	1a979021 	csel	w1, w1, w23, ls  // ls = plast
    1418:	b900a3e1 	str	w1, [sp, #160]
            if (!(flags & FLAGS_LEFT)) {
    141c:	121f00c1 	and	w1, w6, #0x2
    1420:	b900afe1 	str	w1, [sp, #172]
    1424:	36081826 	tbz	w6, #1, 1728 <_vsnprintf+0x7c8>
            while ((*p != 0) && (!(flags & FLAGS_PRECISION) || precision--)) {
    1428:	34001108 	cbz	w8, 1648 <_vsnprintf+0x6e8>
    142c:	aa1b03e2 	mov	x2, x27
    1430:	cb1b02b6 	sub	x22, x21, x27
    1434:	14000002 	b	143c <_vsnprintf+0x4dc>
                out(*(p++), buffer, idx++, maxlen);
    1438:	aa1503e2 	mov	x2, x21
            while ((*p != 0) && (!(flags & FLAGS_PRECISION) || precision--)) {
    143c:	b9407fe1 	ldr	w1, [sp, #124]
    1440:	34000081 	cbz	w1, 1450 <_vsnprintf+0x4f0>
    1444:	510006e4 	sub	w4, w23, #0x1
    1448:	340016d7 	cbz	w23, 1720 <_vsnprintf+0x7c0>
    144c:	2a0403f7 	mov	w23, w4
                out(*(p++), buffer, idx++, maxlen);
    1450:	91000455 	add	x21, x2, #0x1
    1454:	aa1c03e3 	mov	x3, x28
    1458:	aa1a03e1 	mov	x1, x26
    145c:	d63f0260 	blr	x19
            while ((*p != 0) && (!(flags & FLAGS_PRECISION) || precision--)) {
    1460:	38756ac0 	ldrb	w0, [x22, x21]
    1464:	35fffea0 	cbnz	w0, 1438 <_vsnprintf+0x4d8>
            if (flags & FLAGS_LEFT) {
    1468:	b940afe0 	ldr	w0, [sp, #172]
    146c:	35000ec0 	cbnz	w0, 1644 <_vsnprintf+0x6e4>
                while (l++ < width) {
    1470:	aa1503fb 	mov	x27, x21
    1474:	a9435bf5 	ldp	x21, x22, [sp, #48]
    1478:	17fffee2 	b	1000 <_vsnprintf+0xa0>
            if (*format == 'h') {
    147c:	39400720 	ldrb	w0, [x25, #1]
    1480:	7101a01f 	cmp	w0, #0x68
    1484:	540013c0 	b.eq	16fc <_vsnprintf+0x79c>  // b.none
            flags |= FLAGS_SHORT;
    1488:	321900c6 	orr	w6, w6, #0x80
    148c:	17ffff10 	b	10cc <_vsnprintf+0x16c>
            if (*format == 'l') {
    1490:	39400720 	ldrb	w0, [x25, #1]
    1494:	7101b01f 	cmp	w0, #0x6c
    1498:	54ffe181 	b.ne	10c8 <_vsnprintf+0x168>  // b.any
        switch (*format) {
    149c:	39400b20 	ldrb	w0, [x25, #2]
                flags |= FLAGS_LONG_LONG;
    14a0:	321804c6 	orr	w6, w6, #0x300
                format++;
    14a4:	91000b24 	add	x4, x25, #0x2
    14a8:	17ffff09 	b	10cc <_vsnprintf+0x16c>
    unsigned int i = 0U;
    14ac:	52800017 	mov	w23, #0x0                   	// #0
        i = i * 10U + (unsigned int)(*((*str)++) - '0');
    14b0:	52800148 	mov	w8, #0xa                   	// #10
    14b4:	d503201f 	nop
    14b8:	1b0802e7 	madd	w7, w23, w8, w0
    while (_is_digit(**str)) {
    14bc:	38401c80 	ldrb	w0, [x4, #1]!
    return (ch >= '0') && (ch <= '9');
    14c0:	5100c002 	sub	w2, w0, #0x30
        i = i * 10U + (unsigned int)(*((*str)++) - '0');
    14c4:	5100c0f7 	sub	w23, w7, #0x30
    while (_is_digit(**str)) {
    14c8:	12001c42 	and	w2, w2, #0xff
    14cc:	7100245f 	cmp	w2, #0x9
    14d0:	54ffff49 	b.ls	14b8 <_vsnprintf+0x558>  // b.plast
    14d4:	aa0403f9 	mov	x25, x4
    14d8:	91000488 	add	x8, x4, #0x1
    14dc:	17fffef2 	b	10a4 <_vsnprintf+0x144>
            if (*format == 'x' || *format == 'X') {
    14e0:	121a7802 	and	w2, w0, #0xffffffdf
    14e4:	7101605f 	cmp	w2, #0x58
    14e8:	54002580 	b.eq	1998 <_vsnprintf+0xa38>  // b.none
    14ec:	d503201f 	nop
            } else if (*format == 'o') {
    14f0:	7101bc1f 	cmp	w0, #0x6f
    14f4:	540021a0 	b.eq	1928 <_vsnprintf+0x9c8>  // b.none
            } else if (*format == 'b') {
    14f8:	7101881f 	cmp	w0, #0x62
    14fc:	54002820 	b.eq	1a00 <_vsnprintf+0xaa0>  // b.none
                flags &= ~FLAGS_HASH; // no hash for dec format
    1500:	121b78c6 	and	w6, w6, #0xffffffef
    1504:	d2800148 	mov	x8, #0xa                   	// #10
            if ((*format != 'i') && (*format != 'd')) {
    1508:	7101a41f 	cmp	w0, #0x69
    150c:	52800c82 	mov	w2, #0x64                  	// #100
    1510:	7a421004 	ccmp	w0, w2, #0x4, ne  // ne = any
    1514:	54ffe801 	b.ne	1214 <_vsnprintf+0x2b4>  // b.any
                flags &= ~FLAGS_ZEROPAD;
    1518:	f27600df 	tst	x6, #0x400
    151c:	121f78c2 	and	w2, w6, #0xfffffffe
    1520:	1a861046 	csel	w6, w2, w6, ne  // ne = any
            if ((*format == 'i') || (*format == 'd')) {
    1524:	7101a41f 	cmp	w0, #0x69
    1528:	52800c84 	mov	w4, #0x64                  	// #100
                if (flags & FLAGS_LONG_LONG) {
    152c:	121700c2 	and	w2, w6, #0x200
            if ((*format == 'i') || (*format == 'd')) {
    1530:	7a441004 	ccmp	w0, w4, #0x4, ne  // ne = any
                    const long long value = va_arg(va, long long);
    1534:	b9407be0 	ldr	w0, [sp, #120]
            if ((*format == 'i') || (*format == 'd')) {
    1538:	54000ce1 	b.ne	16d4 <_vsnprintf+0x774>  // b.any
                if (flags & FLAGS_LONG_LONG) {
    153c:	35002122 	cbnz	w2, 1960 <_vsnprintf+0xa00>
                } else if (flags & FLAGS_LONG) {
    1540:	37402306 	tbnz	w6, #8, 19a0 <_vsnprintf+0xa40>
                    const int value = (flags & FLAGS_CHAR) ? (char)va_arg(va, int) : (flags & FLAGS_SHORT) ? (short int)va_arg(va, int)
    1544:	37301b26 	tbnz	w6, #6, 18a8 <_vsnprintf+0x948>
                                                                                                           : va_arg(va, int);
    1548:	36382926 	tbz	w6, #7, 1a6c <_vsnprintf+0xb0c>
                    const int value = (flags & FLAGS_CHAR) ? (char)va_arg(va, int) : (flags & FLAGS_SHORT) ? (short int)va_arg(va, int)
    154c:	37f83300 	tbnz	w0, #31, 1bac <_vsnprintf+0xc4c>
    1550:	91002e82 	add	x2, x20, #0xb
    1554:	aa1403e0 	mov	x0, x20
    1558:	927df054 	and	x20, x2, #0xfffffffffffffff8
    155c:	79c00005 	ldrsh	w5, [x0]
                    idx = _ntoa_long(out, buffer, idx, maxlen, (unsigned int)(value > 0 ? value : 0 - value), value < 0, base, precision, width, flags);
    1560:	710000bf 	cmp	w5, #0x0
    1564:	5a85a4a4 	cneg	w4, w5, lt  // lt = tstop
    1568:	12003c84 	and	w4, w4, #0xffff
    156c:	2a1703e7 	mov	w7, w23
    1570:	531f7ca5 	lsr	w5, w5, #31
    1574:	93407c84 	sxtw	x4, w4
    1578:	aa1b03e2 	mov	x2, x27
    157c:	b9000be6 	str	w6, [sp, #8]
    1580:	aa0803e6 	mov	x6, x8
    1584:	b90003f8 	str	w24, [sp]
                    idx = _ntoa_long(out, buffer, idx, maxlen, value, false, base, precision, width, flags);
    1588:	aa1c03e3 	mov	x3, x28
    158c:	aa1a03e1 	mov	x1, x26
    1590:	aa1303e0 	mov	x0, x19
    1594:	97fffbd7 	bl	4f0 <_ntoa_long>
    1598:	aa0003fb 	mov	x27, x0
            break;
    159c:	17fffe99 	b	1000 <_vsnprintf+0xa0>
            idx = _ftoa(out, buffer, idx, maxlen, va_arg(va, double), precision, width, flags);
    15a0:	b940abe0 	ldr	w0, [sp, #168]
    15a4:	11004002 	add	w2, w0, #0x10
    15a8:	7100005f 	cmp	w2, #0x0
    15ac:	54001b4d 	b.le	1914 <_vsnprintf+0x9b4>
    15b0:	91003e84 	add	x4, x20, #0xf
    15b4:	aa1403e0 	mov	x0, x20
    15b8:	927df094 	and	x20, x4, #0xfffffffffffffff8
    15bc:	b900abe2 	str	w2, [sp, #168]
    15c0:	17ffff36 	b	1298 <_vsnprintf+0x338>
            idx = _etoa(out, buffer, idx, maxlen, va_arg(va, double), precision, width, flags);
    15c4:	b940abe0 	ldr	w0, [sp, #168]
    15c8:	11004002 	add	w2, w0, #0x10
    15cc:	7100005f 	cmp	w2, #0x0
    15d0:	5400198d 	b.le	1900 <_vsnprintf+0x9a0>
    15d4:	91003e84 	add	x4, x20, #0xf
    15d8:	aa1403e0 	mov	x0, x20
    15dc:	927df094 	and	x20, x4, #0xfffffffffffffff8
    15e0:	b900abe2 	str	w2, [sp, #168]
    15e4:	17ffff1b 	b	1250 <_vsnprintf+0x2f0>
                idx = _ntoa_long_long(out, buffer, idx, maxlen, (uintptr_t)va_arg(va, void*), false, 16U, precision, width, flags);
    15e8:	b9407be0 	ldr	w0, [sp, #120]
    15ec:	11002002 	add	w2, w0, #0x8
    15f0:	7100005f 	cmp	w2, #0x0
    15f4:	540017cd 	b.le	18ec <_vsnprintf+0x98c>
    15f8:	91003e84 	add	x4, x20, #0xf
    15fc:	aa1403e0 	mov	x0, x20
    1600:	927df094 	and	x20, x4, #0xfffffffffffffff8
    1604:	b9007be2 	str	w2, [sp, #120]
    1608:	17ffff3d 	b	12fc <_vsnprintf+0x39c>
            const char* p = va_arg(va, char*);
    160c:	b9407be0 	ldr	w0, [sp, #120]
    1610:	11002002 	add	w2, w0, #0x8
    1614:	7100005f 	cmp	w2, #0x0
    1618:	5400160d 	b.le	18d8 <_vsnprintf+0x978>
    161c:	91003e84 	add	x4, x20, #0xf
    1620:	aa1403e0 	mov	x0, x20
    1624:	927df094 	and	x20, x4, #0xfffffffffffffff8
    1628:	b9007be2 	str	w2, [sp, #120]
    162c:	17ffff65 	b	13c0 <_vsnprintf+0x460>
            const int w = va_arg(va, int);
    1630:	f94047e1 	ldr	x1, [sp, #136]
    1634:	b9407be0 	ldr	w0, [sp, #120]
    1638:	b9007be2 	str	w2, [sp, #120]
    163c:	8b20c020 	add	x0, x1, w0, sxtw
    1640:	17fffeb3 	b	110c <_vsnprintf+0x1ac>
    1644:	aa1503fb 	mov	x27, x21
                while (l++ < width) {
    1648:	b940a3e0 	ldr	w0, [sp, #160]
    164c:	6b18001f 	cmp	w0, w24
    1650:	540009e2 	b.cs	178c <_vsnprintf+0x82c>  // b.hs, b.nlast
    1654:	51000704 	sub	w4, w24, #0x1
    1658:	91000776 	add	x22, x27, #0x1
    165c:	4b000084 	sub	w4, w4, w0
    1660:	8b160095 	add	x21, x4, x22
    1664:	14000002 	b	166c <_vsnprintf+0x70c>
    1668:	910006d6 	add	x22, x22, #0x1
                    out(' ', buffer, idx++, maxlen);
    166c:	aa1b03e2 	mov	x2, x27
    1670:	aa1c03e3 	mov	x3, x28
    1674:	aa1a03e1 	mov	x1, x26
    1678:	52800400 	mov	w0, #0x20                  	// #32
    167c:	d63f0260 	blr	x19
    1680:	aa1603fb 	mov	x27, x22
                while (l++ < width) {
    1684:	eb1502df 	cmp	x22, x21
    1688:	54ffff01 	b.ne	1668 <_vsnprintf+0x708>  // b.any
                while (l++ < width) {
    168c:	aa1503fb 	mov	x27, x21
    1690:	17ffff79 	b	1474 <_vsnprintf+0x514>
                const int prec = (int)va_arg(va, int);
    1694:	b9407be0 	ldr	w0, [sp, #120]
    1698:	37f80b80 	tbnz	w0, #31, 1808 <_vsnprintf+0x8a8>
    169c:	91002e82 	add	x2, x20, #0xb
    16a0:	aa1403e0 	mov	x0, x20
    16a4:	927df054 	and	x20, x2, #0xfffffffffffffff8
                precision = prec > 0 ? (unsigned int)prec : 0U;
    16a8:	b9400007 	ldr	w7, [x0]
                format++;
    16ac:	91000b39 	add	x25, x25, #0x2
        switch (*format) {
    16b0:	39400320 	ldrb	w0, [x25]
    16b4:	91000728 	add	x8, x25, #0x1
                precision = prec > 0 ? (unsigned int)prec : 0U;
    16b8:	710000ff 	cmp	w7, #0x0
    16bc:	1a9fa0f7 	csel	w23, w7, wzr, ge  // ge = tcont
                format++;
    16c0:	17fffe79 	b	10a4 <_vsnprintf+0x144>
            unsigned int l = _strnlen_s(p, precision ? precision : (size_t)-1);
    16c4:	2a1703e2 	mov	w2, w23
    for (s = str; *s && maxsize--; ++s)
    16c8:	34001e28 	cbz	w8, 1a8c <_vsnprintf+0xb2c>
    16cc:	d1000442 	sub	x2, x2, #0x1
    16d0:	17ffff42 	b	13d8 <_vsnprintf+0x478>
                if (flags & FLAGS_LONG_LONG) {
    16d4:	35001302 	cbnz	w2, 1934 <_vsnprintf+0x9d4>
                } else if (flags & FLAGS_LONG) {
    16d8:	37401806 	tbnz	w6, #8, 19d8 <_vsnprintf+0xa78>
                    const unsigned int value = (flags & FLAGS_CHAR) ? (unsigned char)va_arg(va, unsigned int) : (flags & FLAGS_SHORT) ? (unsigned short int)va_arg(va, unsigned int)
    16dc:	37300ba6 	tbnz	w6, #6, 1850 <_vsnprintf+0x8f0>
                                                                                                                                      : va_arg(va, unsigned int);
    16e0:	36381ba6 	tbz	w6, #7, 1a54 <_vsnprintf+0xaf4>
                    const unsigned int value = (flags & FLAGS_CHAR) ? (unsigned char)va_arg(va, unsigned int) : (flags & FLAGS_SHORT) ? (unsigned short int)va_arg(va, unsigned int)
    16e4:	37f82500 	tbnz	w0, #31, 1b84 <_vsnprintf+0xc24>
    16e8:	aa1403e0 	mov	x0, x20
    16ec:	91002e82 	add	x2, x20, #0xb
    16f0:	927df054 	and	x20, x2, #0xfffffffffffffff8
    16f4:	79400004 	ldrh	w4, [x0]
    16f8:	1400005b 	b	1864 <_vsnprintf+0x904>
        switch (*format) {
    16fc:	39400b20 	ldrb	w0, [x25, #2]
                flags |= FLAGS_CHAR;
    1700:	321a04c6 	orr	w6, w6, #0xc0
                format++;
    1704:	91000b24 	add	x4, x25, #0x2
    1708:	17fffe71 	b	10cc <_vsnprintf+0x16c>
    return (unsigned int)(s - str);
    170c:	4b1502c1 	sub	w1, w22, w21
    1710:	b900a3e1 	str	w1, [sp, #160]
    1714:	17ffff3b 	b	1400 <_vsnprintf+0x4a0>
    while (*format) {
    1718:	52800014 	mov	w20, #0x0                   	// #0
    171c:	17fffea0 	b	119c <_vsnprintf+0x23c>
    1720:	aa0203f5 	mov	x21, x2
    1724:	17ffff51 	b	1468 <_vsnprintf+0x508>
                while (l++ < width) {
    1728:	b940a3e1 	ldr	w1, [sp, #160]
    172c:	6b18003f 	cmp	w1, w24
    1730:	11000420 	add	w0, w1, #0x1
    1734:	54002242 	b.cs	1b7c <_vsnprintf+0xc1c>  // b.hs, b.nlast
    1738:	51000700 	sub	w0, w24, #0x1
    173c:	91000776 	add	x22, x27, #0x1
    1740:	4b010000 	sub	w0, w0, w1
    1744:	8b160000 	add	x0, x0, x22
    1748:	f90053e0 	str	x0, [sp, #160]
    174c:	14000002 	b	1754 <_vsnprintf+0x7f4>
    1750:	910006d6 	add	x22, x22, #0x1
                    out(' ', buffer, idx++, maxlen);
    1754:	aa1b03e2 	mov	x2, x27
    1758:	52800400 	mov	w0, #0x20                  	// #32
    175c:	aa1c03e3 	mov	x3, x28
    1760:	aa1a03e1 	mov	x1, x26
    1764:	d63f0260 	blr	x19
    1768:	aa1603fb 	mov	x27, x22
                while (l++ < width) {
    176c:	f94053e0 	ldr	x0, [sp, #160]
    1770:	eb16001f 	cmp	x0, x22
    1774:	54fffee1 	b.ne	1750 <_vsnprintf+0x7f0>  // b.any
    1778:	394002a8 	ldrb	w8, [x21]
    177c:	11000700 	add	w0, w24, #0x1
    1780:	b900a3e0 	str	w0, [sp, #160]
            while ((*p != 0) && (!(flags & FLAGS_PRECISION) || precision--)) {
    1784:	2a0803e0 	mov	w0, w8
    1788:	35ffe528 	cbnz	w8, 142c <_vsnprintf+0x4cc>
                while (l++ < width) {
    178c:	aa1b03f5 	mov	x21, x27
                while (l++ < width) {
    1790:	aa1503fb 	mov	x27, x21
    1794:	17ffff38 	b	1474 <_vsnprintf+0x514>
                while (l++ < width) {
    1798:	7100071f 	cmp	w24, #0x1
    179c:	54001ec9 	b.ls	1b74 <_vsnprintf+0xc14>  // b.plast
    17a0:	51000b05 	sub	w5, w24, #0x2
    17a4:	91000776 	add	x22, x27, #0x1
    17a8:	8b0502d5 	add	x21, x22, x5
    17ac:	14000002 	b	17b4 <_vsnprintf+0x854>
    17b0:	910006d6 	add	x22, x22, #0x1
                    out(' ', buffer, idx++, maxlen);
    17b4:	aa1b03e2 	mov	x2, x27
    17b8:	aa1c03e3 	mov	x3, x28
    17bc:	aa1a03e1 	mov	x1, x26
    17c0:	52800400 	mov	w0, #0x20                  	// #32
    17c4:	d63f0260 	blr	x19
    17c8:	aa1603fb 	mov	x27, x22
                while (l++ < width) {
    17cc:	eb1502df 	cmp	x22, x21
    17d0:	54ffff01 	b.ne	17b0 <_vsnprintf+0x850>  // b.any
            out((char)va_arg(va, int), buffer, idx++, maxlen);
    17d4:	b9407be0 	ldr	w0, [sp, #120]
    17d8:	37f802a0 	tbnz	w0, #31, 182c <_vsnprintf+0x8cc>
    17dc:	91002e82 	add	x2, x20, #0xb
    17e0:	aa1403e0 	mov	x0, x20
    17e4:	927df054 	and	x20, x2, #0xfffffffffffffff8
    17e8:	39400000 	ldrb	w0, [x0]
    17ec:	aa1503e2 	mov	x2, x21
    17f0:	910006bb 	add	x27, x21, #0x1
    17f4:	aa1c03e3 	mov	x3, x28
    17f8:	aa1a03e1 	mov	x1, x26
    17fc:	d63f0260 	blr	x19
            if (flags & FLAGS_LEFT) {
    1800:	a9435bf5 	ldp	x21, x22, [sp, #48]
    1804:	17fffdff 	b	1000 <_vsnprintf+0xa0>
                const int prec = (int)va_arg(va, int);
    1808:	b9407be0 	ldr	w0, [sp, #120]
    180c:	11002002 	add	w2, w0, #0x8
    1810:	7100005f 	cmp	w2, #0x0
    1814:	5400058d 	b.le	18c4 <_vsnprintf+0x964>
    1818:	91002e84 	add	x4, x20, #0xb
    181c:	aa1403e0 	mov	x0, x20
    1820:	927df094 	and	x20, x4, #0xfffffffffffffff8
    1824:	b9007be2 	str	w2, [sp, #120]
    1828:	17ffffa0 	b	16a8 <_vsnprintf+0x748>
            out((char)va_arg(va, int), buffer, idx++, maxlen);
    182c:	b9407be0 	ldr	w0, [sp, #120]
    1830:	11002002 	add	w2, w0, #0x8
    1834:	7100005f 	cmp	w2, #0x0
    1838:	540016ed 	b.le	1b14 <_vsnprintf+0xbb4>
    183c:	91002e84 	add	x4, x20, #0xb
    1840:	aa1403e0 	mov	x0, x20
    1844:	927df094 	and	x20, x4, #0xfffffffffffffff8
    1848:	b9007be2 	str	w2, [sp, #120]
    184c:	17ffffe7 	b	17e8 <_vsnprintf+0x888>
                    const unsigned int value = (flags & FLAGS_CHAR) ? (unsigned char)va_arg(va, unsigned int) : (flags & FLAGS_SHORT) ? (unsigned short int)va_arg(va, unsigned int)
    1850:	37f81220 	tbnz	w0, #31, 1a94 <_vsnprintf+0xb34>
    1854:	91002e82 	add	x2, x20, #0xb
    1858:	aa1403e0 	mov	x0, x20
    185c:	927df054 	and	x20, x2, #0xfffffffffffffff8
    1860:	39400004 	ldrb	w4, [x0]
                    idx = _ntoa_long(out, buffer, idx, maxlen, value, false, base, precision, width, flags);
    1864:	2a1703e7 	mov	w7, w23
    1868:	2a0403e4 	mov	w4, w4
    186c:	b9000be6 	str	w6, [sp, #8]
    1870:	aa0803e6 	mov	x6, x8
    1874:	b90003f8 	str	w24, [sp]
    1878:	aa1b03e2 	mov	x2, x27
    187c:	52800005 	mov	w5, #0x0                   	// #0
    1880:	17ffff42 	b	1588 <_vsnprintf+0x628>
            out((char)va_arg(va, int), buffer, idx++, maxlen);
    1884:	b9407be0 	ldr	w0, [sp, #120]
    1888:	11002002 	add	w2, w0, #0x8
    188c:	7100005f 	cmp	w2, #0x0
    1890:	5400138d 	b.le	1b00 <_vsnprintf+0xba0>
    1894:	91002e84 	add	x4, x20, #0xb
    1898:	aa1403e0 	mov	x0, x20
    189c:	927df094 	and	x20, x4, #0xfffffffffffffff8
    18a0:	b9007be2 	str	w2, [sp, #120]
    18a4:	17fffeab 	b	1350 <_vsnprintf+0x3f0>
                    const int value = (flags & FLAGS_CHAR) ? (char)va_arg(va, int) : (flags & FLAGS_SHORT) ? (short int)va_arg(va, int)
    18a8:	37f81080 	tbnz	w0, #31, 1ab8 <_vsnprintf+0xb58>
    18ac:	91002e82 	add	x2, x20, #0xb
    18b0:	aa1403e0 	mov	x0, x20
    18b4:	927df054 	and	x20, x2, #0xfffffffffffffff8
    18b8:	39400005 	ldrb	w5, [x0]
    18bc:	2a0503e4 	mov	w4, w5
    18c0:	17ffff2b 	b	156c <_vsnprintf+0x60c>
                const int prec = (int)va_arg(va, int);
    18c4:	f94047e1 	ldr	x1, [sp, #136]
    18c8:	b9407be0 	ldr	w0, [sp, #120]
    18cc:	b9007be2 	str	w2, [sp, #120]
    18d0:	8b20c020 	add	x0, x1, w0, sxtw
    18d4:	17ffff75 	b	16a8 <_vsnprintf+0x748>
            const char* p = va_arg(va, char*);
    18d8:	f94047e1 	ldr	x1, [sp, #136]
    18dc:	b9407be0 	ldr	w0, [sp, #120]
    18e0:	b9007be2 	str	w2, [sp, #120]
    18e4:	8b20c020 	add	x0, x1, w0, sxtw
    18e8:	17fffeb6 	b	13c0 <_vsnprintf+0x460>
                idx = _ntoa_long_long(out, buffer, idx, maxlen, (uintptr_t)va_arg(va, void*), false, 16U, precision, width, flags);
    18ec:	f94047e1 	ldr	x1, [sp, #136]
    18f0:	b9407be0 	ldr	w0, [sp, #120]
    18f4:	b9007be2 	str	w2, [sp, #120]
    18f8:	8b20c020 	add	x0, x1, w0, sxtw
    18fc:	17fffe80 	b	12fc <_vsnprintf+0x39c>
            idx = _etoa(out, buffer, idx, maxlen, va_arg(va, double), precision, width, flags);
    1900:	f9404be1 	ldr	x1, [sp, #144]
    1904:	b940abe0 	ldr	w0, [sp, #168]
    1908:	b900abe2 	str	w2, [sp, #168]
    190c:	8b20c020 	add	x0, x1, w0, sxtw
    1910:	17fffe50 	b	1250 <_vsnprintf+0x2f0>
            idx = _ftoa(out, buffer, idx, maxlen, va_arg(va, double), precision, width, flags);
    1914:	f9404be1 	ldr	x1, [sp, #144]
    1918:	b940abe0 	ldr	w0, [sp, #168]
    191c:	b900abe2 	str	w2, [sp, #168]
    1920:	8b20c020 	add	x0, x1, w0, sxtw
    1924:	17fffe5d 	b	1298 <_vsnprintf+0x338>
                flags &= ~(FLAGS_PLUS | FLAGS_SPACE);
    1928:	121c74c6 	and	w6, w6, #0xfffffff3
    192c:	d2800108 	mov	x8, #0x8                   	// #8
    1930:	17fffefa 	b	1518 <_vsnprintf+0x5b8>
                    idx = _ntoa_long_long(out, buffer, idx, maxlen, va_arg(va, unsigned long long), false, base, precision, width, flags);
    1934:	37f807e0 	tbnz	w0, #31, 1a30 <_vsnprintf+0xad0>
    1938:	91003e82 	add	x2, x20, #0xf
    193c:	aa1403e0 	mov	x0, x20
    1940:	927df054 	and	x20, x2, #0xfffffffffffffff8
    1944:	2a1703e7 	mov	w7, w23
    1948:	aa1b03e2 	mov	x2, x27
    194c:	f9400004 	ldr	x4, [x0]
    1950:	b90003f8 	str	w24, [sp]
    1954:	b9000be6 	str	w6, [sp, #8]
    1958:	aa0803e6 	mov	x6, x8
    195c:	17fffe6f 	b	1318 <_vsnprintf+0x3b8>
                    const long long value = va_arg(va, long long);
    1960:	37f80560 	tbnz	w0, #31, 1a0c <_vsnprintf+0xaac>
    1964:	91003e82 	add	x2, x20, #0xf
    1968:	aa1403e0 	mov	x0, x20
    196c:	927df054 	and	x20, x2, #0xfffffffffffffff8
    1970:	f9400005 	ldr	x5, [x0]
                    idx = _ntoa_long_long(out, buffer, idx, maxlen, (unsigned long long)(value > 0 ? value : 0 - value), value < 0, base, precision, width, flags);
    1974:	2a1703e7 	mov	w7, w23
    1978:	aa1b03e2 	mov	x2, x27
    197c:	b90003f8 	str	w24, [sp]
    1980:	f10000bf 	cmp	x5, #0x0
    1984:	b9000be6 	str	w6, [sp, #8]
    1988:	da85a4a4 	cneg	x4, x5, lt  // lt = tstop
    198c:	aa0803e6 	mov	x6, x8
    1990:	d37ffca5 	lsr	x5, x5, #63
    1994:	17fffe62 	b	131c <_vsnprintf+0x3bc>
                flags &= ~FLAGS_HASH; // no hash for dec format
    1998:	d2800208 	mov	x8, #0x10                  	// #16
    199c:	17fffedb 	b	1508 <_vsnprintf+0x5a8>
                    const long value = va_arg(va, long);
    19a0:	37f80c40 	tbnz	w0, #31, 1b28 <_vsnprintf+0xbc8>
    19a4:	91003e82 	add	x2, x20, #0xf
    19a8:	aa1403e0 	mov	x0, x20
    19ac:	927df054 	and	x20, x2, #0xfffffffffffffff8
    19b0:	f9400005 	ldr	x5, [x0]
                    idx = _ntoa_long(out, buffer, idx, maxlen, (unsigned long)(value > 0 ? value : 0 - value), value < 0, base, precision, width, flags);
    19b4:	2a1703e7 	mov	w7, w23
    19b8:	aa1b03e2 	mov	x2, x27
    19bc:	b90003f8 	str	w24, [sp]
    19c0:	f10000bf 	cmp	x5, #0x0
    19c4:	b9000be6 	str	w6, [sp, #8]
    19c8:	da85a4a4 	cneg	x4, x5, lt  // lt = tstop
    19cc:	aa0803e6 	mov	x6, x8
    19d0:	d37ffca5 	lsr	x5, x5, #63
    19d4:	17fffeed 	b	1588 <_vsnprintf+0x628>
                    idx = _ntoa_long(out, buffer, idx, maxlen, va_arg(va, unsigned long), false, base, precision, width, flags);
    19d8:	37f80820 	tbnz	w0, #31, 1adc <_vsnprintf+0xb7c>
    19dc:	91003e82 	add	x2, x20, #0xf
    19e0:	aa1403e0 	mov	x0, x20
    19e4:	927df054 	and	x20, x2, #0xfffffffffffffff8
    19e8:	2a1703e7 	mov	w7, w23
    19ec:	f9400004 	ldr	x4, [x0]
    19f0:	b90003f8 	str	w24, [sp]
    19f4:	b9000be6 	str	w6, [sp, #8]
    19f8:	aa0803e6 	mov	x6, x8
    19fc:	17ffff9f 	b	1878 <_vsnprintf+0x918>
                flags &= ~(FLAGS_PLUS | FLAGS_SPACE);
    1a00:	121c74c6 	and	w6, w6, #0xfffffff3
    1a04:	d2800048 	mov	x8, #0x2                   	// #2
    1a08:	17fffec4 	b	1518 <_vsnprintf+0x5b8>
                    const long long value = va_arg(va, long long);
    1a0c:	b9407be0 	ldr	w0, [sp, #120]
    1a10:	11002002 	add	w2, w0, #0x8
    1a14:	7100005f 	cmp	w2, #0x0
    1a18:	54000a4d 	b.le	1b60 <_vsnprintf+0xc00>
    1a1c:	91003e84 	add	x4, x20, #0xf
    1a20:	aa1403e0 	mov	x0, x20
    1a24:	927df094 	and	x20, x4, #0xfffffffffffffff8
    1a28:	b9007be2 	str	w2, [sp, #120]
    1a2c:	17ffffd1 	b	1970 <_vsnprintf+0xa10>
                    idx = _ntoa_long_long(out, buffer, idx, maxlen, va_arg(va, unsigned long long), false, base, precision, width, flags);
    1a30:	b9407be0 	ldr	w0, [sp, #120]
    1a34:	11002002 	add	w2, w0, #0x8
    1a38:	7100005f 	cmp	w2, #0x0
    1a3c:	5400088d 	b.le	1b4c <_vsnprintf+0xbec>
    1a40:	91003e84 	add	x4, x20, #0xf
    1a44:	aa1403e0 	mov	x0, x20
    1a48:	927df094 	and	x20, x4, #0xfffffffffffffff8
    1a4c:	b9007be2 	str	w2, [sp, #120]
    1a50:	17ffffbd 	b	1944 <_vsnprintf+0x9e4>
                                                                                                                                      : va_arg(va, unsigned int);
    1a54:	37f80d00 	tbnz	w0, #31, 1bf4 <_vsnprintf+0xc94>
    1a58:	aa1403e0 	mov	x0, x20
    1a5c:	91002e82 	add	x2, x20, #0xb
    1a60:	927df054 	and	x20, x2, #0xfffffffffffffff8
    1a64:	b9400004 	ldr	w4, [x0]
    1a68:	17ffff7f 	b	1864 <_vsnprintf+0x904>
                                                                                                           : va_arg(va, int);
    1a6c:	37f80b20 	tbnz	w0, #31, 1bd0 <_vsnprintf+0xc70>
    1a70:	91002e82 	add	x2, x20, #0xb
    1a74:	aa1403e0 	mov	x0, x20
    1a78:	927df054 	and	x20, x2, #0xfffffffffffffff8
    1a7c:	b9400005 	ldr	w5, [x0]
                    idx = _ntoa_long(out, buffer, idx, maxlen, (unsigned int)(value > 0 ? value : 0 - value), value < 0, base, precision, width, flags);
    1a80:	710000bf 	cmp	w5, #0x0
    1a84:	5a85a4a4 	cneg	w4, w5, lt  // lt = tstop
    1a88:	17fffeb9 	b	156c <_vsnprintf+0x60c>
    for (s = str; *s && maxsize--; ++s)
    1a8c:	b900a3ff 	str	wzr, [sp, #160]
    1a90:	17fffe5c 	b	1400 <_vsnprintf+0x4a0>
                    const unsigned int value = (flags & FLAGS_CHAR) ? (unsigned char)va_arg(va, unsigned int) : (flags & FLAGS_SHORT) ? (unsigned short int)va_arg(va, unsigned int)
    1a94:	b9407be0 	ldr	w0, [sp, #120]
    1a98:	11002002 	add	w2, w0, #0x8
    1a9c:	7100005f 	cmp	w2, #0x0
    1aa0:	54000bed 	b.le	1c1c <_vsnprintf+0xcbc>
    1aa4:	91002e84 	add	x4, x20, #0xb
    1aa8:	aa1403e0 	mov	x0, x20
    1aac:	927df094 	and	x20, x4, #0xfffffffffffffff8
    1ab0:	b9007be2 	str	w2, [sp, #120]
    1ab4:	17ffff6b 	b	1860 <_vsnprintf+0x900>
                    const int value = (flags & FLAGS_CHAR) ? (char)va_arg(va, int) : (flags & FLAGS_SHORT) ? (short int)va_arg(va, int)
    1ab8:	b9407be0 	ldr	w0, [sp, #120]
    1abc:	11002002 	add	w2, w0, #0x8
    1ac0:	7100005f 	cmp	w2, #0x0
    1ac4:	54000b6d 	b.le	1c30 <_vsnprintf+0xcd0>
    1ac8:	91002e84 	add	x4, x20, #0xb
    1acc:	aa1403e0 	mov	x0, x20
    1ad0:	927df094 	and	x20, x4, #0xfffffffffffffff8
    1ad4:	b9007be2 	str	w2, [sp, #120]
    1ad8:	17ffff78 	b	18b8 <_vsnprintf+0x958>
                    idx = _ntoa_long(out, buffer, idx, maxlen, va_arg(va, unsigned long), false, base, precision, width, flags);
    1adc:	b9407be0 	ldr	w0, [sp, #120]
    1ae0:	11002002 	add	w2, w0, #0x8
    1ae4:	7100005f 	cmp	w2, #0x0
    1ae8:	54000aed 	b.le	1c44 <_vsnprintf+0xce4>
    1aec:	91003e84 	add	x4, x20, #0xf
    1af0:	aa1403e0 	mov	x0, x20
    1af4:	927df094 	and	x20, x4, #0xfffffffffffffff8
    1af8:	b9007be2 	str	w2, [sp, #120]
    1afc:	17ffffbb 	b	19e8 <_vsnprintf+0xa88>
            out((char)va_arg(va, int), buffer, idx++, maxlen);
    1b00:	f94047e1 	ldr	x1, [sp, #136]
    1b04:	b9407be0 	ldr	w0, [sp, #120]
    1b08:	b9007be2 	str	w2, [sp, #120]
    1b0c:	8b20c020 	add	x0, x1, w0, sxtw
    1b10:	17fffe10 	b	1350 <_vsnprintf+0x3f0>
    1b14:	f94047e1 	ldr	x1, [sp, #136]
    1b18:	b9407be0 	ldr	w0, [sp, #120]
    1b1c:	b9007be2 	str	w2, [sp, #120]
    1b20:	8b20c020 	add	x0, x1, w0, sxtw
    1b24:	17ffff31 	b	17e8 <_vsnprintf+0x888>
                    const long value = va_arg(va, long);
    1b28:	b9407be0 	ldr	w0, [sp, #120]
    1b2c:	11002002 	add	w2, w0, #0x8
    1b30:	7100005f 	cmp	w2, #0x0
    1b34:	5400092d 	b.le	1c58 <_vsnprintf+0xcf8>
    1b38:	91003e84 	add	x4, x20, #0xf
    1b3c:	aa1403e0 	mov	x0, x20
    1b40:	927df094 	and	x20, x4, #0xfffffffffffffff8
    1b44:	b9007be2 	str	w2, [sp, #120]
    1b48:	17ffff9a 	b	19b0 <_vsnprintf+0xa50>
                    idx = _ntoa_long_long(out, buffer, idx, maxlen, va_arg(va, unsigned long long), false, base, precision, width, flags);
    1b4c:	f94047e1 	ldr	x1, [sp, #136]
    1b50:	b9407be0 	ldr	w0, [sp, #120]
    1b54:	b9007be2 	str	w2, [sp, #120]
    1b58:	8b20c020 	add	x0, x1, w0, sxtw
    1b5c:	17ffff7a 	b	1944 <_vsnprintf+0x9e4>
                    const long long value = va_arg(va, long long);
    1b60:	f94047e1 	ldr	x1, [sp, #136]
    1b64:	b9407be0 	ldr	w0, [sp, #120]
    1b68:	b9007be2 	str	w2, [sp, #120]
    1b6c:	8b20c020 	add	x0, x1, w0, sxtw
    1b70:	17ffff80 	b	1970 <_vsnprintf+0xa10>
                while (l++ < width) {
    1b74:	aa1b03f5 	mov	x21, x27
    1b78:	17ffff17 	b	17d4 <_vsnprintf+0x874>
                while (l++ < width) {
    1b7c:	b900a3e0 	str	w0, [sp, #160]
    1b80:	17ffff01 	b	1784 <_vsnprintf+0x824>
                    const unsigned int value = (flags & FLAGS_CHAR) ? (unsigned char)va_arg(va, unsigned int) : (flags & FLAGS_SHORT) ? (unsigned short int)va_arg(va, unsigned int)
    1b84:	b9407be0 	ldr	w0, [sp, #120]
    1b88:	11002002 	add	w2, w0, #0x8
    1b8c:	7100005f 	cmp	w2, #0x0
    1b90:	5400078d 	b.le	1c80 <_vsnprintf+0xd20>
    1b94:	aa1403e0 	mov	x0, x20
    1b98:	91002e84 	add	x4, x20, #0xb
    1b9c:	927df094 	and	x20, x4, #0xfffffffffffffff8
    1ba0:	b9007be2 	str	w2, [sp, #120]
    1ba4:	79400004 	ldrh	w4, [x0]
    1ba8:	17ffff2f 	b	1864 <_vsnprintf+0x904>
                    const int value = (flags & FLAGS_CHAR) ? (char)va_arg(va, int) : (flags & FLAGS_SHORT) ? (short int)va_arg(va, int)
    1bac:	b9407be0 	ldr	w0, [sp, #120]
    1bb0:	11002002 	add	w2, w0, #0x8
    1bb4:	7100005f 	cmp	w2, #0x0
    1bb8:	540005ad 	b.le	1c6c <_vsnprintf+0xd0c>
    1bbc:	91002e84 	add	x4, x20, #0xb
    1bc0:	aa1403e0 	mov	x0, x20
    1bc4:	927df094 	and	x20, x4, #0xfffffffffffffff8
    1bc8:	b9007be2 	str	w2, [sp, #120]
    1bcc:	17fffe64 	b	155c <_vsnprintf+0x5fc>
                                                                                                           : va_arg(va, int);
    1bd0:	b9407be0 	ldr	w0, [sp, #120]
    1bd4:	11002002 	add	w2, w0, #0x8
    1bd8:	7100005f 	cmp	w2, #0x0
    1bdc:	540005ed 	b.le	1c98 <_vsnprintf+0xd38>
    1be0:	91002e84 	add	x4, x20, #0xb
    1be4:	aa1403e0 	mov	x0, x20
    1be8:	927df094 	and	x20, x4, #0xfffffffffffffff8
    1bec:	b9007be2 	str	w2, [sp, #120]
    1bf0:	17ffffa3 	b	1a7c <_vsnprintf+0xb1c>
                                                                                                                                      : va_arg(va, unsigned int);
    1bf4:	b9407be0 	ldr	w0, [sp, #120]
    1bf8:	11002002 	add	w2, w0, #0x8
    1bfc:	7100005f 	cmp	w2, #0x0
    1c00:	5400056d 	b.le	1cac <_vsnprintf+0xd4c>
    1c04:	aa1403e0 	mov	x0, x20
    1c08:	91002e84 	add	x4, x20, #0xb
    1c0c:	927df094 	and	x20, x4, #0xfffffffffffffff8
    1c10:	b9007be2 	str	w2, [sp, #120]
    1c14:	b9400004 	ldr	w4, [x0]
    1c18:	17ffff13 	b	1864 <_vsnprintf+0x904>
                    const unsigned int value = (flags & FLAGS_CHAR) ? (unsigned char)va_arg(va, unsigned int) : (flags & FLAGS_SHORT) ? (unsigned short int)va_arg(va, unsigned int)
    1c1c:	f94047e1 	ldr	x1, [sp, #136]
    1c20:	b9407be0 	ldr	w0, [sp, #120]
    1c24:	b9007be2 	str	w2, [sp, #120]
    1c28:	8b20c020 	add	x0, x1, w0, sxtw
    1c2c:	17ffff0d 	b	1860 <_vsnprintf+0x900>
                    const int value = (flags & FLAGS_CHAR) ? (char)va_arg(va, int) : (flags & FLAGS_SHORT) ? (short int)va_arg(va, int)
    1c30:	f94047e1 	ldr	x1, [sp, #136]
    1c34:	b9407be0 	ldr	w0, [sp, #120]
    1c38:	b9007be2 	str	w2, [sp, #120]
    1c3c:	8b20c020 	add	x0, x1, w0, sxtw
    1c40:	17ffff1e 	b	18b8 <_vsnprintf+0x958>
                    idx = _ntoa_long(out, buffer, idx, maxlen, va_arg(va, unsigned long), false, base, precision, width, flags);
    1c44:	f94047e1 	ldr	x1, [sp, #136]
    1c48:	b9407be0 	ldr	w0, [sp, #120]
    1c4c:	b9007be2 	str	w2, [sp, #120]
    1c50:	8b20c020 	add	x0, x1, w0, sxtw
    1c54:	17ffff65 	b	19e8 <_vsnprintf+0xa88>
                    const long value = va_arg(va, long);
    1c58:	f94047e1 	ldr	x1, [sp, #136]
    1c5c:	b9407be0 	ldr	w0, [sp, #120]
    1c60:	b9007be2 	str	w2, [sp, #120]
    1c64:	8b20c020 	add	x0, x1, w0, sxtw
    1c68:	17ffff52 	b	19b0 <_vsnprintf+0xa50>
                    const int value = (flags & FLAGS_CHAR) ? (char)va_arg(va, int) : (flags & FLAGS_SHORT) ? (short int)va_arg(va, int)
    1c6c:	f94047e1 	ldr	x1, [sp, #136]
    1c70:	b9407be0 	ldr	w0, [sp, #120]
    1c74:	b9007be2 	str	w2, [sp, #120]
    1c78:	8b20c020 	add	x0, x1, w0, sxtw
    1c7c:	17fffe38 	b	155c <_vsnprintf+0x5fc>
                    const unsigned int value = (flags & FLAGS_CHAR) ? (unsigned char)va_arg(va, unsigned int) : (flags & FLAGS_SHORT) ? (unsigned short int)va_arg(va, unsigned int)
    1c80:	f94047e1 	ldr	x1, [sp, #136]
    1c84:	b9407be0 	ldr	w0, [sp, #120]
    1c88:	b9007be2 	str	w2, [sp, #120]
    1c8c:	8b20c020 	add	x0, x1, w0, sxtw
    1c90:	79400004 	ldrh	w4, [x0]
    1c94:	17fffef4 	b	1864 <_vsnprintf+0x904>
                                                                                                           : va_arg(va, int);
    1c98:	f94047e1 	ldr	x1, [sp, #136]
    1c9c:	b9407be0 	ldr	w0, [sp, #120]
    1ca0:	b9007be2 	str	w2, [sp, #120]
    1ca4:	8b20c020 	add	x0, x1, w0, sxtw
    1ca8:	17ffff75 	b	1a7c <_vsnprintf+0xb1c>
                                                                                                                                      : va_arg(va, unsigned int);
    1cac:	f94047e1 	ldr	x1, [sp, #136]
    1cb0:	b9407be0 	ldr	w0, [sp, #120]
    1cb4:	b9007be2 	str	w2, [sp, #120]
    1cb8:	8b20c020 	add	x0, x1, w0, sxtw
    1cbc:	b9400004 	ldr	w4, [x0]
    1cc0:	17fffee9 	b	1864 <_vsnprintf+0x904>
    return (ch >= '0') && (ch <= '9');
    1cc4:	5100c002 	sub	w2, w0, #0x30
    unsigned int i = 0U;
    1cc8:	52800018 	mov	w24, #0x0                   	// #0
        if (_is_digit(*format)) {
    1ccc:	12001c42 	and	w2, w2, #0xff
    1cd0:	7100245f 	cmp	w2, #0x9
    1cd4:	54ffa2a8 	b.hi	1128 <_vsnprintf+0x1c8>  // b.pmore
        i = i * 10U + (unsigned int)(*((*str)++) - '0');
    1cd8:	52800142 	mov	w2, #0xa                   	// #10
    1cdc:	d503201f 	nop
    1ce0:	1b020305 	madd	w5, w24, w2, w0
    while (_is_digit(**str)) {
    1ce4:	39400100 	ldrb	w0, [x8]
        i = i * 10U + (unsigned int)(*((*str)++) - '0');
    1ce8:	aa0803f9 	mov	x25, x8
    1cec:	91000508 	add	x8, x8, #0x1
    return (ch >= '0') && (ch <= '9');
    1cf0:	5100c004 	sub	w4, w0, #0x30
        i = i * 10U + (unsigned int)(*((*str)++) - '0');
    1cf4:	5100c0b8 	sub	w24, w5, #0x30
    while (_is_digit(**str)) {
    1cf8:	12001c84 	and	w4, w4, #0xff
    1cfc:	7100249f 	cmp	w4, #0x9
    1d00:	54ffff09 	b.ls	1ce0 <_vsnprintf+0xd80>  // b.plast
    1d04:	17fffd09 	b	1128 <_vsnprintf+0x1c8>
        switch (*format) {
    1d08:	aa1903e4 	mov	x4, x25
    1d0c:	17fffcf0 	b	10cc <_vsnprintf+0x16c>

0000000000001d10 <printf>:

///////////////////////////////////////////////////////////////////////////////

int printf(const char* format, ...)
{
    1d10:	a9ad7bfd 	stp	x29, x30, [sp, #-304]!
    1d14:	910003fd 	mov	x29, sp
    1d18:	f9000bf3 	str	x19, [sp, #16]
    1d1c:	aa0003f3 	mov	x19, x0
    1d20:	3d801fe0 	str	q0, [sp, #112]
    1d24:	3d8023e1 	str	q1, [sp, #128]
    1d28:	3d8027e2 	str	q2, [sp, #144]
    1d2c:	3d802be3 	str	q3, [sp, #160]
    1d30:	3d802fe4 	str	q4, [sp, #176]
    1d34:	3d8033e5 	str	q5, [sp, #192]
    1d38:	3d8037e6 	str	q6, [sp, #208]
    1d3c:	3d803be7 	str	q7, [sp, #224]
    1d40:	a90f8be1 	stp	x1, x2, [sp, #248]
    1d44:	a91093e3 	stp	x3, x4, [sp, #264]
    1d48:	a9119be5 	stp	x5, x6, [sp, #280]
    1d4c:	f90097e7 	str	x7, [sp, #296]
    if (!init_uart_mmio()) {
    1d50:	97fff968 	bl	2f0 <init_uart_mmio>
    1d54:	72001c1f 	tst	w0, #0xff
    1d58:	540002e0 	b.eq	1db4 <printf+0xa4>  // b.none
        return -1;
    }
    va_list va;
    va_start(va, format);
    1d5c:	9103c3e0 	add	x0, sp, #0xf0
    1d60:	9104c3e3 	add	x3, sp, #0x130
    1d64:	9104c3e4 	add	x4, sp, #0x130
    1d68:	128006e2 	mov	w2, #0xffffffc8            	// #-56
    1d6c:	12800fe1 	mov	w1, #0xffffff80            	// #-128
    1d70:	a90513e3 	stp	x3, x4, [sp, #80]
    char buffer[1];
    const int ret = _vsnprintf(_out_char, buffer, (size_t)-1, format, va);
    1d74:	aa1303e3 	mov	x3, x19
    va_start(va, format);
    1d78:	f90033e0 	str	x0, [sp, #96]
    const int ret = _vsnprintf(_out_char, buffer, (size_t)-1, format, va);
    1d7c:	910083e4 	add	x4, sp, #0x20
    va_start(va, format);
    1d80:	290d07e2 	stp	w2, w1, [sp, #104]
    const int ret = _vsnprintf(_out_char, buffer, (size_t)-1, format, va);
    1d84:	f0ffffe0 	adrp	x0, 0 <main>
    1d88:	913cc000 	add	x0, x0, #0xf30
    1d8c:	910123e1 	add	x1, sp, #0x48
    1d90:	a94527e8 	ldp	x8, x9, [sp, #80]
    1d94:	92800002 	mov	x2, #0xffffffffffffffff    	// #-1
    1d98:	a9461fe6 	ldp	x6, x7, [sp, #96]
    1d9c:	a90227e8 	stp	x8, x9, [sp, #32]
    1da0:	a9031fe6 	stp	x6, x7, [sp, #48]
    1da4:	97fffc6f 	bl	f60 <_vsnprintf>
    va_end(va);
    return ret;
}
    1da8:	f9400bf3 	ldr	x19, [sp, #16]
    1dac:	a8d37bfd 	ldp	x29, x30, [sp], #304
    1db0:	d65f03c0 	ret
        return -1;
    1db4:	12800000 	mov	w0, #0xffffffff            	// #-1
    1db8:	17fffffc 	b	1da8 <printf+0x98>
    1dbc:	d503201f 	nop

0000000000001dc0 <sprintf_>:

int sprintf_(char* buffer, const char* format, ...)
{
    1dc0:	a9b07bfd 	stp	x29, x30, [sp, #-256]!
    va_list va;
    va_start(va, format);
    1dc4:	128005e9 	mov	w9, #0xffffffd0            	// #-48
    1dc8:	12800fe8 	mov	w8, #0xffffff80            	// #-128
{
    1dcc:	910003fd 	mov	x29, sp
    va_start(va, format);
    1dd0:	910343eb 	add	x11, sp, #0xd0
    1dd4:	910403ea 	add	x10, sp, #0x100
    1dd8:	a9032bea 	stp	x10, x10, [sp, #48]
{
    1ddc:	aa0103ea 	mov	x10, x1
    const int ret = _vsnprintf(_out_buffer, buffer, (size_t)-1, format, va);
    1de0:	aa0003e1 	mov	x1, x0
    va_start(va, format);
    1de4:	f90023eb 	str	x11, [sp, #64]
    const int ret = _vsnprintf(_out_buffer, buffer, (size_t)-1, format, va);
    1de8:	f0ffffe0 	adrp	x0, 0 <main>
    1dec:	910ec000 	add	x0, x0, #0x3b0
    va_start(va, format);
    1df0:	290923e9 	stp	w9, w8, [sp, #72]
    const int ret = _vsnprintf(_out_buffer, buffer, (size_t)-1, format, va);
    1df4:	a94337ec 	ldp	x12, x13, [sp, #48]
    1df8:	a90137ec 	stp	x12, x13, [sp, #16]
    1dfc:	a94427e8 	ldp	x8, x9, [sp, #64]
    1e00:	a90227e8 	stp	x8, x9, [sp, #32]
{
    1e04:	3d8017e0 	str	q0, [sp, #80]
    1e08:	3d801be1 	str	q1, [sp, #96]
    1e0c:	3d801fe2 	str	q2, [sp, #112]
    1e10:	3d8023e3 	str	q3, [sp, #128]
    1e14:	3d8027e4 	str	q4, [sp, #144]
    1e18:	3d802be5 	str	q5, [sp, #160]
    1e1c:	3d802fe6 	str	q6, [sp, #176]
    1e20:	3d8033e7 	str	q7, [sp, #192]
    1e24:	a90d0fe2 	stp	x2, x3, [sp, #208]
    const int ret = _vsnprintf(_out_buffer, buffer, (size_t)-1, format, va);
    1e28:	aa0a03e3 	mov	x3, x10
    1e2c:	92800002 	mov	x2, #0xffffffffffffffff    	// #-1
{
    1e30:	a90e17e4 	stp	x4, x5, [sp, #224]
    const int ret = _vsnprintf(_out_buffer, buffer, (size_t)-1, format, va);
    1e34:	910043e4 	add	x4, sp, #0x10
{
    1e38:	a90f1fe6 	stp	x6, x7, [sp, #240]
    const int ret = _vsnprintf(_out_buffer, buffer, (size_t)-1, format, va);
    1e3c:	97fffc49 	bl	f60 <_vsnprintf>
    va_end(va);
    return ret;
}
    1e40:	a8d07bfd 	ldp	x29, x30, [sp], #256
    1e44:	d65f03c0 	ret
    1e48:	d503201f 	nop
    1e4c:	d503201f 	nop

0000000000001e50 <snprintf_>:

int snprintf_(char* buffer, size_t count, const char* format, ...)
{
    1e50:	a9b07bfd 	stp	x29, x30, [sp, #-256]!
    va_list va;
    va_start(va, format);
    1e54:	128004eb 	mov	w11, #0xffffffd8            	// #-40
    1e58:	12800fe9 	mov	w9, #0xffffff80            	// #-128
{
    1e5c:	910003fd 	mov	x29, sp
    va_start(va, format);
    1e60:	910343ea 	add	x10, sp, #0xd0
    1e64:	910403e8 	add	x8, sp, #0x100
    1e68:	a90323e8 	stp	x8, x8, [sp, #48]
{
    1e6c:	aa0103e8 	mov	x8, x1
    const int ret = _vsnprintf(_out_buffer, buffer, count, format, va);
    1e70:	aa0003e1 	mov	x1, x0
    va_start(va, format);
    1e74:	f90023ea 	str	x10, [sp, #64]
{
    1e78:	aa0203ea 	mov	x10, x2
    va_start(va, format);
    1e7c:	290927eb 	stp	w11, w9, [sp, #72]
    const int ret = _vsnprintf(_out_buffer, buffer, count, format, va);
    1e80:	aa0803e2 	mov	x2, x8
    1e84:	a94337ec 	ldp	x12, x13, [sp, #48]
    1e88:	f0ffffe0 	adrp	x0, 0 <main>
    1e8c:	a94427e8 	ldp	x8, x9, [sp, #64]
    1e90:	910ec000 	add	x0, x0, #0x3b0
    1e94:	a90137ec 	stp	x12, x13, [sp, #16]
    1e98:	a90227e8 	stp	x8, x9, [sp, #32]
{
    1e9c:	3d8017e0 	str	q0, [sp, #80]
    1ea0:	3d801be1 	str	q1, [sp, #96]
    1ea4:	3d801fe2 	str	q2, [sp, #112]
    1ea8:	3d8023e3 	str	q3, [sp, #128]
    1eac:	3d8027e4 	str	q4, [sp, #144]
    1eb0:	3d802be5 	str	q5, [sp, #160]
    1eb4:	3d802fe6 	str	q6, [sp, #176]
    1eb8:	3d8033e7 	str	q7, [sp, #192]
    1ebc:	a90d93e3 	stp	x3, x4, [sp, #216]
    const int ret = _vsnprintf(_out_buffer, buffer, count, format, va);
    1ec0:	910043e4 	add	x4, sp, #0x10
    1ec4:	aa0a03e3 	mov	x3, x10
{
    1ec8:	a90e9be5 	stp	x5, x6, [sp, #232]
    1ecc:	f9007fe7 	str	x7, [sp, #248]
    const int ret = _vsnprintf(_out_buffer, buffer, count, format, va);
    1ed0:	97fffc24 	bl	f60 <_vsnprintf>
    va_end(va);
    return ret;
}
    1ed4:	a8d07bfd 	ldp	x29, x30, [sp], #256
    1ed8:	d65f03c0 	ret
    1edc:	d503201f 	nop

0000000000001ee0 <vprintf_>:

int vprintf_(const char* format, va_list va)
{
    1ee0:	a9bc7bfd 	stp	x29, x30, [sp, #-64]!
    char buffer[1];
    return _vsnprintf(_out_char, buffer, (size_t)-1, format, va);
    1ee4:	aa0003e3 	mov	x3, x0
    1ee8:	92800002 	mov	x2, #0xffffffffffffffff    	// #-1
{
    1eec:	910003fd 	mov	x29, sp
    return _vsnprintf(_out_char, buffer, (size_t)-1, format, va);
    1ef0:	a9402428 	ldp	x8, x9, [x1]
    1ef4:	910043e4 	add	x4, sp, #0x10
    1ef8:	a9411c26 	ldp	x6, x7, [x1, #16]
    1efc:	f0ffffe0 	adrp	x0, 0 <main>
    1f00:	9100e3e1 	add	x1, sp, #0x38
    1f04:	913cc000 	add	x0, x0, #0xf30
    1f08:	a90127e8 	stp	x8, x9, [sp, #16]
    1f0c:	a9021fe6 	stp	x6, x7, [sp, #32]
    1f10:	97fffc14 	bl	f60 <_vsnprintf>
}
    1f14:	a8c47bfd 	ldp	x29, x30, [sp], #64
    1f18:	d65f03c0 	ret
    1f1c:	d503201f 	nop

0000000000001f20 <vsnprintf_>:

int vsnprintf_(char* buffer, size_t count, const char* format, va_list va)
{
    1f20:	aa0303e4 	mov	x4, x3
    1f24:	a9bd7bfd 	stp	x29, x30, [sp, #-48]!
    1f28:	aa0103e5 	mov	x5, x1
    1f2c:	910003fd 	mov	x29, sp
    return _vsnprintf(_out_buffer, buffer, count, format, va);
    1f30:	a9402488 	ldp	x8, x9, [x4]
    1f34:	aa0003e1 	mov	x1, x0
    1f38:	a9411c86 	ldp	x6, x7, [x4, #16]
    1f3c:	aa0203e3 	mov	x3, x2
    1f40:	910043e4 	add	x4, sp, #0x10
    1f44:	aa0503e2 	mov	x2, x5
    1f48:	f0ffffe0 	adrp	x0, 0 <main>
    1f4c:	910ec000 	add	x0, x0, #0x3b0
    1f50:	a90127e8 	stp	x8, x9, [sp, #16]
    1f54:	a9021fe6 	stp	x6, x7, [sp, #32]
    1f58:	97fffc02 	bl	f60 <_vsnprintf>
}
    1f5c:	a8c37bfd 	ldp	x29, x30, [sp], #48
    1f60:	d65f03c0 	ret
    1f64:	d503201f 	nop
    1f68:	d503201f 	nop
    1f6c:	d503201f 	nop

0000000000001f70 <fctprintf>:

int fctprintf(void (*out)(char character, void* arg), void* arg, const char* format, ...)
{
    1f70:	a9af7bfd 	stp	x29, x30, [sp, #-272]!
    va_list va;
    va_start(va, format);
    1f74:	128004e9 	mov	w9, #0xffffffd8            	// #-40
    1f78:	12800fe8 	mov	w8, #0xffffff80            	// #-128
{
    1f7c:	910003fd 	mov	x29, sp
    va_start(va, format);
    1f80:	910443ea 	add	x10, sp, #0x110
    1f84:	910383eb 	add	x11, sp, #0xe0
    1f88:	f90023ea 	str	x10, [sp, #64]
{
    1f8c:	aa0203ea 	mov	x10, x2
    va_start(va, format);
    1f90:	910443e2 	add	x2, sp, #0x110
    1f94:	f90027e2 	str	x2, [sp, #72]
    1f98:	f9002beb 	str	x11, [sp, #80]
{
    1f9c:	aa0003ec 	mov	x12, x0
    va_start(va, format);
    1fa0:	290b23e9 	stp	w9, w8, [sp, #88]
{
    1fa4:	aa0103eb 	mov	x11, x1
    const out_fct_wrap_type out_fct_wrap = { out, arg };
    const int ret = _vsnprintf(_out_fct, (char*)(uintptr_t)&out_fct_wrap, (size_t)-1, format, va);
    1fa8:	a9443fee 	ldp	x14, x15, [sp, #64]
    1fac:	9100c3e1 	add	x1, sp, #0x30
    1fb0:	a94527e8 	ldp	x8, x9, [sp, #80]
    1fb4:	92800002 	mov	x2, #0xffffffffffffffff    	// #-1
    1fb8:	f0ffffe0 	adrp	x0, 0 <main>
    1fbc:	913d0000 	add	x0, x0, #0xf40
    1fc0:	a9013fee 	stp	x14, x15, [sp, #16]
    1fc4:	a90227e8 	stp	x8, x9, [sp, #32]
    const out_fct_wrap_type out_fct_wrap = { out, arg };
    1fc8:	f9001bec 	str	x12, [sp, #48]
    1fcc:	f9001feb 	str	x11, [sp, #56]
{
    1fd0:	3d801be0 	str	q0, [sp, #96]
    1fd4:	3d801fe1 	str	q1, [sp, #112]
    1fd8:	3d8023e2 	str	q2, [sp, #128]
    1fdc:	3d8027e3 	str	q3, [sp, #144]
    1fe0:	3d802be4 	str	q4, [sp, #160]
    1fe4:	3d802fe5 	str	q5, [sp, #176]
    1fe8:	3d8033e6 	str	q6, [sp, #192]
    1fec:	3d8037e7 	str	q7, [sp, #208]
    1ff0:	a90e93e3 	stp	x3, x4, [sp, #232]
    const int ret = _vsnprintf(_out_fct, (char*)(uintptr_t)&out_fct_wrap, (size_t)-1, format, va);
    1ff4:	910043e4 	add	x4, sp, #0x10
    1ff8:	aa0a03e3 	mov	x3, x10
{
    1ffc:	a90f9be5 	stp	x5, x6, [sp, #248]
    2000:	f90087e7 	str	x7, [sp, #264]
    const int ret = _vsnprintf(_out_fct, (char*)(uintptr_t)&out_fct_wrap, (size_t)-1, format, va);
    2004:	97fffbd7 	bl	f60 <_vsnprintf>
    va_end(va);
    return ret;
    2008:	a8d17bfd 	ldp	x29, x30, [sp], #272
    200c:	d65f03c0 	ret

0000000000002010 <agencyshellRun>:

#if SHELL_EXEC_UNDEF_FUNC == 1
extern int shellExecute(int argc, char* argv[]);
#endif

SHELL_AGENCY_FUNC(shellRun, shellGetCurrent(), (const char*)p1);
    2010:	a9be7bfd 	stp	x29, x30, [sp, #-32]!
    2014:	910003fd 	mov	x29, sp
    2018:	f9000bf3 	str	x19, [sp, #16]
    201c:	aa0003f3 	mov	x19, x0
    2020:	940000b0 	bl	22e0 <shellGetCurrent>
    2024:	aa1303e1 	mov	x1, x19
    2028:	f9400bf3 	ldr	x19, [sp, #16]
    202c:	a8c27bfd 	ldp	x29, x30, [sp], #32
    2030:	14000c08 	b	5050 <shellRun>
    2034:	d503201f 	nop
    2038:	d503201f 	nop
    203c:	d503201f 	nop

0000000000002040 <shellLs>:

/**
 * @brief ls ()
 */
void shellLs(const char* path, ...)
{
    2040:	a9bf7bfd 	stp	x29, x30, [sp, #-16]!
    if ((uintptr_t*)path == (uintptr_t*)shellLs || *path == '\0') {
    2044:	90000002 	adrp	x2, 2000 <fctprintf+0x90>
    2048:	91010042 	add	x2, x2, #0x40
{
    204c:	910003fd 	mov	x29, sp
    if ((uintptr_t*)path == (uintptr_t*)shellLs || *path == '\0') {
    2050:	eb02001f 	cmp	x0, x2
    2054:	54000180 	b.eq	2084 <shellLs+0x44>  // b.none
    2058:	39400002 	ldrb	w2, [x0]
    205c:	aa0003e1 	mov	x1, x0
        path = ".";
    2060:	b0000060 	adrp	x0, f000 <_fstat_r+0x40>
    2064:	912ee000 	add	x0, x0, #0xbb8
    2068:	7100005f 	cmp	w2, #0x0
    206c:	9a810001 	csel	x1, x0, x1, eq  // eq = none
    }
    ls(&session_fs, (char*)path);
    2070:	f0000060 	adrp	x0, 11000 <__global_locale+0x180>
    2074:	912d6000 	add	x0, x0, #0xb58
    2078:	94000da2 	bl	5700 <ls>
}
    207c:	a8c17bfd 	ldp	x29, x30, [sp], #16
    2080:	d65f03c0 	ret
        path = ".";
    2084:	b0000061 	adrp	x1, f000 <_fstat_r+0x40>
    2088:	912ee021 	add	x1, x1, #0xbb8
    ls(&session_fs, (char*)path);
    208c:	f0000060 	adrp	x0, 11000 <__global_locale+0x180>
    2090:	912d6000 	add	x0, x0, #0xb58
    2094:	94000d9b 	bl	5700 <ls>
}
    2098:	a8c17bfd 	ldp	x29, x30, [sp], #16
    209c:	d65f03c0 	ret

00000000000020a0 <shellGetCommandName>:
    for (unsigned char i = 0; i < 9; i++) {
    20a0:	f0000064 	adrp	x4, 11000 <__global_locale+0x180>
    20a4:	912de084 	add	x4, x4, #0xb78
    20a8:	aa0403e1 	mov	x1, x4
    20ac:	91002483 	add	x3, x4, #0x9
        buffer[i] = '0';
    20b0:	52800602 	mov	w2, #0x30                  	// #48
    20b4:	d503201f 	nop
    20b8:	38001422 	strb	w2, [x1], #1
    for (unsigned char i = 0; i < 9; i++) {
    20bc:	eb03003f 	cmp	x1, x3
    20c0:	54ffffc1 	b.ne	20b8 <shellGetCommandName+0x18>  // b.any
    if (command->attr.attrs.type <= SHELL_TYPE_CMD_FUNC) {
    20c4:	f9400001 	ldr	x1, [x0]
    20c8:	53082c21 	ubfx	w1, w1, #8, #4
    20cc:	7100043f 	cmp	w1, #0x1
    20d0:	540002e9 	b.ls	212c <shellGetCommandName+0x8c>  // b.plast
    } else if (command->attr.attrs.type <= SHELL_TYPE_VAR_NODE) {
    20d4:	71001c3f 	cmp	w1, #0x7
    20d8:	540002a9 	b.ls	212c <shellGetCommandName+0x8c>  // b.plast
    } else if (command->attr.attrs.type <= SHELL_TYPE_USER) {
    20dc:	7100203f 	cmp	w1, #0x8
    20e0:	54000260 	b.eq	212c <shellGetCommandName+0x8c>  // b.none
        shellToHex(command->data.key.value, buffer);
    20e4:	b9400800 	ldr	w0, [x0, #8]
    buffer[8] = 0;
    20e8:	3900209f 	strb	wzr, [x4, #8]
    while (value) {
    20ec:	340001c0 	cbz	w0, 2124 <shellGetCommandName+0x84>
    unsigned char i = 8;
    20f0:	52800102 	mov	w2, #0x8                   	// #8
    20f4:	d503201f 	nop
        buffer[--i] = (byte > 9) ? (byte + 87) : (byte + 48);
    20f8:	51000442 	sub	w2, w2, #0x1
        byte = value & 0x0000000F;
    20fc:	12000c01 	and	w1, w0, #0xf
        buffer[--i] = (byte > 9) ? (byte + 87) : (byte + 48);
    2100:	92401c43 	and	x3, x2, #0xff
    2104:	7100283f 	cmp	w1, #0xa
    2108:	11015c25 	add	w5, w1, #0x57
    210c:	1100c021 	add	w1, w1, #0x30
    2110:	1a853021 	csel	w1, w1, w5, cc  // cc = lo, ul, last
        value >>= 4;
    2114:	53047c00 	lsr	w0, w0, #4
        buffer[--i] = (byte > 9) ? (byte + 87) : (byte + 48);
    2118:	38236881 	strb	w1, [x4, x3]
    211c:	12001c42 	and	w2, w2, #0xff
    while (value) {
    2120:	35fffec0 	cbnz	w0, 20f8 <shellGetCommandName+0x58>
    unsigned char i = 8;
    2124:	aa0403e0 	mov	x0, x4
}
    2128:	d65f03c0 	ret
        return command->data.user.name;
    212c:	f9400400 	ldr	x0, [x0, #8]
}
    2130:	d65f03c0 	ret
    2134:	d503201f 	nop
    2138:	d503201f 	nop
    213c:	d503201f 	nop

0000000000002140 <shellWritePrompt.part.0.constprop.0>:
    SHELL_ASSERT(shell->write, return 0);
    2140:	f9406004 	ldr	x4, [x0, #192]
    2144:	b4000a84 	cbz	x4, 2294 <shellWritePrompt.part.0.constprop.0+0x154>
static void shellWritePrompt(Shell* shell, unsigned char newline)
    2148:	a9be7bfd 	stp	x29, x30, [sp, #-32]!
    while (*p++) {
    214c:	b0000062 	adrp	x2, f000 <_fstat_r+0x40>
    2150:	91356442 	add	x2, x2, #0xd59
static void shellWritePrompt(Shell* shell, unsigned char newline)
    2154:	910003fd 	mov	x29, sp
    2158:	52800143 	mov	w3, #0xa                   	// #10
    unsigned short count = 0;
    215c:	52800001 	mov	w1, #0x0                   	// #0
static void shellWritePrompt(Shell* shell, unsigned char newline)
    2160:	f9000bf3 	str	x19, [sp, #16]
    2164:	aa0003f3 	mov	x19, x0
    2168:	14000002 	b	2170 <shellWritePrompt.part.0.constprop.0+0x30>
    while (*p++) {
    216c:	39400043 	ldrb	w3, [x2]
        count++;
    2170:	11000421 	add	w1, w1, #0x1
    while (*p++) {
    2174:	91000442 	add	x2, x2, #0x1
        count++;
    2178:	12003c21 	and	w1, w1, #0xffff
    while (*p++) {
    217c:	35ffff83 	cbnz	w3, 216c <shellWritePrompt.part.0.constprop.0+0x2c>
    return shell->write((char*)string, count);
    2180:	b0000060 	adrp	x0, f000 <_fstat_r+0x40>
    2184:	91356000 	add	x0, x0, #0xd58
    2188:	d63f0080 	blr	x4
        shellWriteString(shell, shell->info.user->data.user.name);
    218c:	f9400260 	ldr	x0, [x19]
    SHELL_ASSERT(shell->write, return 0);
    2190:	f9406265 	ldr	x5, [x19, #192]
        shellWriteString(shell, shell->info.user->data.user.name);
    2194:	f9400400 	ldr	x0, [x0, #8]
    SHELL_ASSERT(shell->write, return 0);
    2198:	b4000705 	cbz	x5, 2278 <shellWritePrompt.part.0.constprop.0+0x138>
    while (*p++) {
    219c:	aa0003e2 	mov	x2, x0
    21a0:	38401441 	ldrb	w1, [x2], #1
    21a4:	34000741 	cbz	w1, 228c <shellWritePrompt.part.0.constprop.0+0x14c>
    21a8:	52800024 	mov	w4, #0x1                   	// #1
    21ac:	4b020084 	sub	w4, w4, w2
        count++;
    21b0:	0b020081 	add	w1, w4, w2
    while (*p++) {
    21b4:	38401443 	ldrb	w3, [x2], #1
    21b8:	12003c21 	and	w1, w1, #0xffff
    21bc:	35ffffa3 	cbnz	w3, 21b0 <shellWritePrompt.part.0.constprop.0+0x70>
    return shell->write((char*)string, count);
    21c0:	d63f00a0 	blr	x5
    SHELL_ASSERT(shell->write, return 0);
    21c4:	f9406262 	ldr	x2, [x19, #192]
    21c8:	b4000582 	cbz	x2, 2278 <shellWritePrompt.part.0.constprop.0+0x138>
    return shell->write((char*)string, count);
    21cc:	b0000060 	adrp	x0, f000 <_fstat_r+0x40>
    21d0:	52800021 	mov	w1, #0x1                   	// #1
    21d4:	912f4000 	add	x0, x0, #0xbd0
    21d8:	d63f0040 	blr	x2
        shellWriteString(shell, shell->info.path ? shell->info.path : "/");
    21dc:	f9400a60 	ldr	x0, [x19, #16]
    SHELL_ASSERT(shell->write, return 0);
    21e0:	f9406265 	ldr	x5, [x19, #192]
        shellWriteString(shell, shell->info.path ? shell->info.path : "/");
    21e4:	b4000420 	cbz	x0, 2268 <shellWritePrompt.part.0.constprop.0+0x128>
    SHELL_ASSERT(shell->write, return 0);
    21e8:	b4000485 	cbz	x5, 2278 <shellWritePrompt.part.0.constprop.0+0x138>
    while (*p++) {
    21ec:	aa0003e2 	mov	x2, x0
    21f0:	38401441 	ldrb	w1, [x2], #1
    21f4:	34000481 	cbz	w1, 2284 <shellWritePrompt.part.0.constprop.0+0x144>
    21f8:	52800024 	mov	w4, #0x1                   	// #1
    21fc:	39400403 	ldrb	w3, [x0, #1]
    2200:	4b020084 	sub	w4, w4, w2
    2204:	14000002 	b	220c <shellWritePrompt.part.0.constprop.0+0xcc>
    2208:	39400043 	ldrb	w3, [x2]
        count++;
    220c:	0b020081 	add	w1, w4, w2
    2210:	91000442 	add	x2, x2, #0x1
    2214:	12003c21 	and	w1, w1, #0xffff
    while (*p++) {
    2218:	35ffff83 	cbnz	w3, 2208 <shellWritePrompt.part.0.constprop.0+0xc8>
    return shell->write((char*)string, count);
    221c:	d63f00a0 	blr	x5
    SHELL_ASSERT(shell->write, return 0);
    2220:	f9406263 	ldr	x3, [x19, #192]
    2224:	b40002a3 	cbz	x3, 2278 <shellWritePrompt.part.0.constprop.0+0x138>
    while (*p++) {
    2228:	b0000060 	adrp	x0, f000 <_fstat_r+0x40>
    222c:	912f2400 	add	x0, x0, #0xbc9
    2230:	52800402 	mov	w2, #0x20                  	// #32
    unsigned short count = 0;
    2234:	52800001 	mov	w1, #0x0                   	// #0
    2238:	14000002 	b	2240 <shellWritePrompt.part.0.constprop.0+0x100>
    while (*p++) {
    223c:	39400002 	ldrb	w2, [x0]
        count++;
    2240:	11000421 	add	w1, w1, #0x1
    while (*p++) {
    2244:	91000400 	add	x0, x0, #0x1
        count++;
    2248:	12003c21 	and	w1, w1, #0xffff
    while (*p++) {
    224c:	35ffff82 	cbnz	w2, 223c <shellWritePrompt.part.0.constprop.0+0xfc>
}
    2250:	f9400bf3 	ldr	x19, [sp, #16]
    return shell->write((char*)string, count);
    2254:	aa0303f0 	mov	x16, x3
}
    2258:	a8c27bfd 	ldp	x29, x30, [sp], #32
    return shell->write((char*)string, count);
    225c:	b0000060 	adrp	x0, f000 <_fstat_r+0x40>
    2260:	912f2000 	add	x0, x0, #0xbc8
    2264:	d61f0200 	br	x16
        shellWriteString(shell, shell->info.path ? shell->info.path : "/");
    2268:	b0000060 	adrp	x0, f000 <_fstat_r+0x40>
    226c:	912f0000 	add	x0, x0, #0xbc0
    2270:	52800021 	mov	w1, #0x1                   	// #1
    SHELL_ASSERT(shell->write, return 0);
    2274:	b5fffd45 	cbnz	x5, 221c <shellWritePrompt.part.0.constprop.0+0xdc>
}
    2278:	f9400bf3 	ldr	x19, [sp, #16]
    227c:	a8c27bfd 	ldp	x29, x30, [sp], #32
    2280:	d65f03c0 	ret
    unsigned short count = 0;
    2284:	52800001 	mov	w1, #0x0                   	// #0
    2288:	17ffffe5 	b	221c <shellWritePrompt.part.0.constprop.0+0xdc>
    228c:	52800001 	mov	w1, #0x0                   	// #0
    2290:	17ffffcc 	b	21c0 <shellWritePrompt.part.0.constprop.0+0x80>
    2294:	d65f03c0 	ret
    2298:	d503201f 	nop
    229c:	d503201f 	nop

00000000000022a0 <shellRemove>:
    for (short i = 0; i < SHELL_MAX_NUMBER; i++) {
    22a0:	f0000062 	adrp	x2, 11000 <__global_locale+0x180>
    22a4:	912de042 	add	x2, x2, #0xb78
        if (shellList[i] == shell) {
    22a8:	91004042 	add	x2, x2, #0x10
{
    22ac:	d2800001 	mov	x1, #0x0                   	// #0
        if (shellList[i] == shell) {
    22b0:	f8617843 	ldr	x3, [x2, x1, lsl #3]
    22b4:	2a0103e4 	mov	w4, w1
    for (short i = 0; i < SHELL_MAX_NUMBER; i++) {
    22b8:	91000421 	add	x1, x1, #0x1
        if (shellList[i] == shell) {
    22bc:	eb00007f 	cmp	x3, x0
    22c0:	54000080 	b.eq	22d0 <shellRemove+0x30>  // b.none
    for (short i = 0; i < SHELL_MAX_NUMBER; i++) {
    22c4:	f100143f 	cmp	x1, #0x5
    22c8:	54ffff41 	b.ne	22b0 <shellRemove+0x10>  // b.any
}
    22cc:	d65f03c0 	ret
            shellList[i] = NULL;
    22d0:	f824d85f 	str	xzr, [x2, w4, sxtw #3]
}
    22d4:	d65f03c0 	ret
    22d8:	d503201f 	nop
    22dc:	d503201f 	nop

00000000000022e0 <shellGetCurrent>:
    for (short i = 0; i < SHELL_MAX_NUMBER; i++) {
    22e0:	f0000062 	adrp	x2, 11000 <__global_locale+0x180>
    22e4:	912de042 	add	x2, x2, #0xb78
    22e8:	91004041 	add	x1, x2, #0x10
    22ec:	9100e042 	add	x2, x2, #0x38
        if (shellList[i] && shellList[i]->status.isActive) {
    22f0:	f9400020 	ldr	x0, [x1]
    for (short i = 0; i < SHELL_MAX_NUMBER; i++) {
    22f4:	91002021 	add	x1, x1, #0x8
        if (shellList[i] && shellList[i]->status.isActive) {
    22f8:	b4000060 	cbz	x0, 2304 <shellGetCurrent+0x24>
    22fc:	3942c003 	ldrb	w3, [x0, #176]
    2300:	37080083 	tbnz	w3, #1, 2310 <shellGetCurrent+0x30>
    for (short i = 0; i < SHELL_MAX_NUMBER; i++) {
    2304:	eb02003f 	cmp	x1, x2
    2308:	54ffff41 	b.ne	22f0 <shellGetCurrent+0x10>  // b.any
    return NULL;
    230c:	d2800000 	mov	x0, #0x0                   	// #0
}
    2310:	d65f03c0 	ret
    2314:	d503201f 	nop
    2318:	d503201f 	nop
    231c:	d503201f 	nop

0000000000002320 <shellWriteString>:
    SHELL_ASSERT(shell->write, return 0);
    2320:	f9406007 	ldr	x7, [x0, #192]
{
    2324:	aa0103e6 	mov	x6, x1
    SHELL_ASSERT(shell->write, return 0);
    2328:	b40001c7 	cbz	x7, 2360 <shellWriteString+0x40>
    while (*p++) {
    232c:	aa0103e2 	mov	x2, x1
    2330:	38401440 	ldrb	w0, [x2], #1
    2334:	340001a0 	cbz	w0, 2368 <shellWriteString+0x48>
    2338:	52800025 	mov	w5, #0x1                   	// #1
    233c:	4b0200a5 	sub	w5, w5, w2
        count++;
    2340:	0b0200a3 	add	w3, w5, w2
    while (*p++) {
    2344:	38401444 	ldrb	w4, [x2], #1
    2348:	12003c63 	and	w3, w3, #0xffff
    234c:	35ffffa4 	cbnz	w4, 2340 <shellWriteString+0x20>
    return shell->write((char*)string, count);
    2350:	2a0303e1 	mov	w1, w3
    2354:	aa0603e0 	mov	x0, x6
    2358:	aa0703f0 	mov	x16, x7
    235c:	d61f0200 	br	x16
}
    2360:	52800000 	mov	w0, #0x0                   	// #0
    2364:	d65f03c0 	ret
    unsigned short count = 0;
    2368:	52800003 	mov	w3, #0x0                   	// #0
    236c:	17fffff9 	b	2350 <shellWriteString+0x30>

0000000000002370 <shellCheckPermission>:
    return ((!command->attr.attrs.permission
    2370:	39400022 	ldrb	w2, [x1]
        : -1;
    2374:	34000142 	cbz	w2, 239c <shellCheckPermission+0x2c>
                || command->attr.attrs.type == SHELL_TYPE_USER
    2378:	b9400023 	ldr	w3, [x1]
    237c:	12180c63 	and	w3, w3, #0xf00
    2380:	7120007f 	cmp	w3, #0x800
    2384:	540000c0 	b.eq	239c <shellCheckPermission+0x2c>  // b.none
                || (shell->info.user
    2388:	f9400003 	ldr	x3, [x0]
    238c:	b40001a3 	cbz	x3, 23c0 <shellCheckPermission+0x50>
                    && (command->attr.attrs.permission
    2390:	39400063 	ldrb	w3, [x3]
    2394:	6a03005f 	tst	w2, w3
    2398:	54000140 	b.eq	23c0 <shellCheckPermission+0x50>  // b.none
               && (shell->status.isChecked
    239c:	3942c002 	ldrb	w2, [x0, #176]
        : -1;
    23a0:	52800000 	mov	w0, #0x0                   	// #0
               && (shell->status.isChecked
    23a4:	36000042 	tbz	w2, #0, 23ac <shellCheckPermission+0x3c>
}
    23a8:	d65f03c0 	ret
                   || command->attr.attrs.enableUnchecked))
    23ac:	b9400020 	ldr	w0, [x1]
    23b0:	d2740000 	eor	x0, x0, #0x1000
    23b4:	130c3000 	sbfx	w0, w0, #12, #1
    23b8:	13001c00 	sxtb	w0, w0
}
    23bc:	d65f03c0 	ret
        : -1;
    23c0:	12800000 	mov	w0, #0xffffffff            	// #-1
}
    23c4:	d65f03c0 	ret
    23c8:	d503201f 	nop
    23cc:	d503201f 	nop

00000000000023d0 <shellToHex>:
    buffer[8] = 0;
    23d0:	3900203f 	strb	wzr, [x1, #8]
    while (value) {
    23d4:	34000240 	cbz	w0, 241c <shellToHex+0x4c>
    unsigned char i = 8;
    23d8:	52800103 	mov	w3, #0x8                   	// #8
    23dc:	d503201f 	nop
        buffer[--i] = (byte > 9) ? (byte + 87) : (byte + 48);
    23e0:	51000463 	sub	w3, w3, #0x1
        byte = value & 0x0000000F;
    23e4:	12000c02 	and	w2, w0, #0xf
        buffer[--i] = (byte > 9) ? (byte + 87) : (byte + 48);
    23e8:	92401c64 	and	x4, x3, #0xff
    23ec:	7100285f 	cmp	w2, #0xa
    23f0:	11015c45 	add	w5, w2, #0x57
    23f4:	1100c042 	add	w2, w2, #0x30
    23f8:	1a853042 	csel	w2, w2, w5, cc  // cc = lo, ul, last
        value >>= 4;
    23fc:	53047c00 	lsr	w0, w0, #4
        buffer[--i] = (byte > 9) ? (byte + 87) : (byte + 48);
    2400:	38246822 	strb	w2, [x1, x4]
    2404:	12001c63 	and	w3, w3, #0xff
    while (value) {
    2408:	35fffec0 	cbnz	w0, 23e0 <shellToHex+0x10>
    return 8 - i;
    240c:	52800100 	mov	w0, #0x8                   	// #8
    2410:	4b030003 	sub	w3, w0, w3
    2414:	13001c60 	sxtb	w0, w3
}
    2418:	d65f03c0 	ret
    while (value) {
    241c:	52800000 	mov	w0, #0x0                   	// #0
}
    2420:	d65f03c0 	ret
    2424:	d503201f 	nop
    2428:	d503201f 	nop
    242c:	d503201f 	nop

0000000000002430 <shellToDec>:
    buffer[11] = 0;
    2430:	39002c3f 	strb	wzr, [x1, #11]
    2434:	7100001f 	cmp	w0, #0x0
    2438:	5a80a403 	cneg	w3, w0, lt  // lt = tstop
    while (v) {
    243c:	54000320 	b.eq	24a0 <shellToDec+0x70>  // b.none
        buffer[--i] = v % 10 + 48;
    2440:	529999a9 	mov	w9, #0xcccd                	// #52429
    2444:	72b99989 	movk	w9, #0xcccc, lsl #16
    unsigned char i = 11;
    2448:	52800165 	mov	w5, #0xb                   	// #11
        buffer[--i] = v % 10 + 48;
    244c:	52800148 	mov	w8, #0xa                   	// #10
    2450:	9ba97c62 	umull	x2, w3, w9
    2454:	510004a4 	sub	w4, w5, #0x1
    2458:	92401c86 	and	x6, x4, #0xff
    245c:	2a0503e7 	mov	w7, w5
    2460:	12001c85 	and	w5, w4, #0xff
    2464:	d363fc42 	lsr	x2, x2, #35
    2468:	1b088c44 	msub	w4, w2, w8, w3
        v /= 10;
    246c:	2a0203e3 	mov	w3, w2
        buffer[--i] = v % 10 + 48;
    2470:	1100c082 	add	w2, w4, #0x30
    2474:	38266822 	strb	w2, [x1, x6]
    while (v) {
    2478:	35fffec3 	cbnz	w3, 2450 <shellToDec+0x20>
    if (value < 0) {
    247c:	36f800c0 	tbz	w0, #31, 2494 <shellToDec+0x64>
        buffer[--i] = '-';
    2480:	510008e5 	sub	w5, w7, #0x2
    2484:	528005a2 	mov	w2, #0x2d                  	// #45
    2488:	92401ca0 	and	x0, x5, #0xff
    248c:	12001ca5 	and	w5, w5, #0xff
    2490:	38206822 	strb	w2, [x1, x0]
    return 11 - i;
    2494:	52800160 	mov	w0, #0xb                   	// #11
    2498:	4b050000 	sub	w0, w0, w5
}
    249c:	d65f03c0 	ret
        buffer[--i] = '0';
    24a0:	52800600 	mov	w0, #0x30                  	// #48
    24a4:	52800145 	mov	w5, #0xa                   	// #10
    24a8:	39002820 	strb	w0, [x1, #10]
    return 11 - i;
    24ac:	52800160 	mov	w0, #0xb                   	// #11
    24b0:	4b050000 	sub	w0, w0, w5
}
    24b4:	d65f03c0 	ret
    24b8:	d503201f 	nop
    24bc:	d503201f 	nop

00000000000024c0 <shellWriteReturnValue>:
{
    24c0:	a9bc7bfd 	stp	x29, x30, [sp, #-64]!
    char buffer[12] = "00000000000";
    24c4:	b0000062 	adrp	x2, f000 <_fstat_r+0x40>
    24c8:	912fc042 	add	x2, x2, #0xbf0
{
    24cc:	910003fd 	mov	x29, sp
    24d0:	a90153f3 	stp	x19, x20, [sp, #16]
    24d4:	aa0003f4 	mov	x20, x0
    24d8:	2a0103f3 	mov	w19, w1
    24dc:	f90013f5 	str	x21, [sp, #32]
    char buffer[12] = "00000000000";
    24e0:	9100c3f5 	add	x21, sp, #0x30
    SHELL_ASSERT(shell->write, return 0);
    24e4:	f9406003 	ldr	x3, [x0, #192]
    char buffer[12] = "00000000000";
    24e8:	f9400040 	ldr	x0, [x2]
    24ec:	f9001be0 	str	x0, [sp, #48]
    24f0:	b9400840 	ldr	w0, [x2, #8]
    24f4:	b9000aa0 	str	w0, [x21, #8]
    SHELL_ASSERT(shell->write, return 0);
    24f8:	b40001c3 	cbz	x3, 2530 <shellWriteReturnValue+0x70>
    while (*p++) {
    24fc:	b0000060 	adrp	x0, f000 <_fstat_r+0x40>
    2500:	912f6400 	add	x0, x0, #0xbd9
    2504:	52800ca2 	mov	w2, #0x65                  	// #101
    unsigned short count = 0;
    2508:	52800001 	mov	w1, #0x0                   	// #0
    250c:	14000002 	b	2514 <shellWriteReturnValue+0x54>
    while (*p++) {
    2510:	39400002 	ldrb	w2, [x0]
        count++;
    2514:	11000421 	add	w1, w1, #0x1
    while (*p++) {
    2518:	91000400 	add	x0, x0, #0x1
        count++;
    251c:	12003c21 	and	w1, w1, #0xffff
    while (*p++) {
    2520:	35ffff82 	cbnz	w2, 2510 <shellWriteReturnValue+0x50>
    return shell->write((char*)string, count);
    2524:	b0000060 	adrp	x0, f000 <_fstat_r+0x40>
    2528:	912f6000 	add	x0, x0, #0xbd8
    252c:	d63f0060 	blr	x3
    shellWriteString(shell, &buffer[11 - shellToDec(value, buffer)]);
    2530:	aa1503e1 	mov	x1, x21
    2534:	2a1303e0 	mov	w0, w19
    2538:	97ffffbe 	bl	2430 <shellToDec>
    253c:	52800161 	mov	w1, #0xb                   	// #11
    SHELL_ASSERT(shell->write, return 0);
    2540:	f9406285 	ldr	x5, [x20, #192]
    shellWriteString(shell, &buffer[11 - shellToDec(value, buffer)]);
    2544:	4b208021 	sub	w1, w1, w0, sxtb
    2548:	8b21c2a0 	add	x0, x21, w1, sxtw
    SHELL_ASSERT(shell->write, return 0);
    254c:	b4000385 	cbz	x5, 25bc <shellWriteReturnValue+0xfc>
    while (*p++) {
    2550:	3861caa1 	ldrb	w1, [x21, w1, sxtw]
    2554:	91000402 	add	x2, x0, #0x1
    2558:	340009e1 	cbz	w1, 2694 <shellWriteReturnValue+0x1d4>
    255c:	52800024 	mov	w4, #0x1                   	// #1
    2560:	4b020084 	sub	w4, w4, w2
    2564:	d503201f 	nop
        count++;
    2568:	0b020081 	add	w1, w4, w2
    while (*p++) {
    256c:	38401443 	ldrb	w3, [x2], #1
    2570:	12003c21 	and	w1, w1, #0xffff
    2574:	35ffffa3 	cbnz	w3, 2568 <shellWriteReturnValue+0xa8>
    return shell->write((char*)string, count);
    2578:	d63f00a0 	blr	x5
    SHELL_ASSERT(shell->write, return 0);
    257c:	f9406285 	ldr	x5, [x20, #192]
    2580:	b40001e5 	cbz	x5, 25bc <shellWriteReturnValue+0xfc>
    while (*p++) {
    2584:	b0000060 	adrp	x0, f000 <_fstat_r+0x40>
    2588:	912fa400 	add	x0, x0, #0xbe9
    258c:	52800402 	mov	w2, #0x20                  	// #32
    unsigned short count = 0;
    2590:	52800001 	mov	w1, #0x0                   	// #0
    2594:	14000002 	b	259c <shellWriteReturnValue+0xdc>
    while (*p++) {
    2598:	39400002 	ldrb	w2, [x0]
        count++;
    259c:	11000421 	add	w1, w1, #0x1
    while (*p++) {
    25a0:	91000400 	add	x0, x0, #0x1
        count++;
    25a4:	12003c21 	and	w1, w1, #0xffff
    while (*p++) {
    25a8:	35ffff82 	cbnz	w2, 2598 <shellWriteReturnValue+0xd8>
    return shell->write((char*)string, count);
    25ac:	b0000060 	adrp	x0, f000 <_fstat_r+0x40>
    25b0:	912fa000 	add	x0, x0, #0xbe8
    25b4:	d63f00a0 	blr	x5
    SHELL_ASSERT(shell->write, return 0);
    25b8:	f9406285 	ldr	x5, [x20, #192]
    25bc:	aa1503e1 	mov	x1, x21
    25c0:	9100efe2 	add	x2, sp, #0x3b
        buffer[i] = '0';
    25c4:	52800600 	mov	w0, #0x30                  	// #48
    25c8:	38001420 	strb	w0, [x1], #1
    for (short i = 0; i < 11; i++) {
    25cc:	eb02003f 	cmp	x1, x2
    25d0:	54ffffc1 	b.ne	25c8 <shellWriteReturnValue+0x108>  // b.any
    buffer[8] = 0;
    25d4:	3900e3ff 	strb	wzr, [sp, #56]
    shellToHex(value, buffer);
    25d8:	2a1303e1 	mov	w1, w19
    unsigned char i = 8;
    25dc:	52800103 	mov	w3, #0x8                   	// #8
    while (value) {
    25e0:	340001b3 	cbz	w19, 2614 <shellWriteReturnValue+0x154>
    25e4:	d503201f 	nop
        buffer[--i] = (byte > 9) ? (byte + 87) : (byte + 48);
    25e8:	51000463 	sub	w3, w3, #0x1
        byte = value & 0x0000000F;
    25ec:	12000c22 	and	w2, w1, #0xf
        buffer[--i] = (byte > 9) ? (byte + 87) : (byte + 48);
    25f0:	92401c60 	and	x0, x3, #0xff
    25f4:	7100285f 	cmp	w2, #0xa
    25f8:	11015c44 	add	w4, w2, #0x57
    25fc:	1100c042 	add	w2, w2, #0x30
    2600:	1a843042 	csel	w2, w2, w4, cc  // cc = lo, ul, last
        value >>= 4;
    2604:	53047c21 	lsr	w1, w1, #4
        buffer[--i] = (byte > 9) ? (byte + 87) : (byte + 48);
    2608:	38206aa2 	strb	w2, [x21, x0]
    260c:	12001c63 	and	w3, w3, #0xff
    while (value) {
    2610:	35fffec1 	cbnz	w1, 25e8 <shellWriteReturnValue+0x128>
    SHELL_ASSERT(shell->write, return 0);
    2614:	b4000385 	cbz	x5, 2684 <shellWriteReturnValue+0x1c4>
    while (*p++) {
    2618:	3940c3e0 	ldrb	w0, [sp, #48]
    261c:	34000400 	cbz	w0, 269c <shellWriteReturnValue+0x1dc>
    2620:	9100c7e0 	add	x0, sp, #0x31
    2624:	52800023 	mov	w3, #0x1                   	// #1
    2628:	4b000063 	sub	w3, w3, w0
    262c:	d503201f 	nop
        count++;
    2630:	0b000061 	add	w1, w3, w0
    while (*p++) {
    2634:	38401402 	ldrb	w2, [x0], #1
    2638:	12003c21 	and	w1, w1, #0xffff
    263c:	35ffffa2 	cbnz	w2, 2630 <shellWriteReturnValue+0x170>
    return shell->write((char*)string, count);
    2640:	aa1503e0 	mov	x0, x21
    2644:	d63f00a0 	blr	x5
    SHELL_ASSERT(shell->write, return 0);
    2648:	f9406283 	ldr	x3, [x20, #192]
    264c:	b40001c3 	cbz	x3, 2684 <shellWriteReturnValue+0x1c4>
    while (*p++) {
    2650:	b0000060 	adrp	x0, f000 <_fstat_r+0x40>
    2654:	91356400 	add	x0, x0, #0xd59
    2658:	52800142 	mov	w2, #0xa                   	// #10
    unsigned short count = 0;
    265c:	52800001 	mov	w1, #0x0                   	// #0
    2660:	14000002 	b	2668 <shellWriteReturnValue+0x1a8>
    while (*p++) {
    2664:	39400002 	ldrb	w2, [x0]
        count++;
    2668:	11000421 	add	w1, w1, #0x1
    while (*p++) {
    266c:	91000400 	add	x0, x0, #0x1
        count++;
    2670:	12003c21 	and	w1, w1, #0xffff
    while (*p++) {
    2674:	35ffff82 	cbnz	w2, 2664 <shellWriteReturnValue+0x1a4>
    return shell->write((char*)string, count);
    2678:	b0000060 	adrp	x0, f000 <_fstat_r+0x40>
    267c:	91356000 	add	x0, x0, #0xd58
    2680:	d63f0060 	blr	x3
}
    2684:	a94153f3 	ldp	x19, x20, [sp, #16]
    2688:	f94013f5 	ldr	x21, [sp, #32]
    268c:	a8c47bfd 	ldp	x29, x30, [sp], #64
    2690:	d65f03c0 	ret
    unsigned short count = 0;
    2694:	52800001 	mov	w1, #0x0                   	// #0
    2698:	17ffffb8 	b	2578 <shellWriteReturnValue+0xb8>
    269c:	52800001 	mov	w1, #0x0                   	// #0
    26a0:	17ffffe8 	b	2640 <shellWriteReturnValue+0x180>
    26a4:	d503201f 	nop
    26a8:	d503201f 	nop
    26ac:	d503201f 	nop

00000000000026b0 <shellListItem>:
{
    26b0:	a9bb7bfd 	stp	x29, x30, [sp, #-80]!
    26b4:	910003fd 	mov	x29, sp
    26b8:	a9025bf5 	stp	x21, x22, [sp, #32]
    26bc:	aa0003f5 	mov	x21, x0
    26c0:	aa0103f6 	mov	x22, x1
    spaceLength = 22 - shellWriteString(shell, shellGetCommandName(item));
    26c4:	aa0103e0 	mov	x0, x1
{
    26c8:	a90153f3 	stp	x19, x20, [sp, #16]
    26cc:	a90363f7 	stp	x23, x24, [sp, #48]
    spaceLength = 22 - shellWriteString(shell, shellGetCommandName(item));
    26d0:	97fffe74 	bl	20a0 <shellGetCommandName>
    SHELL_ASSERT(shell->write, return 0);
    26d4:	f94062a3 	ldr	x3, [x21, #192]
    26d8:	b40017e3 	cbz	x3, 29d4 <shellListItem+0x324>
    while (*p++) {
    26dc:	aa0003e2 	mov	x2, x0
    26e0:	38401441 	ldrb	w1, [x2], #1
    26e4:	34001b81 	cbz	w1, 2a54 <shellListItem+0x3a4>
    26e8:	52800025 	mov	w5, #0x1                   	// #1
    26ec:	4b0200a5 	sub	w5, w5, w2
        count++;
    26f0:	0b0200a1 	add	w1, w5, w2
    while (*p++) {
    26f4:	38401444 	ldrb	w4, [x2], #1
    26f8:	12003c21 	and	w1, w1, #0xffff
    26fc:	35ffffa4 	cbnz	w4, 26f0 <shellListItem+0x40>
    return shell->write((char*)string, count);
    2700:	d63f0060 	blr	x3
    spaceLength = 22 - shellWriteString(shell, shellGetCommandName(item));
    2704:	528002c2 	mov	w2, #0x16                  	// #22
    2708:	4b000042 	sub	w2, w2, w0
    270c:	13003c53 	sxth	w19, w2
    spaceLength = (spaceLength > 0) ? spaceLength : 4;
    2710:	7100027f 	cmp	w19, #0x0
    2714:	540010ac 	b.gt	2928 <shellListItem+0x278>
    shell->write(&data, 1);
    2718:	f94062a3 	ldr	x3, [x21, #192]
    spaceLength = (spaceLength > 0) ? spaceLength : 4;
    271c:	52800093 	mov	w19, #0x4                   	// #4
    2720:	52800417 	mov	w23, #0x20                  	// #32
    2724:	14000002 	b	272c <shellListItem+0x7c>
    shell->write(&data, 1);
    2728:	f94062a3 	ldr	x3, [x21, #192]
        shellWriteByte(shell, ' ');
    272c:	39013ff7 	strb	w23, [sp, #79]
    shell->write(&data, 1);
    2730:	91013fe0 	add	x0, sp, #0x4f
    2734:	52800021 	mov	w1, #0x1                   	// #1
    2738:	d63f0060 	blr	x3
    } while (--spaceLength);
    273c:	51000662 	sub	w2, w19, #0x1
    2740:	72003c54 	ands	w20, w2, #0xffff
    2744:	13003c53 	sxth	w19, w2
    2748:	54ffff01 	b.ne	2728 <shellListItem+0x78>  // b.any
    if (item->attr.attrs.type <= SHELL_TYPE_CMD_FUNC) {
    274c:	f94002c0 	ldr	x0, [x22]
    SHELL_ASSERT(shell->write, return 0);
    2750:	f94062a3 	ldr	x3, [x21, #192]
    if (item->attr.attrs.type <= SHELL_TYPE_CMD_FUNC) {
    2754:	53082c00 	ubfx	w0, w0, #8, #4
    2758:	7100041f 	cmp	w0, #0x1
    275c:	54000f69 	b.ls	2948 <shellListItem+0x298>  // b.plast
    } else if (item->attr.attrs.type <= SHELL_TYPE_VAR_NODE) {
    2760:	71001c1f 	cmp	w0, #0x7
    2764:	54001109 	b.ls	2984 <shellListItem+0x2d4>  // b.plast
    } else if (item->attr.attrs.type <= SHELL_TYPE_USER) {
    2768:	7100201f 	cmp	w0, #0x8
    276c:	54001560 	b.eq	2a18 <shellListItem+0x368>  // b.none
    } else if (item->attr.attrs.type <= SHELL_TYPE_KEY) {
    2770:	7100241f 	cmp	w0, #0x9
    2774:	54001340 	b.eq	29dc <shellListItem+0x32c>  // b.none
    SHELL_ASSERT(shell->write, return 0);
    2778:	b40003c3 	cbz	x3, 27f0 <shellListItem+0x140>
    while (*p++) {
    277c:	b0000060 	adrp	x0, f000 <_fstat_r+0x40>
    2780:	91308400 	add	x0, x0, #0xc21
    unsigned short count = 0;
    2784:	52800001 	mov	w1, #0x0                   	// #0
    2788:	528009e2 	mov	w2, #0x4f                  	// #79
    278c:	14000002 	b	2794 <shellListItem+0xe4>
    while (*p++) {
    2790:	39400002 	ldrb	w2, [x0]
        count++;
    2794:	11000421 	add	w1, w1, #0x1
    while (*p++) {
    2798:	91000400 	add	x0, x0, #0x1
        count++;
    279c:	12003c21 	and	w1, w1, #0xffff
    while (*p++) {
    27a0:	35ffff82 	cbnz	w2, 2790 <shellListItem+0xe0>
    return shell->write((char*)string, count);
    27a4:	b0000060 	adrp	x0, f000 <_fstat_r+0x40>
    27a8:	91308000 	add	x0, x0, #0xc20
    27ac:	d63f0060 	blr	x3
    SHELL_ASSERT(shell->write, return 0);
    27b0:	f94062a3 	ldr	x3, [x21, #192]
    27b4:	b40001e3 	cbz	x3, 27f0 <shellListItem+0x140>
    while (*p++) {
    27b8:	b0000060 	adrp	x0, f000 <_fstat_r+0x40>
    27bc:	9130a400 	add	x0, x0, #0xc29
    unsigned short count = 0;
    27c0:	52800001 	mov	w1, #0x0                   	// #0
    27c4:	52800402 	mov	w2, #0x20                  	// #32
    27c8:	14000002 	b	27d0 <shellListItem+0x120>
    while (*p++) {
    27cc:	39400002 	ldrb	w2, [x0]
        count++;
    27d0:	11000421 	add	w1, w1, #0x1
    while (*p++) {
    27d4:	91000400 	add	x0, x0, #0x1
        count++;
    27d8:	12003c21 	and	w1, w1, #0xffff
    while (*p++) {
    27dc:	35ffff82 	cbnz	w2, 27cc <shellListItem+0x11c>
    return shell->write((char*)string, count);
    27e0:	b0000060 	adrp	x0, f000 <_fstat_r+0x40>
    27e4:	9130a000 	add	x0, x0, #0xc28
    27e8:	d63f0060 	blr	x3
    shell->write(&data, 1);
    27ec:	f94062a3 	ldr	x3, [x21, #192]
    while (*p++) {
    27f0:	528000f3 	mov	w19, #0x7                   	// #7
        shellWriteByte(shell, item->attr.attrs.permission & (1 << i) ? 'x' : '-');
    27f4:	52800f18 	mov	w24, #0x78                  	// #120
    27f8:	528005b7 	mov	w23, #0x2d                  	// #45
    27fc:	d503201f 	nop
    2800:	394002c2 	ldrb	w2, [x22]
    shell->write(&data, 1);
    2804:	91013fe0 	add	x0, sp, #0x4f
    2808:	52800021 	mov	w1, #0x1                   	// #1
        shellWriteByte(shell, item->attr.attrs.permission & (1 << i) ? 'x' : '-');
    280c:	1ad32842 	asr	w2, w2, w19
    for (signed char i = 7; i >= 0; i--) {
    2810:	51000673 	sub	w19, w19, #0x1
        shellWriteByte(shell, item->attr.attrs.permission & (1 << i) ? 'x' : '-');
    2814:	f240005f 	tst	x2, #0x1
    2818:	1a971302 	csel	w2, w24, w23, ne  // ne = any
    281c:	39013fe2 	strb	w2, [sp, #79]
    shell->write(&data, 1);
    2820:	d63f0060 	blr	x3
    for (signed char i = 7; i >= 0; i--) {
    2824:	3100067f 	cmn	w19, #0x1
    shell->write(&data, 1);
    2828:	f94062a3 	ldr	x3, [x21, #192]
    for (signed char i = 7; i >= 0; i--) {
    282c:	54fffea1 	b.ne	2800 <shellListItem+0x150>  // b.any
    SHELL_ASSERT(shell->write, return 0);
    2830:	b4000c83 	cbz	x3, 29c0 <shellListItem+0x310>
    while (*p++) {
    2834:	b0000060 	adrp	x0, f000 <_fstat_r+0x40>
    2838:	9130a400 	add	x0, x0, #0xc29
    unsigned short count = 0;
    283c:	52800001 	mov	w1, #0x0                   	// #0
    2840:	52800402 	mov	w2, #0x20                  	// #32
    2844:	14000002 	b	284c <shellListItem+0x19c>
    while (*p++) {
    2848:	39400002 	ldrb	w2, [x0]
        count++;
    284c:	11000421 	add	w1, w1, #0x1
    while (*p++) {
    2850:	91000400 	add	x0, x0, #0x1
        count++;
    2854:	12003c21 	and	w1, w1, #0xffff
    while (*p++) {
    2858:	35ffff82 	cbnz	w2, 2848 <shellListItem+0x198>
    return shell->write((char*)string, count);
    285c:	b0000060 	adrp	x0, f000 <_fstat_r+0x40>
    2860:	9130a000 	add	x0, x0, #0xc28
    2864:	d63f0060 	blr	x3
    SHELL_ASSERT(shell->write, return 0);
    2868:	f94062a5 	ldr	x5, [x21, #192]
    286c:	b4000aa5 	cbz	x5, 29c0 <shellListItem+0x310>
        return command->data.cmd.desc;
    2870:	f9400ec0 	ldr	x0, [x22, #24]
    while (*p && *p != '\r' && *p != '\n') {
    2874:	39400001 	ldrb	w1, [x0]
    2878:	7100343f 	cmp	w1, #0xd
    287c:	54000608 	b.hi	293c <shellListItem+0x28c>  // b.pmore
    2880:	d2848022 	mov	x2, #0x2401                	// #9217
    2884:	9ac12441 	lsr	x1, x2, x1
    2888:	37000541 	tbnz	w1, #0, 2930 <shellListItem+0x280>
    288c:	aa0003e3 	mov	x3, x0
    2890:	52800001 	mov	w1, #0x0                   	// #0
    2894:	d2848024 	mov	x4, #0x2401                	// #9217
    2898:	38401c62 	ldrb	w2, [x3, #1]!
        count++;
    289c:	11000421 	add	w1, w1, #0x1
    28a0:	12003c21 	and	w1, w1, #0xffff
    while (*p && *p != '\r' && *p != '\n') {
    28a4:	7100345f 	cmp	w2, #0xd
    28a8:	54ffff88 	b.hi	2898 <shellListItem+0x1e8>  // b.pmore
    28ac:	9ac22482 	lsr	x2, x4, x2
    28b0:	3607ff42 	tbz	w2, #0, 2898 <shellListItem+0x1e8>
    if (count > 36) {
    28b4:	7100903f 	cmp	w1, #0x24
    28b8:	540003e9 	b.ls	2934 <shellListItem+0x284>  // b.plast
        shell->write((char*)string, 36);
    28bc:	52800481 	mov	w1, #0x24                  	// #36
    28c0:	d63f00a0 	blr	x5
        shell->write("...", 3);
    28c4:	f94062a2 	ldr	x2, [x21, #192]
    28c8:	b0000060 	adrp	x0, f000 <_fstat_r+0x40>
    28cc:	9130c000 	add	x0, x0, #0xc30
    28d0:	52800061 	mov	w1, #0x3                   	// #3
    28d4:	d63f0040 	blr	x2
    SHELL_ASSERT(shell->write, return 0);
    28d8:	f94062a2 	ldr	x2, [x21, #192]
    28dc:	b4000722 	cbz	x2, 29c0 <shellListItem+0x310>
    while (*p++) {
    28e0:	b0000060 	adrp	x0, f000 <_fstat_r+0x40>
    28e4:	91356400 	add	x0, x0, #0xd59
    28e8:	52800141 	mov	w1, #0xa                   	// #10
    28ec:	14000002 	b	28f4 <shellListItem+0x244>
    28f0:	39400001 	ldrb	w1, [x0]
        count++;
    28f4:	11000694 	add	w20, w20, #0x1
    while (*p++) {
    28f8:	91000400 	add	x0, x0, #0x1
        count++;
    28fc:	12003e94 	and	w20, w20, #0xffff
    while (*p++) {
    2900:	35ffff81 	cbnz	w1, 28f0 <shellListItem+0x240>
    return shell->write((char*)string, count);
    2904:	2a1403e1 	mov	w1, w20
    2908:	aa0203f0 	mov	x16, x2
}
    290c:	a94153f3 	ldp	x19, x20, [sp, #16]
    return shell->write((char*)string, count);
    2910:	b0000060 	adrp	x0, f000 <_fstat_r+0x40>
    2914:	91356000 	add	x0, x0, #0xd58
}
    2918:	a9425bf5 	ldp	x21, x22, [sp, #32]
    291c:	a94363f7 	ldp	x23, x24, [sp, #48]
    2920:	a8c57bfd 	ldp	x29, x30, [sp], #80
    return shell->write((char*)string, count);
    2924:	d61f0200 	br	x16
    shell->write(&data, 1);
    2928:	f94062a3 	ldr	x3, [x21, #192]
    292c:	17ffff7d 	b	2720 <shellListItem+0x70>
    unsigned short count = 0;
    2930:	52800001 	mov	w1, #0x0                   	// #0
        shell->write((char*)string, count);
    2934:	d63f00a0 	blr	x5
    return count > 36 ? 36 : 39;
    2938:	17ffffe8 	b	28d8 <shellListItem+0x228>
    while (*p && *p != '\r' && *p != '\n') {
    293c:	aa0003e3 	mov	x3, x0
    2940:	52800001 	mov	w1, #0x0                   	// #0
    2944:	17ffffd4 	b	2894 <shellListItem+0x1e4>
    SHELL_ASSERT(shell->write, return 0);
    2948:	b4fff543 	cbz	x3, 27f0 <shellListItem+0x140>
    while (*p++) {
    294c:	b0000060 	adrp	x0, f000 <_fstat_r+0x40>
    2950:	91300400 	add	x0, x0, #0xc01
    unsigned short count = 0;
    2954:	52800001 	mov	w1, #0x0                   	// #0
    2958:	528009a2 	mov	w2, #0x4d                  	// #77
    295c:	14000002 	b	2964 <shellListItem+0x2b4>
    while (*p++) {
    2960:	39400002 	ldrb	w2, [x0]
        count++;
    2964:	11000421 	add	w1, w1, #0x1
    while (*p++) {
    2968:	91000400 	add	x0, x0, #0x1
        count++;
    296c:	12003c21 	and	w1, w1, #0xffff
    while (*p++) {
    2970:	35ffff82 	cbnz	w2, 2960 <shellListItem+0x2b0>
    return shell->write((char*)string, count);
    2974:	b0000060 	adrp	x0, f000 <_fstat_r+0x40>
    2978:	91300000 	add	x0, x0, #0xc00
    297c:	d63f0060 	blr	x3
    2980:	17ffff8c 	b	27b0 <shellListItem+0x100>
    SHELL_ASSERT(shell->write, return 0);
    2984:	b4fff363 	cbz	x3, 27f0 <shellListItem+0x140>
    while (*p++) {
    2988:	b0000060 	adrp	x0, f000 <_fstat_r+0x40>
    298c:	91302400 	add	x0, x0, #0xc09
    unsigned short count = 0;
    2990:	52800001 	mov	w1, #0x0                   	// #0
    2994:	52800822 	mov	w2, #0x41                  	// #65
    2998:	14000002 	b	29a0 <shellListItem+0x2f0>
    while (*p++) {
    299c:	39400002 	ldrb	w2, [x0]
        count++;
    29a0:	11000421 	add	w1, w1, #0x1
    while (*p++) {
    29a4:	91000400 	add	x0, x0, #0x1
        count++;
    29a8:	12003c21 	and	w1, w1, #0xffff
    while (*p++) {
    29ac:	35ffff82 	cbnz	w2, 299c <shellListItem+0x2ec>
    return shell->write((char*)string, count);
    29b0:	b0000060 	adrp	x0, f000 <_fstat_r+0x40>
    29b4:	91302000 	add	x0, x0, #0xc08
    29b8:	d63f0060 	blr	x3
    29bc:	17ffff7d 	b	27b0 <shellListItem+0x100>
}
    29c0:	a94153f3 	ldp	x19, x20, [sp, #16]
    29c4:	a9425bf5 	ldp	x21, x22, [sp, #32]
    29c8:	a94363f7 	ldp	x23, x24, [sp, #48]
    29cc:	a8c57bfd 	ldp	x29, x30, [sp], #80
    29d0:	d65f03c0 	ret
    spaceLength = 22 - shellWriteString(shell, shellGetCommandName(item));
    29d4:	528002d3 	mov	w19, #0x16                  	// #22
    29d8:	17ffff52 	b	2720 <shellListItem+0x70>
    SHELL_ASSERT(shell->write, return 0);
    29dc:	b4fff0a3 	cbz	x3, 27f0 <shellListItem+0x140>
    while (*p++) {
    29e0:	b0000060 	adrp	x0, f000 <_fstat_r+0x40>
    29e4:	91306400 	add	x0, x0, #0xc19
    unsigned short count = 0;
    29e8:	52800001 	mov	w1, #0x0                   	// #0
    29ec:	528008a2 	mov	w2, #0x45                  	// #69
    29f0:	14000002 	b	29f8 <shellListItem+0x348>
    while (*p++) {
    29f4:	39400002 	ldrb	w2, [x0]
        count++;
    29f8:	11000421 	add	w1, w1, #0x1
    while (*p++) {
    29fc:	91000400 	add	x0, x0, #0x1
        count++;
    2a00:	12003c21 	and	w1, w1, #0xffff
    while (*p++) {
    2a04:	35ffff82 	cbnz	w2, 29f4 <shellListItem+0x344>
    return shell->write((char*)string, count);
    2a08:	b0000060 	adrp	x0, f000 <_fstat_r+0x40>
    2a0c:	91306000 	add	x0, x0, #0xc18
    2a10:	d63f0060 	blr	x3
    2a14:	17ffff67 	b	27b0 <shellListItem+0x100>
    SHELL_ASSERT(shell->write, return 0);
    2a18:	b4ffeec3 	cbz	x3, 27f0 <shellListItem+0x140>
    while (*p++) {
    2a1c:	b0000060 	adrp	x0, f000 <_fstat_r+0x40>
    2a20:	91304400 	add	x0, x0, #0xc11
    unsigned short count = 0;
    2a24:	52800001 	mov	w1, #0x0                   	// #0
    2a28:	52800a62 	mov	w2, #0x53                  	// #83
    2a2c:	14000002 	b	2a34 <shellListItem+0x384>
    while (*p++) {
    2a30:	39400002 	ldrb	w2, [x0]
        count++;
    2a34:	11000421 	add	w1, w1, #0x1
    while (*p++) {
    2a38:	91000400 	add	x0, x0, #0x1
        count++;
    2a3c:	12003c21 	and	w1, w1, #0xffff
    while (*p++) {
    2a40:	35ffff82 	cbnz	w2, 2a30 <shellListItem+0x380>
    return shell->write((char*)string, count);
    2a44:	b0000060 	adrp	x0, f000 <_fstat_r+0x40>
    2a48:	91304000 	add	x0, x0, #0xc10
    2a4c:	d63f0060 	blr	x3
    2a50:	17ffff58 	b	27b0 <shellListItem+0x100>
    unsigned short count = 0;
    2a54:	52800001 	mov	w1, #0x0                   	// #0
    2a58:	17ffff2a 	b	2700 <shellListItem+0x50>
    2a5c:	d503201f 	nop

0000000000002a60 <shellListCommand>:
{
    2a60:	a9bd7bfd 	stp	x29, x30, [sp, #-48]!
    2a64:	910003fd 	mov	x29, sp
    2a68:	a90153f3 	stp	x19, x20, [sp, #16]
    2a6c:	f90013f5 	str	x21, [sp, #32]
    2a70:	aa0003f5 	mov	x21, x0
    SHELL_ASSERT(shell->write, return 0);
    2a74:	f9406003 	ldr	x3, [x0, #192]
    ShellCommand* base = (ShellCommand*)shell->commandList.base;
    2a78:	f9405014 	ldr	x20, [x0, #160]
    SHELL_ASSERT(shell->write, return 0);
    2a7c:	b40001c3 	cbz	x3, 2ab4 <shellListCommand+0x54>
    while (*p++) {
    2a80:	b0000062 	adrp	x2, f000 <_fstat_r+0x40>
    2a84:	9130e442 	add	x2, x2, #0xc39
    2a88:	52800140 	mov	w0, #0xa                   	// #10
    unsigned short count = 0;
    2a8c:	52800001 	mov	w1, #0x0                   	// #0
    2a90:	14000002 	b	2a98 <shellListCommand+0x38>
    while (*p++) {
    2a94:	39400040 	ldrb	w0, [x2]
        count++;
    2a98:	11000421 	add	w1, w1, #0x1
    while (*p++) {
    2a9c:	91000442 	add	x2, x2, #0x1
        count++;
    2aa0:	12003c21 	and	w1, w1, #0xffff
    while (*p++) {
    2aa4:	35ffff80 	cbnz	w0, 2a94 <shellListCommand+0x34>
    return shell->write((char*)string, count);
    2aa8:	b0000060 	adrp	x0, f000 <_fstat_r+0x40>
    2aac:	9130e000 	add	x0, x0, #0xc38
    2ab0:	d63f0060 	blr	x3
    for (short i = 0; i < shell->commandList.count; i++) {
    2ab4:	794152a4 	ldrh	w4, [x21, #168]
    2ab8:	52800013 	mov	w19, #0x0                   	// #0
    2abc:	350000c4 	cbnz	w4, 2ad4 <shellListCommand+0x74>
    2ac0:	1400001f 	b	2b3c <shellListCommand+0xdc>
    2ac4:	11000673 	add	w19, w19, #0x1
    2ac8:	6b33a09f 	cmp	w4, w19, sxth
    2acc:	13003e73 	sxth	w19, w19
    2ad0:	5400036d 	b.le	2b3c <shellListCommand+0xdc>
        if (base[i].attr.attrs.type <= SHELL_TYPE_CMD_FUNC
    2ad4:	937b7e63 	sbfiz	x3, x19, #5, #32
            shellListItem(shell, &base[i]);
    2ad8:	aa1503e0 	mov	x0, x21
        if (base[i].attr.attrs.type <= SHELL_TYPE_CMD_FUNC
    2adc:	8b030281 	add	x1, x20, x3
    2ae0:	f8636a82 	ldr	x2, [x20, x3]
    2ae4:	53082c42 	ubfx	w2, w2, #8, #4
    2ae8:	7100045f 	cmp	w2, #0x1
    2aec:	54fffec8 	b.hi	2ac4 <shellListCommand+0x64>  // b.pmore
    return ((!command->attr.attrs.permission
    2af0:	38636a82 	ldrb	w2, [x20, x3]
        : -1;
    2af4:	34000142 	cbz	w2, 2b1c <shellListCommand+0xbc>
                || command->attr.attrs.type == SHELL_TYPE_USER
    2af8:	b8636a85 	ldr	w5, [x20, x3]
    2afc:	12180ca5 	and	w5, w5, #0xf00
    2b00:	712000bf 	cmp	w5, #0x800
    2b04:	540000c0 	b.eq	2b1c <shellListCommand+0xbc>  // b.none
                || (shell->info.user
    2b08:	f94002a5 	ldr	x5, [x21]
    2b0c:	b4fffdc5 	cbz	x5, 2ac4 <shellListCommand+0x64>
                    && (command->attr.attrs.permission
    2b10:	394000a5 	ldrb	w5, [x5]
    2b14:	6a05005f 	tst	w2, w5
    2b18:	54fffd60 	b.eq	2ac4 <shellListCommand+0x64>  // b.none
               && (shell->status.isChecked
    2b1c:	3942c2a2 	ldrb	w2, [x21, #176]
    2b20:	36000162 	tbz	w2, #0, 2b4c <shellListCommand+0xec>
            shellListItem(shell, &base[i]);
    2b24:	97fffee3 	bl	26b0 <shellListItem>
    2b28:	11000673 	add	w19, w19, #0x1
    2b2c:	794152a4 	ldrh	w4, [x21, #168]
    for (short i = 0; i < shell->commandList.count; i++) {
    2b30:	6b33a09f 	cmp	w4, w19, sxth
    2b34:	13003e73 	sxth	w19, w19
    2b38:	54fffcec 	b.gt	2ad4 <shellListCommand+0x74>
}
    2b3c:	a94153f3 	ldp	x19, x20, [sp, #16]
    2b40:	f94013f5 	ldr	x21, [sp, #32]
    2b44:	a8c37bfd 	ldp	x29, x30, [sp], #48
    2b48:	d65f03c0 	ret
                   || command->attr.attrs.enableUnchecked))
    2b4c:	b8636a82 	ldr	w2, [x20, x3]
    2b50:	3767fea2 	tbnz	w2, #12, 2b24 <shellListCommand+0xc4>
    2b54:	17ffffdc 	b	2ac4 <shellListCommand+0x64>
    2b58:	d503201f 	nop
    2b5c:	d503201f 	nop

0000000000002b60 <shellListVar>:
{
    2b60:	a9bd7bfd 	stp	x29, x30, [sp, #-48]!
    2b64:	910003fd 	mov	x29, sp
    2b68:	a90153f3 	stp	x19, x20, [sp, #16]
    2b6c:	f90013f5 	str	x21, [sp, #32]
    2b70:	aa0003f5 	mov	x21, x0
    SHELL_ASSERT(shell->write, return 0);
    2b74:	f9406003 	ldr	x3, [x0, #192]
    ShellCommand* base = (ShellCommand*)shell->commandList.base;
    2b78:	f9405014 	ldr	x20, [x0, #160]
    SHELL_ASSERT(shell->write, return 0);
    2b7c:	b40001c3 	cbz	x3, 2bb4 <shellListVar+0x54>
    while (*p++) {
    2b80:	b0000062 	adrp	x2, f000 <_fstat_r+0x40>
    2b84:	91314442 	add	x2, x2, #0xc51
    2b88:	52800140 	mov	w0, #0xa                   	// #10
    unsigned short count = 0;
    2b8c:	52800001 	mov	w1, #0x0                   	// #0
    2b90:	14000002 	b	2b98 <shellListVar+0x38>
    while (*p++) {
    2b94:	39400040 	ldrb	w0, [x2]
        count++;
    2b98:	11000421 	add	w1, w1, #0x1
    while (*p++) {
    2b9c:	91000442 	add	x2, x2, #0x1
        count++;
    2ba0:	12003c21 	and	w1, w1, #0xffff
    while (*p++) {
    2ba4:	35ffff80 	cbnz	w0, 2b94 <shellListVar+0x34>
    return shell->write((char*)string, count);
    2ba8:	b0000060 	adrp	x0, f000 <_fstat_r+0x40>
    2bac:	91314000 	add	x0, x0, #0xc50
    2bb0:	d63f0060 	blr	x3
    for (short i = 0; i < shell->commandList.count; i++) {
    2bb4:	794152a4 	ldrh	w4, [x21, #168]
    2bb8:	52800013 	mov	w19, #0x0                   	// #0
    2bbc:	35000104 	cbnz	w4, 2bdc <shellListVar+0x7c>
    2bc0:	14000020 	b	2c40 <shellListVar+0xe0>
            shellListItem(shell, &base[i]);
    2bc4:	97fffebb 	bl	26b0 <shellListItem>
    2bc8:	794152a4 	ldrh	w4, [x21, #168]
    for (short i = 0; i < shell->commandList.count; i++) {
    2bcc:	11000673 	add	w19, w19, #0x1
    2bd0:	6b33a09f 	cmp	w4, w19, sxth
    2bd4:	13003e73 	sxth	w19, w19
    2bd8:	5400034d 	b.le	2c40 <shellListVar+0xe0>
        if (base[i].attr.attrs.type > SHELL_TYPE_CMD_FUNC
    2bdc:	937b7e63 	sbfiz	x3, x19, #5, #32
            shellListItem(shell, &base[i]);
    2be0:	aa1503e0 	mov	x0, x21
        if (base[i].attr.attrs.type > SHELL_TYPE_CMD_FUNC
    2be4:	8b030281 	add	x1, x20, x3
    2be8:	f8636a82 	ldr	x2, [x20, x3]
    2bec:	d3482c42 	ubfx	x2, x2, #8, #4
            && base[i].attr.attrs.type <= SHELL_TYPE_VAR_NODE
    2bf0:	11003842 	add	w2, w2, #0xe
        if (base[i].attr.attrs.type > SHELL_TYPE_CMD_FUNC
    2bf4:	12000c42 	and	w2, w2, #0xf
    2bf8:	7100145f 	cmp	w2, #0x5
    2bfc:	54fffe88 	b.hi	2bcc <shellListVar+0x6c>  // b.pmore
    return ((!command->attr.attrs.permission
    2c00:	38636a82 	ldrb	w2, [x20, x3]
        : -1;
    2c04:	34000142 	cbz	w2, 2c2c <shellListVar+0xcc>
                || command->attr.attrs.type == SHELL_TYPE_USER
    2c08:	b8636a85 	ldr	w5, [x20, x3]
    2c0c:	12180ca5 	and	w5, w5, #0xf00
    2c10:	712000bf 	cmp	w5, #0x800
    2c14:	540000c0 	b.eq	2c2c <shellListVar+0xcc>  // b.none
                || (shell->info.user
    2c18:	f94002a5 	ldr	x5, [x21]
    2c1c:	b4fffd85 	cbz	x5, 2bcc <shellListVar+0x6c>
                    && (command->attr.attrs.permission
    2c20:	394000a5 	ldrb	w5, [x5]
    2c24:	6a05005f 	tst	w2, w5
    2c28:	54fffd20 	b.eq	2bcc <shellListVar+0x6c>  // b.none
               && (shell->status.isChecked
    2c2c:	3942c2a2 	ldrb	w2, [x21, #176]
    2c30:	3707fca2 	tbnz	w2, #0, 2bc4 <shellListVar+0x64>
                   || command->attr.attrs.enableUnchecked))
    2c34:	b8636a82 	ldr	w2, [x20, x3]
    2c38:	3767fc62 	tbnz	w2, #12, 2bc4 <shellListVar+0x64>
    2c3c:	17ffffe4 	b	2bcc <shellListVar+0x6c>
}
    2c40:	a94153f3 	ldp	x19, x20, [sp, #16]
    2c44:	f94013f5 	ldr	x21, [sp, #32]
    2c48:	a8c37bfd 	ldp	x29, x30, [sp], #48
    2c4c:	d65f03c0 	ret

0000000000002c50 <shellListUser>:
{
    2c50:	a9bd7bfd 	stp	x29, x30, [sp, #-48]!
    2c54:	910003fd 	mov	x29, sp
    2c58:	a90153f3 	stp	x19, x20, [sp, #16]
    2c5c:	f90013f5 	str	x21, [sp, #32]
    2c60:	aa0003f5 	mov	x21, x0
    SHELL_ASSERT(shell->write, return 0);
    2c64:	f9406004 	ldr	x4, [x0, #192]
    ShellCommand* base = (ShellCommand*)shell->commandList.base;
    2c68:	f9405014 	ldr	x20, [x0, #160]
    SHELL_ASSERT(shell->write, return 0);
    2c6c:	b40001c4 	cbz	x4, 2ca4 <shellListUser+0x54>
    while (*p++) {
    2c70:	b0000062 	adrp	x2, f000 <_fstat_r+0x40>
    2c74:	91318442 	add	x2, x2, #0xc61
    2c78:	52800143 	mov	w3, #0xa                   	// #10
    unsigned short count = 0;
    2c7c:	52800001 	mov	w1, #0x0                   	// #0
    2c80:	14000002 	b	2c88 <shellListUser+0x38>
    while (*p++) {
    2c84:	39400043 	ldrb	w3, [x2]
        count++;
    2c88:	11000421 	add	w1, w1, #0x1
    while (*p++) {
    2c8c:	91000442 	add	x2, x2, #0x1
        count++;
    2c90:	12003c21 	and	w1, w1, #0xffff
    while (*p++) {
    2c94:	35ffff83 	cbnz	w3, 2c84 <shellListUser+0x34>
    return shell->write((char*)string, count);
    2c98:	b0000060 	adrp	x0, f000 <_fstat_r+0x40>
    2c9c:	91318000 	add	x0, x0, #0xc60
    2ca0:	d63f0080 	blr	x4
    for (short i = 0; i < shell->commandList.count; i++) {
    2ca4:	794152a4 	ldrh	w4, [x21, #168]
    2ca8:	52800013 	mov	w19, #0x0                   	// #0
    2cac:	350000c4 	cbnz	w4, 2cc4 <shellListUser+0x74>
    2cb0:	14000016 	b	2d08 <shellListUser+0xb8>
    2cb4:	11000673 	add	w19, w19, #0x1
    2cb8:	6b33a09f 	cmp	w4, w19, sxth
    2cbc:	13003e73 	sxth	w19, w19
    2cc0:	5400024d 	b.le	2d08 <shellListUser+0xb8>
        if (base[i].attr.attrs.type > SHELL_TYPE_VAR_NODE
    2cc4:	937b7e62 	sbfiz	x2, x19, #5, #32
    2cc8:	8b020281 	add	x1, x20, x2
            && base[i].attr.attrs.type <= SHELL_TYPE_USER
    2ccc:	b8626a82 	ldr	w2, [x20, x2]
    2cd0:	12180c42 	and	w2, w2, #0xf00
        if (base[i].attr.attrs.type > SHELL_TYPE_VAR_NODE
    2cd4:	7120005f 	cmp	w2, #0x800
    2cd8:	54fffee1 	b.ne	2cb4 <shellListUser+0x64>  // b.any
            && shellCheckPermission(shell, &base[i]) == 0) {
    2cdc:	aa1503e0 	mov	x0, x21
    2ce0:	97fffda4 	bl	2370 <shellCheckPermission>
    2ce4:	72001c1f 	tst	w0, #0xff
    2ce8:	54fffe61 	b.ne	2cb4 <shellListUser+0x64>  // b.any
            shellListItem(shell, &base[i]);
    2cec:	aa1503e0 	mov	x0, x21
    2cf0:	97fffe70 	bl	26b0 <shellListItem>
    2cf4:	794152a4 	ldrh	w4, [x21, #168]
    for (short i = 0; i < shell->commandList.count; i++) {
    2cf8:	11000673 	add	w19, w19, #0x1
    2cfc:	6b33a09f 	cmp	w4, w19, sxth
    2d00:	13003e73 	sxth	w19, w19
    2d04:	54fffe0c 	b.gt	2cc4 <shellListUser+0x74>
}
    2d08:	a94153f3 	ldp	x19, x20, [sp, #16]
    2d0c:	f94013f5 	ldr	x21, [sp, #32]
    2d10:	a8c37bfd 	ldp	x29, x30, [sp], #48
    2d14:	d65f03c0 	ret
    2d18:	d503201f 	nop
    2d1c:	d503201f 	nop

0000000000002d20 <shellListKey>:
{
    2d20:	a9bd7bfd 	stp	x29, x30, [sp, #-48]!
    2d24:	910003fd 	mov	x29, sp
    2d28:	a90153f3 	stp	x19, x20, [sp, #16]
    2d2c:	f90013f5 	str	x21, [sp, #32]
    2d30:	aa0003f5 	mov	x21, x0
    SHELL_ASSERT(shell->write, return 0);
    2d34:	f9406004 	ldr	x4, [x0, #192]
    ShellCommand* base = (ShellCommand*)shell->commandList.base;
    2d38:	f9405014 	ldr	x20, [x0, #160]
    SHELL_ASSERT(shell->write, return 0);
    2d3c:	b40001c4 	cbz	x4, 2d74 <shellListKey+0x54>
    while (*p++) {
    2d40:	b0000062 	adrp	x2, f000 <_fstat_r+0x40>
    2d44:	9131c442 	add	x2, x2, #0xc71
    2d48:	52800143 	mov	w3, #0xa                   	// #10
    unsigned short count = 0;
    2d4c:	52800001 	mov	w1, #0x0                   	// #0
    2d50:	14000002 	b	2d58 <shellListKey+0x38>
    while (*p++) {
    2d54:	39400043 	ldrb	w3, [x2]
        count++;
    2d58:	11000421 	add	w1, w1, #0x1
    while (*p++) {
    2d5c:	91000442 	add	x2, x2, #0x1
        count++;
    2d60:	12003c21 	and	w1, w1, #0xffff
    while (*p++) {
    2d64:	35ffff83 	cbnz	w3, 2d54 <shellListKey+0x34>
    return shell->write((char*)string, count);
    2d68:	b0000060 	adrp	x0, f000 <_fstat_r+0x40>
    2d6c:	9131c000 	add	x0, x0, #0xc70
    2d70:	d63f0080 	blr	x4
    for (short i = 0; i < shell->commandList.count; i++) {
    2d74:	794152a4 	ldrh	w4, [x21, #168]
    2d78:	52800013 	mov	w19, #0x0                   	// #0
    2d7c:	350000c4 	cbnz	w4, 2d94 <shellListKey+0x74>
    2d80:	14000016 	b	2dd8 <shellListKey+0xb8>
    2d84:	11000673 	add	w19, w19, #0x1
    2d88:	6b33a09f 	cmp	w4, w19, sxth
    2d8c:	13003e73 	sxth	w19, w19
    2d90:	5400024d 	b.le	2dd8 <shellListKey+0xb8>
        if (base[i].attr.attrs.type > SHELL_TYPE_USER
    2d94:	937b7e62 	sbfiz	x2, x19, #5, #32
    2d98:	8b020281 	add	x1, x20, x2
            && base[i].attr.attrs.type <= SHELL_TYPE_KEY
    2d9c:	b8626a82 	ldr	w2, [x20, x2]
    2da0:	12180c42 	and	w2, w2, #0xf00
        if (base[i].attr.attrs.type > SHELL_TYPE_USER
    2da4:	7124005f 	cmp	w2, #0x900
    2da8:	54fffee1 	b.ne	2d84 <shellListKey+0x64>  // b.any
            && shellCheckPermission(shell, &base[i]) == 0) {
    2dac:	aa1503e0 	mov	x0, x21
    2db0:	97fffd70 	bl	2370 <shellCheckPermission>
    2db4:	72001c1f 	tst	w0, #0xff
    2db8:	54fffe61 	b.ne	2d84 <shellListKey+0x64>  // b.any
            shellListItem(shell, &base[i]);
    2dbc:	aa1503e0 	mov	x0, x21
    2dc0:	97fffe3c 	bl	26b0 <shellListItem>
    2dc4:	794152a4 	ldrh	w4, [x21, #168]
    for (short i = 0; i < shell->commandList.count; i++) {
    2dc8:	11000673 	add	w19, w19, #0x1
    2dcc:	6b33a09f 	cmp	w4, w19, sxth
    2dd0:	13003e73 	sxth	w19, w19
    2dd4:	54fffe0c 	b.gt	2d94 <shellListKey+0x74>
}
    2dd8:	a94153f3 	ldp	x19, x20, [sp, #16]
    2ddc:	f94013f5 	ldr	x21, [sp, #32]
    2de0:	a8c37bfd 	ldp	x29, x30, [sp], #48
    2de4:	d65f03c0 	ret
    2de8:	d503201f 	nop
    2dec:	d503201f 	nop

0000000000002df0 <shellListAll>:
    shellListCommand(shell);
    2df0:	17ffff1c 	b	2a60 <shellListCommand>
    2df4:	d503201f 	nop
    2df8:	d503201f 	nop
    2dfc:	d503201f 	nop

0000000000002e00 <shellDeleteCommandLine>:
{
    2e00:	12001c21 	and	w1, w1, #0xff
    while (length--) {
    2e04:	34000401 	cbz	w1, 2e84 <shellDeleteCommandLine+0x84>
{
    2e08:	a9bd7bfd 	stp	x29, x30, [sp, #-48]!
    2e0c:	910003fd 	mov	x29, sp
    2e10:	a90153f3 	stp	x19, x20, [sp, #16]
    2e14:	51000433 	sub	w19, w1, #0x1
    2e18:	aa0003f4 	mov	x20, x0
    2e1c:	12001e73 	and	w19, w19, #0xff
    2e20:	a9025bf5 	stp	x21, x22, [sp, #32]
    2e24:	b0000075 	adrp	x21, f000 <_fstat_r+0x40>
    2e28:	913202b5 	add	x21, x21, #0xc80
    2e2c:	b0000076 	adrp	x22, f000 <_fstat_r+0x40>
    SHELL_ASSERT(shell->write, return 0);
    2e30:	f9406284 	ldr	x4, [x20, #192]
    2e34:	b4000184 	cbz	x4, 2e64 <shellDeleteCommandLine+0x64>
    while (*p++) {
    2e38:	913206c2 	add	x2, x22, #0xc81
    2e3c:	52800403 	mov	w3, #0x20                  	// #32
    unsigned short count = 0;
    2e40:	52800001 	mov	w1, #0x0                   	// #0
    2e44:	14000002 	b	2e4c <shellDeleteCommandLine+0x4c>
    while (*p++) {
    2e48:	39400043 	ldrb	w3, [x2]
        count++;
    2e4c:	11000421 	add	w1, w1, #0x1
    while (*p++) {
    2e50:	91000442 	add	x2, x2, #0x1
        count++;
    2e54:	12003c21 	and	w1, w1, #0xffff
    while (*p++) {
    2e58:	35ffff83 	cbnz	w3, 2e48 <shellDeleteCommandLine+0x48>
    return shell->write((char*)string, count);
    2e5c:	aa1503e0 	mov	x0, x21
    2e60:	d63f0080 	blr	x4
    while (length--) {
    2e64:	51000673 	sub	w19, w19, #0x1
    2e68:	12001e73 	and	w19, w19, #0xff
    2e6c:	7103fe7f 	cmp	w19, #0xff
    2e70:	54fffe01 	b.ne	2e30 <shellDeleteCommandLine+0x30>  // b.any
}
    2e74:	a94153f3 	ldp	x19, x20, [sp, #16]
    2e78:	a9425bf5 	ldp	x21, x22, [sp, #32]
    2e7c:	a8c37bfd 	ldp	x29, x30, [sp], #48
    2e80:	d65f03c0 	ret
    2e84:	d65f03c0 	ret
    2e88:	d503201f 	nop
    2e8c:	d503201f 	nop

0000000000002e90 <shellClearCommandLine>:
{
    2e90:	a9bc7bfd 	stp	x29, x30, [sp, #-64]!
    2e94:	910003fd 	mov	x29, sp
    2e98:	a90153f3 	stp	x19, x20, [sp, #16]
    2e9c:	aa0003f4 	mov	x20, x0
    2ea0:	a9025bf5 	stp	x21, x22, [sp, #32]
    for (short i = shell->parser.length - shell->parser.cursor; i > 0; i--) {
    2ea4:	79403000 	ldrh	w0, [x0, #24]
    2ea8:	79403681 	ldrh	w1, [x20, #26]
    2eac:	4b010001 	sub	w1, w0, w1
    2eb0:	13003c33 	sxth	w19, w1
    2eb4:	7100027f 	cmp	w19, #0x0
    2eb8:	5400018d 	b.le	2ee8 <shellClearCommandLine+0x58>
    2ebc:	52800415 	mov	w21, #0x20                  	// #32
    shell->write(&data, 1);
    2ec0:	f9406282 	ldr	x2, [x20, #192]
    2ec4:	3900fff5 	strb	w21, [sp, #63]
    2ec8:	52800021 	mov	w1, #0x1                   	// #1
    2ecc:	9100ffe0 	add	x0, sp, #0x3f
    2ed0:	d63f0040 	blr	x2
    for (short i = shell->parser.length - shell->parser.cursor; i > 0; i--) {
    2ed4:	51000661 	sub	w1, w19, #0x1
    2ed8:	72003c3f 	tst	w1, #0xffff
    2edc:	13003c33 	sxth	w19, w1
    2ee0:	54ffff01 	b.ne	2ec0 <shellClearCommandLine+0x30>  // b.any
    shellDeleteCommandLine(shell, shell->parser.length);
    2ee4:	79403280 	ldrh	w0, [x20, #24]
    return shell->write((char*)string, count);
    2ee8:	b0000075 	adrp	x21, f000 <_fstat_r+0x40>
    2eec:	913202b5 	add	x21, x21, #0xc80
    while (length--) {
    2ef0:	72001c13 	ands	w19, w0, #0xff
    while (*p++) {
    2ef4:	b0000076 	adrp	x22, f000 <_fstat_r+0x40>
    while (length--) {
    2ef8:	54000240 	b.eq	2f40 <shellClearCommandLine+0xb0>  // b.none
    2efc:	d503201f 	nop
    SHELL_ASSERT(shell->write, return 0);
    2f00:	f9406284 	ldr	x4, [x20, #192]
    2f04:	b4000184 	cbz	x4, 2f34 <shellClearCommandLine+0xa4>
    while (*p++) {
    2f08:	913206c2 	add	x2, x22, #0xc81
    2f0c:	52800403 	mov	w3, #0x20                  	// #32
    unsigned short count = 0;
    2f10:	52800001 	mov	w1, #0x0                   	// #0
    2f14:	14000002 	b	2f1c <shellClearCommandLine+0x8c>
    while (*p++) {
    2f18:	39400043 	ldrb	w3, [x2]
        count++;
    2f1c:	11000421 	add	w1, w1, #0x1
    while (*p++) {
    2f20:	91000442 	add	x2, x2, #0x1
        count++;
    2f24:	12003c21 	and	w1, w1, #0xffff
    while (*p++) {
    2f28:	35ffff83 	cbnz	w3, 2f18 <shellClearCommandLine+0x88>
    return shell->write((char*)string, count);
    2f2c:	aa1503e0 	mov	x0, x21
    2f30:	d63f0080 	blr	x4
    while (length--) {
    2f34:	51000661 	sub	w1, w19, #0x1
    2f38:	72001c33 	ands	w19, w1, #0xff
    2f3c:	54fffe21 	b.ne	2f00 <shellClearCommandLine+0x70>  // b.any
}
    2f40:	a94153f3 	ldp	x19, x20, [sp, #16]
    2f44:	a9425bf5 	ldp	x21, x22, [sp, #32]
    2f48:	a8c47bfd 	ldp	x29, x30, [sp], #64
    2f4c:	d65f03c0 	ret

0000000000002f50 <shellInsertByte>:
{
    2f50:	a9bc7bfd 	stp	x29, x30, [sp, #-64]!
    2f54:	12001c25 	and	w5, w1, #0xff
    2f58:	910003fd 	mov	x29, sp
    2f5c:	a90153f3 	stp	x19, x20, [sp, #16]
    2f60:	aa0003f3 	mov	x19, x0
    if (shell->parser.length >= shell->parser.bufferSize - 1) {
    2f64:	7940d001 	ldrh	w1, [x0, #104]
    2f68:	79403000 	ldrh	w0, [x0, #24]
    2f6c:	51000421 	sub	w1, w1, #0x1
    2f70:	6b01001f 	cmp	w0, w1
    2f74:	54000caa 	b.ge	3108 <shellInsertByte+0x1b8>  // b.tcont
    if (shell->parser.cursor == shell->parser.length) {
    2f78:	79403661 	ldrh	w1, [x19, #26]
    2f7c:	6b01001f 	cmp	w0, w1
    2f80:	54000960 	b.eq	30ac <shellInsertByte+0x15c>  // b.none
    } else if (shell->parser.cursor < shell->parser.length) {
    2f84:	540008e9 	b.ls	30a0 <shellInsertByte+0x150>  // b.plast
        for (short i = shell->parser.length - shell->parser.cursor; i > 0; i--) {
    2f88:	4b010000 	sub	w0, w0, w1
    2f8c:	a9025bf5 	stp	x21, x22, [sp, #32]
    2f90:	12003c04 	and	w4, w0, #0xffff
    2f94:	13003c00 	sxth	w0, w0
    2f98:	7100001f 	cmp	w0, #0x0
    2f9c:	5400018d 	b.le	2fcc <shellInsertByte+0x7c>
    2fa0:	4b040004 	sub	w4, w0, w4
    2fa4:	d503201f 	nop
            shell->parser.buffer[shell->parser.cursor + i] = shell->parser.buffer[shell->parser.cursor + i - 1];
    2fa8:	f9401262 	ldr	x2, [x19, #32]
    2fac:	0b000021 	add	w1, w1, w0
        for (short i = shell->parser.length - shell->parser.cursor; i > 0; i--) {
    2fb0:	51000400 	sub	w0, w0, #0x1
    2fb4:	6b00009f 	cmp	w4, w0
            shell->parser.buffer[shell->parser.cursor + i] = shell->parser.buffer[shell->parser.cursor + i - 1];
    2fb8:	8b21c043 	add	x3, x2, w1, sxtw
    2fbc:	385ff063 	ldurb	w3, [x3, #-1]
    2fc0:	3821c843 	strb	w3, [x2, w1, sxtw]
    2fc4:	79403661 	ldrh	w1, [x19, #26]
        for (short i = shell->parser.length - shell->parser.cursor; i > 0; i--) {
    2fc8:	54ffff01 	b.ne	2fa8 <shellInsertByte+0x58>  // b.any
        shell->parser.buffer[shell->parser.cursor++] = data;
    2fcc:	f9401262 	ldr	x2, [x19, #32]
    2fd0:	92403c20 	and	x0, x1, #0xffff
    2fd4:	11000421 	add	w1, w1, #0x1
    2fd8:	79003661 	strh	w1, [x19, #26]
    2fdc:	38206845 	strb	w5, [x2, x0]
        shell->parser.buffer[++shell->parser.length] = 0;
    2fe0:	79403260 	ldrh	w0, [x19, #24]
    2fe4:	f9401261 	ldr	x1, [x19, #32]
    2fe8:	11000400 	add	w0, w0, #0x1
    2fec:	12003c00 	and	w0, w0, #0xffff
    2ff0:	79003260 	strh	w0, [x19, #24]
    2ff4:	92403c00 	and	x0, x0, #0xffff
    2ff8:	3820683f 	strb	wzr, [x1, x0]
        for (short i = shell->parser.cursor - 1; i < shell->parser.length; i++) {
    2ffc:	79403661 	ldrh	w1, [x19, #26]
    3000:	79403260 	ldrh	w0, [x19, #24]
    3004:	51000422 	sub	w2, w1, #0x1
    3008:	13003c54 	sxth	w20, w2
    300c:	6b22a01f 	cmp	w0, w2, sxth
    3010:	5400026d 	b.le	305c <shellInsertByte+0x10c>
    3014:	9100fff5 	add	x21, sp, #0x3f
                shell->status.isChecked ? shell->parser.buffer[i] : '*');
    3018:	3942c263 	ldrb	w3, [x19, #176]
    301c:	93403e84 	sxth	x4, w20
    shell->write(&data, 1);
    3020:	aa1503e0 	mov	x0, x21
    3024:	52800021 	mov	w1, #0x1                   	// #1
            shellWriteByte(shell,
    3028:	52800542 	mov	w2, #0x2a                  	// #42
    302c:	36000063 	tbz	w3, #0, 3038 <shellInsertByte+0xe8>
    3030:	f9401262 	ldr	x2, [x19, #32]
    3034:	38646842 	ldrb	w2, [x2, x4]
    shell->write(&data, 1);
    3038:	f9406263 	ldr	x3, [x19, #192]
    303c:	3900ffe2 	strb	w2, [sp, #63]
    3040:	d63f0060 	blr	x3
        for (short i = shell->parser.cursor - 1; i < shell->parser.length; i++) {
    3044:	79403260 	ldrh	w0, [x19, #24]
    3048:	11000681 	add	w1, w20, #0x1
    304c:	13003c34 	sxth	w20, w1
    3050:	6b21a01f 	cmp	w0, w1, sxth
    3054:	54fffe2c 	b.gt	3018 <shellInsertByte+0xc8>
        for (short i = shell->parser.length - shell->parser.cursor; i > 0; i--) {
    3058:	79403661 	ldrh	w1, [x19, #26]
    305c:	4b010000 	sub	w0, w0, w1
    3060:	13003c14 	sxth	w20, w0
    3064:	7100029f 	cmp	w20, #0x0
    3068:	540001ad 	b.le	309c <shellInsertByte+0x14c>
    306c:	9100fff5 	add	x21, sp, #0x3f
    3070:	52800116 	mov	w22, #0x8                   	// #8
    3074:	d503201f 	nop
    shell->write(&data, 1);
    3078:	f9406262 	ldr	x2, [x19, #192]
    307c:	3900fff6 	strb	w22, [sp, #63]
    3080:	aa1503e0 	mov	x0, x21
    3084:	52800021 	mov	w1, #0x1                   	// #1
    3088:	d63f0040 	blr	x2
        for (short i = shell->parser.length - shell->parser.cursor; i > 0; i--) {
    308c:	51000680 	sub	w0, w20, #0x1
    3090:	72003c1f 	tst	w0, #0xffff
    3094:	13003c14 	sxth	w20, w0
    3098:	54ffff01 	b.ne	3078 <shellInsertByte+0x128>  // b.any
    309c:	a9425bf5 	ldp	x21, x22, [sp, #32]
}
    30a0:	a94153f3 	ldp	x19, x20, [sp, #16]
    30a4:	a8c47bfd 	ldp	x29, x30, [sp], #64
    30a8:	d65f03c0 	ret
        shell->parser.buffer[shell->parser.length++] = data;
    30ac:	f9401263 	ldr	x3, [x19, #32]
    30b0:	92403c02 	and	x2, x0, #0xffff
    30b4:	11000400 	add	w0, w0, #0x1
    30b8:	79003260 	strh	w0, [x19, #24]
        shellWriteByte(shell, shell->status.isChecked ? data : '*');
    30bc:	52800544 	mov	w4, #0x2a                  	// #42
    shell->write(&data, 1);
    30c0:	9100ffe0 	add	x0, sp, #0x3f
        shell->parser.buffer[shell->parser.length++] = data;
    30c4:	38226865 	strb	w5, [x3, x2]
    shell->write(&data, 1);
    30c8:	52800021 	mov	w1, #0x1                   	// #1
        shell->parser.buffer[shell->parser.length] = 0;
    30cc:	79403262 	ldrh	w2, [x19, #24]
    30d0:	f9401263 	ldr	x3, [x19, #32]
    30d4:	3822687f 	strb	wzr, [x3, x2]
        shellWriteByte(shell, shell->status.isChecked ? data : '*');
    30d8:	3942c266 	ldrb	w6, [x19, #176]
        shell->parser.cursor++;
    30dc:	79403662 	ldrh	w2, [x19, #26]
    shell->write(&data, 1);
    30e0:	f9406263 	ldr	x3, [x19, #192]
        shellWriteByte(shell, shell->status.isChecked ? data : '*');
    30e4:	f24000df 	tst	x6, #0x1
    30e8:	1a8410a5 	csel	w5, w5, w4, ne  // ne = any
        shell->parser.cursor++;
    30ec:	11000442 	add	w2, w2, #0x1
    30f0:	79003662 	strh	w2, [x19, #26]
    30f4:	3900ffe5 	strb	w5, [sp, #63]
    shell->write(&data, 1);
    30f8:	d63f0060 	blr	x3
}
    30fc:	a94153f3 	ldp	x19, x20, [sp, #16]
    3100:	a8c47bfd 	ldp	x29, x30, [sp], #64
    3104:	d65f03c0 	ret
    SHELL_ASSERT(shell->write, return 0);
    3108:	f9406263 	ldr	x3, [x19, #192]
    310c:	b4000663 	cbz	x3, 31d8 <shellInsertByte+0x288>
    while (*p++) {
    3110:	90000060 	adrp	x0, f000 <_fstat_r+0x40>
    3114:	91322400 	add	x0, x0, #0xc89
    3118:	52800142 	mov	w2, #0xa                   	// #10
    unsigned short count = 0;
    311c:	52800001 	mov	w1, #0x0                   	// #0
    3120:	14000002 	b	3128 <shellInsertByte+0x1d8>
    while (*p++) {
    3124:	39400002 	ldrb	w2, [x0]
        count++;
    3128:	11000421 	add	w1, w1, #0x1
    while (*p++) {
    312c:	91000400 	add	x0, x0, #0x1
        count++;
    3130:	12003c21 	and	w1, w1, #0xffff
    while (*p++) {
    3134:	35ffff82 	cbnz	w2, 3124 <shellInsertByte+0x1d4>
    return shell->write((char*)string, count);
    3138:	90000060 	adrp	x0, f000 <_fstat_r+0x40>
    313c:	91322000 	add	x0, x0, #0xc88
    3140:	d63f0060 	blr	x3
    if (shell->status.isChecked) {
    3144:	3942c260 	ldrb	w0, [x19, #176]
    3148:	36000280 	tbz	w0, #0, 3198 <shellInsertByte+0x248>
    314c:	aa1303e0 	mov	x0, x19
    3150:	97fffbfc 	bl	2140 <shellWritePrompt.part.0.constprop.0>
    SHELL_ASSERT(shell->write, return 0);
    3154:	f9406265 	ldr	x5, [x19, #192]
        shellWriteString(shell, shell->parser.buffer);
    3158:	f9401260 	ldr	x0, [x19, #32]
    SHELL_ASSERT(shell->write, return 0);
    315c:	b4fffa25 	cbz	x5, 30a0 <shellInsertByte+0x150>
    while (*p++) {
    3160:	aa0003e2 	mov	x2, x0
    3164:	38401441 	ldrb	w1, [x2], #1
    3168:	340003e1 	cbz	w1, 31e4 <shellInsertByte+0x294>
    316c:	52800024 	mov	w4, #0x1                   	// #1
    3170:	4b020084 	sub	w4, w4, w2
    3174:	d503201f 	nop
        count++;
    3178:	0b020081 	add	w1, w4, w2
    while (*p++) {
    317c:	38401443 	ldrb	w3, [x2], #1
    3180:	12003c21 	and	w1, w1, #0xffff
    3184:	35ffffa3 	cbnz	w3, 3178 <shellInsertByte+0x228>
}
    3188:	a94153f3 	ldp	x19, x20, [sp, #16]
    return shell->write((char*)string, count);
    318c:	aa0503f0 	mov	x16, x5
}
    3190:	a8c47bfd 	ldp	x29, x30, [sp], #64
    return shell->write((char*)string, count);
    3194:	d61f0200 	br	x16
    SHELL_ASSERT(shell->write, return 0);
    3198:	f9406263 	ldr	x3, [x19, #192]
    319c:	b4fff823 	cbz	x3, 30a0 <shellInsertByte+0x150>
    while (*p++) {
    31a0:	90000060 	adrp	x0, f000 <_fstat_r+0x40>
    31a4:	9132c400 	add	x0, x0, #0xcb1
    31a8:	52800d82 	mov	w2, #0x6c                  	// #108
    unsigned short count = 0;
    31ac:	52800001 	mov	w1, #0x0                   	// #0
    31b0:	14000002 	b	31b8 <shellInsertByte+0x268>
    while (*p++) {
    31b4:	39400002 	ldrb	w2, [x0]
        count++;
    31b8:	11000421 	add	w1, w1, #0x1
    while (*p++) {
    31bc:	91000400 	add	x0, x0, #0x1
        count++;
    31c0:	12003c21 	and	w1, w1, #0xffff
    while (*p++) {
    31c4:	35ffff82 	cbnz	w2, 31b4 <shellInsertByte+0x264>
    return shell->write((char*)string, count);
    31c8:	90000060 	adrp	x0, f000 <_fstat_r+0x40>
    31cc:	9132c000 	add	x0, x0, #0xcb0
    31d0:	d63f0060 	blr	x3
    31d4:	17ffffe0 	b	3154 <shellInsertByte+0x204>
    if (shell->status.isChecked) {
    31d8:	3942c260 	ldrb	w0, [x19, #176]
    31dc:	3707fb80 	tbnz	w0, #0, 314c <shellInsertByte+0x1fc>
    31e0:	17ffffb0 	b	30a0 <shellInsertByte+0x150>
    unsigned short count = 0;
    31e4:	52800001 	mov	w1, #0x0                   	// #0
    31e8:	17ffffe8 	b	3188 <shellInsertByte+0x238>
    31ec:	d503201f 	nop

00000000000031f0 <shellDeleteByte>:
    if ((shell->parser.cursor == 0 && direction == 1)
    31f0:	79403405 	ldrh	w5, [x0, #26]
{
    31f4:	13001c21 	sxtb	w1, w1
    if ((shell->parser.cursor == 0 && direction == 1)
    31f8:	710000bf 	cmp	w5, #0x0
    31fc:	7a410820 	ccmp	w1, #0x1, #0x0, eq  // eq = none
    3200:	54001000 	b.eq	3400 <shellDeleteByte+0x210>  // b.none
{
    3204:	a9bc7bfd 	stp	x29, x30, [sp, #-64]!
    3208:	910003fd 	mov	x29, sp
    320c:	a90153f3 	stp	x19, x20, [sp, #16]
    3210:	aa0003f3 	mov	x19, x0
    3214:	a9025bf5 	stp	x21, x22, [sp, #32]
        || (shell->parser.cursor == shell->parser.length && direction == -1)) {
    3218:	79403004 	ldrh	w4, [x0, #24]
    321c:	6b0400bf 	cmp	w5, w4
    3220:	54000ae0 	b.eq	337c <shellDeleteByte+0x18c>  // b.none
    char offset = (direction == -1) ? 1 : 0;
    3224:	3100043f 	cmn	w1, #0x1
        for (short i = offset; i < shell->parser.length - shell->parser.cursor; i++) {
    3228:	4b050086 	sub	w6, w4, w5
    322c:	1a9f17e2 	cset	w2, eq  // eq = none
    3230:	2a0503e3 	mov	w3, w5
    3234:	2a0203e0 	mov	w0, w2
    3238:	6b0200df 	cmp	w6, w2
    323c:	540001ed 	b.le	3278 <shellDeleteByte+0x88>
            shell->parser.buffer[shell->parser.cursor + i - 1] = shell->parser.buffer[shell->parser.cursor + i];
    3240:	f9401264 	ldr	x4, [x19, #32]
    3244:	0b030042 	add	w2, w2, w3
    3248:	11000400 	add	w0, w0, #0x1
    324c:	8b22c083 	add	x3, x4, w2, sxtw
    3250:	3862c884 	ldrb	w4, [x4, w2, sxtw]
    3254:	13003c00 	sxth	w0, w0
        for (short i = offset; i < shell->parser.length - shell->parser.cursor; i++) {
    3258:	2a0003e2 	mov	w2, w0
            shell->parser.buffer[shell->parser.cursor + i - 1] = shell->parser.buffer[shell->parser.cursor + i];
    325c:	381ff064 	sturb	w4, [x3, #-1]
        for (short i = offset; i < shell->parser.length - shell->parser.cursor; i++) {
    3260:	79403663 	ldrh	w3, [x19, #26]
    3264:	79403264 	ldrh	w4, [x19, #24]
    3268:	2a0303e5 	mov	w5, w3
    326c:	4b030086 	sub	w6, w4, w3
    3270:	6b06001f 	cmp	w0, w6
    3274:	54fffe6b 	b.lt	3240 <shellDeleteByte+0x50>  // b.tstop
        shell->parser.length--;
    3278:	51000484 	sub	w4, w4, #0x1
        if (!offset) {
    327c:	3100043f 	cmn	w1, #0x1
        shell->parser.length--;
    3280:	12003c84 	and	w4, w4, #0xffff
    3284:	79003264 	strh	w4, [x19, #24]
        if (!offset) {
    3288:	9100fff5 	add	x21, sp, #0x3f
    328c:	54000160 	b.eq	32b8 <shellDeleteByte+0xc8>  // b.none
    3290:	510004a5 	sub	w5, w5, #0x1
    shell->write(&data, 1);
    3294:	f9406262 	ldr	x2, [x19, #192]
    3298:	52800100 	mov	w0, #0x8                   	// #8
            shell->parser.cursor--;
    329c:	79003665 	strh	w5, [x19, #26]
    shell->write(&data, 1);
    32a0:	9100fff5 	add	x21, sp, #0x3f
    32a4:	3900ffe0 	strb	w0, [sp, #63]
    32a8:	52800021 	mov	w1, #0x1                   	// #1
    32ac:	aa1503e0 	mov	x0, x21
    32b0:	d63f0040 	blr	x2
        shell->parser.buffer[shell->parser.length] = 0;
    32b4:	79403264 	ldrh	w4, [x19, #24]
    32b8:	f9401260 	ldr	x0, [x19, #32]
    32bc:	92403c84 	and	x4, x4, #0xffff
    32c0:	3824681f 	strb	wzr, [x0, x4]
        for (short i = shell->parser.cursor; i < shell->parser.length; i++) {
    32c4:	79c03674 	ldrsh	w20, [x19, #26]
    32c8:	79403260 	ldrh	w0, [x19, #24]
    32cc:	6b00029f 	cmp	w20, w0
    32d0:	540001ea 	b.ge	330c <shellDeleteByte+0x11c>  // b.tcont
    32d4:	d503201f 	nop
            shellWriteByte(shell, shell->parser.buffer[i]);
    32d8:	f9401263 	ldr	x3, [x19, #32]
    32dc:	93403e80 	sxth	x0, w20
    shell->write(&data, 1);
    32e0:	f9406262 	ldr	x2, [x19, #192]
    32e4:	52800021 	mov	w1, #0x1                   	// #1
            shellWriteByte(shell, shell->parser.buffer[i]);
    32e8:	38606863 	ldrb	w3, [x3, x0]
    shell->write(&data, 1);
    32ec:	aa1503e0 	mov	x0, x21
    32f0:	3900ffe3 	strb	w3, [sp, #63]
    32f4:	11000694 	add	w20, w20, #0x1
    32f8:	d63f0040 	blr	x2
        for (short i = shell->parser.cursor; i < shell->parser.length; i++) {
    32fc:	79403260 	ldrh	w0, [x19, #24]
    3300:	6b34a01f 	cmp	w0, w20, sxth
    3304:	13003e94 	sxth	w20, w20
    3308:	54fffe8c 	b.gt	32d8 <shellDeleteByte+0xe8>
    shell->write(&data, 1);
    330c:	f9406262 	ldr	x2, [x19, #192]
    3310:	52800400 	mov	w0, #0x20                  	// #32
    3314:	3900ffe0 	strb	w0, [sp, #63]
    3318:	52800021 	mov	w1, #0x1                   	// #1
    331c:	aa1503e0 	mov	x0, x21
    3320:	52800116 	mov	w22, #0x8                   	// #8
    3324:	d63f0040 	blr	x2
        for (short i = shell->parser.length - shell->parser.cursor + 1; i > 0; i--) {
    3328:	79403674 	ldrh	w20, [x19, #26]
    332c:	79403260 	ldrh	w0, [x19, #24]
    3330:	11000400 	add	w0, w0, #0x1
    3334:	4b140000 	sub	w0, w0, w20
    3338:	13003c14 	sxth	w20, w0
    333c:	7100029f 	cmp	w20, #0x0
    3340:	5400016d 	b.le	336c <shellDeleteByte+0x17c>
    3344:	d503201f 	nop
    shell->write(&data, 1);
    3348:	f9406262 	ldr	x2, [x19, #192]
    334c:	3900fff6 	strb	w22, [sp, #63]
    3350:	aa1503e0 	mov	x0, x21
    3354:	52800021 	mov	w1, #0x1                   	// #1
    3358:	d63f0040 	blr	x2
        for (short i = shell->parser.length - shell->parser.cursor + 1; i > 0; i--) {
    335c:	51000680 	sub	w0, w20, #0x1
    3360:	72003c1f 	tst	w0, #0xffff
    3364:	13003c14 	sxth	w20, w0
    3368:	54ffff01 	b.ne	3348 <shellDeleteByte+0x158>  // b.any
}
    336c:	a94153f3 	ldp	x19, x20, [sp, #16]
    3370:	a9425bf5 	ldp	x21, x22, [sp, #32]
    3374:	a8c47bfd 	ldp	x29, x30, [sp], #64
    3378:	d65f03c0 	ret
        || (shell->parser.cursor == shell->parser.length && direction == -1)) {
    337c:	3100043f 	cmn	w1, #0x1
    3380:	54ffff60 	b.eq	336c <shellDeleteByte+0x17c>  // b.none
    if (shell->parser.cursor == shell->parser.length && direction == 1) {
    3384:	7100043f 	cmp	w1, #0x1
    3388:	54000080 	b.eq	3398 <shellDeleteByte+0x1a8>  // b.none
        shell->parser.length--;
    338c:	510004a5 	sub	w5, w5, #0x1
    3390:	79003005 	strh	w5, [x0, #24]
        if (!offset) {
    3394:	17ffffc0 	b	3294 <shellDeleteByte+0xa4>
        shell->parser.cursor--;
    3398:	510004a0 	sub	w0, w5, #0x1
    339c:	79003660 	strh	w0, [x19, #26]
        shell->parser.length--;
    33a0:	12003c00 	and	w0, w0, #0xffff
    33a4:	79003260 	strh	w0, [x19, #24]
        shell->parser.buffer[shell->parser.length] = 0;
    33a8:	f9401261 	ldr	x1, [x19, #32]
    33ac:	92403c00 	and	x0, x0, #0xffff
    33b0:	3820683f 	strb	wzr, [x1, x0]
    SHELL_ASSERT(shell->write, return 0);
    33b4:	f9406263 	ldr	x3, [x19, #192]
    33b8:	b4fffda3 	cbz	x3, 336c <shellDeleteByte+0x17c>
    while (*p++) {
    33bc:	90000060 	adrp	x0, f000 <_fstat_r+0x40>
    33c0:	91320400 	add	x0, x0, #0xc81
    33c4:	52800402 	mov	w2, #0x20                  	// #32
    unsigned short count = 0;
    33c8:	52800001 	mov	w1, #0x0                   	// #0
    33cc:	14000002 	b	33d4 <shellDeleteByte+0x1e4>
    while (*p++) {
    33d0:	39400002 	ldrb	w2, [x0]
        count++;
    33d4:	11000421 	add	w1, w1, #0x1
    while (*p++) {
    33d8:	91000400 	add	x0, x0, #0x1
        count++;
    33dc:	12003c21 	and	w1, w1, #0xffff
    while (*p++) {
    33e0:	35ffff82 	cbnz	w2, 33d0 <shellDeleteByte+0x1e0>
}
    33e4:	a94153f3 	ldp	x19, x20, [sp, #16]
    return shell->write((char*)string, count);
    33e8:	aa0303f0 	mov	x16, x3
}
    33ec:	a9425bf5 	ldp	x21, x22, [sp, #32]
    return shell->write((char*)string, count);
    33f0:	90000060 	adrp	x0, f000 <_fstat_r+0x40>
    33f4:	91320000 	add	x0, x0, #0xc80
}
    33f8:	a8c47bfd 	ldp	x29, x30, [sp], #64
    return shell->write((char*)string, count);
    33fc:	d61f0200 	br	x16
    3400:	d65f03c0 	ret
    3404:	d503201f 	nop
    3408:	d503201f 	nop
    340c:	d503201f 	nop

0000000000003410 <shellSplit>:
{
    3410:	d10043ff 	sub	sp, sp, #0x10
    3414:	13003c84 	sxth	w4, w4
    3418:	aa0003e7 	mov	x7, x0
    for (short i = 0; i < maxNum; i++) {
    341c:	7100009f 	cmp	w4, #0x0
{
    3420:	12003c21 	and	w1, w1, #0xffff
    3424:	12001c63 	and	w3, w3, #0xff
    unsigned char pairedLeft[16] = { 0 };
    3428:	a9007fff 	stp	xzr, xzr, [sp]
    for (short i = 0; i < maxNum; i++) {
    342c:	d2800005 	mov	x5, #0x0                   	// #0
    3430:	540000ed 	b.le	344c <shellSplit+0x3c>
    3434:	d503201f 	nop
        array[i] = NULL;
    3438:	f825785f 	str	xzr, [x2, x5, lsl #3]
    for (short i = 0; i < maxNum; i++) {
    343c:	910004a5 	add	x5, x5, #0x1
    3440:	13003ca0 	sxth	w0, w5
    3444:	6b04001f 	cmp	w0, w4
    3448:	54ffff8b 	b.lt	3438 <shellSplit+0x28>  // b.tstop
    int count = 0;
    344c:	52800000 	mov	w0, #0x0                   	// #0
    for (unsigned short i = 0; i < strLen; i++) {
    3450:	34000a61 	cbz	w1, 359c <shellSplit+0x18c>
                && pairedLeft[pariedCount - 1] == pairedChars[j][0]) {
    3454:	b000006b 	adrp	x11, 10000 <__func__.0+0x10>
    3458:	911c216b 	add	x11, x11, #0x708
    for (unsigned short i = 0; i < strLen; i++) {
    345c:	52800005 	mov	w5, #0x0                   	// #0
    int count = 0;
    3460:	52800000 	mov	w0, #0x0                   	// #0
    unsigned char pariedCount = 0;
    3464:	52800009 	mov	w9, #0x0                   	// #0
    unsigned char record = 1;
    3468:	5280002d 	mov	w13, #0x1                   	// #1
    346c:	1400002d 	b	3520 <shellSplit+0x110>
            if (string[i] != splitKey && record == 1 && count < maxNum) {
    3470:	386668ea 	ldrb	w10, [x7, x6]
    3474:	6b03015f 	cmp	w10, w3
    3478:	540008e0 	b.eq	3594 <shellSplit+0x184>  // b.none
    347c:	3500020d 	cbnz	w13, 34bc <shellSplit+0xac>
            } else if ((string[i] == splitKey || string[i] == ' ') && record == 0) {
    3480:	7100815f 	cmp	w10, #0x20
    3484:	54000821 	b.ne	3588 <shellSplit+0x178>  // b.any
                if (string[i + 1] != ' ') {
    3488:	39400506 	ldrb	w6, [x8, #1]
    for (unsigned short i = 0; i < strLen; i++) {
    348c:	110004a5 	add	w5, w5, #0x1
                string[i] = 0;
    3490:	3900011f 	strb	wzr, [x8]
    for (unsigned short i = 0; i < strLen; i++) {
    3494:	12003ca5 	and	w5, w5, #0xffff
                if (string[i + 1] != ' ') {
    3498:	710080df 	cmp	w6, #0x20
    349c:	54000600 	b.eq	355c <shellSplit+0x14c>  // b.none
    for (unsigned short i = 0; i < strLen; i++) {
    34a0:	6b05003f 	cmp	w1, w5
    34a4:	540007c9 	b.ls	359c <shellSplit+0x18c>  // b.plast
            if (string[i] != splitKey && record == 1 && count < maxNum) {
    34a8:	92403ca6 	and	x6, x5, #0xffff
    34ac:	8b2520ec 	add	x12, x7, w5, uxth
    34b0:	386668ea 	ldrb	w10, [x7, x6]
    34b4:	6b0a007f 	cmp	w3, w10
    34b8:	540000c0 	b.eq	34d0 <shellSplit+0xc0>  // b.none
    34bc:	6b00009f 	cmp	w4, w0
    34c0:	5400072c 	b.gt	35a4 <shellSplit+0x194>
            } else if ((string[i] == splitKey || string[i] == ' ') && record == 0) {
    34c4:	7100815f 	cmp	w10, #0x20
    34c8:	5280002d 	mov	w13, #0x1                   	// #1
    34cc:	540005e1 	b.ne	3588 <shellSplit+0x178>  // b.any
            } else if (string[i] == pairedChars[j][0]) {
    34d0:	386668e8 	ldrb	w8, [x7, x6]
    34d4:	5280002d 	mov	w13, #0x1                   	// #1
    34d8:	3940016a 	ldrb	w10, [x11]
    34dc:	6b0a011f 	cmp	w8, w10
    34e0:	54000081 	b.ne	34f0 <shellSplit+0xe0>  // b.any
                pairedLeft[pariedCount++] = pairedChars[j][0];
    34e4:	1100052a 	add	w10, w9, #0x1
    34e8:	3829cbe8 	strb	w8, [sp, w9, sxtw]
                pariedCount &= 0x0F;
    34ec:	12000d49 	and	w9, w10, #0xf
        if (string[i] == '\\' && string[i + 1] != 0) {
    34f0:	7101711f 	cmp	w8, #0x5c
    34f4:	540000e1 	b.ne	3510 <shellSplit+0x100>  // b.any
    34f8:	8b0600e6 	add	x6, x7, x6
            i++;
    34fc:	110004a8 	add	w8, w5, #0x1
    3500:	12003d08 	and	w8, w8, #0xffff
        if (string[i] == '\\' && string[i + 1] != 0) {
    3504:	394004c6 	ldrb	w6, [x6, #1]
            i++;
    3508:	710000df 	cmp	w6, #0x0
    350c:	1a851105 	csel	w5, w8, w5, ne  // ne = any
    for (unsigned short i = 0; i < strLen; i++) {
    3510:	110004a6 	add	w6, w5, #0x1
    3514:	12003cc5 	and	w5, w6, #0xffff
    3518:	6b26203f 	cmp	w1, w6, uxth
    351c:	54000409 	b.ls	359c <shellSplit+0x18c>  // b.plast
            if (string[i] != splitKey && record == 1 && count < maxNum) {
    3520:	8b2520e8 	add	x8, x7, w5, uxth
    3524:	92403ca6 	and	x6, x5, #0xffff
    3528:	aa0803ec 	mov	x12, x8
        if (pariedCount == 0) {
    352c:	34fffa29 	cbz	w9, 3470 <shellSplit+0x60>
            if (string[i] != splitKey && record == 1 && count < maxNum) {
    3530:	386668e8 	ldrb	w8, [x7, x6]
                && string[i] == pairedChars[j][1]
    3534:	3940056c 	ldrb	w12, [x11, #1]
                && pairedLeft[pariedCount - 1] == pairedChars[j][0]) {
    3538:	3940016a 	ldrb	w10, [x11]
                && string[i] == pairedChars[j][1]
    353c:	6b08019f 	cmp	w12, w8
    3540:	54fffce1 	b.ne	34dc <shellSplit+0xcc>  // b.any
                && pairedLeft[pariedCount - 1] == pairedChars[j][0]) {
    3544:	5100052c 	sub	w12, w9, #0x1
    3548:	386ccbee 	ldrb	w14, [sp, w12, sxtw]
    354c:	6b0a01df 	cmp	w14, w10
    3550:	54fffc61 	b.ne	34dc <shellSplit+0xcc>  // b.any
                --pariedCount;
    3554:	12001d89 	and	w9, w12, #0xff
                break;
    3558:	17ffffe6 	b	34f0 <shellSplit+0xe0>
            if (string[i] != splitKey && record == 1 && count < maxNum) {
    355c:	92403ca6 	and	x6, x5, #0xffff
    for (unsigned short i = 0; i < strLen; i++) {
    3560:	6b05003f 	cmp	w1, w5
    3564:	540001c9 	b.ls	359c <shellSplit+0x18c>  // b.plast
            if (string[i] != splitKey && record == 1 && count < maxNum) {
    3568:	386668ea 	ldrb	w10, [x7, x6]
    356c:	8b2520e8 	add	x8, x7, w5, uxth
    3570:	6b03015f 	cmp	w10, w3
    3574:	54fff8a0 	b.eq	3488 <shellSplit+0x78>  // b.none
            } else if ((string[i] == splitKey || string[i] == ' ') && record == 0) {
    3578:	7100815f 	cmp	w10, #0x20
    357c:	54fff860 	b.eq	3488 <shellSplit+0x78>  // b.none
    3580:	5280000d 	mov	w13, #0x0                   	// #0
    3584:	d503201f 	nop
            } else if (string[i] == pairedChars[j][0]) {
    3588:	386668e8 	ldrb	w8, [x7, x6]
    358c:	3940016a 	ldrb	w10, [x11]
    3590:	17ffffd3 	b	34dc <shellSplit+0xcc>
            } else if ((string[i] == splitKey || string[i] == ' ') && record == 0) {
    3594:	34fff7ad 	cbz	w13, 3488 <shellSplit+0x78>
    3598:	17ffffce 	b	34d0 <shellSplit+0xc0>
}
    359c:	910043ff 	add	sp, sp, #0x10
    35a0:	d65f03c0 	ret
                array[count++] = &(string[i]);
    35a4:	f820d84c 	str	x12, [x2, w0, sxtw #3]
                record = 0;
    35a8:	5280000d 	mov	w13, #0x0                   	// #0
                array[count++] = &(string[i]);
    35ac:	11000400 	add	w0, w0, #0x1
            } else if (string[i] == pairedChars[j][0]) {
    35b0:	386668e8 	ldrb	w8, [x7, x6]
    35b4:	3940016a 	ldrb	w10, [x11]
                record = 0;
    35b8:	17ffffc9 	b	34dc <shellSplit+0xcc>
    35bc:	d503201f 	nop

00000000000035c0 <shellSeekCommand>:
{
    35c0:	a9ba7bfd 	stp	x29, x30, [sp, #-96]!
    35c4:	910003fd 	mov	x29, sp
    35c8:	a9025bf5 	stp	x21, x22, [sp, #32]
    35cc:	a90363f7 	stp	x23, x24, [sp, #48]
    35d0:	aa0103f8 	mov	x24, x1
    35d4:	aa0003f7 	mov	x23, x0
    unsigned short count = shell->commandList.count - ((size_t)base - (size_t)shell->commandList.base) / sizeof(ShellCommand);
    35d8:	f9405001 	ldr	x1, [x0, #160]
    35dc:	79415000 	ldrh	w0, [x0, #168]
    35e0:	cb010041 	sub	x1, x2, x1
    35e4:	d345fc21 	lsr	x1, x1, #5
    35e8:	4b010000 	sub	w0, w0, w1
    for (unsigned short i = 0; i < count; i++) {
    35ec:	72003c00 	ands	w0, w0, #0xffff
    35f0:	54000840 	b.eq	36f8 <shellSeekCommand+0x138>  // b.none
    35f4:	51000400 	sub	w0, w0, #0x1
    35f8:	d0000075 	adrp	x21, 11000 <__global_locale+0x180>
    35fc:	912de2b5 	add	x21, x21, #0xb78
    3600:	a90153f3 	stp	x19, x20, [sp, #16]
    3604:	d37b3c00 	ubfiz	x0, x0, #5, #16
    3608:	91008054 	add	x20, x2, #0x20
    360c:	a9046bf9 	stp	x25, x26, [sp, #64]
    3610:	12003c79 	and	w25, w3, #0xffff
    3614:	aa0203f3 	mov	x19, x2
    3618:	8b140014 	add	x20, x0, x20
            if (strncmp(cmd, name, compareLength) == 0) {
    361c:	92403f3a 	and	x26, x25, #0xffff
    3620:	a90573fb 	stp	x27, x28, [sp, #80]
    3624:	910026bc 	add	x28, x21, #0x9
        buffer[i] = '0';
    3628:	5280061b 	mov	w27, #0x30                  	// #48
    362c:	d503201f 	nop
        if (base[i].attr.attrs.type == SHELL_TYPE_KEY
    3630:	b9400260 	ldr	w0, [x19]
    3634:	aa1303f6 	mov	x22, x19
    3638:	12180c00 	and	w0, w0, #0xf00
    363c:	7124001f 	cmp	w0, #0x900
    3640:	54000500 	b.eq	36e0 <shellSeekCommand+0x120>  // b.none
            || shellCheckPermission(shell, &base[i]) != 0) {
    3644:	aa1303e1 	mov	x1, x19
    3648:	aa1703e0 	mov	x0, x23
    364c:	97fffb49 	bl	2370 <shellCheckPermission>
    3650:	72001c1f 	tst	w0, #0xff
    3654:	54000461 	b.ne	36e0 <shellSeekCommand+0x120>  // b.any
    3658:	aa1503e3 	mov	x3, x21
    365c:	d503201f 	nop
        buffer[i] = '0';
    3660:	3800147b 	strb	w27, [x3], #1
    for (unsigned char i = 0; i < 9; i++) {
    3664:	eb03039f 	cmp	x28, x3
    3668:	54ffffc1 	b.ne	3660 <shellSeekCommand+0xa0>  // b.any
    if (command->attr.attrs.type <= SHELL_TYPE_CMD_FUNC) {
    366c:	f9400260 	ldr	x0, [x19]
    3670:	53082c00 	ubfx	w0, w0, #8, #4
    3674:	7100041f 	cmp	w0, #0x1
    3678:	540004c9 	b.ls	3710 <shellSeekCommand+0x150>  // b.plast
    } else if (command->attr.attrs.type <= SHELL_TYPE_VAR_NODE) {
    367c:	71001c1f 	cmp	w0, #0x7
    3680:	54000489 	b.ls	3710 <shellSeekCommand+0x150>  // b.plast
    } else if (command->attr.attrs.type <= SHELL_TYPE_USER) {
    3684:	7100201f 	cmp	w0, #0x8
    3688:	54000440 	b.eq	3710 <shellSeekCommand+0x150>  // b.none
        shellToHex(command->data.key.value, buffer);
    368c:	b9400a61 	ldr	w1, [x19, #8]
    buffer[8] = 0;
    3690:	390022bf 	strb	wzr, [x21, #8]
    while (value) {
    3694:	340001c1 	cbz	w1, 36cc <shellSeekCommand+0x10c>
    unsigned char i = 8;
    3698:	52800100 	mov	w0, #0x8                   	// #8
    369c:	d503201f 	nop
        buffer[--i] = (byte > 9) ? (byte + 87) : (byte + 48);
    36a0:	51000400 	sub	w0, w0, #0x1
        byte = value & 0x0000000F;
    36a4:	12000c22 	and	w2, w1, #0xf
        buffer[--i] = (byte > 9) ? (byte + 87) : (byte + 48);
    36a8:	92401c03 	and	x3, x0, #0xff
    36ac:	7100285f 	cmp	w2, #0xa
    36b0:	11015c44 	add	w4, w2, #0x57
    36b4:	1100c042 	add	w2, w2, #0x30
    36b8:	1a843042 	csel	w2, w2, w4, cc  // cc = lo, ul, last
        value >>= 4;
    36bc:	53047c21 	lsr	w1, w1, #4
        buffer[--i] = (byte > 9) ? (byte + 87) : (byte + 48);
    36c0:	38236aa2 	strb	w2, [x21, x3]
    36c4:	12001c00 	and	w0, w0, #0xff
    while (value) {
    36c8:	35fffec1 	cbnz	w1, 36a0 <shellSeekCommand+0xe0>
    unsigned char i = 8;
    36cc:	aa1503e1 	mov	x1, x21
        if (!compareLength) {
    36d0:	35000259 	cbnz	w25, 3718 <shellSeekCommand+0x158>
            if (strcmp(cmd, name) == 0) {
    36d4:	aa1803e0 	mov	x0, x24
    36d8:	9400113a 	bl	7bc0 <strcmp>
    36dc:	34000260 	cbz	w0, 3728 <shellSeekCommand+0x168>
    for (unsigned short i = 0; i < count; i++) {
    36e0:	91008273 	add	x19, x19, #0x20
    36e4:	eb13029f 	cmp	x20, x19
    36e8:	54fffa41 	b.ne	3630 <shellSeekCommand+0x70>  // b.any
    36ec:	a94153f3 	ldp	x19, x20, [sp, #16]
    36f0:	a9446bf9 	ldp	x25, x26, [sp, #64]
    36f4:	a94573fb 	ldp	x27, x28, [sp, #80]
    return NULL;
    36f8:	d2800016 	mov	x22, #0x0                   	// #0
}
    36fc:	aa1603e0 	mov	x0, x22
    3700:	a9425bf5 	ldp	x21, x22, [sp, #32]
    3704:	a94363f7 	ldp	x23, x24, [sp, #48]
    3708:	a8c67bfd 	ldp	x29, x30, [sp], #96
    370c:	d65f03c0 	ret
        return command->data.user.name;
    3710:	f9400661 	ldr	x1, [x19, #8]
        if (!compareLength) {
    3714:	34fffe19 	cbz	w25, 36d4 <shellSeekCommand+0x114>
            if (strncmp(cmd, name, compareLength) == 0) {
    3718:	aa1a03e2 	mov	x2, x26
    371c:	aa1803e0 	mov	x0, x24
    3720:	940011bf 	bl	7e1c <strncmp>
    3724:	35fffde0 	cbnz	w0, 36e0 <shellSeekCommand+0x120>
}
    3728:	aa1603e0 	mov	x0, x22
    372c:	a94153f3 	ldp	x19, x20, [sp, #16]
    3730:	a9425bf5 	ldp	x21, x22, [sp, #32]
    3734:	a94363f7 	ldp	x23, x24, [sp, #48]
    3738:	a9446bf9 	ldp	x25, x26, [sp, #64]
    373c:	a94573fb 	ldp	x27, x28, [sp, #80]
    3740:	a8c67bfd 	ldp	x29, x30, [sp], #96
    3744:	d65f03c0 	ret
    3748:	d503201f 	nop
    374c:	d503201f 	nop

0000000000003750 <shellGetVarValue>:
    switch (command->attr.attrs.type) {
    3750:	f9400020 	ldr	x0, [x1]
    3754:	53082c00 	ubfx	w0, w0, #8, #4
    3758:	7100101f 	cmp	w0, #0x4
    375c:	54000300 	b.eq	37bc <shellGetVarValue+0x6c>  // b.none
    3760:	54000169 	b.ls	378c <shellGetVarValue+0x3c>  // b.plast
    3764:	7100181f 	cmp	w0, #0x6
    3768:	54000309 	b.ls	37c8 <shellGetVarValue+0x78>  // b.plast
    376c:	71001c1f 	cmp	w0, #0x7
    3770:	540001c1 	b.ne	37a8 <shellGetVarValue+0x58>  // b.any
    3774:	f9400820 	ldr	x0, [x1, #16]
        int (*func)(void*) = ((ShellNodeVarAttr*)command->data.var.value)->get;
    3778:	f9400401 	ldr	x1, [x0, #8]
        value = func ? func(((ShellNodeVarAttr*)command->data.var.value)->var) : 0;
    377c:	b4000161 	cbz	x1, 37a8 <shellGetVarValue+0x58>
    3780:	f9400000 	ldr	x0, [x0]
    3784:	aa0103f0 	mov	x16, x1
    3788:	d61f0200 	br	x16
    switch (command->attr.attrs.type) {
    378c:	7100081f 	cmp	w0, #0x2
    3790:	54000100 	b.eq	37b0 <shellGetVarValue+0x60>  // b.none
    3794:	71000c1f 	cmp	w0, #0x3
    3798:	54000081 	b.ne	37a8 <shellGetVarValue+0x58>  // b.any
        value = *((short*)(command->data.var.value));
    379c:	f9400820 	ldr	x0, [x1, #16]
    37a0:	79c00000 	ldrsh	w0, [x0]
}
    37a4:	d65f03c0 	ret
        value = func ? func(((ShellNodeVarAttr*)command->data.var.value)->var) : 0;
    37a8:	52800000 	mov	w0, #0x0                   	// #0
}
    37ac:	d65f03c0 	ret
        value = *((int*)(command->data.var.value));
    37b0:	f9400820 	ldr	x0, [x1, #16]
    37b4:	b9400000 	ldr	w0, [x0]
}
    37b8:	d65f03c0 	ret
        value = *((char*)(command->data.var.value));
    37bc:	f9400820 	ldr	x0, [x1, #16]
    37c0:	39400000 	ldrb	w0, [x0]
}
    37c4:	d65f03c0 	ret
        value = (size_t)(command->data.var.value);
    37c8:	b9401020 	ldr	w0, [x1, #16]
}
    37cc:	d65f03c0 	ret

00000000000037d0 <shellShowVar>:
    char buffer[12] = "00000000000";
    37d0:	90000062 	adrp	x2, f000 <_fstat_r+0x40>
    37d4:	912fc042 	add	x2, x2, #0xbf0
{
    37d8:	a9bc7bfd 	stp	x29, x30, [sp, #-64]!
    37dc:	910003fd 	mov	x29, sp
    char buffer[12] = "00000000000";
    37e0:	f9400043 	ldr	x3, [x2]
{
    37e4:	a9025bf5 	stp	x21, x22, [sp, #32]
    char buffer[12] = "00000000000";
    37e8:	b9400842 	ldr	w2, [x2, #8]
    37ec:	9100c3f6 	add	x22, sp, #0x30
{
    37f0:	a90153f3 	stp	x19, x20, [sp, #16]
    37f4:	aa0003f4 	mov	x20, x0
    37f8:	aa0103f5 	mov	x21, x1
    char buffer[12] = "00000000000";
    37fc:	f9001be3 	str	x3, [sp, #48]
    3800:	b9000ac2 	str	w2, [x22, #8]
    int value = shellGetVarValue(shell, command);
    3804:	97ffffd3 	bl	3750 <shellGetVarValue>
    SHELL_ASSERT(shell->write, return 0);
    3808:	f9406285 	ldr	x5, [x20, #192]
    int value = shellGetVarValue(shell, command);
    380c:	2a0003f3 	mov	w19, w0
    SHELL_ASSERT(shell->write, return 0);
    3810:	b4000385 	cbz	x5, 3880 <shellShowVar+0xb0>
    shellWriteString(shell, command->data.var.name);
    3814:	f94006a0 	ldr	x0, [x21, #8]
    while (*p++) {
    3818:	aa0003e2 	mov	x2, x0
    381c:	38401441 	ldrb	w1, [x2], #1
    3820:	34001281 	cbz	w1, 3a70 <shellShowVar+0x2a0>
    3824:	52800024 	mov	w4, #0x1                   	// #1
    3828:	4b020084 	sub	w4, w4, w2
    382c:	d503201f 	nop
        count++;
    3830:	0b020081 	add	w1, w4, w2
    while (*p++) {
    3834:	38401443 	ldrb	w3, [x2], #1
    3838:	12003c21 	and	w1, w1, #0xffff
    383c:	35ffffa3 	cbnz	w3, 3830 <shellShowVar+0x60>
    return shell->write((char*)string, count);
    3840:	d63f00a0 	blr	x5
    SHELL_ASSERT(shell->write, return 0);
    3844:	f9406283 	ldr	x3, [x20, #192]
    3848:	b40001c3 	cbz	x3, 3880 <shellShowVar+0xb0>
    while (*p++) {
    384c:	90000060 	adrp	x0, f000 <_fstat_r+0x40>
    3850:	91332400 	add	x0, x0, #0xcc9
    3854:	528007a2 	mov	w2, #0x3d                  	// #61
    unsigned short count = 0;
    3858:	52800001 	mov	w1, #0x0                   	// #0
    385c:	14000002 	b	3864 <shellShowVar+0x94>
    while (*p++) {
    3860:	39400002 	ldrb	w2, [x0]
        count++;
    3864:	11000421 	add	w1, w1, #0x1
    while (*p++) {
    3868:	91000400 	add	x0, x0, #0x1
        count++;
    386c:	12003c21 	and	w1, w1, #0xffff
    while (*p++) {
    3870:	35ffff82 	cbnz	w2, 3860 <shellShowVar+0x90>
    return shell->write((char*)string, count);
    3874:	90000060 	adrp	x0, f000 <_fstat_r+0x40>
    3878:	91332000 	add	x0, x0, #0xcc8
    387c:	d63f0060 	blr	x3
    switch (command->attr.attrs.type) {
    3880:	f94002a0 	ldr	x0, [x21]
    3884:	53082c00 	ubfx	w0, w0, #8, #4
    3888:	7100141f 	cmp	w0, #0x5
    388c:	54000b60 	b.eq	39f8 <shellShowVar+0x228>  // b.none
        shellWriteString(shell, &buffer[11 - shellToDec(value, buffer)]);
    3890:	aa1603e1 	mov	x1, x22
    3894:	2a1303e0 	mov	w0, w19
    3898:	97fffae6 	bl	2430 <shellToDec>
    389c:	52800161 	mov	w1, #0xb                   	// #11
    SHELL_ASSERT(shell->write, return 0);
    38a0:	f9406285 	ldr	x5, [x20, #192]
        shellWriteString(shell, &buffer[11 - shellToDec(value, buffer)]);
    38a4:	4b208021 	sub	w1, w1, w0, sxtb
    38a8:	8b21c2c0 	add	x0, x22, w1, sxtw
    SHELL_ASSERT(shell->write, return 0);
    38ac:	b4000385 	cbz	x5, 391c <shellShowVar+0x14c>
    while (*p++) {
    38b0:	3861cac1 	ldrb	w1, [x22, w1, sxtw]
    38b4:	91000402 	add	x2, x0, #0x1
    38b8:	34000d41 	cbz	w1, 3a60 <shellShowVar+0x290>
    38bc:	52800024 	mov	w4, #0x1                   	// #1
    38c0:	4b020084 	sub	w4, w4, w2
    38c4:	d503201f 	nop
        count++;
    38c8:	0b020081 	add	w1, w4, w2
    while (*p++) {
    38cc:	38401443 	ldrb	w3, [x2], #1
    38d0:	12003c21 	and	w1, w1, #0xffff
    38d4:	35ffffa3 	cbnz	w3, 38c8 <shellShowVar+0xf8>
    return shell->write((char*)string, count);
    38d8:	d63f00a0 	blr	x5
    SHELL_ASSERT(shell->write, return 0);
    38dc:	f9406285 	ldr	x5, [x20, #192]
    38e0:	b40001e5 	cbz	x5, 391c <shellShowVar+0x14c>
    while (*p++) {
    38e4:	90000060 	adrp	x0, f000 <_fstat_r+0x40>
    38e8:	912fa400 	add	x0, x0, #0xbe9
    38ec:	52800402 	mov	w2, #0x20                  	// #32
    unsigned short count = 0;
    38f0:	52800001 	mov	w1, #0x0                   	// #0
    38f4:	14000002 	b	38fc <shellShowVar+0x12c>
    while (*p++) {
    38f8:	39400002 	ldrb	w2, [x0]
        count++;
    38fc:	11000421 	add	w1, w1, #0x1
    while (*p++) {
    3900:	91000400 	add	x0, x0, #0x1
        count++;
    3904:	12003c21 	and	w1, w1, #0xffff
    while (*p++) {
    3908:	35ffff82 	cbnz	w2, 38f8 <shellShowVar+0x128>
    return shell->write((char*)string, count);
    390c:	90000060 	adrp	x0, f000 <_fstat_r+0x40>
    3910:	912fa000 	add	x0, x0, #0xbe8
    3914:	d63f00a0 	blr	x5
    SHELL_ASSERT(shell->write, return 0);
    3918:	f9406285 	ldr	x5, [x20, #192]
    391c:	aa1603e0 	mov	x0, x22
    3920:	9100efe2 	add	x2, sp, #0x3b
            buffer[i] = '0';
    3924:	52800601 	mov	w1, #0x30                  	// #48
    3928:	38001401 	strb	w1, [x0], #1
        for (short i = 0; i < 11; i++) {
    392c:	eb00005f 	cmp	x2, x0
    3930:	54ffffc1 	b.ne	3928 <shellShowVar+0x158>  // b.any
    buffer[8] = 0;
    3934:	3900e3ff 	strb	wzr, [sp, #56]
        shellToHex(value, buffer);
    3938:	2a1303e0 	mov	w0, w19
    unsigned char i = 8;
    393c:	52800102 	mov	w2, #0x8                   	// #8
    while (value) {
    3940:	340001b3 	cbz	w19, 3974 <shellShowVar+0x1a4>
    3944:	d503201f 	nop
        buffer[--i] = (byte > 9) ? (byte + 87) : (byte + 48);
    3948:	51000442 	sub	w2, w2, #0x1
        byte = value & 0x0000000F;
    394c:	12000c01 	and	w1, w0, #0xf
        buffer[--i] = (byte > 9) ? (byte + 87) : (byte + 48);
    3950:	92401c43 	and	x3, x2, #0xff
    3954:	7100283f 	cmp	w1, #0xa
    3958:	11015c24 	add	w4, w1, #0x57
    395c:	1100c021 	add	w1, w1, #0x30
    3960:	1a843021 	csel	w1, w1, w4, cc  // cc = lo, ul, last
        value >>= 4;
    3964:	53047c00 	lsr	w0, w0, #4
        buffer[--i] = (byte > 9) ? (byte + 87) : (byte + 48);
    3968:	38236ac1 	strb	w1, [x22, x3]
    396c:	12001c42 	and	w2, w2, #0xff
    while (value) {
    3970:	35fffec0 	cbnz	w0, 3948 <shellShowVar+0x178>
    SHELL_ASSERT(shell->write, return 0);
    3974:	b4000385 	cbz	x5, 39e4 <shellShowVar+0x214>
    while (*p++) {
    3978:	3940c3e0 	ldrb	w0, [sp, #48]
    397c:	34000760 	cbz	w0, 3a68 <shellShowVar+0x298>
    3980:	9100c7e0 	add	x0, sp, #0x31
    3984:	52800023 	mov	w3, #0x1                   	// #1
    3988:	4b000063 	sub	w3, w3, w0
    398c:	d503201f 	nop
        count++;
    3990:	0b000061 	add	w1, w3, w0
    while (*p++) {
    3994:	38401402 	ldrb	w2, [x0], #1
    3998:	12003c21 	and	w1, w1, #0xffff
    399c:	35ffffa2 	cbnz	w2, 3990 <shellShowVar+0x1c0>
    return shell->write((char*)string, count);
    39a0:	aa1603e0 	mov	x0, x22
    39a4:	d63f00a0 	blr	x5
    SHELL_ASSERT(shell->write, return 0);
    39a8:	f9406283 	ldr	x3, [x20, #192]
    39ac:	b40001c3 	cbz	x3, 39e4 <shellShowVar+0x214>
    while (*p++) {
    39b0:	90000060 	adrp	x0, f000 <_fstat_r+0x40>
    39b4:	91356400 	add	x0, x0, #0xd59
    39b8:	52800142 	mov	w2, #0xa                   	// #10
    unsigned short count = 0;
    39bc:	52800001 	mov	w1, #0x0                   	// #0
    39c0:	14000002 	b	39c8 <shellShowVar+0x1f8>
    while (*p++) {
    39c4:	39400002 	ldrb	w2, [x0]
        count++;
    39c8:	11000421 	add	w1, w1, #0x1
    while (*p++) {
    39cc:	91000400 	add	x0, x0, #0x1
        count++;
    39d0:	12003c21 	and	w1, w1, #0xffff
    while (*p++) {
    39d4:	35ffff82 	cbnz	w2, 39c4 <shellShowVar+0x1f4>
    return shell->write((char*)string, count);
    39d8:	90000060 	adrp	x0, f000 <_fstat_r+0x40>
    39dc:	91356000 	add	x0, x0, #0xd58
    39e0:	d63f0060 	blr	x3
}
    39e4:	2a1303e0 	mov	w0, w19
    39e8:	a94153f3 	ldp	x19, x20, [sp, #16]
    39ec:	a9425bf5 	ldp	x21, x22, [sp, #32]
    39f0:	a8c47bfd 	ldp	x29, x30, [sp], #64
    39f4:	d65f03c0 	ret
    SHELL_ASSERT(shell->write, return 0);
    39f8:	f9406282 	ldr	x2, [x20, #192]
    39fc:	b4ffff42 	cbz	x2, 39e4 <shellShowVar+0x214>
    return shell->write((char*)string, count);
    3a00:	90000075 	adrp	x21, f000 <_fstat_r+0x40>
    3a04:	913342b5 	add	x21, x21, #0xcd0
    3a08:	aa1503e0 	mov	x0, x21
    3a0c:	52800021 	mov	w1, #0x1                   	// #1
    3a10:	d63f0040 	blr	x2
    SHELL_ASSERT(shell->write, return 0);
    3a14:	f9406284 	ldr	x4, [x20, #192]
        shellWriteString(shell, (char*)(size_t)value);
    3a18:	93407e60 	sxtw	x0, w19
    SHELL_ASSERT(shell->write, return 0);
    3a1c:	b4fffe44 	cbz	x4, 39e4 <shellShowVar+0x214>
    while (*p++) {
    3a20:	aa0003e2 	mov	x2, x0
    3a24:	38401441 	ldrb	w1, [x2], #1
    3a28:	34000281 	cbz	w1, 3a78 <shellShowVar+0x2a8>
    3a2c:	d503201f 	nop
    3a30:	39400043 	ldrb	w3, [x2]
    3a34:	4b000041 	sub	w1, w2, w0
    3a38:	12003c21 	and	w1, w1, #0xffff
    3a3c:	91000442 	add	x2, x2, #0x1
    3a40:	35ffff83 	cbnz	w3, 3a30 <shellShowVar+0x260>
    return shell->write((char*)string, count);
    3a44:	d63f0080 	blr	x4
    SHELL_ASSERT(shell->write, return 0);
    3a48:	f9406282 	ldr	x2, [x20, #192]
    3a4c:	b4fffcc2 	cbz	x2, 39e4 <shellShowVar+0x214>
    return shell->write((char*)string, count);
    3a50:	aa1503e0 	mov	x0, x21
    3a54:	52800021 	mov	w1, #0x1                   	// #1
    3a58:	d63f0040 	blr	x2
    3a5c:	17ffffd3 	b	39a8 <shellShowVar+0x1d8>
    unsigned short count = 0;
    3a60:	52800001 	mov	w1, #0x0                   	// #0
    3a64:	17ffff9d 	b	38d8 <shellShowVar+0x108>
    3a68:	52800001 	mov	w1, #0x0                   	// #0
    3a6c:	17ffffcd 	b	39a0 <shellShowVar+0x1d0>
    3a70:	52800001 	mov	w1, #0x0                   	// #0
    3a74:	17ffff73 	b	3840 <shellShowVar+0x70>
    3a78:	52800001 	mov	w1, #0x0                   	// #0
    3a7c:	17fffff2 	b	3a44 <shellShowVar+0x274>

0000000000003a80 <shellSetVarValue>:
{
    3a80:	a9be7bfd 	stp	x29, x30, [sp, #-32]!
    3a84:	910003fd 	mov	x29, sp
    3a88:	a90153f3 	stp	x19, x20, [sp, #16]
    3a8c:	aa0003f4 	mov	x20, x0
    3a90:	aa0103f3 	mov	x19, x1
    if (command->attr.attrs.readOnly) {
    3a94:	b9400020 	ldr	w0, [x1]
    3a98:	37700440 	tbnz	w0, #14, 3b20 <shellSetVarValue+0xa0>
        switch (command->attr.attrs.type) {
    3a9c:	f9400023 	ldr	x3, [x1]
    3aa0:	53082c63 	ubfx	w3, w3, #8, #4
    3aa4:	7100147f 	cmp	w3, #0x5
    3aa8:	540008c0 	b.eq	3bc0 <shellSetVarValue+0x140>  // b.none
    3aac:	54000188 	b.hi	3adc <shellSetVarValue+0x5c>  // b.pmore
    3ab0:	71000c7f 	cmp	w3, #0x3
    3ab4:	54000800 	b.eq	3bb4 <shellSetVarValue+0x134>  // b.none
    3ab8:	7100107f 	cmp	w3, #0x4
    3abc:	54000281 	b.ne	3b0c <shellSetVarValue+0x8c>  // b.any
            *((char*)(command->data.var.value)) = value;
    3ac0:	f9400820 	ldr	x0, [x1, #16]
    3ac4:	39000002 	strb	w2, [x0]
    return shellShowVar(shell, command);
    3ac8:	aa1303e1 	mov	x1, x19
    3acc:	aa1403e0 	mov	x0, x20
}
    3ad0:	a94153f3 	ldp	x19, x20, [sp, #16]
    3ad4:	a8c27bfd 	ldp	x29, x30, [sp], #32
    return shellShowVar(shell, command);
    3ad8:	17ffff3e 	b	37d0 <shellShowVar>
        switch (command->attr.attrs.type) {
    3adc:	7100187f 	cmp	w3, #0x6
    3ae0:	540004a0 	b.eq	3b74 <shellSetVarValue+0xf4>  // b.none
    3ae4:	71001c7f 	cmp	w3, #0x7
    3ae8:	54ffff01 	b.ne	3ac8 <shellSetVarValue+0x48>  // b.any
            if (((ShellNodeVarAttr*)command->data.var.value)->set) {
    3aec:	f9400820 	ldr	x0, [x1, #16]
    3af0:	f9400803 	ldr	x3, [x0, #16]
    3af4:	b4fffea3 	cbz	x3, 3ac8 <shellSetVarValue+0x48>
                if (((ShellNodeVarAttr*)command->data.var.value)->var) {
    3af8:	f9400000 	ldr	x0, [x0]
    3afc:	b4000800 	cbz	x0, 3bfc <shellSetVarValue+0x17c>
                    func(((ShellNodeVarAttr*)command->data.var.value)->var, value);
    3b00:	2a0203e1 	mov	w1, w2
    3b04:	d63f0060 	blr	x3
    3b08:	17fffff0 	b	3ac8 <shellSetVarValue+0x48>
        switch (command->attr.attrs.type) {
    3b0c:	7100087f 	cmp	w3, #0x2
    3b10:	54fffdc1 	b.ne	3ac8 <shellSetVarValue+0x48>  // b.any
            *((int*)(command->data.var.value)) = value;
    3b14:	f9400820 	ldr	x0, [x1, #16]
    3b18:	b9000002 	str	w2, [x0]
            break;
    3b1c:	17ffffeb 	b	3ac8 <shellSetVarValue+0x48>
    SHELL_ASSERT(shell->write, return 0);
    3b20:	f9406284 	ldr	x4, [x20, #192]
    3b24:	b4fffd24 	cbz	x4, 3ac8 <shellSetVarValue+0x48>
    while (*p++) {
    3b28:	90000063 	adrp	x3, f000 <_fstat_r+0x40>
    3b2c:	91336463 	add	x3, x3, #0xcd9
    3b30:	52800c20 	mov	w0, #0x61                  	// #97
    unsigned short count = 0;
    3b34:	52800002 	mov	w2, #0x0                   	// #0
    3b38:	14000002 	b	3b40 <shellSetVarValue+0xc0>
    while (*p++) {
    3b3c:	39400060 	ldrb	w0, [x3]
        count++;
    3b40:	11000442 	add	w2, w2, #0x1
    while (*p++) {
    3b44:	91000463 	add	x3, x3, #0x1
        count++;
    3b48:	12003c42 	and	w2, w2, #0xffff
    while (*p++) {
    3b4c:	35ffff80 	cbnz	w0, 3b3c <shellSetVarValue+0xbc>
    return shell->write((char*)string, count);
    3b50:	2a0203e1 	mov	w1, w2
    3b54:	90000060 	adrp	x0, f000 <_fstat_r+0x40>
    3b58:	91336000 	add	x0, x0, #0xcd8
    3b5c:	d63f0080 	blr	x4
    return shellShowVar(shell, command);
    3b60:	aa1303e1 	mov	x1, x19
    3b64:	aa1403e0 	mov	x0, x20
}
    3b68:	a94153f3 	ldp	x19, x20, [sp, #16]
    3b6c:	a8c27bfd 	ldp	x29, x30, [sp], #32
    return shellShowVar(shell, command);
    3b70:	17ffff18 	b	37d0 <shellShowVar>
    SHELL_ASSERT(shell->write, return 0);
    3b74:	f9406283 	ldr	x3, [x20, #192]
    3b78:	b4fffa83 	cbz	x3, 3ac8 <shellSetVarValue+0x48>
    while (*p++) {
    3b7c:	90000060 	adrp	x0, f000 <_fstat_r+0x40>
    3b80:	9133e400 	add	x0, x0, #0xcf9
    3b84:	52800c22 	mov	w2, #0x61                  	// #97
    unsigned short count = 0;
    3b88:	52800001 	mov	w1, #0x0                   	// #0
    3b8c:	14000002 	b	3b94 <shellSetVarValue+0x114>
    while (*p++) {
    3b90:	39400002 	ldrb	w2, [x0]
        count++;
    3b94:	11000421 	add	w1, w1, #0x1
    while (*p++) {
    3b98:	91000400 	add	x0, x0, #0x1
        count++;
    3b9c:	12003c21 	and	w1, w1, #0xffff
    while (*p++) {
    3ba0:	35ffff82 	cbnz	w2, 3b90 <shellSetVarValue+0x110>
    return shell->write((char*)string, count);
    3ba4:	90000060 	adrp	x0, f000 <_fstat_r+0x40>
    3ba8:	9133e000 	add	x0, x0, #0xcf8
    3bac:	d63f0060 	blr	x3
    3bb0:	17ffffc6 	b	3ac8 <shellSetVarValue+0x48>
            *((short*)(command->data.var.value)) = value;
    3bb4:	f9400820 	ldr	x0, [x1, #16]
    3bb8:	79000002 	strh	w2, [x0]
            break;
    3bbc:	17ffffc3 	b	3ac8 <shellSetVarValue+0x48>
            shellStringCopy(((char*)(command->data.var.value)), (char*)(size_t)value);
    3bc0:	93407c42 	sxtw	x2, w2
    3bc4:	f9400a64 	ldr	x4, [x19, #16]
    while (*(src + count)) {
    3bc8:	39400041 	ldrb	w1, [x2]
    3bcc:	34000141 	cbz	w1, 3bf4 <shellSetVarValue+0x174>
    unsigned short count = 0;
    3bd0:	52800000 	mov	w0, #0x0                   	// #0
    while (*(src + count)) {
    3bd4:	d2800003 	mov	x3, #0x0                   	// #0
        count++;
    3bd8:	11000400 	add	w0, w0, #0x1
        *(dest + count) = *(src + count);
    3bdc:	38236881 	strb	w1, [x4, x3]
    while (*(src + count)) {
    3be0:	92403c03 	and	x3, x0, #0xffff
        count++;
    3be4:	12003c00 	and	w0, w0, #0xffff
    while (*(src + count)) {
    3be8:	38636841 	ldrb	w1, [x2, x3]
    3bec:	35ffff61 	cbnz	w1, 3bd8 <shellSetVarValue+0x158>
    *(dest + count) = 0;
    3bf0:	8b030084 	add	x4, x4, x3
    3bf4:	3900009f 	strb	wzr, [x4]
    return count;
    3bf8:	17ffffb4 	b	3ac8 <shellSetVarValue+0x48>
                    func(value);
    3bfc:	2a0203e0 	mov	w0, w2
    3c00:	d63f0060 	blr	x3
    3c04:	17ffffb1 	b	3ac8 <shellSetVarValue+0x48>
    3c08:	d503201f 	nop
    3c0c:	d503201f 	nop

0000000000003c10 <shellSetVar>:
{
    3c10:	a9bd7bfd 	stp	x29, x30, [sp, #-48]!
    3c14:	d0000064 	adrp	x4, 11000 <__global_locale+0x180>
    3c18:	912de084 	add	x4, x4, #0xb78
    3c1c:	910003fd 	mov	x29, sp
    3c20:	91004083 	add	x3, x4, #0x10
    3c24:	9100e084 	add	x4, x4, #0x38
    3c28:	a90153f3 	stp	x19, x20, [sp, #16]
    3c2c:	aa0003f4 	mov	x20, x0
    3c30:	f90013f5 	str	x21, [sp, #32]
    3c34:	2a0103f5 	mov	w21, w1
        if (shellList[i] && shellList[i]->status.isActive) {
    3c38:	f9400073 	ldr	x19, [x3]
    for (short i = 0; i < SHELL_MAX_NUMBER; i++) {
    3c3c:	91002063 	add	x3, x3, #0x8
        if (shellList[i] && shellList[i]->status.isActive) {
    3c40:	b4000073 	cbz	x19, 3c4c <shellSetVar+0x3c>
    3c44:	3942c265 	ldrb	w5, [x19, #176]
    3c48:	37080105 	tbnz	w5, #1, 3c68 <shellSetVar+0x58>
    for (short i = 0; i < SHELL_MAX_NUMBER; i++) {
    3c4c:	eb03009f 	cmp	x4, x3
    3c50:	54ffff41 	b.ne	3c38 <shellSetVar+0x28>  // b.any
}
    3c54:	52800000 	mov	w0, #0x0                   	// #0
    3c58:	a94153f3 	ldp	x19, x20, [sp, #16]
    3c5c:	f94013f5 	ldr	x21, [sp, #32]
    3c60:	a8c37bfd 	ldp	x29, x30, [sp], #48
    3c64:	d65f03c0 	ret
    ShellCommand* command = shellSeekCommand(shell,
    3c68:	f9405262 	ldr	x2, [x19, #160]
    3c6c:	aa1403e1 	mov	x1, x20
    3c70:	aa1303e0 	mov	x0, x19
    3c74:	52800003 	mov	w3, #0x0                   	// #0
    3c78:	97fffe52 	bl	35c0 <shellSeekCommand>
    3c7c:	aa0003e1 	mov	x1, x0
    if (!command) {
    3c80:	b40005c0 	cbz	x0, 3d38 <shellSetVar+0x128>
    if (command->attr.attrs.type < SHELL_TYPE_VAR_INT
    3c84:	f9400023 	ldr	x3, [x1]
    3c88:	d3482c63 	ubfx	x3, x3, #8, #4
        || command->attr.attrs.type > SHELL_TYPE_VAR_NODE) {
    3c8c:	11003863 	add	w3, w3, #0xe
    if (command->attr.attrs.type < SHELL_TYPE_VAR_INT
    3c90:	12000c63 	and	w3, w3, #0xf
    3c94:	7100147f 	cmp	w3, #0x5
    3c98:	540000e8 	b.hi	3cb4 <shellSetVar+0xa4>  // b.pmore
    return shellSetVarValue(shell, command, value);
    3c9c:	2a1503e2 	mov	w2, w21
    3ca0:	aa1303e0 	mov	x0, x19
}
    3ca4:	a94153f3 	ldp	x19, x20, [sp, #16]
    3ca8:	f94013f5 	ldr	x21, [sp, #32]
    3cac:	a8c37bfd 	ldp	x29, x30, [sp], #48
    return shellSetVarValue(shell, command, value);
    3cb0:	17ffff74 	b	3a80 <shellSetVarValue>
    SHELL_ASSERT(shell->write, return 0);
    3cb4:	f9406264 	ldr	x4, [x19, #192]
    3cb8:	b4fffce4 	cbz	x4, 3c54 <shellSetVar+0x44>
    while (*p++) {
    3cbc:	aa1403e2 	mov	x2, x20
    3cc0:	38401440 	ldrb	w0, [x2], #1
    3cc4:	340005a0 	cbz	w0, 3d78 <shellSetVar+0x168>
    3cc8:	52800023 	mov	w3, #0x1                   	// #1
    3ccc:	4b020063 	sub	w3, w3, w2
        count++;
    3cd0:	0b020061 	add	w1, w3, w2
    while (*p++) {
    3cd4:	38401440 	ldrb	w0, [x2], #1
    3cd8:	12003c21 	and	w1, w1, #0xffff
    3cdc:	35ffffa0 	cbnz	w0, 3cd0 <shellSetVar+0xc0>
    return shell->write((char*)string, count);
    3ce0:	aa1403e0 	mov	x0, x20
    3ce4:	d63f0080 	blr	x4
    SHELL_ASSERT(shell->write, return 0);
    3ce8:	f9406263 	ldr	x3, [x19, #192]
    3cec:	b4fffb43 	cbz	x3, 3c54 <shellSetVar+0x44>
    while (*p++) {
    3cf0:	90000060 	adrp	x0, f000 <_fstat_r+0x40>
    3cf4:	91348400 	add	x0, x0, #0xd21
    3cf8:	52800d22 	mov	w2, #0x69                  	// #105
    unsigned short count = 0;
    3cfc:	52800001 	mov	w1, #0x0                   	// #0
    3d00:	14000002 	b	3d08 <shellSetVar+0xf8>
    while (*p++) {
    3d04:	39400002 	ldrb	w2, [x0]
        count++;
    3d08:	11000421 	add	w1, w1, #0x1
    while (*p++) {
    3d0c:	91000400 	add	x0, x0, #0x1
        count++;
    3d10:	12003c21 	and	w1, w1, #0xffff
    while (*p++) {
    3d14:	35ffff82 	cbnz	w2, 3d04 <shellSetVar+0xf4>
    return shell->write((char*)string, count);
    3d18:	90000060 	adrp	x0, f000 <_fstat_r+0x40>
    3d1c:	91348000 	add	x0, x0, #0xd20
    3d20:	d63f0060 	blr	x3
}
    3d24:	52800000 	mov	w0, #0x0                   	// #0
    3d28:	a94153f3 	ldp	x19, x20, [sp, #16]
    3d2c:	f94013f5 	ldr	x21, [sp, #32]
    3d30:	a8c37bfd 	ldp	x29, x30, [sp], #48
    3d34:	d65f03c0 	ret
    SHELL_ASSERT(shell->write, return 0);
    3d38:	f9406263 	ldr	x3, [x19, #192]
    3d3c:	b4fff8c3 	cbz	x3, 3c54 <shellSetVar+0x44>
    while (*p++) {
    3d40:	90000060 	adrp	x0, f000 <_fstat_r+0x40>
    3d44:	91344400 	add	x0, x0, #0xd11
    3d48:	52800c22 	mov	w2, #0x61                  	// #97
    unsigned short count = 0;
    3d4c:	52800001 	mov	w1, #0x0                   	// #0
    3d50:	14000002 	b	3d58 <shellSetVar+0x148>
    while (*p++) {
    3d54:	39400002 	ldrb	w2, [x0]
        count++;
    3d58:	11000421 	add	w1, w1, #0x1
    while (*p++) {
    3d5c:	91000400 	add	x0, x0, #0x1
        count++;
    3d60:	12003c21 	and	w1, w1, #0xffff
    while (*p++) {
    3d64:	35ffff82 	cbnz	w2, 3d54 <shellSetVar+0x144>
    return shell->write((char*)string, count);
    3d68:	90000060 	adrp	x0, f000 <_fstat_r+0x40>
    3d6c:	91344000 	add	x0, x0, #0xd10
    3d70:	d63f0060 	blr	x3
    3d74:	17ffffb8 	b	3c54 <shellSetVar+0x44>
    unsigned short count = 0;
    3d78:	52800001 	mov	w1, #0x0                   	// #0
    3d7c:	17ffffd9 	b	3ce0 <shellSetVar+0xd0>

0000000000003d80 <shellSetUser>:
{
    3d80:	a9be7bfd 	stp	x29, x30, [sp, #-32]!
    3d84:	910003fd 	mov	x29, sp
    3d88:	a90153f3 	stp	x19, x20, [sp, #16]
    3d8c:	aa0003f3 	mov	x19, x0
    shell->info.user = user;
    3d90:	f9000001 	str	x1, [x0]
    shell->status.isChecked = ((user->data.user.password && strlen(user->data.user.password) != 0)
    3d94:	f9400820 	ldr	x0, [x1, #16]
        : 1;
    3d98:	b4000080 	cbz	x0, 3da8 <shellSetUser+0x28>
    3d9c:	aa0103f4 	mov	x20, x1
    shell->status.isChecked = ((user->data.user.password && strlen(user->data.user.password) != 0)
    3da0:	94000fc8 	bl	7cc0 <strlen>
    3da4:	b5000100 	cbnz	x0, 3dc4 <shellSetUser+0x44>
{
    3da8:	52800021 	mov	w1, #0x1                   	// #1
    shell->status.isChecked = ((user->data.user.password && strlen(user->data.user.password) != 0)
    3dac:	3942c260 	ldrb	w0, [x19, #176]
    3db0:	33000020 	bfxil	w0, w1, #0, #1
    3db4:	3902c260 	strb	w0, [x19, #176]
}
    3db8:	a94153f3 	ldp	x19, x20, [sp, #16]
    3dbc:	a8c27bfd 	ldp	x29, x30, [sp], #32
    3dc0:	d65f03c0 	ret
        : 1;
    3dc4:	7940d660 	ldrh	w0, [x19, #106]
    3dc8:	52800001 	mov	w1, #0x0                   	// #0
    3dcc:	7100041f 	cmp	w0, #0x1
    3dd0:	54fffee9 	b.ls	3dac <shellSetUser+0x2c>  // b.plast
                                      || strcmp(user->data.user.password, shell->parser.param[1]) != 0))
    3dd4:	f9400a80 	ldr	x0, [x20, #16]
    3dd8:	f9401a61 	ldr	x1, [x19, #48]
    3ddc:	94000f79 	bl	7bc0 <strcmp>
    3de0:	7100001f 	cmp	w0, #0x0
    shell->status.isChecked = ((user->data.user.password && strlen(user->data.user.password) != 0)
    3de4:	3942c260 	ldrb	w0, [x19, #176]
                                      || strcmp(user->data.user.password, shell->parser.param[1]) != 0))
    3de8:	1a9f17e1 	cset	w1, eq  // eq = none
    shell->status.isChecked = ((user->data.user.password && strlen(user->data.user.password) != 0)
    3dec:	33000020 	bfxil	w0, w1, #0, #1
    3df0:	3902c260 	strb	w0, [x19, #176]
}
    3df4:	a94153f3 	ldp	x19, x20, [sp, #16]
    3df8:	a8c27bfd 	ldp	x29, x30, [sp], #32
    3dfc:	d65f03c0 	ret

0000000000003e00 <shellInit>:
{
    3e00:	12003c42 	and	w2, w2, #0xffff
    shell->parser.bufferSize = size / (SHELL_HISTORY_MAX_NUMBER + 1);
    3e04:	52955564 	mov	w4, #0xaaab                	// #43691
    3e08:	72b55544 	movk	w4, #0xaaaa, lsl #16
{
    3e0c:	a9be7bfd 	stp	x29, x30, [sp, #-32]!
    3e10:	91026005 	add	x5, x0, #0x98
    shell->parser.bufferSize = size / (SHELL_HISTORY_MAX_NUMBER + 1);
    3e14:	9ba47c44 	umull	x4, w2, w4
{
    3e18:	910003fd 	mov	x29, sp
    3e1c:	9101c002 	add	x2, x0, #0x70
    3e20:	f9000bf3 	str	x19, [sp, #16]
    3e24:	aa0003f3 	mov	x19, x0
    shell->parser.bufferSize = size / (SHELL_HISTORY_MAX_NUMBER + 1);
    3e28:	d362fc84 	lsr	x4, x4, #34
    shell->status.isChecked = 1;
    3e2c:	3942c006 	ldrb	w6, [x0, #176]
    3e30:	92403c83 	and	x3, x4, #0xffff
    3e34:	8b030020 	add	x0, x1, x3
    shell->info.user = NULL;
    3e38:	f900027f 	str	xzr, [x19]
    shell->status.isChecked = 1;
    3e3c:	320000c6 	orr	w6, w6, #0x1
    shell->parser.length = 0;
    3e40:	b9001a7f 	str	wzr, [x19, #24]
    shell->parser.buffer = buffer;
    3e44:	f9001261 	str	x1, [x19, #32]
    shell->parser.bufferSize = size / (SHELL_HISTORY_MAX_NUMBER + 1);
    3e48:	7900d264 	strh	w4, [x19, #104]
    shell->history.number = 0;
    3e4c:	b9009a7f 	str	wzr, [x19, #152]
    shell->history.offset = 0;
    3e50:	79013a7f 	strh	wzr, [x19, #156]
    shell->status.isChecked = 1;
    3e54:	3902c266 	strb	w6, [x19, #176]
        shell->history.item[i] = buffer + shell->parser.bufferSize * (i + 1);
    3e58:	f8008440 	str	x0, [x2], #8
    for (short i = 0; i < SHELL_HISTORY_MAX_NUMBER; i++) {
    3e5c:	8b030000 	add	x0, x0, x3
    3e60:	eb05005f 	cmp	x2, x5
    3e64:	54ffffa1 	b.ne	3e58 <shellInit+0x58>  // b.any
    shell->commandList.base = (ShellCommand*)shellCommandList;
    3e68:	d0000060 	adrp	x0, 11000 <__global_locale+0x180>
    3e6c:	912de000 	add	x0, x0, #0xb78
    shell->commandList.count = shellCommandCount;
    3e70:	90000061 	adrp	x1, f000 <_fstat_r+0x40>
    3e74:	79506023 	ldrh	w3, [x1, #2096]
        if (shellList[i] == NULL) {
    3e78:	91004000 	add	x0, x0, #0x10
    shell->commandList.base = (ShellCommand*)shellCommandList;
    3e7c:	90000062 	adrp	x2, f000 <_fstat_r+0x40>
    3e80:	9120e042 	add	x2, x2, #0x838
    shell->commandList.count = shellCommandCount;
    3e84:	d2800001 	mov	x1, #0x0                   	// #0
    shell->commandList.base = (ShellCommand*)shellCommandList;
    3e88:	f9005262 	str	x2, [x19, #160]
    shell->commandList.count = shellCommandCount;
    3e8c:	79015263 	strh	w3, [x19, #168]
        if (shellList[i] == NULL) {
    3e90:	f8617803 	ldr	x3, [x0, x1, lsl #3]
    3e94:	2a0103e4 	mov	w4, w1
    for (short i = 0; i < SHELL_MAX_NUMBER; i++) {
    3e98:	91000421 	add	x1, x1, #0x1
    3e9c:	f100143f 	cmp	x1, #0x5
        if (shellList[i] == NULL) {
    3ea0:	b4000443 	cbz	x3, 3f28 <shellInit+0x128>
    for (short i = 0; i < SHELL_MAX_NUMBER; i++) {
    3ea4:	54ffff61 	b.ne	3e90 <shellInit+0x90>  // b.any
    shellSetUser(shell, shellSeekCommand(shell, SHELL_DEFAULT_USER, shell->commandList.base, 0));
    3ea8:	52800003 	mov	w3, #0x0                   	// #0
    3eac:	aa1303e0 	mov	x0, x19
    3eb0:	90000061 	adrp	x1, f000 <_fstat_r+0x40>
    3eb4:	91172021 	add	x1, x1, #0x5c8
    3eb8:	97fffdc2 	bl	35c0 <shellSeekCommand>
    3ebc:	aa0003e1 	mov	x1, x0
    3ec0:	aa1303e0 	mov	x0, x19
    3ec4:	97ffffaf 	bl	3d80 <shellSetUser>
    if (shell->status.isChecked) {
    3ec8:	3942c260 	ldrb	w0, [x19, #176]
    3ecc:	360000a0 	tbz	w0, #0, 3ee0 <shellInit+0xe0>
    3ed0:	aa1303e0 	mov	x0, x19
}
    3ed4:	f9400bf3 	ldr	x19, [sp, #16]
    3ed8:	a8c27bfd 	ldp	x29, x30, [sp], #32
    3edc:	17fff899 	b	2140 <shellWritePrompt.part.0.constprop.0>
    SHELL_ASSERT(shell->write, return 0);
    3ee0:	f9406263 	ldr	x3, [x19, #192]
    3ee4:	b4000263 	cbz	x3, 3f30 <shellInit+0x130>
    while (*p++) {
    3ee8:	90000060 	adrp	x0, f000 <_fstat_r+0x40>
    3eec:	9132c400 	add	x0, x0, #0xcb1
    3ef0:	52800d82 	mov	w2, #0x6c                  	// #108
    unsigned short count = 0;
    3ef4:	52800001 	mov	w1, #0x0                   	// #0
    3ef8:	14000002 	b	3f00 <shellInit+0x100>
    while (*p++) {
    3efc:	39400002 	ldrb	w2, [x0]
        count++;
    3f00:	11000421 	add	w1, w1, #0x1
    while (*p++) {
    3f04:	91000400 	add	x0, x0, #0x1
        count++;
    3f08:	12003c21 	and	w1, w1, #0xffff
    while (*p++) {
    3f0c:	35ffff82 	cbnz	w2, 3efc <shellInit+0xfc>
}
    3f10:	f9400bf3 	ldr	x19, [sp, #16]
    return shell->write((char*)string, count);
    3f14:	aa0303f0 	mov	x16, x3
}
    3f18:	a8c27bfd 	ldp	x29, x30, [sp], #32
    return shell->write((char*)string, count);
    3f1c:	90000060 	adrp	x0, f000 <_fstat_r+0x40>
    3f20:	9132c000 	add	x0, x0, #0xcb0
    3f24:	d61f0200 	br	x16
            shellList[i] = shell;
    3f28:	f824d813 	str	x19, [x0, w4, sxtw #3]
            return;
    3f2c:	17ffffdf 	b	3ea8 <shellInit+0xa8>
}
    3f30:	f9400bf3 	ldr	x19, [sp, #16]
    3f34:	a8c27bfd 	ldp	x29, x30, [sp], #32
    3f38:	d65f03c0 	ret
    3f3c:	d503201f 	nop

0000000000003f40 <shellRunCommand>:
{
    3f40:	a9bd7bfd 	stp	x29, x30, [sp, #-48]!
    3f44:	910003fd 	mov	x29, sp
    3f48:	a90153f3 	stp	x19, x20, [sp, #16]
    3f4c:	aa0003f3 	mov	x19, x0
    3f50:	a9025bf5 	stp	x21, x22, [sp, #32]
    3f54:	aa0103f5 	mov	x21, x1
    shell->status.isActive = 1;
    3f58:	3942c002 	ldrb	w2, [x0, #176]
    3f5c:	321f0042 	orr	w2, w2, #0x2
    3f60:	3902c002 	strb	w2, [x0, #176]
    if (command->attr.attrs.type == SHELL_TYPE_CMD_MAIN) {
    3f64:	b9400023 	ldr	w3, [x1]
    3f68:	72180c63 	ands	w3, w3, #0xf00
    3f6c:	54000260 	b.eq	3fb8 <shellRunCommand+0x78>  // b.none
    } else if (command->attr.attrs.type == SHELL_TYPE_CMD_FUNC) {
    3f70:	7104007f 	cmp	w3, #0x100
    3f74:	54000860 	b.eq	4080 <shellRunCommand+0x140>  // b.none
    } else if (command->attr.attrs.type >= SHELL_TYPE_VAR_INT
    3f78:	f9400024 	ldr	x4, [x1]
    3f7c:	d3482c84 	ubfx	x4, x4, #8, #4
        && command->attr.attrs.type <= SHELL_TYPE_VAR_NODE) {
    3f80:	11003884 	add	w4, w4, #0xe
    } else if (command->attr.attrs.type >= SHELL_TYPE_VAR_INT
    3f84:	12000c84 	and	w4, w4, #0xf
    3f88:	7100149f 	cmp	w4, #0x5
    3f8c:	54000669 	b.ls	4058 <shellRunCommand+0x118>  // b.plast
    } else if (command->attr.attrs.type == SHELL_TYPE_USER) {
    3f90:	7120007f 	cmp	w3, #0x800
    3f94:	52800014 	mov	w20, #0x0                   	// #0
    3f98:	54000960 	b.eq	40c4 <shellRunCommand+0x184>  // b.none
    shell->status.isActive = 0;
    3f9c:	121e7842 	and	w2, w2, #0xfffffffd
    3fa0:	3902c262 	strb	w2, [x19, #176]
}
    3fa4:	2a1403e0 	mov	w0, w20
    3fa8:	a94153f3 	ldp	x19, x20, [sp, #16]
    3fac:	a9425bf5 	ldp	x21, x22, [sp, #32]
    3fb0:	a8c37bfd 	ldp	x29, x30, [sp], #48
    3fb4:	d65f03c0 	ret
    for (unsigned short i = 0; i < shell->parser.paramCount; i++) {
    3fb8:	7940d400 	ldrh	w0, [x0, #106]
    3fbc:	340008a0 	cbz	w0, 40d0 <shellRunCommand+0x190>
    3fc0:	52800016 	mov	w22, #0x0                   	// #0
    3fc4:	d503201f 	nop
        paramLength = strlen(shell->parser.param[i]);
    3fc8:	8b362e74 	add	x20, x19, w22, uxth #3
        if (shell->parser.param[i][0] == '\"') {
    3fcc:	f9401680 	ldr	x0, [x20, #40]
    3fd0:	39400001 	ldrb	w1, [x0]
    3fd4:	7100883f 	cmp	w1, #0x22
    3fd8:	540000a1 	b.ne	3fec <shellRunCommand+0xac>  // b.any
            shell->parser.param[i][0] = 0;
    3fdc:	3900001f 	strb	wzr, [x0]
            shell->parser.param[i] = &shell->parser.param[i][1];
    3fe0:	f9401680 	ldr	x0, [x20, #40]
    3fe4:	91000400 	add	x0, x0, #0x1
    3fe8:	f9001680 	str	x0, [x20, #40]
        paramLength = strlen(shell->parser.param[i]);
    3fec:	94000f35 	bl	7cc0 <strlen>
        if (shell->parser.param[i][paramLength - 1] == '\"') {
    3ff0:	92403c02 	and	x2, x0, #0xffff
    3ff4:	f9401680 	ldr	x0, [x20, #40]
    3ff8:	d1000442 	sub	x2, x2, #0x1
    for (unsigned short i = 0; i < shell->parser.paramCount; i++) {
    3ffc:	110006c1 	add	w1, w22, #0x1
    4000:	12003c36 	and	w22, w1, #0xffff
        if (shell->parser.param[i][paramLength - 1] == '\"') {
    4004:	38626803 	ldrb	w3, [x0, x2]
    4008:	7100887f 	cmp	w3, #0x22
    400c:	54000041 	b.ne	4014 <shellRunCommand+0xd4>  // b.any
            shell->parser.param[i][paramLength - 1] = 0;
    4010:	3822681f 	strb	wzr, [x0, x2]
    for (unsigned short i = 0; i < shell->parser.paramCount; i++) {
    4014:	7940d660 	ldrh	w0, [x19, #106]
    4018:	6b21201f 	cmp	w0, w1, uxth
    401c:	54fffd68 	b.hi	3fc8 <shellRunCommand+0x88>  // b.pmore
        returnValue = func(shell->parser.paramCount, shell->parser.param);
    4020:	f9400aa2 	ldr	x2, [x21, #16]
    4024:	9100a261 	add	x1, x19, #0x28
    4028:	d63f0040 	blr	x2
        if (!command->attr.attrs.disableReturn) {
    402c:	b94002a1 	ldr	w1, [x21]
    4030:	36680321 	tbz	w1, #13, 4094 <shellRunCommand+0x154>
    4034:	3942c262 	ldrb	w2, [x19, #176]
    return returnValue;
    4038:	2a0003f4 	mov	w20, w0
}
    403c:	2a1403e0 	mov	w0, w20
    shell->status.isActive = 0;
    4040:	121e7842 	and	w2, w2, #0xfffffffd
    4044:	3902c262 	strb	w2, [x19, #176]
}
    4048:	a94153f3 	ldp	x19, x20, [sp, #16]
    404c:	a9425bf5 	ldp	x21, x22, [sp, #32]
    4050:	a8c37bfd 	ldp	x29, x30, [sp], #48
    4054:	d65f03c0 	ret
        shellShowVar(shell, command);
    4058:	97fffdde 	bl	37d0 <shellShowVar>
    405c:	52800014 	mov	w20, #0x0                   	// #0
    4060:	3942c262 	ldrb	w2, [x19, #176]
}
    4064:	2a1403e0 	mov	w0, w20
    shell->status.isActive = 0;
    4068:	121e7842 	and	w2, w2, #0xfffffffd
    406c:	3902c262 	strb	w2, [x19, #176]
}
    4070:	a94153f3 	ldp	x19, x20, [sp, #16]
    4074:	a9425bf5 	ldp	x21, x22, [sp, #32]
    4078:	a8c37bfd 	ldp	x29, x30, [sp], #48
    407c:	d65f03c0 	ret
        returnValue = shellExtRun(shell,
    4080:	7940d402 	ldrh	w2, [x0, #106]
    4084:	9100a003 	add	x3, x0, #0x28
    4088:	94000526 	bl	5520 <shellExtRun>
        if (!command->attr.attrs.disableReturn) {
    408c:	b94002a1 	ldr	w1, [x21]
    4090:	376ffd21 	tbnz	w1, #13, 4034 <shellRunCommand+0xf4>
            shellWriteReturnValue(shell, returnValue);
    4094:	2a0003e1 	mov	w1, w0
    return returnValue;
    4098:	2a0003f4 	mov	w20, w0
            shellWriteReturnValue(shell, returnValue);
    409c:	aa1303e0 	mov	x0, x19
    40a0:	97fff908 	bl	24c0 <shellWriteReturnValue>
    40a4:	3942c262 	ldrb	w2, [x19, #176]
}
    40a8:	2a1403e0 	mov	w0, w20
    shell->status.isActive = 0;
    40ac:	121e7842 	and	w2, w2, #0xfffffffd
    40b0:	3902c262 	strb	w2, [x19, #176]
}
    40b4:	a94153f3 	ldp	x19, x20, [sp, #16]
    40b8:	a9425bf5 	ldp	x21, x22, [sp, #32]
    40bc:	a8c37bfd 	ldp	x29, x30, [sp], #48
    40c0:	d65f03c0 	ret
        shellSetUser(shell, command);
    40c4:	97ffff2f 	bl	3d80 <shellSetUser>
    40c8:	3942c262 	ldrb	w2, [x19, #176]
    40cc:	17ffffb4 	b	3f9c <shellRunCommand+0x5c>
    for (unsigned short i = 0; i < shell->parser.paramCount; i++) {
    40d0:	52800000 	mov	w0, #0x0                   	// #0
    40d4:	17ffffd3 	b	4020 <shellRunCommand+0xe0>
    40d8:	d503201f 	nop
    40dc:	d503201f 	nop

00000000000040e0 <shellNormalInput>:
    shell->status.tabFlag = 0;
    40e0:	3942c003 	ldrb	w3, [x0, #176]
    40e4:	121d7863 	and	w3, w3, #0xfffffffb
    40e8:	3902c003 	strb	w3, [x0, #176]
    shellInsertByte(shell, data);
    40ec:	17fffb99 	b	2f50 <shellInsertByte>

00000000000040f0 <shellExec>:
{
    40f0:	a9bd7bfd 	stp	x29, x30, [sp, #-48]!
    40f4:	910003fd 	mov	x29, sp
    40f8:	a90153f3 	stp	x19, x20, [sp, #16]
    40fc:	aa0003f3 	mov	x19, x0
    if (shell->parser.length == 0) {
    4100:	79403000 	ldrh	w0, [x0, #24]
    4104:	340001e0 	cbz	w0, 4140 <shellExec+0x50>
    shell->parser.buffer[shell->parser.length] = 0;
    4108:	f9401261 	ldr	x1, [x19, #32]
    410c:	92403c00 	and	x0, x0, #0xffff
    4110:	3820683f 	strb	wzr, [x1, x0]
    if (shell->status.isChecked) {
    4114:	3942c260 	ldrb	w0, [x19, #176]
    4118:	370001a0 	tbnz	w0, #0, 414c <shellExec+0x5c>
    if (strcmp(shell->parser.buffer, shell->info.user->data.user.password) == 0) {
    411c:	f9400261 	ldr	x1, [x19]
    4120:	f9401260 	ldr	x0, [x19, #32]
    4124:	f9400821 	ldr	x1, [x1, #16]
    4128:	94000ea6 	bl	7bc0 <strcmp>
    412c:	35000b80 	cbnz	w0, 429c <shellExec+0x1ac>
        shell->status.isChecked = 1;
    4130:	3942c260 	ldrb	w0, [x19, #176]
    4134:	32000000 	orr	w0, w0, #0x1
    4138:	3902c260 	strb	w0, [x19, #176]
    shell->parser.length = 0;
    413c:	b9001a7f 	str	wzr, [x19, #24]
}
    4140:	a94153f3 	ldp	x19, x20, [sp, #16]
    4144:	a8c37bfd 	ldp	x29, x30, [sp], #48
    4148:	d65f03c0 	ret
    if (shell->history.number > 0
    414c:	79413260 	ldrh	w0, [x19, #152]
    shell->history.offset = 0;
    4150:	79013a7f 	strh	wzr, [x19, #156]
    if (shell->history.number > 0
    4154:	34000600 	cbz	w0, 4214 <shellExec+0x124>
        && strcmp(shell->history.item[(shell->history.record == 0 ? SHELL_HISTORY_MAX_NUMBER : shell->history.record) - 1],
    4158:	79413660 	ldrh	w0, [x19, #154]
    415c:	52800082 	mov	w2, #0x4                   	// #4
    4160:	f9401261 	ldr	x1, [x19, #32]
    4164:	7100001f 	cmp	w0, #0x0
    4168:	51000400 	sub	w0, w0, #0x1
    416c:	1a821000 	csel	w0, w0, w2, ne  // ne = any
    4170:	8b20ce60 	add	x0, x19, w0, sxtw #3
    4174:	f9403800 	ldr	x0, [x0, #112]
    4178:	94000e92 	bl	7bc0 <strcmp>
    417c:	350004c0 	cbnz	w0, 4214 <shellExec+0x124>
    shell->parser.paramCount = shellSplit(shell->parser.buffer, shell->parser.length,
    4180:	79403261 	ldrh	w1, [x19, #24]
        shell->parser.param, ' ', SHELL_PARAMETER_MAX_NUMBER);
    4184:	9100a274 	add	x20, x19, #0x28
    shell->parser.paramCount = shellSplit(shell->parser.buffer, shell->parser.length,
    4188:	f9401260 	ldr	x0, [x19, #32]
    418c:	aa1403e2 	mov	x2, x20
    4190:	52800104 	mov	w4, #0x8                   	// #8
    4194:	52800403 	mov	w3, #0x20                  	// #32
    4198:	97fffc9e 	bl	3410 <shellSplit>
    419c:	12003c00 	and	w0, w0, #0xffff
        shell->parser.length = shell->parser.cursor = 0;
    41a0:	b9001a7f 	str	wzr, [x19, #24]
    shell->parser.paramCount = shellSplit(shell->parser.buffer, shell->parser.length,
    41a4:	7900d660 	strh	w0, [x19, #106]
        if (shell->parser.paramCount == 0) {
    41a8:	34fffcc0 	cbz	w0, 4140 <shellExec+0x50>
    SHELL_ASSERT(shell->write, return 0);
    41ac:	f9406263 	ldr	x3, [x19, #192]
    41b0:	b40001c3 	cbz	x3, 41e8 <shellExec+0xf8>
    while (*p++) {
    41b4:	f0000040 	adrp	x0, f000 <_fstat_r+0x40>
    41b8:	91356400 	add	x0, x0, #0xd59
    41bc:	52800142 	mov	w2, #0xa                   	// #10
    unsigned short count = 0;
    41c0:	52800001 	mov	w1, #0x0                   	// #0
    41c4:	14000002 	b	41cc <shellExec+0xdc>
    while (*p++) {
    41c8:	39400002 	ldrb	w2, [x0]
        count++;
    41cc:	11000421 	add	w1, w1, #0x1
    while (*p++) {
    41d0:	91000400 	add	x0, x0, #0x1
        count++;
    41d4:	12003c21 	and	w1, w1, #0xffff
    while (*p++) {
    41d8:	35ffff82 	cbnz	w2, 41c8 <shellExec+0xd8>
    return shell->write((char*)string, count);
    41dc:	f0000040 	adrp	x0, f000 <_fstat_r+0x40>
    41e0:	91356000 	add	x0, x0, #0xd58
    41e4:	d63f0060 	blr	x3
        ShellCommand* command = shellSeekCommand(shell,
    41e8:	f9401661 	ldr	x1, [x19, #40]
    41ec:	aa1303e0 	mov	x0, x19
    41f0:	f9405262 	ldr	x2, [x19, #160]
    41f4:	52800003 	mov	w3, #0x0                   	// #0
    41f8:	97fffcf2 	bl	35c0 <shellSeekCommand>
    41fc:	aa0003e1 	mov	x1, x0
        if (command != NULL) {
    4200:	b4000700 	cbz	x0, 42e0 <shellExec+0x1f0>
            shellRunCommand(shell, command);
    4204:	aa1303e0 	mov	x0, x19
}
    4208:	a94153f3 	ldp	x19, x20, [sp, #16]
    420c:	a8c37bfd 	ldp	x29, x30, [sp], #48
            shellRunCommand(shell, command);
    4210:	17ffff4c 	b	3f40 <shellRunCommand>
