
test_ipc_null:     file format elf64-littleaarch64


Disassembly of section .text:

0000000000000000 <main>:
}

// client thread
int server_thread(int argc, char** argv);
int main(int argc, char** argv)
{
       0:	a9ba7bfd 	stp	x29, x30, [sp, #-96]!
       4:	910003fd 	mov	x29, sp
       8:	a90153f3 	stp	x19, x20, [sp, #16]
       c:	f0000053 	adrp	x19, b000 <pow10.0+0x80>
      10:	91242273 	add	x19, x19, #0x908
    struct Session session;
    bool server_enabled = false;
      14:	52800014 	mov	w20, #0x0                   	// #0
{
      18:	f90013f5 	str	x21, [sp, #32]
    while (connect_session(&session, test_null_server_name, 4096) < 0) {
        if (!server_enabled) {
            char* server_param[] = { test_null_server_name, NULL };
            if (thread(server_thread, test_null_server_name, server_param) >= 0) {
      1c:	90000000 	adrp	x0, 0 <main>
      20:	910c4015 	add	x21, x0, #0x310
    while (connect_session(&session, test_null_server_name, 4096) < 0) {
      24:	14000002 	b	2c <main+0x2c>
        if (!server_enabled) {
      28:	340003b4 	cbz	w20, 9c <main+0x9c>
    while (connect_session(&session, test_null_server_name, 4096) < 0) {
      2c:	aa1303e1 	mov	x1, x19
      30:	910123e0 	add	x0, sp, #0x48
      34:	52820002 	mov	w2, #0x1000                	// #4096
      38:	94000ac6 	bl	2b50 <connect_session>
      3c:	37ffff60 	tbnz	w0, #31, 28 <main+0x28>
                server_enabled = true;
            }
        }
    }

    printf("[%s] Call using NULL ptr.\n", test_null_client_name);
      40:	91204273 	add	x19, x19, #0x810
      44:	d0000040 	adrp	x0, a000 <__swbuf_r+0xb0>
      48:	aa1303e1 	mov	x1, x19
      4c:	9138c000 	add	x0, x0, #0xe30
      50:	94000798 	bl	1eb0 <printf>
    return IPC_CALL(Ipc_test_null)(session, ptr);
      54:	910123e0 	add	x0, sp, #0x48
      58:	d2800001 	mov	x1, #0x0                   	// #0
      5c:	94000075 	bl	230 <ipc_call_copy_args_Ipc_test_null>
    test_null(&session, NULL);
    printf("[%s] Call using non-NULL ptr.\n", test_null_client_name);
      60:	aa1303e1 	mov	x1, x19
      64:	d0000040 	adrp	x0, a000 <__swbuf_r+0xb0>
      68:	91394000 	add	x0, x0, #0xe50
      6c:	94000791 	bl	1eb0 <printf>
    return IPC_CALL(Ipc_test_null)(session, ptr);
      70:	b0000061 	adrp	x1, d000 <__malloc_av_+0x780>
      74:	910aa021 	add	x1, x1, #0x2a8
      78:	910123e0 	add	x0, sp, #0x48
      7c:	9400006d 	bl	230 <ipc_call_copy_args_Ipc_test_null>
    test_null(&session, buf);

    exit(0);
      80:	52800000 	mov	w0, #0x0                   	// #0
      84:	94000887 	bl	22a0 <exit>
    return 0;
}
      88:	52800000 	mov	w0, #0x0                   	// #0
      8c:	a94153f3 	ldp	x19, x20, [sp, #16]
      90:	f94013f5 	ldr	x21, [sp, #32]
      94:	a8c67bfd 	ldp	x29, x30, [sp], #96
      98:	d65f03c0 	ret
            if (thread(server_thread, test_null_server_name, server_param) >= 0) {
      9c:	9100e3e2 	add	x2, sp, #0x38
      a0:	aa1303e1 	mov	x1, x19
      a4:	aa1503e0 	mov	x0, x21
            char* server_param[] = { test_null_server_name, NULL };
      a8:	a903fff3 	stp	x19, xzr, [sp, #56]
            if (thread(server_thread, test_null_server_name, server_param) >= 0) {
      ac:	94000875 	bl	2280 <thread>
      b0:	2a2003f4 	mvn	w20, w0
      b4:	531f7e94 	lsr	w20, w20, #31
      b8:	17ffffdd 	b	2c <main+0x2c>
      bc:	d503201f 	nop

00000000000000c0 <deregister_tm_clones>:
      c0:	b0000060 	adrp	x0, d000 <__malloc_av_+0x780>
      c4:	9109c000 	add	x0, x0, #0x270
      c8:	b0000061 	adrp	x1, d000 <__malloc_av_+0x780>
      cc:	9109c021 	add	x1, x1, #0x270
      d0:	eb00003f 	cmp	x1, x0
      d4:	540000c0 	b.eq	ec <deregister_tm_clones+0x2c>  // b.none
      d8:	d0000041 	adrp	x1, a000 <__swbuf_r+0xb0>
      dc:	f9469421 	ldr	x1, [x1, #3368]
      e0:	b4000061 	cbz	x1, ec <deregister_tm_clones+0x2c>
      e4:	aa0103f0 	mov	x16, x1
      e8:	d61f0200 	br	x16
      ec:	d65f03c0 	ret

00000000000000f0 <register_tm_clones>:
      f0:	b0000060 	adrp	x0, d000 <__malloc_av_+0x780>
      f4:	9109c000 	add	x0, x0, #0x270
      f8:	b0000061 	adrp	x1, d000 <__malloc_av_+0x780>
      fc:	9109c021 	add	x1, x1, #0x270
     100:	cb000021 	sub	x1, x1, x0
     104:	d37ffc22 	lsr	x2, x1, #63
     108:	8b810c41 	add	x1, x2, x1, asr #3
     10c:	9341fc21 	asr	x1, x1, #1
     110:	b40000c1 	cbz	x1, 128 <register_tm_clones+0x38>
     114:	d0000042 	adrp	x2, a000 <__swbuf_r+0xb0>
     118:	f9469842 	ldr	x2, [x2, #3376]
     11c:	b4000062 	cbz	x2, 128 <register_tm_clones+0x38>
     120:	aa0203f0 	mov	x16, x2
     124:	d61f0200 	br	x16
     128:	d65f03c0 	ret
     12c:	d503201f 	nop

0000000000000130 <__do_global_dtors_aux>:
     130:	a9be7bfd 	stp	x29, x30, [sp, #-32]!
     134:	910003fd 	mov	x29, sp
     138:	f9000bf3 	str	x19, [sp, #16]
     13c:	b0000073 	adrp	x19, d000 <__malloc_av_+0x780>
     140:	3949c260 	ldrb	w0, [x19, #624]
     144:	35000140 	cbnz	w0, 16c <__do_global_dtors_aux+0x3c>
     148:	97ffffde 	bl	c0 <deregister_tm_clones>
     14c:	d0000040 	adrp	x0, a000 <__swbuf_r+0xb0>
     150:	f9469c00 	ldr	x0, [x0, #3384]
     154:	b4000080 	cbz	x0, 164 <__do_global_dtors_aux+0x34>
     158:	f0000040 	adrp	x0, b000 <pow10.0+0x80>
     15c:	9123b000 	add	x0, x0, #0x8ec
     160:	d503201f 	nop
     164:	52800020 	mov	w0, #0x1                   	// #1
     168:	3909c260 	strb	w0, [x19, #624]
     16c:	f9400bf3 	ldr	x19, [sp, #16]
     170:	a8c27bfd 	ldp	x29, x30, [sp], #32
     174:	d65f03c0 	ret
     178:	d503201f 	nop
     17c:	d503201f 	nop

0000000000000180 <frame_dummy>:
     180:	d0000040 	adrp	x0, a000 <__swbuf_r+0xb0>
     184:	f946a000 	ldr	x0, [x0, #3392]
     188:	b4000140 	cbz	x0, 1b0 <frame_dummy+0x30>
     18c:	a9bf7bfd 	stp	x29, x30, [sp, #-16]!
     190:	b0000061 	adrp	x1, d000 <__malloc_av_+0x780>
     194:	f0000040 	adrp	x0, b000 <pow10.0+0x80>
     198:	910003fd 	mov	x29, sp
     19c:	9109e021 	add	x1, x1, #0x278
     1a0:	9123b000 	add	x0, x0, #0x8ec
     1a4:	d503201f 	nop
     1a8:	a8c17bfd 	ldp	x29, x30, [sp], #16
     1ac:	17ffffd1 	b	f0 <register_tm_clones>
     1b0:	17ffffd0 	b	f0 <register_tm_clones>
     1b4:	d503201f 	nop

00000000000001b8 <_mainCRTStartup>:
     1b8:	58000281 	ldr	x1, 208 <_cpu_init_hook+0x4>
     1bc:	927cec20 	and	x0, x1, #0xfffffffffffffff0
     1c0:	9100001f 	mov	sp, x0
     1c4:	d280001d 	mov	x29, #0x0                   	// #0
     1c8:	a9bf77fd 	stp	x29, x29, [sp, #-16]!
     1cc:	910003fd 	mov	x29, sp
     1d0:	9400000d 	bl	204 <_cpu_init_hook>
     1d4:	580001e0 	ldr	x0, 210 <_cpu_init_hook+0xc>
     1d8:	52800001 	mov	w1, #0x0                   	// #0
     1dc:	580001e2 	ldr	x2, 218 <_cpu_init_hook+0x14>
     1e0:	cb000042 	sub	x2, x2, x0
     1e4:	94000e37 	bl	3ac0 <memset>
     1e8:	580001c0 	ldr	x0, 220 <_cpu_init_hook+0x1c>
     1ec:	94000b0d 	bl	2e20 <atexit>
     1f0:	94000b68 	bl	2f90 <__libc_init_array>
     1f4:	d2800000 	mov	x0, #0x0                   	// #0
     1f8:	d2800001 	mov	x1, #0x0                   	// #0
     1fc:	97ffff81 	bl	0 <main>
     200:	14000828 	b	22a0 <exit>

0000000000000204 <_cpu_init_hook>:
     204:	d65f03c0 	ret
	...
     210:	0000d270 	.word	0x0000d270
     214:	00000000 	.word	0x00000000
     218:	0000d5e8 	.word	0x0000d5e8
     21c:	00000000 	.word	0x00000000
     220:	00002e40 	.word	0x00002e40
     224:	00000000 	.word	0x00000000
     228:	d503201f 	.word	0xd503201f
     22c:	d503201f 	.word	0xd503201f

0000000000000230 <ipc_call_copy_args_Ipc_test_null>:
IPC_INTERFACE(Ipc_test_null, 1, ptr, sizeof(buf));
     230:	b40005c0 	cbz	x0, 2e8 <ipc_call_copy_args_Ipc_test_null+0xb8>
     234:	a9bc7bfd 	stp	x29, x30, [sp, #-64]!
     238:	910003fd 	mov	x29, sp
     23c:	9100e3e2 	add	x2, sp, #0x38
     240:	a90153f3 	stp	x19, x20, [sp, #16]
     244:	aa0003f4 	mov	x20, x0
     248:	a9025bf5 	stp	x21, x22, [sp, #32]
     24c:	aa0103f5 	mov	x21, x1
     250:	52800416 	mov	w22, #0x20                  	// #32
     254:	52800021 	mov	w1, #0x1                   	// #1
     258:	b9003bf6 	str	w22, [sp, #56]
     25c:	940008c5 	bl	2570 <new_ipc_msg>
     260:	aa0003f3 	mov	x19, x0
     264:	2a1603e3 	mov	w3, w22
     268:	aa1503e2 	mov	x2, x21
     26c:	52800001 	mov	w1, #0x0                   	// #0
     270:	94000900 	bl	2670 <ipc_msg_set_nth_arg>
__attribute__((__always_inline__)) static inline bool ipc_msg_set_opcode(struct IpcMsg* msg, int opcode)
{
    if (opcode < 0 || opcode > UINT8_MAX) {
        return false;
    }
    msg->header.opcode = opcode;
     274:	52800021 	mov	w1, #0x1                   	// #1
     278:	39000661 	strb	w1, [x19, #1]
     27c:	aa1303e0 	mov	x0, x19
     280:	9400096c 	bl	2830 <ipc_msg_send_wait>
     284:	2a1603e3 	mov	w3, w22
     288:	aa1503e2 	mov	x2, x21
     28c:	aa1303e0 	mov	x0, x19
     290:	52800001 	mov	w1, #0x0                   	// #0
     294:	9400092f 	bl	2750 <ipc_msg_get_nth_arg>
     298:	b9003bff 	str	wzr, [sp, #56]
    assert(msg->header.done == 1);
     29c:	39400260 	ldrb	w0, [x19]
     2a0:	36080280 	tbz	w0, #1, 2f0 <ipc_call_copy_args_Ipc_test_null+0xc0>
    memcpy(ret_val, &msg->header.ret_val, sizeof(msg->header.ret_val));
     2a4:	91002261 	add	x1, x19, #0x8
     2a8:	d2800082 	mov	x2, #0x4                   	// #4
     2ac:	9100e3e0 	add	x0, sp, #0x38
     2b0:	94000d74 	bl	3880 <memcpy>
/// @brief delete first msg in session
/// @param session
/// @return
__attribute__((__always_inline__)) static inline bool ipc_session_forward(struct Session* session)
{
    struct IpcMsg* msg = IPCSESSION_MSG(session);
     2b4:	b9800a80 	ldrsw	x0, [x20, #8]
     2b8:	f9400a81 	ldr	x1, [x20, #16]
     2bc:	8b000022 	add	x2, x1, x0
    if (msg->header.init != 1) {
     2c0:	38606820 	ldrb	w0, [x1, x0]
     2c4:	36100080 	tbz	w0, #2, 2d4 <ipc_call_copy_args_Ipc_test_null+0xa4>
        return false;
    }
    return session_free_buf(session, msg->header.len);
     2c8:	79400441 	ldrh	w1, [x2, #2]
     2cc:	aa1403e0 	mov	x0, x20
     2d0:	94000a64 	bl	2c60 <session_free_buf>
     2d4:	b9403be0 	ldr	w0, [sp, #56]
     2d8:	a94153f3 	ldp	x19, x20, [sp, #16]
     2dc:	a9425bf5 	ldp	x21, x22, [sp, #32]
     2e0:	a8c47bfd 	ldp	x29, x30, [sp], #64
     2e4:	d65f03c0 	ret
     2e8:	12800000 	mov	w0, #0xffffffff            	// #-1
     2ec:	d65f03c0 	ret
    assert(msg->header.done == 1);
     2f0:	d0000043 	adrp	x3, a000 <__swbuf_r+0xb0>
     2f4:	d0000042 	adrp	x2, a000 <__swbuf_r+0xb0>
     2f8:	d0000040 	adrp	x0, a000 <__swbuf_r+0xb0>
     2fc:	91352063 	add	x3, x3, #0xd48
     300:	9139c042 	add	x2, x2, #0xe70
     304:	91358000 	add	x0, x0, #0xd60
     308:	52800fc1 	mov	w1, #0x7e                  	// #126
     30c:	94000aa5 	bl	2da0 <__assert_func>

0000000000000310 <server_thread>:
IPC_SERVER_INTERFACE(Ipc_test_null, 1);
IPC_SERVER_REGISTER_INTERFACES(IpcTestNull, 1, Ipc_test_null);

// server threads
int server_thread(int argc, char** argv)
{
     310:	a9be7bfd 	stp	x29, x30, [sp, #-32]!
     314:	910003fd 	mov	x29, sp
     318:	f9000bf3 	str	x19, [sp, #16]
    if (register_server(test_null_server_name) < 0) {
     31c:	f0000053 	adrp	x19, b000 <pow10.0+0x80>
     320:	91242273 	add	x19, x19, #0x908
     324:	aa1303e0 	mov	x0, x19
     328:	940007f6 	bl	2300 <register_server>
     32c:	37f80120 	tbnz	w0, #31, 350 <server_thread+0x40>
        printf("[%s] Register %s server failed.\n", test_null_server_name, test_null_server_name);
        exit(1);
        return 1;
    }
    ipc_server_loop(&IpcTestNull);
     330:	91004260 	add	x0, x19, #0x10
     334:	9400097f 	bl	2930 <ipc_server_loop>

    exit(0);
     338:	52800000 	mov	w0, #0x0                   	// #0
     33c:	940007d9 	bl	22a0 <exit>
    return 0;
     340:	52800000 	mov	w0, #0x0                   	// #0
}
     344:	f9400bf3 	ldr	x19, [sp, #16]
     348:	a8c27bfd 	ldp	x29, x30, [sp], #32
     34c:	d65f03c0 	ret
        printf("[%s] Register %s server failed.\n", test_null_server_name, test_null_server_name);
     350:	aa1303e2 	mov	x2, x19
     354:	aa1303e1 	mov	x1, x19
     358:	d0000040 	adrp	x0, a000 <__swbuf_r+0xb0>
     35c:	9136c000 	add	x0, x0, #0xdb0
     360:	940006d4 	bl	1eb0 <printf>
        exit(1);
     364:	52800020 	mov	w0, #0x1                   	// #1
     368:	940007ce 	bl	22a0 <exit>
     36c:	52800020 	mov	w0, #0x1                   	// #1
}
     370:	f9400bf3 	ldr	x19, [sp, #16]
     374:	a8c27bfd 	ldp	x29, x30, [sp], #32
     378:	d65f03c0 	ret
     37c:	d503201f 	nop

0000000000000380 <ipc_serve_Ipc_test_null>:
IPC_SERVER_INTERFACE(Ipc_test_null, 1);
     380:	a9bd7bfd 	stp	x29, x30, [sp, #-48]!
        printf("[%s]: A NULL ptr ipc call.\n", test_null_server_name);
     384:	f0000041 	adrp	x1, b000 <pow10.0+0x80>
IPC_SERVER_INTERFACE(Ipc_test_null, 1);
     388:	910003fd 	mov	x29, sp
     38c:	f9000bf3 	str	x19, [sp, #16]
     390:	aa0003f3 	mov	x19, x0
    if (IPCMSG_ARG_INFO(msg, arg_num)->null_ptr == 1) {
     394:	39404000 	ldrb	w0, [x0, #16]
     398:	370002c0 	tbnz	w0, #0, 3f0 <ipc_serve_Ipc_test_null+0x70>
        printf("[%s]: A non-NULL ptr ipc call.\n", test_null_server_name);
     39c:	d0000040 	adrp	x0, a000 <__swbuf_r+0xb0>
     3a0:	91242021 	add	x1, x1, #0x908
     3a4:	9137e000 	add	x0, x0, #0xdf8
     3a8:	940006c2 	bl	1eb0 <printf>
IPC_SERVER_INTERFACE(Ipc_test_null, 1);
     3ac:	b9002fff 	str	wzr, [sp, #44]
     3b0:	94000954 	bl	2900 <is_cur_session_delayed>
     3b4:	72001c1f 	tst	w0, #0xff
     3b8:	54000141 	b.ne	3e0 <ipc_serve_Ipc_test_null+0x60>  // b.any
    assert(msg->header.valid == 1);
     3bc:	39400260 	ldrb	w0, [x19]
     3c0:	36000220 	tbz	w0, #0, 404 <ipc_serve_Ipc_test_null+0x84>
    memcpy(&msg->header.ret_val, ret_val, sizeof(msg->header.ret_val));
     3c4:	9100b3e1 	add	x1, sp, #0x2c
     3c8:	91002260 	add	x0, x19, #0x8
     3cc:	d2800082 	mov	x2, #0x4                   	// #4
     3d0:	94000d2c 	bl	3880 <memcpy>
     3d4:	39400260 	ldrb	w0, [x19]
     3d8:	321f0000 	orr	w0, w0, #0x2
     3dc:	39000260 	strb	w0, [x19]
     3e0:	52800000 	mov	w0, #0x0                   	// #0
     3e4:	f9400bf3 	ldr	x19, [sp, #16]
     3e8:	a8c37bfd 	ldp	x29, x30, [sp], #48
     3ec:	d65f03c0 	ret
        printf("[%s]: A NULL ptr ipc call.\n", test_null_server_name);
     3f0:	91242021 	add	x1, x1, #0x908
     3f4:	d0000040 	adrp	x0, a000 <__swbuf_r+0xb0>
     3f8:	91376000 	add	x0, x0, #0xdd8
     3fc:	940006ad 	bl	1eb0 <printf>
     400:	17ffffeb 	b	3ac <ipc_serve_Ipc_test_null+0x2c>
    assert(msg->header.valid == 1);
     404:	d0000042 	adrp	x2, a000 <__swbuf_r+0xb0>
     408:	9139c042 	add	x2, x2, #0xe70
     40c:	d0000043 	adrp	x3, a000 <__swbuf_r+0xb0>
     410:	d0000040 	adrp	x0, a000 <__swbuf_r+0xb0>
     414:	91006042 	add	x2, x2, #0x18
     418:	91386063 	add	x3, x3, #0xe18
     41c:	91358000 	add	x0, x0, #0xd60
     420:	52801101 	mov	w1, #0x88                  	// #136
     424:	94000a5f 	bl	2da0 <__assert_func>
     428:	d503201f 	nop
     42c:	d503201f 	nop

0000000000000430 <test_null>:
    return IPC_CALL(Ipc_test_null)(session, ptr);
     430:	17ffff80 	b	230 <ipc_call_copy_args_Ipc_test_null>
     434:	d503201f 	nop
     438:	d503201f 	nop
     43c:	d503201f 	nop

0000000000000440 <ipc_do_serve_Ipc_test_null>:
{
     440:	a9bf7bfd 	stp	x29, x30, [sp, #-16]!
        printf("[%s]: A NULL ptr ipc call.\n", test_null_server_name);
     444:	f0000041 	adrp	x1, b000 <pow10.0+0x80>
{
     448:	910003fd 	mov	x29, sp
    if (ptr == NULL) {
     44c:	b4000100 	cbz	x0, 46c <ipc_do_serve_Ipc_test_null+0x2c>
        printf("[%s]: A non-NULL ptr ipc call.\n", test_null_server_name);
     450:	91242021 	add	x1, x1, #0x908
     454:	d0000040 	adrp	x0, a000 <__swbuf_r+0xb0>
     458:	9137e000 	add	x0, x0, #0xdf8
     45c:	94000695 	bl	1eb0 <printf>
}
     460:	52800000 	mov	w0, #0x0                   	// #0
     464:	a8c17bfd 	ldp	x29, x30, [sp], #16
     468:	d65f03c0 	ret
        printf("[%s]: A NULL ptr ipc call.\n", test_null_server_name);
     46c:	91242021 	add	x1, x1, #0x908
     470:	d0000040 	adrp	x0, a000 <__swbuf_r+0xb0>
     474:	91376000 	add	x0, x0, #0xdd8
     478:	9400068e 	bl	1eb0 <printf>
}
     47c:	52800000 	mov	w0, #0x0                   	// #0
     480:	a8c17bfd 	ldp	x29, x30, [sp], #16
     484:	d65f03c0 	ret
     488:	d503201f 	nop
     48c:	d503201f 	nop

0000000000000490 <init_uart_mmio>:
#ifndef CONFIG_SYS_NS16550_CLK
#define CONFIG_SYS_NS16550_CLK 0
#endif

bool init_uart_mmio()
{
     490:	a9be7bfd 	stp	x29, x30, [sp, #-32]!
        if (-1 == mmap(UART_ADDR, UART_ADDR, 4096, true)) {
            return false;
        }
        mapped = 1;
    }
    return true;
     494:	52800020 	mov	w0, #0x1                   	// #1
{
     498:	910003fd 	mov	x29, sp
     49c:	f9000bf3 	str	x19, [sp, #16]
    if (mapped == 0) {
     4a0:	b0000073 	adrp	x19, d000 <__malloc_av_+0x780>
     4a4:	b942ca61 	ldr	w1, [x19, #712]
     4a8:	34000081 	cbz	w1, 4b8 <init_uart_mmio+0x28>
}
     4ac:	f9400bf3 	ldr	x19, [sp, #16]
     4b0:	a8c27bfd 	ldp	x29, x30, [sp], #32
     4b4:	d65f03c0 	ret
        if (-1 == mmap(UART_ADDR, UART_ADDR, 4096, true)) {
     4b8:	2a0003e3 	mov	w3, w0
     4bc:	d2bfccc1 	mov	x1, #0xfe660000            	// #4268097536
     4c0:	52820002 	mov	w2, #0x1000                	// #4096
     4c4:	aa0103e0 	mov	x0, x1
     4c8:	940007de 	bl	2440 <mmap>
     4cc:	3100041f 	cmn	w0, #0x1
            return false;
     4d0:	52800000 	mov	w0, #0x0                   	// #0
        if (-1 == mmap(UART_ADDR, UART_ADDR, 4096, true)) {
     4d4:	54fffec0 	b.eq	4ac <init_uart_mmio+0x1c>  // b.none
        mapped = 1;
     4d8:	52800021 	mov	w1, #0x1                   	// #1
    return true;
     4dc:	2a0103e0 	mov	w0, w1
        mapped = 1;
     4e0:	b902ca61 	str	w1, [x19, #712]
}
     4e4:	f9400bf3 	ldr	x19, [sp, #16]
     4e8:	a8c27bfd 	ldp	x29, x30, [sp], #32
     4ec:	d65f03c0 	ret

00000000000004f0 <putc>:

void putc(char ch)
{
     4f0:	12001c00 	and	w0, w0, #0xff
    static struct NS16550* com_port = (struct NS16550*)UART_ADDR;

    if (ch == '\n') {
     4f4:	7100281f 	cmp	w0, #0xa
     4f8:	540000c0 	b.eq	510 <putc+0x20>  // b.none
    return in_le32(addr);
     4fc:	d2bfccc2 	mov	x2, #0xfe660000            	// #4268097536
     500:	b9401441 	ldr	w1, [x2, #20]
        putc('\r');
    }

    while (!(serial_din(&com_port->lsr) & UART_LSR_THRE))
     504:	362fffe1 	tbz	w1, #5, 500 <putc+0x10>
    out_le32(addr, value);
     508:	b9000040 	str	w0, [x2]
        ;
    serial_dout(&com_port->thr, ch);
}
     50c:	d65f03c0 	ret
    return in_le32(addr);
     510:	d2bfccc2 	mov	x2, #0xfe660000            	// #4268097536
     514:	d503201f 	nop
     518:	b9401441 	ldr	w1, [x2, #20]
    while (!(serial_din(&com_port->lsr) & UART_LSR_THRE))
     51c:	362fffe1 	tbz	w1, #5, 518 <putc+0x28>
    out_le32(addr, value);
     520:	528001a1 	mov	w1, #0xd                   	// #13
     524:	b9000041 	str	w1, [x2]
}
     528:	17fffff5 	b	4fc <putc+0xc>
     52c:	d503201f 	nop

0000000000000530 <getc>:
    return in_le32(addr);
     530:	d2bfccc1 	mov	x1, #0xfe660000            	// #4268097536
     534:	d503201f 	nop
     538:	b9401420 	ldr	w0, [x1, #20]

char getc(void)
{
    static struct NS16550* com_port = (struct NS16550*)UART_ADDR;

    while (!(serial_din(&com_port->lsr) & UART_LSR_DR))
     53c:	3607ffe0 	tbz	w0, #0, 538 <getc+0x8>
    return in_le32(addr);
     540:	b9400020 	ldr	w0, [x1]
        ;

    return serial_din(&com_port->rbr);
     544:	d65f03c0 	ret
     548:	d503201f 	nop
     54c:	d503201f 	nop

0000000000000550 <_out_buffer>:
} out_fct_wrap_type;

// internal buffer output
static inline void _out_buffer(char character, void* buffer, size_t idx, size_t maxlen)
{
    if (idx < maxlen) {
     550:	eb03005f 	cmp	x2, x3
{
     554:	12001c00 	and	w0, w0, #0xff
    if (idx < maxlen) {
     558:	54000042 	b.cs	560 <_out_buffer+0x10>  // b.hs, b.nlast
        ((char*)buffer)[idx] = character;
     55c:	38226820 	strb	w0, [x1, x2]
    }
}
     560:	d65f03c0 	ret
     564:	d503201f 	nop
     568:	d503201f 	nop
     56c:	d503201f 	nop

0000000000000570 <_out_null>:
{
    (void)character;
    (void)buffer;
    (void)idx;
    (void)maxlen;
}
     570:	d65f03c0 	ret
     574:	d503201f 	nop
     578:	d503201f 	nop
     57c:	d503201f 	nop

0000000000000580 <_out_rev>:
    return i;
}

// output the specified string in reverse, taking care of any zero-padding
static size_t _out_rev(out_fct_type out, char* buffer, size_t idx, size_t maxlen, const char* buf, size_t len, unsigned int width, unsigned int flags)
{
     580:	a9ba7bfd 	stp	x29, x30, [sp, #-96]!
     584:	910003fd 	mov	x29, sp
     588:	a90153f3 	stp	x19, x20, [sp, #16]
     58c:	aa0503f3 	mov	x19, x5
     590:	aa0203f4 	mov	x20, x2
     594:	a9025bf5 	stp	x21, x22, [sp, #32]
     598:	aa0003f5 	mov	x21, x0
     59c:	aa0103f6 	mov	x22, x1
     5a0:	a90363f7 	stp	x23, x24, [sp, #48]
     5a4:	aa0203f7 	mov	x23, x2
     5a8:	aa0403f8 	mov	x24, x4
     5ac:	a9046bf9 	stp	x25, x26, [sp, #64]
     5b0:	2a0703fa 	mov	w26, w7
     5b4:	2a0603f9 	mov	w25, w6
     5b8:	a90573fb 	stp	x27, x28, [sp, #80]
    const size_t start_idx = idx;

    // pad spaces up to given width
    if (!(flags & FLAGS_LEFT) && !(flags & FLAGS_ZEROPAD)) {
     5bc:	f240075f 	tst	x26, #0x3
{
     5c0:	aa0303fb 	mov	x27, x3
    if (!(flags & FLAGS_LEFT) && !(flags & FLAGS_ZEROPAD)) {
     5c4:	540001e1 	b.ne	600 <_out_rev+0x80>  // b.any
        for (size_t i = len; i < width; i++) {
     5c8:	2a0603e0 	mov	w0, w6
     5cc:	aa0203fc 	mov	x28, x2
     5d0:	cb050014 	sub	x20, x0, x5
     5d4:	eb0000bf 	cmp	x5, x0
     5d8:	8b020294 	add	x20, x20, x2
     5dc:	54000542 	b.cs	684 <_out_rev+0x104>  // b.hs, b.nlast
            out(' ', buffer, idx++, maxlen);
     5e0:	aa1c03e2 	mov	x2, x28
     5e4:	aa1b03e3 	mov	x3, x27
     5e8:	9100079c 	add	x28, x28, #0x1
     5ec:	aa1603e1 	mov	x1, x22
     5f0:	52800400 	mov	w0, #0x20                  	// #32
     5f4:	d63f02a0 	blr	x21
        for (size_t i = len; i < width; i++) {
     5f8:	eb1c029f 	cmp	x20, x28
     5fc:	54ffff21 	b.ne	5e0 <_out_rev+0x60>  // b.any
        }
    }

    // reverse string
    while (len) {
     600:	8b14027c 	add	x28, x19, x20
     604:	b4000133 	cbz	x19, 628 <_out_rev+0xa8>
     608:	cb130382 	sub	x2, x28, x19
        out(buf[--len], buffer, idx++, maxlen);
     60c:	d1000673 	sub	x19, x19, #0x1
     610:	aa1c03f4 	mov	x20, x28
     614:	aa1b03e3 	mov	x3, x27
     618:	aa1603e1 	mov	x1, x22
     61c:	38736b00 	ldrb	w0, [x24, x19]
     620:	d63f02a0 	blr	x21
    while (len) {
     624:	b5ffff33 	cbnz	x19, 608 <_out_rev+0x88>
    }

    // append pad spaces up to given width
    if (flags & FLAGS_LEFT) {
     628:	360801fa 	tbz	w26, #1, 664 <_out_rev+0xe4>
        while (idx - start_idx < width) {
     62c:	cb170297 	sub	x23, x20, x23
     630:	2a1903f9 	mov	w25, w25
     634:	eb1902ff 	cmp	x23, x25
     638:	54000162 	b.cs	664 <_out_rev+0xe4>  // b.hs, b.nlast
     63c:	d503201f 	nop
            out(' ', buffer, idx++, maxlen);
     640:	aa1403e2 	mov	x2, x20
        while (idx - start_idx < width) {
     644:	910006f7 	add	x23, x23, #0x1
            out(' ', buffer, idx++, maxlen);
     648:	aa1b03e3 	mov	x3, x27
     64c:	aa1603e1 	mov	x1, x22
     650:	52800400 	mov	w0, #0x20                  	// #32
     654:	d63f02a0 	blr	x21
     658:	91000694 	add	x20, x20, #0x1
        while (idx - start_idx < width) {
     65c:	eb1902ff 	cmp	x23, x25
     660:	54ffff03 	b.cc	640 <_out_rev+0xc0>  // b.lo, b.ul, b.last
        }
    }

    return idx;
}
     664:	aa1403e0 	mov	x0, x20
     668:	a94153f3 	ldp	x19, x20, [sp, #16]
     66c:	a9425bf5 	ldp	x21, x22, [sp, #32]
     670:	a94363f7 	ldp	x23, x24, [sp, #48]
     674:	a9446bf9 	ldp	x25, x26, [sp, #64]
     678:	a94573fb 	ldp	x27, x28, [sp, #80]
     67c:	a8c67bfd 	ldp	x29, x30, [sp], #96
     680:	d65f03c0 	ret
        for (size_t i = len; i < width; i++) {
     684:	aa0203f4 	mov	x20, x2
     688:	17ffffde 	b	600 <_out_rev+0x80>
     68c:	d503201f 	nop

0000000000000690 <_ntoa_long>:
    return _out_rev(out, buffer, idx, maxlen, buf, len, width, flags);
}

// internal itoa for 'long' type
static size_t _ntoa_long(out_fct_type out, char* buffer, size_t idx, size_t maxlen, unsigned long value, bool negative, unsigned long base, unsigned int prec, unsigned int width, unsigned int flags)
{
     690:	a9bd7bfd 	stp	x29, x30, [sp, #-48]!
     694:	aa0603eb 	mov	x11, x6
     698:	aa0403e9 	mov	x9, x4
     69c:	910003fd 	mov	x29, sp
     6a0:	b9403be8 	ldr	w8, [sp, #56]
     6a4:	2a0703ef 	mov	w15, w7
     6a8:	b94033e6 	ldr	w6, [sp, #48]
     6ac:	12001cb2 	and	w18, w5, #0xff
    if (!value) {
        flags &= ~FLAGS_HASH;
    }

    // write if precision != 0 and value is != 0
    if (!(flags & FLAGS_PRECISION) || value) {
     6b0:	12160110 	and	w16, w8, #0x400
    if (!value) {
     6b4:	b5000c64 	cbnz	x4, 840 <_ntoa_long+0x1b0>
        flags &= ~FLAGS_HASH;
     6b8:	121b7907 	and	w7, w8, #0xffffffef
    if (!(flags & FLAGS_PRECISION) || value) {
     6bc:	34000730 	cbz	w16, 7a0 <_ntoa_long+0x110>
    if (!(flags & FLAGS_LEFT)) {
     6c0:	121f0111 	and	w17, w8, #0x2
     6c4:	37080fc8 	tbnz	w8, #1, 8bc <_ntoa_long+0x22c>
    size_t len = 0U;
     6c8:	d2800005 	mov	x5, #0x0                   	// #0
        while ((len < prec) && (len < PRINTF_NTOA_BUFFER_SIZE)) {
     6cc:	2a0f03e9 	mov	w9, w15
     6d0:	f1007cbf 	cmp	x5, #0x1f
     6d4:	910043e4 	add	x4, sp, #0x10
     6d8:	1a9f87ea 	cset	w10, ls  // ls = plast
     6dc:	eb05013f 	cmp	x9, x5
     6e0:	1a9f97e8 	cset	w8, hi  // hi = pmore
        if (width && (flags & FLAGS_ZEROPAD) && (negative || (flags & (FLAGS_PLUS | FLAGS_SPACE)))) {
     6e4:	120000ec 	and	w12, w7, #0x1
        while ((len < prec) && (len < PRINTF_NTOA_BUFFER_SIZE)) {
     6e8:	0a080148 	and	w8, w10, w8
        if (width && (flags & FLAGS_ZEROPAD) && (negative || (flags & (FLAGS_PLUS | FLAGS_SPACE)))) {
     6ec:	350009c6 	cbnz	w6, 824 <_ntoa_long+0x194>
        while ((len < prec) && (len < PRINTF_NTOA_BUFFER_SIZE)) {
     6f0:	34000108 	cbz	w8, 710 <_ntoa_long+0x80>
            buf[len++] = '0';
     6f4:	5280060a 	mov	w10, #0x30                  	// #48
     6f8:	910004a5 	add	x5, x5, #0x1
     6fc:	8b050088 	add	x8, x4, x5
        while ((len < prec) && (len < PRINTF_NTOA_BUFFER_SIZE)) {
     700:	eb05013f 	cmp	x9, x5
     704:	fa5f88a2 	ccmp	x5, #0x1f, #0x2, hi  // hi = pmore
            buf[len++] = '0';
     708:	381ff10a 	sturb	w10, [x8, #-1]
        while ((len < prec) && (len < PRINTF_NTOA_BUFFER_SIZE)) {
     70c:	54ffff69 	b.ls	6f8 <_ntoa_long+0x68>  // b.plast
        while ((flags & FLAGS_ZEROPAD) && (len < width) && (len < PRINTF_NTOA_BUFFER_SIZE)) {
     710:	340001cc 	cbz	w12, 748 <_ntoa_long+0xb8>
     714:	f1007cbf 	cmp	x5, #0x1f
     718:	1a9f87ea 	cset	w10, ls  // ls = plast
     71c:	7100015f 	cmp	w10, #0x0
     720:	2a0603e9 	mov	w9, w6
     724:	fa451120 	ccmp	x9, x5, #0x0, ne  // ne = any
     728:	54000109 	b.ls	748 <_ntoa_long+0xb8>  // b.plast
            buf[len++] = '0';
     72c:	5280060a 	mov	w10, #0x30                  	// #48
     730:	910004a5 	add	x5, x5, #0x1
     734:	8b050088 	add	x8, x4, x5
        while ((flags & FLAGS_ZEROPAD) && (len < width) && (len < PRINTF_NTOA_BUFFER_SIZE)) {
     738:	eb05013f 	cmp	x9, x5
     73c:	fa5f88a2 	ccmp	x5, #0x1f, #0x2, hi  // hi = pmore
            buf[len++] = '0';
     740:	381ff10a 	sturb	w10, [x8, #-1]
        while ((flags & FLAGS_ZEROPAD) && (len < width) && (len < PRINTF_NTOA_BUFFER_SIZE)) {
     744:	54ffff69 	b.ls	730 <_ntoa_long+0xa0>  // b.plast
    if (flags & FLAGS_HASH) {
     748:	340001b1 	cbz	w17, 77c <_ntoa_long+0xec>
        if (!(flags & FLAGS_PRECISION) && len && ((len == prec) || (len == width))) {
     74c:	350008b0 	cbnz	w16, 860 <_ntoa_long+0x1d0>
     750:	b50007e5 	cbnz	x5, 84c <_ntoa_long+0x1bc>
        if ((base == 16U) && !(flags & FLAGS_UPPERCASE) && (len < PRINTF_NTOA_BUFFER_SIZE)) {
     754:	f100417f 	cmp	x11, #0x10
     758:	54000f20 	b.eq	93c <_ntoa_long+0x2ac>  // b.none
        } else if ((base == 2U) && (len < PRINTF_NTOA_BUFFER_SIZE)) {
     75c:	f100097f 	cmp	x11, #0x2
     760:	54000f21 	b.ne	944 <_ntoa_long+0x2b4>  // b.any
            buf[len++] = 'b';
     764:	52800c48 	mov	w8, #0x62                  	// #98
     768:	d2800025 	mov	x5, #0x1                   	// #1
     76c:	390043e8 	strb	w8, [sp, #16]
            buf[len++] = '0';
     770:	52800608 	mov	w8, #0x30                  	// #48
     774:	38256888 	strb	w8, [x4, x5]
     778:	910004a5 	add	x5, x5, #0x1
    if (len < PRINTF_NTOA_BUFFER_SIZE) {
     77c:	f10080bf 	cmp	x5, #0x20
     780:	540000a0 	b.eq	794 <_ntoa_long+0x104>  // b.none
        if (negative) {
     784:	340008d2 	cbz	w18, 89c <_ntoa_long+0x20c>
            buf[len++] = '-';
     788:	528005a8 	mov	w8, #0x2d                  	// #45
     78c:	38256888 	strb	w8, [x4, x5]
     790:	910004a5 	add	x5, x5, #0x1
    return _out_rev(out, buffer, idx, maxlen, buf, len, width, flags);
     794:	97ffff7b 	bl	580 <_out_rev>
            value /= base;
        } while (value && (len < PRINTF_NTOA_BUFFER_SIZE));
    }

    return _ntoa_format(out, buffer, idx, maxlen, buf, len, negative, (unsigned int)base, prec, width, flags);
}
     798:	a8c37bfd 	ldp	x29, x30, [sp], #48
     79c:	d65f03c0 	ret
    if (!(flags & FLAGS_PRECISION) || value) {
     7a0:	52800011 	mov	w17, #0x0                   	// #0
     7a4:	f27b00ff 	tst	x7, #0x20
     7a8:	52800c24 	mov	w4, #0x61                  	// #97
     7ac:	5280082e 	mov	w14, #0x41                  	// #65
     7b0:	1a8411ce 	csel	w14, w14, w4, ne  // ne = any
            buf[len++] = digit < 10 ? '0' + digit : (flags & FLAGS_UPPERCASE ? 'A' : 'a') + digit - 10;
     7b4:	510029ce 	sub	w14, w14, #0xa
     7b8:	910043e4 	add	x4, sp, #0x10
     7bc:	d2800005 	mov	x5, #0x0                   	// #0
            const char digit = (char)(value % base);
     7c0:	9acb092c 	udiv	x12, x9, x11
            buf[len++] = digit < 10 ? '0' + digit : (flags & FLAGS_UPPERCASE ? 'A' : 'a') + digit - 10;
     7c4:	910004a5 	add	x5, x5, #0x1
     7c8:	8b05008d 	add	x13, x4, x5
            const char digit = (char)(value % base);
     7cc:	9b0ba58a 	msub	x10, x12, x11, x9
     7d0:	12001d48 	and	w8, w10, #0xff
            buf[len++] = digit < 10 ? '0' + digit : (flags & FLAGS_UPPERCASE ? 'A' : 'a') + digit - 10;
     7d4:	f100255f 	cmp	x10, #0x9
     7d8:	1100c10a 	add	w10, w8, #0x30
     7dc:	0b0e0108 	add	w8, w8, w14
     7e0:	12001d4a 	and	w10, w10, #0xff
     7e4:	12001d08 	and	w8, w8, #0xff
     7e8:	1a8a8108 	csel	w8, w8, w10, hi  // hi = pmore
     7ec:	381ff1a8 	sturb	w8, [x13, #-1]
        } while (value && (len < PRINTF_NTOA_BUFFER_SIZE));
     7f0:	eb0b013f 	cmp	x9, x11
            value /= base;
     7f4:	aa0c03e9 	mov	x9, x12
        } while (value && (len < PRINTF_NTOA_BUFFER_SIZE));
     7f8:	fa5f28a2 	ccmp	x5, #0x1f, #0x2, cs  // cs = hs, nlast
     7fc:	54fffe29 	b.ls	7c0 <_ntoa_long+0x130>  // b.plast
    if (!(flags & FLAGS_LEFT)) {
     800:	370ffa47 	tbnz	w7, #1, 748 <_ntoa_long+0xb8>
        while ((len < prec) && (len < PRINTF_NTOA_BUFFER_SIZE)) {
     804:	f1007cbf 	cmp	x5, #0x1f
     808:	2a0f03e9 	mov	w9, w15
     80c:	1a9f87ea 	cset	w10, ls  // ls = plast
     810:	eb05013f 	cmp	x9, x5
     814:	1a9f97e8 	cset	w8, hi  // hi = pmore
        if (width && (flags & FLAGS_ZEROPAD) && (negative || (flags & (FLAGS_PLUS | FLAGS_SPACE)))) {
     818:	120000ec 	and	w12, w7, #0x1
        while ((len < prec) && (len < PRINTF_NTOA_BUFFER_SIZE)) {
     81c:	0a080148 	and	w8, w10, w8
        if (width && (flags & FLAGS_ZEROPAD) && (negative || (flags & (FLAGS_PLUS | FLAGS_SPACE)))) {
     820:	34fff686 	cbz	w6, 6f0 <_ntoa_long+0x60>
     824:	3400048c 	cbz	w12, 8b4 <_ntoa_long+0x224>
     828:	35000072 	cbnz	w18, 834 <_ntoa_long+0x1a4>
     82c:	721e04ff 	tst	w7, #0xc
     830:	54000040 	b.eq	838 <_ntoa_long+0x1a8>  // b.none
            width--;
     834:	510004c6 	sub	w6, w6, #0x1
        while ((len < prec) && (len < PRINTF_NTOA_BUFFER_SIZE)) {
     838:	35fff5e8 	cbnz	w8, 6f4 <_ntoa_long+0x64>
     83c:	17ffffb8 	b	71c <_ntoa_long+0x8c>
    if (flags & FLAGS_HASH) {
     840:	121c0111 	and	w17, w8, #0x10
     844:	2a0803e7 	mov	w7, w8
     848:	17ffffd7 	b	7a4 <_ntoa_long+0x114>
        if (!(flags & FLAGS_PRECISION) && len && ((len == prec) || (len == width))) {
     84c:	eb2f40bf 	cmp	x5, w15, uxtw
     850:	54000480 	b.eq	8e0 <_ntoa_long+0x250>  // b.none
     854:	eb2640bf 	cmp	x5, w6, uxtw
     858:	54000440 	b.eq	8e0 <_ntoa_long+0x250>  // b.none
     85c:	d503201f 	nop
        } else if ((base == 2U) && (len < PRINTF_NTOA_BUFFER_SIZE)) {
     860:	f1007cbf 	cmp	x5, #0x1f
     864:	1a9f87e8 	cset	w8, ls  // ls = plast
        if ((base == 16U) && !(flags & FLAGS_UPPERCASE) && (len < PRINTF_NTOA_BUFFER_SIZE)) {
     868:	f100417f 	cmp	x11, #0x10
     86c:	54000480 	b.eq	8fc <_ntoa_long+0x26c>  // b.none
        } else if ((base == 2U) && (len < PRINTF_NTOA_BUFFER_SIZE)) {
     870:	7100011f 	cmp	w8, #0x0
     874:	7a421960 	ccmp	w11, #0x2, #0x0, ne  // ne = any
     878:	54000081 	b.ne	888 <_ntoa_long+0x1f8>  // b.any
            buf[len++] = 'b';
     87c:	52800c48 	mov	w8, #0x62                  	// #98
     880:	38256888 	strb	w8, [x4, x5]
     884:	910004a5 	add	x5, x5, #0x1
        if (len < PRINTF_NTOA_BUFFER_SIZE) {
     888:	f10080bf 	cmp	x5, #0x20
     88c:	54fff721 	b.ne	770 <_ntoa_long+0xe0>  // b.any
    return _out_rev(out, buffer, idx, maxlen, buf, len, width, flags);
     890:	97ffff3c 	bl	580 <_out_rev>
}
     894:	a8c37bfd 	ldp	x29, x30, [sp], #48
     898:	d65f03c0 	ret
        } else if (flags & FLAGS_PLUS) {
     89c:	37100167 	tbnz	w7, #2, 8c8 <_ntoa_long+0x238>
        } else if (flags & FLAGS_SPACE) {
     8a0:	361ff7a7 	tbz	w7, #3, 794 <_ntoa_long+0x104>
            buf[len++] = ' ';
     8a4:	52800408 	mov	w8, #0x20                  	// #32
     8a8:	38256888 	strb	w8, [x4, x5]
     8ac:	910004a5 	add	x5, x5, #0x1
     8b0:	17ffffb9 	b	794 <_ntoa_long+0x104>
        while ((len < prec) && (len < PRINTF_NTOA_BUFFER_SIZE)) {
     8b4:	35fff208 	cbnz	w8, 6f4 <_ntoa_long+0x64>
     8b8:	17ffffa4 	b	748 <_ntoa_long+0xb8>
     8bc:	910043e4 	add	x4, sp, #0x10
    size_t len = 0U;
     8c0:	d2800005 	mov	x5, #0x0                   	// #0
     8c4:	17ffffb0 	b	784 <_ntoa_long+0xf4>
            buf[len++] = '+'; // ignore the space if the '+' exists
     8c8:	52800568 	mov	w8, #0x2b                  	// #43
     8cc:	38256888 	strb	w8, [x4, x5]
     8d0:	910004a5 	add	x5, x5, #0x1
    return _out_rev(out, buffer, idx, maxlen, buf, len, width, flags);
     8d4:	97ffff2b 	bl	580 <_out_rev>
}
     8d8:	a8c37bfd 	ldp	x29, x30, [sp], #48
     8dc:	d65f03c0 	ret
            if (len && (base == 16U)) {
     8e0:	f10004aa 	subs	x10, x5, #0x1
                len--;
     8e4:	d10008a5 	sub	x5, x5, #0x2
            if (len && (base == 16U)) {
     8e8:	1a9f07e8 	cset	w8, ne  // ne = any
     8ec:	7100417f 	cmp	w11, #0x10
     8f0:	1a9f17e9 	cset	w9, eq  // eq = none
     8f4:	6a090108 	ands	w8, w8, w9
     8f8:	54000160 	b.eq	924 <_ntoa_long+0x294>  // b.none
        if ((base == 16U) && !(flags & FLAGS_UPPERCASE) && (len < PRINTF_NTOA_BUFFER_SIZE)) {
     8fc:	721b00e9 	ands	w9, w7, #0x20
     900:	7a400904 	ccmp	w8, #0x0, #0x4, eq  // eq = none
     904:	54000141 	b.ne	92c <_ntoa_long+0x29c>  // b.any
        } else if ((base == 16U) && (flags & FLAGS_UPPERCASE) && (len < PRINTF_NTOA_BUFFER_SIZE)) {
     908:	7100013f 	cmp	w9, #0x0
     90c:	7a401904 	ccmp	w8, #0x0, #0x4, ne  // ne = any
     910:	54fffbc0 	b.eq	888 <_ntoa_long+0x1f8>  // b.none
            buf[len++] = 'X';
     914:	52800b08 	mov	w8, #0x58                  	// #88
     918:	38256888 	strb	w8, [x4, x5]
     91c:	910004a5 	add	x5, x5, #0x1
     920:	17ffffda 	b	888 <_ntoa_long+0x1f8>
            len--;
     924:	aa0a03e5 	mov	x5, x10
     928:	17ffffce 	b	860 <_ntoa_long+0x1d0>
            buf[len++] = 'x';
     92c:	52800f08 	mov	w8, #0x78                  	// #120
     930:	38256888 	strb	w8, [x4, x5]
     934:	910004a5 	add	x5, x5, #0x1
     938:	17ffffd4 	b	888 <_ntoa_long+0x1f8>
        if ((base == 16U) && !(flags & FLAGS_UPPERCASE) && (len < PRINTF_NTOA_BUFFER_SIZE)) {
     93c:	52800028 	mov	w8, #0x1                   	// #1
     940:	17ffffef 	b	8fc <_ntoa_long+0x26c>
            buf[len++] = '0';
     944:	52800608 	mov	w8, #0x30                  	// #48
     948:	d2800025 	mov	x5, #0x1                   	// #1
     94c:	390043e8 	strb	w8, [sp, #16]
    if (len < PRINTF_NTOA_BUFFER_SIZE) {
     950:	17ffff8d 	b	784 <_ntoa_long+0xf4>
     954:	d503201f 	nop
     958:	d503201f 	nop
     95c:	d503201f 	nop

0000000000000960 <_etoa>:
}

#if defined(PRINTF_SUPPORT_EXPONENTIAL)
// internal ftoa variant for exponential floating-point type, contributed by Martijn Jasperse <m.jasperse@gmail.com>
static size_t _etoa(out_fct_type out, char* buffer, size_t idx, size_t maxlen, double value, unsigned int prec, unsigned int width, unsigned int flags)
{
     960:	d10203ff 	sub	sp, sp, #0x80
    // check for NaN and special values
    if ((value != value) || (value > DBL_MAX) || (value < -DBL_MAX)) {
     964:	1e602000 	fcmp	d0, d0
{
     968:	a9017bfd 	stp	x29, x30, [sp, #16]
     96c:	910043fd 	add	x29, sp, #0x10
     970:	a90253f3 	stp	x19, x20, [sp, #32]
     974:	aa0203f3 	mov	x19, x2
     978:	2a0603f4 	mov	w20, w6
     97c:	a9035bf5 	stp	x21, x22, [sp, #48]
     980:	2a0503f6 	mov	w22, w5
     984:	a90463f7 	stp	x23, x24, [sp, #64]
     988:	aa0003f7 	mov	x23, x0
     98c:	a9056bf9 	stp	x25, x26, [sp, #80]
     990:	aa0103f9 	mov	x25, x1
     994:	a90673fb 	stp	x27, x28, [sp, #96]
     998:	aa0303fb 	mov	x27, x3
    if ((value != value) || (value > DBL_MAX) || (value < -DBL_MAX)) {
     99c:	54001361 	b.ne	c08 <_etoa+0x2a8>  // b.any
     9a0:	92f00200 	mov	x0, #0x7fefffffffffffff    	// #9218868437227405311
     9a4:	9e670001 	fmov	d1, x0
     9a8:	1e612010 	fcmpe	d0, d1
     9ac:	540012ec 	b.gt	c08 <_etoa+0x2a8>
     9b0:	92e00200 	mov	x0, #0xffefffffffffffff    	// #-4503599627370497
     9b4:	9e670001 	fmov	d1, x0
     9b8:	1e612010 	fcmpe	d0, d1
     9bc:	54001264 	b.mi	c08 <_etoa+0x2a8>  // b.first
        return _ftoa(out, buffer, idx, maxlen, value, prec, width, flags);
    }

    // determine the sign
    const bool negative = value < 0;
    if (negative) {
     9c0:	1e602018 	fcmpe	d0, #0.0
     9c4:	1e614007 	fneg	d7, d0

    conv.F = value;
    int exp2 = (int)((conv.U >> 52U) & 0x07FFU) - 1023; // effectively log2
    conv.U = (conv.U & ((1ULL << 52U) - 1U)) | (1023ULL << 52U); // drop the exponent so conv.F is now in [1,2)
    // now approximate log10 from the log2 integer part and an expansion of ln around 1.5
    int expval = (int)(0.1760912590558 + exp2 * 0.301029995663981 + (conv.F - 1.5) * 0.289529654602168);
     9c8:	d0000040 	adrp	x0, a000 <__swbuf_r+0xb0>
     9cc:	fd47e817 	ldr	d23, [x0, #4048]
     9d0:	d0000040 	adrp	x0, a000 <__swbuf_r+0xb0>
     9d4:	fd47ec01 	ldr	d1, [x0, #4056]
     9d8:	d0000040 	adrp	x0, a000 <__swbuf_r+0xb0>
     9dc:	fd47f016 	ldr	d22, [x0, #4064]
     9e0:	1e604ce7 	fcsel	d7, d7, d0, mi  // mi = first
    // now we want to compute 10^expval but we want to be sure it won't overflow
    exp2 = (int)(expval * 3.321928094887362 + 0.5);
     9e4:	d0000040 	adrp	x0, a000 <__swbuf_r+0xb0>
     9e8:	fd47f406 	ldr	d6, [x0, #4072]
    const double z = expval * 2.302585092994046 - exp2 * 0.6931471805599453;
     9ec:	d0000040 	adrp	x0, a000 <__swbuf_r+0xb0>
     9f0:	fd47f815 	ldr	d21, [x0, #4080]
     9f4:	d0000040 	adrp	x0, a000 <__swbuf_r+0xb0>
     9f8:	fd47fc14 	ldr	d20, [x0, #4088]
    int expval = (int)(0.1760912590558 + exp2 * 0.301029995663981 + (conv.F - 1.5) * 0.289529654602168);
     9fc:	1e6f1018 	fmov	d24, #1.500000000000000000e+00
    conv.F = value;
     a00:	9e6600e1 	fmov	x1, d7
    exp2 = (int)(expval * 3.321928094887362 + 0.5);
     a04:	1e6c1003 	fmov	d3, #5.000000000000000000e-01
    const double z2 = z * z;
    conv.U = (uint64_t)(exp2 + 1023) << 52U;
    // compute exp(z) using continued fractions, see https://en.wikipedia.org/wiki/Exponential_function#Continued_fractions_for_ex
    conv.F *= 1 + 2 * z / (2 - z + (z2 / (6 + (z2 / (10 + z2 / 14)))));
     a08:	1e659002 	fmov	d2, #1.400000000000000000e+01
     a0c:	1e649011 	fmov	d17, #1.000000000000000000e+01
     a10:	1e631013 	fmov	d19, #6.000000000000000000e+00
     a14:	1e601010 	fmov	d16, #2.000000000000000000e+00
     a18:	1e6e1012 	fmov	d18, #1.000000000000000000e+00
        prec = PRINTF_DEFAULT_FLOAT_PRECISION;
     a1c:	721600c3 	ands	w3, w6, #0x400
    conv.U = (conv.U & ((1ULL << 52U) - 1U)) | (1023ULL << 52U); // drop the exponent so conv.F is now in [1,2)
     a20:	9240cc20 	and	x0, x1, #0xfffffffffffff
    int exp2 = (int)((conv.U >> 52U) & 0x07FFU) - 1023; // effectively log2
     a24:	d374f821 	ubfx	x1, x1, #52, #11
     a28:	510ffc21 	sub	w1, w1, #0x3ff
    conv.U = (conv.U & ((1ULL << 52U) - 1U)) | (1023ULL << 52U); // drop the exponent so conv.F is now in [1,2)
     a2c:	b24c2400 	orr	x0, x0, #0x3ff0000000000000
     a30:	9e670005 	fmov	d5, x0
        prec = PRINTF_DEFAULT_FLOAT_PRECISION;
     a34:	528000c2 	mov	w2, #0x6                   	// #6
    int expval = (int)(0.1760912590558 + exp2 * 0.301029995663981 + (conv.F - 1.5) * 0.289529654602168);
     a38:	1e620024 	scvtf	d4, w1
        prec = PRINTF_DEFAULT_FLOAT_PRECISION;
     a3c:	1a821084 	csel	w4, w4, w2, ne  // ne = any
    int expval = (int)(0.1760912590558 + exp2 * 0.301029995663981 + (conv.F - 1.5) * 0.289529654602168);
     a40:	1e7838a5 	fsub	d5, d5, d24
     a44:	1e770884 	fmul	d4, d4, d23
     a48:	1e7608a5 	fmul	d5, d5, d22
     a4c:	1e612884 	fadd	d4, d4, d1
     a50:	1e652884 	fadd	d4, d4, d5
     a54:	1e780098 	fcvtzs	w24, d4
    exp2 = (int)(expval * 3.321928094887362 + 0.5);
     a58:	1e620301 	scvtf	d1, w24
     a5c:	1e660824 	fmul	d4, d1, d6
    const double z = expval * 2.302585092994046 - exp2 * 0.6931471805599453;
     a60:	1e750821 	fmul	d1, d1, d21
    exp2 = (int)(expval * 3.321928094887362 + 0.5);
     a64:	1e632884 	fadd	d4, d4, d3
     a68:	1e780080 	fcvtzs	w0, d4
    const double z = expval * 2.302585092994046 - exp2 * 0.6931471805599453;
     a6c:	1e620003 	scvtf	d3, w0
    conv.U = (uint64_t)(exp2 + 1023) << 52U;
     a70:	110ffc00 	add	w0, w0, #0x3ff
     a74:	9e670004 	fmov	d4, x0
     a78:	5f745484 	shl	d4, d4, #52
    const double z = expval * 2.302585092994046 - exp2 * 0.6931471805599453;
     a7c:	1e740863 	fmul	d3, d3, d20
     a80:	1e633821 	fsub	d1, d1, d3
    const double z2 = z * z;
     a84:	1e610823 	fmul	d3, d1, d1
    conv.F *= 1 + 2 * z / (2 - z + (z2 / (6 + (z2 / (10 + z2 / 14)))));
     a88:	1e613a05 	fsub	d5, d16, d1
     a8c:	1e612821 	fadd	d1, d1, d1
     a90:	1e621862 	fdiv	d2, d3, d2
     a94:	1e712842 	fadd	d2, d2, d17
     a98:	1e621862 	fdiv	d2, d3, d2
     a9c:	1e732842 	fadd	d2, d2, d19
     aa0:	1e621863 	fdiv	d3, d3, d2
     aa4:	1e652863 	fadd	d3, d3, d5
     aa8:	1e631821 	fdiv	d1, d1, d3
     aac:	1e722821 	fadd	d1, d1, d18
     ab0:	1e640821 	fmul	d1, d1, d4
    // correct for rounding errors
    if (value < conv.F) {
     ab4:	1e672030 	fcmpe	d1, d7
     ab8:	54000c4c 	b.gt	c40 <_etoa+0x2e0>
        expval--;
        conv.F /= 10;
    }

    // the exponent format is "%+03d" and largest value is "307", so set aside 4-5 characters
    unsigned int minwidth = ((expval < 100) && (expval > -100)) ? 4U : 5U;
     abc:	11018f00 	add	w0, w24, #0x63
     ac0:	7103181f 	cmp	w0, #0xc6
     ac4:	1a9f97fc 	cset	w28, hi  // hi = pmore
     ac8:	1100139c 	add	w28, w28, #0x4

    // in "%g" mode, "prec" is the number of *significant figures* not decimals
    if (flags & FLAGS_ADAPT_EXP) {
     acc:	36580134 	tbz	w20, #11, af0 <_etoa+0x190>
        // do we want to fall-back to "%f" mode?
        if ((value >= 1e-4) && (value < 1e6)) {
     ad0:	f0000040 	adrp	x0, b000 <pow10.0+0x80>
     ad4:	fd400002 	ldr	d2, [x0]
     ad8:	1e6220f0 	fcmpe	d7, d2
     adc:	54000d2a 	b.ge	c80 <_etoa+0x320>  // b.tcont
            // no characters in exponent
            minwidth = 0U;
            expval = 0;
        } else {
            // we use one sigfig for the whole part
            if ((prec > 0) && (flags & FLAGS_PRECISION)) {
     ae0:	34000084 	cbz	w4, af0 <_etoa+0x190>
                --prec;
     ae4:	7100007f 	cmp	w3, #0x0
     ae8:	1a9f07e0 	cset	w0, ne  // ne = any
     aec:	4b000084 	sub	w4, w4, w0

    // will everything fit?
    unsigned int fwidth = width;
    if (width > minwidth) {
        // we didn't fall-back so subtract the characters required for the exponent
        fwidth -= minwidth;
     af0:	6b16039f 	cmp	w28, w22
    } else {
        // not enough characters, so go back to default sizing
        fwidth = 0U;
    }
    if ((flags & FLAGS_LEFT) && minwidth) {
     af4:	121f0280 	and	w0, w20, #0x2
        fwidth -= minwidth;
     af8:	4b1c02c5 	sub	w5, w22, w28
     afc:	5280003a 	mov	w26, #0x1                   	// #1
     b00:	1a9f30a5 	csel	w5, w5, wzr, cc  // cc = lo, ul, last
    if ((flags & FLAGS_LEFT) && minwidth) {
     b04:	7100001f 	cmp	w0, #0x0
     b08:	1a9f07e0 	cset	w0, ne  // ne = any
     b0c:	b9007fe0 	str	w0, [sp, #124]
     b10:	1a9f00a5 	csel	w5, w5, wzr, eq  // eq = none
        // if we're padding on the right, DON'T pad the floating part
        fwidth = 0U;
    }

    // rescale the float value
    if (expval) {
     b14:	34000058 	cbz	w24, b1c <_etoa+0x1bc>
        value /= conv.F;
     b18:	1e6118e7 	fdiv	d7, d7, d1
    }

    // output the floating part
    const size_t start_idx = idx;
    idx = _ftoa(out, buffer, idx, maxlen, negative ? -value : value, prec, fwidth, flags & ~FLAGS_ADAPT_EXP);
     b1c:	1e602018 	fcmpe	d0, #0.0
     b20:	54000ac4 	b.mi	c78 <_etoa+0x318>  // b.first
     b24:	1e6040e0 	fmov	d0, d7
     b28:	12147a86 	and	w6, w20, #0xfffff7ff
     b2c:	aa1b03e3 	mov	x3, x27
     b30:	aa1303e2 	mov	x2, x19
     b34:	aa1903e1 	mov	x1, x25
     b38:	aa1703e0 	mov	x0, x23
     b3c:	94000071 	bl	d00 <_ftoa>
     b40:	aa0003f5 	mov	x21, x0

    // output the exponent part
    if (minwidth) {
     b44:	3400051a 	cbz	w26, be4 <_etoa+0x284>
        // output the exponential symbol
        out((flags & FLAGS_UPPERCASE) ? 'E' : 'e', buffer, idx++, maxlen);
     b48:	f27b029f 	tst	x20, #0x20
     b4c:	528008a1 	mov	w1, #0x45                  	// #69
     b50:	aa1503e2 	mov	x2, x21
     b54:	aa1b03e3 	mov	x3, x27
     b58:	52800ca0 	mov	w0, #0x65                  	// #101
     b5c:	1a801020 	csel	w0, w1, w0, ne  // ne = any
     b60:	aa1903e1 	mov	x1, x25
     b64:	d63f02e0 	blr	x23
        // output the exponent value
        idx = _ntoa_long(out, buffer, idx, maxlen, (expval < 0) ? -expval : expval, expval < 0, 10, 0, minwidth - 1, FLAGS_ZEROPAD | FLAGS_PLUS);
     b68:	7100031f 	cmp	w24, #0x0
     b6c:	528000a0 	mov	w0, #0x5                   	// #5
     b70:	5a98a704 	cneg	w4, w24, lt  // lt = tstop
     b74:	5100079c 	sub	w28, w28, #0x1
     b78:	b90003fc 	str	w28, [sp]
        out((flags & FLAGS_UPPERCASE) ? 'E' : 'e', buffer, idx++, maxlen);
     b7c:	910006a2 	add	x2, x21, #0x1
        idx = _ntoa_long(out, buffer, idx, maxlen, (expval < 0) ? -expval : expval, expval < 0, 10, 0, minwidth - 1, FLAGS_ZEROPAD | FLAGS_PLUS);
     b80:	b9000be0 	str	w0, [sp, #8]
     b84:	93407c84 	sxtw	x4, w4
     b88:	531f7f05 	lsr	w5, w24, #31
     b8c:	aa1b03e3 	mov	x3, x27
     b90:	aa1903e1 	mov	x1, x25
     b94:	aa1703e0 	mov	x0, x23
     b98:	52800007 	mov	w7, #0x0                   	// #0
     b9c:	d2800146 	mov	x6, #0xa                   	// #10
     ba0:	97fffebc 	bl	690 <_ntoa_long>
     ba4:	aa0003f5 	mov	x21, x0
        // might need to right-pad spaces
        if (flags & FLAGS_LEFT) {
     ba8:	b9407fe0 	ldr	w0, [sp, #124]
     bac:	340001c0 	cbz	w0, be4 <_etoa+0x284>
            while (idx - start_idx < width)
     bb0:	cb1302b3 	sub	x19, x21, x19
     bb4:	eb1302df 	cmp	x22, x19
     bb8:	54000169 	b.ls	be4 <_etoa+0x284>  // b.plast
     bbc:	d503201f 	nop
                out(' ', buffer, idx++, maxlen);
     bc0:	aa1503e2 	mov	x2, x21
            while (idx - start_idx < width)
     bc4:	91000673 	add	x19, x19, #0x1
                out(' ', buffer, idx++, maxlen);
     bc8:	aa1b03e3 	mov	x3, x27
     bcc:	aa1903e1 	mov	x1, x25
     bd0:	52800400 	mov	w0, #0x20                  	// #32
     bd4:	d63f02e0 	blr	x23
     bd8:	910006b5 	add	x21, x21, #0x1
            while (idx - start_idx < width)
     bdc:	eb1302df 	cmp	x22, x19
     be0:	54ffff08 	b.hi	bc0 <_etoa+0x260>  // b.pmore
        }
    }
    return idx;
}
     be4:	aa1503e0 	mov	x0, x21
     be8:	a9417bfd 	ldp	x29, x30, [sp, #16]
     bec:	a94253f3 	ldp	x19, x20, [sp, #32]
     bf0:	a9435bf5 	ldp	x21, x22, [sp, #48]
     bf4:	a94463f7 	ldp	x23, x24, [sp, #64]
     bf8:	a9456bf9 	ldp	x25, x26, [sp, #80]
     bfc:	a94673fb 	ldp	x27, x28, [sp, #96]
     c00:	910203ff 	add	sp, sp, #0x80
     c04:	d65f03c0 	ret
        return _ftoa(out, buffer, idx, maxlen, value, prec, width, flags);
     c08:	2a1403e6 	mov	w6, w20
     c0c:	2a1603e5 	mov	w5, w22
     c10:	aa1b03e3 	mov	x3, x27
     c14:	aa1303e2 	mov	x2, x19
     c18:	aa1903e1 	mov	x1, x25
     c1c:	aa1703e0 	mov	x0, x23
}
     c20:	a9417bfd 	ldp	x29, x30, [sp, #16]
     c24:	a94253f3 	ldp	x19, x20, [sp, #32]
     c28:	a9435bf5 	ldp	x21, x22, [sp, #48]
     c2c:	a94463f7 	ldp	x23, x24, [sp, #64]
     c30:	a9456bf9 	ldp	x25, x26, [sp, #80]
     c34:	a94673fb 	ldp	x27, x28, [sp, #96]
     c38:	910203ff 	add	sp, sp, #0x80
    idx = _ftoa(out, buffer, idx, maxlen, negative ? -value : value, prec, fwidth, flags & ~FLAGS_ADAPT_EXP);
     c3c:	14000031 	b	d00 <_ftoa>
        conv.F /= 10;
     c40:	1e711821 	fdiv	d1, d1, d17
        expval--;
     c44:	51000718 	sub	w24, w24, #0x1
    unsigned int minwidth = ((expval < 100) && (expval > -100)) ? 4U : 5U;
     c48:	11018f00 	add	w0, w24, #0x63
     c4c:	7103181f 	cmp	w0, #0xc6
     c50:	1a9f97fc 	cset	w28, hi  // hi = pmore
     c54:	1100139c 	add	w28, w28, #0x4
    if (flags & FLAGS_ADAPT_EXP) {
     c58:	365ff4d4 	tbz	w20, #11, af0 <_etoa+0x190>
     c5c:	17ffff9d 	b	ad0 <_etoa+0x170>
            flags |= FLAGS_PRECISION; // make sure _ftoa respects precision
     c60:	2a0003f4 	mov	w20, w0
        fwidth = 0U;
     c64:	52800005 	mov	w5, #0x0                   	// #0
            minwidth = 0U;
     c68:	5280001c 	mov	w28, #0x0                   	// #0
            expval = 0;
     c6c:	52800018 	mov	w24, #0x0                   	// #0
    if ((flags & FLAGS_LEFT) && minwidth) {
     c70:	5280001a 	mov	w26, #0x0                   	// #0
     c74:	b9007fff 	str	wzr, [sp, #124]
    idx = _ftoa(out, buffer, idx, maxlen, negative ? -value : value, prec, fwidth, flags & ~FLAGS_ADAPT_EXP);
     c78:	1e6140e7 	fneg	d7, d7
     c7c:	17ffffaa 	b	b24 <_etoa+0x1c4>
        if ((value >= 1e-4) && (value < 1e6)) {
     c80:	d2d09000 	mov	x0, #0x848000000000        	// #145685290680320
     c84:	f2e825c0 	movk	x0, #0x412e, lsl #48
     c88:	9e670002 	fmov	d2, x0
     c8c:	1e6220f0 	fcmpe	d7, d2
     c90:	54000044 	b.mi	c98 <_etoa+0x338>  // b.first
     c94:	17ffff93 	b	ae0 <_etoa+0x180>
                prec = (unsigned)((int)prec - expval - 1);
     c98:	6b180080 	subs	w0, w4, w24
     c9c:	51000404 	sub	w4, w0, #0x1
            flags |= FLAGS_PRECISION; // make sure _ftoa respects precision
     ca0:	32160280 	orr	w0, w20, #0x400
                prec = (unsigned)((int)prec - expval - 1);
     ca4:	1a9fc084 	csel	w4, w4, wzr, gt
    if (width > minwidth) {
     ca8:	35000196 	cbnz	w22, cd8 <_etoa+0x378>
    idx = _ftoa(out, buffer, idx, maxlen, negative ? -value : value, prec, fwidth, flags & ~FLAGS_ADAPT_EXP);
     cac:	1e602018 	fcmpe	d0, #0.0
     cb0:	54fffd84 	b.mi	c60 <_etoa+0x300>  // b.first
     cb4:	12147a86 	and	w6, w20, #0xfffff7ff
     cb8:	1e6040e0 	fmov	d0, d7
     cbc:	321600c6 	orr	w6, w6, #0x400
     cc0:	aa1b03e3 	mov	x3, x27
     cc4:	aa1303e2 	mov	x2, x19
     cc8:	aa1903e1 	mov	x1, x25
     ccc:	aa1703e0 	mov	x0, x23
     cd0:	52800005 	mov	w5, #0x0                   	// #0
     cd4:	17ffffd3 	b	c20 <_etoa+0x2c0>
            flags |= FLAGS_PRECISION; // make sure _ftoa respects precision
     cd8:	2a0003f4 	mov	w20, w0
    if (width > minwidth) {
     cdc:	2a1603e5 	mov	w5, w22
     ce0:	5280001a 	mov	w26, #0x0                   	// #0
     ce4:	52800018 	mov	w24, #0x0                   	// #0
            minwidth = 0U;
     ce8:	5280001c 	mov	w28, #0x0                   	// #0
    if (width > minwidth) {
     cec:	b9007fff 	str	wzr, [sp, #124]
     cf0:	17ffff8b 	b	b1c <_etoa+0x1bc>
     cf4:	d503201f 	nop
     cf8:	d503201f 	nop
     cfc:	d503201f 	nop

0000000000000d00 <_ftoa>:
    if (value != value)
     d00:	1e602000 	fcmp	d0, d0
{
     d04:	2a0603e7 	mov	w7, w6
    if (value != value)
     d08:	54000e01 	b.ne	ec8 <_ftoa+0x1c8>  // b.any
    if (value < -DBL_MAX)
     d0c:	92e00206 	mov	x6, #0xffefffffffffffff    	// #-4503599627370497
     d10:	9e6700c1 	fmov	d1, x6
     d14:	1e612010 	fcmpe	d0, d1
     d18:	54001184 	b.mi	f48 <_ftoa+0x248>  // b.first
     d1c:	aa0003ef 	mov	x15, x0
    if (value > DBL_MAX)
     d20:	92f00200 	mov	x0, #0x7fefffffffffffff    	// #9218868437227405311
     d24:	9e670001 	fmov	d1, x0
     d28:	aa0103f0 	mov	x16, x1
     d2c:	aa0203f1 	mov	x17, x2
     d30:	aa0303f2 	mov	x18, x3
     d34:	1e612010 	fcmpe	d0, d1
     d38:	54000b2c 	b.gt	e9c <_ftoa+0x19c>
    if ((value > PRINTF_MAX_FLOAT) || (value < -PRINTF_MAX_FLOAT)) {
     d3c:	d2d9aca0 	mov	x0, #0xcd6500000000        	// #225833675390976
     d40:	f2e839a0 	movk	x0, #0x41cd, lsl #48
     d44:	9e670001 	fmov	d1, x0
     d48:	1e612010 	fcmpe	d0, d1
     d4c:	54000f2c 	b.gt	f30 <_ftoa+0x230>
     d50:	d2d9aca0 	mov	x0, #0xcd6500000000        	// #225833675390976
     d54:	f2f839a0 	movk	x0, #0xc1cd, lsl #48
     d58:	9e670001 	fmov	d1, x0
     d5c:	1e612010 	fcmpe	d0, d1
     d60:	54000e84 	b.mi	f30 <_ftoa+0x230>  // b.first
    if (value < 0) {
     d64:	1e602018 	fcmpe	d0, #0.0
{
     d68:	a9bd7bfd 	stp	x29, x30, [sp, #-48]!
     d6c:	910003fd 	mov	x29, sp
    if (value < 0) {
     d70:	54000ca4 	b.mi	f04 <_ftoa+0x204>  // b.first
    bool negative = false;
     d74:	52800003 	mov	w3, #0x0                   	// #0
    if (!(flags & FLAGS_PRECISION)) {
     d78:	36500ce7 	tbz	w7, #10, f14 <_ftoa+0x214>
    while ((len < PRINTF_FTOA_BUFFER_SIZE) && (prec > 9U)) {
     d7c:	7100249f 	cmp	w4, #0x9
     d80:	910043ec 	add	x12, sp, #0x10
     d84:	d2800008 	mov	x8, #0x0                   	// #0
        buf[len++] = '0';
     d88:	52800601 	mov	w1, #0x30                  	// #48
    while ((len < PRINTF_FTOA_BUFFER_SIZE) && (prec > 9U)) {
     d8c:	54001929 	b.ls	10b0 <_ftoa+0x3b0>  // b.plast
        buf[len++] = '0';
     d90:	91000508 	add	x8, x8, #0x1
        prec--;
     d94:	51000484 	sub	w4, w4, #0x1
        buf[len++] = '0';
     d98:	8b080180 	add	x0, x12, x8
    while ((len < PRINTF_FTOA_BUFFER_SIZE) && (prec > 9U)) {
     d9c:	f1007d1f 	cmp	x8, #0x1f
     da0:	7a499880 	ccmp	w4, #0x9, #0x0, ls  // ls = plast
        buf[len++] = '0';
     da4:	381ff001 	sturb	w1, [x0, #-1]
    while ((len < PRINTF_FTOA_BUFFER_SIZE) && (prec > 9U)) {
     da8:	54ffff48 	b.hi	d90 <_ftoa+0x90>  // b.pmore
     dac:	d2d9aca0 	mov	x0, #0xcd6500000000        	// #225833675390976
     db0:	f2e839a0 	movk	x0, #0x41cd, lsl #48
     db4:	9e670002 	fmov	d2, x0
    int whole = (int)value;
     db8:	1e78000a 	fcvtzs	w10, d0
    if (diff > 0.5) {
     dbc:	1e6c1003 	fmov	d3, #5.000000000000000000e-01
    double tmp = (value - whole) * pow10[prec];
     dc0:	1e620141 	scvtf	d1, w10
     dc4:	1e613801 	fsub	d1, d0, d1
     dc8:	1e620821 	fmul	d1, d1, d2
    unsigned long frac = (unsigned long)tmp;
     dcc:	9e79002e 	fcvtzu	x14, d1
    diff = tmp - frac;
     dd0:	9e6301c4 	ucvtf	d4, x14
     dd4:	1e643821 	fsub	d1, d1, d4
    if (diff > 0.5) {
     dd8:	1e632030 	fcmpe	d1, d3
     ddc:	5400112c 	b.gt	1000 <_ftoa+0x300>
    } else if (diff < 0.5) {
     de0:	54000084 	b.mi	df0 <_ftoa+0xf0>  // b.first
    } else if ((frac == 0U) || (frac & 1U)) {
     de4:	b500154e 	cbnz	x14, 108c <_ftoa+0x38c>
        ++frac;
     de8:	910005ce 	add	x14, x14, #0x1
     dec:	d503201f 	nop
    if (prec == 0U) {
     df0:	35000b64 	cbnz	w4, f5c <_ftoa+0x25c>
        diff = value - (double)whole;
     df4:	1e620141 	scvtf	d1, w10
        if ((!(diff < 0.5) || (diff > 0.5)) && (whole & 1)) {
     df8:	1e6c1002 	fmov	d2, #5.000000000000000000e-01
        diff = value - (double)whole;
     dfc:	1e613800 	fsub	d0, d0, d1
        if ((!(diff < 0.5) || (diff > 0.5)) && (whole & 1)) {
     e00:	1e622010 	fcmpe	d0, d2
     e04:	540011a4 	b.mi	1038 <_ftoa+0x338>  // b.first
            ++whole;
     e08:	12000140 	and	w0, w10, #0x1
     e0c:	0b00014a 	add	w10, w10, w0
        buf[len++] = (char)(48 + (whole % 10));
     e10:	528ccce1 	mov	w1, #0x6667                	// #26215
     e14:	72acccc1 	movk	w1, #0x6666, lsl #16
     e18:	52800142 	mov	w2, #0xa                   	// #10
     e1c:	d503201f 	nop
     e20:	9b217d49 	smull	x9, w10, w1
    while (len < PRINTF_FTOA_BUFFER_SIZE) {
     e24:	f100811f 	cmp	x8, #0x20
     e28:	54000c20 	b.eq	fac <_ftoa+0x2ac>  // b.none
        buf[len++] = (char)(48 + (whole % 10));
     e2c:	9362fd29 	asr	x9, x9, #34
     e30:	91000508 	add	x8, x8, #0x1
     e34:	4b8a7d29 	sub	w9, w9, w10, asr #31
     e38:	8b080180 	add	x0, x12, x8
     e3c:	1b02a92b 	msub	w11, w9, w2, w10
        if (!(whole /= 10)) {
     e40:	2a0903ea 	mov	w10, w9
        buf[len++] = (char)(48 + (whole % 10));
     e44:	1100c169 	add	w9, w11, #0x30
     e48:	381ff009 	sturb	w9, [x0, #-1]
        if (!(whole /= 10)) {
     e4c:	35fffeaa 	cbnz	w10, e20 <_ftoa+0x120>
    if (!(flags & FLAGS_LEFT) && (flags & FLAGS_ZEROPAD)) {
     e50:	120004e0 	and	w0, w7, #0x3
     e54:	7100041f 	cmp	w0, #0x1
     e58:	54000b00 	b.eq	fb8 <_ftoa+0x2b8>  // b.none
    if (len < PRINTF_FTOA_BUFFER_SIZE) {
     e5c:	f1007d1f 	cmp	x8, #0x1f
     e60:	540000a8 	b.hi	e74 <_ftoa+0x174>  // b.pmore
        if (negative) {
     e64:	34000de3 	cbz	w3, 1020 <_ftoa+0x320>
            buf[len++] = '-';
     e68:	528005a0 	mov	w0, #0x2d                  	// #45
     e6c:	38286980 	strb	w0, [x12, x8]
     e70:	91000508 	add	x8, x8, #0x1
    return _out_rev(out, buffer, idx, maxlen, buf, len, width, flags);
     e74:	2a0503e6 	mov	w6, w5
     e78:	aa0c03e4 	mov	x4, x12
     e7c:	aa0803e5 	mov	x5, x8
     e80:	aa1203e3 	mov	x3, x18
     e84:	aa1103e2 	mov	x2, x17
     e88:	aa1003e1 	mov	x1, x16
     e8c:	aa0f03e0 	mov	x0, x15
     e90:	97fffdbc 	bl	580 <_out_rev>
}
     e94:	a8c37bfd 	ldp	x29, x30, [sp], #48
     e98:	d65f03c0 	ret
        return _out_rev(out, buffer, idx, maxlen, (flags & FLAGS_PLUS) ? "fni+" : "fni", (flags & FLAGS_PLUS) ? 4U : 3U, width, flags);
     e9c:	37100207 	tbnz	w7, #2, edc <_ftoa+0x1dc>
     ea0:	d2800060 	mov	x0, #0x3                   	// #3
     ea4:	2a0503e6 	mov	w6, w5
     ea8:	d0000044 	adrp	x4, a000 <__swbuf_r+0xb0>
     eac:	913a8084 	add	x4, x4, #0xea0
     eb0:	aa0003e5 	mov	x5, x0
     eb4:	aa1203e3 	mov	x3, x18
     eb8:	aa1103e2 	mov	x2, x17
     ebc:	aa1003e1 	mov	x1, x16
     ec0:	aa0f03e0 	mov	x0, x15
     ec4:	17fffdaf 	b	580 <_out_rev>
        return _out_rev(out, buffer, idx, maxlen, "nan", 3, width, flags);
     ec8:	2a0503e6 	mov	w6, w5
     ecc:	d0000044 	adrp	x4, a000 <__swbuf_r+0xb0>
     ed0:	d2800065 	mov	x5, #0x3                   	// #3
     ed4:	913ac084 	add	x4, x4, #0xeb0
     ed8:	17fffdaa 	b	580 <_out_rev>
        return _out_rev(out, buffer, idx, maxlen, (flags & FLAGS_PLUS) ? "fni+" : "fni", (flags & FLAGS_PLUS) ? 4U : 3U, width, flags);
     edc:	d2800080 	mov	x0, #0x4                   	// #4
     ee0:	2a0503e6 	mov	w6, w5
     ee4:	d0000044 	adrp	x4, a000 <__swbuf_r+0xb0>
     ee8:	913aa084 	add	x4, x4, #0xea8
     eec:	aa0003e5 	mov	x5, x0
     ef0:	aa1203e3 	mov	x3, x18
     ef4:	aa1103e2 	mov	x2, x17
     ef8:	aa1003e1 	mov	x1, x16
     efc:	aa0f03e0 	mov	x0, x15
     f00:	17fffda0 	b	580 <_out_rev>
        value = 0 - value;
     f04:	2f00e401 	movi	d1, #0x0
        negative = true;
     f08:	52800023 	mov	w3, #0x1                   	// #1
        value = 0 - value;
     f0c:	1e603820 	fsub	d0, d1, d0
    if (!(flags & FLAGS_PRECISION)) {
     f10:	3757f367 	tbnz	w7, #10, d7c <_ftoa+0x7c>
     f14:	d2d09000 	mov	x0, #0x848000000000        	// #145685290680320
     f18:	910043ec 	add	x12, sp, #0x10
     f1c:	f2e825c0 	movk	x0, #0x412e, lsl #48
     f20:	d2800008 	mov	x8, #0x0                   	// #0
     f24:	9e670002 	fmov	d2, x0
        prec = PRINTF_DEFAULT_FLOAT_PRECISION;
     f28:	528000c4 	mov	w4, #0x6                   	// #6
     f2c:	17ffffa3 	b	db8 <_ftoa+0xb8>
        return _etoa(out, buffer, idx, maxlen, value, prec, width, flags);
     f30:	2a0703e6 	mov	w6, w7
     f34:	aa1203e3 	mov	x3, x18
     f38:	aa1103e2 	mov	x2, x17
     f3c:	aa1003e1 	mov	x1, x16
     f40:	aa0f03e0 	mov	x0, x15
     f44:	17fffe87 	b	960 <_etoa>
        return _out_rev(out, buffer, idx, maxlen, "fni-", 4, width, flags);
     f48:	2a0503e6 	mov	w6, w5
     f4c:	d0000044 	adrp	x4, a000 <__swbuf_r+0xb0>
     f50:	d2800085 	mov	x5, #0x4                   	// #4
     f54:	913ae084 	add	x4, x4, #0xeb8
     f58:	17fffd8a 	b	580 <_out_rev>
     f5c:	51008081 	sub	w1, w4, #0x20
            buf[len++] = (char)(48U + (frac % 10U));
     f60:	b202e7e2 	mov	x2, #0xcccccccccccccccc    	// #-3689348814741910324
     f64:	0b080021 	add	w1, w1, w8
     f68:	f29999a2 	movk	x2, #0xcccd
     f6c:	1400000d 	b	fa0 <_ftoa+0x2a0>
     f70:	d343fd6b 	lsr	x11, x11, #3
            if (!(frac /= 10U)) {
     f74:	f10025df 	cmp	x14, #0x9
            --count;
     f78:	51000480 	sub	w0, w4, #0x1
            buf[len++] = (char)(48U + (frac % 10U));
     f7c:	91000509 	add	x9, x8, #0x1
     f80:	8b0b096d 	add	x13, x11, x11, lsl #2
     f84:	cb0d05cd 	sub	x13, x14, x13, lsl #1
            if (!(frac /= 10U)) {
     f88:	aa0b03ee 	mov	x14, x11
            buf[len++] = (char)(48U + (frac % 10U));
     f8c:	1100c1ab 	add	w11, w13, #0x30
     f90:	3828698b 	strb	w11, [x12, x8]
            if (!(frac /= 10U)) {
     f94:	54000569 	b.ls	1040 <_ftoa+0x340>  // b.plast
            --count;
     f98:	2a0003e4 	mov	w4, w0
            buf[len++] = (char)(48U + (frac % 10U));
     f9c:	aa0903e8 	mov	x8, x9
     fa0:	9bc27dcb 	umulh	x11, x14, x2
        while (len < PRINTF_FTOA_BUFFER_SIZE) {
     fa4:	6b01009f 	cmp	w4, w1
     fa8:	54fffe41 	b.ne	f70 <_ftoa+0x270>  // b.any
    if (!(flags & FLAGS_LEFT) && (flags & FLAGS_ZEROPAD)) {
     fac:	120004e0 	and	w0, w7, #0x3
     fb0:	7100041f 	cmp	w0, #0x1
     fb4:	54fff601 	b.ne	e74 <_ftoa+0x174>  // b.any
        if (width && (negative || (flags & (FLAGS_PLUS | FLAGS_SPACE)))) {
     fb8:	34fff525 	cbz	w5, e5c <_ftoa+0x15c>
     fbc:	35000763 	cbnz	w3, 10a8 <_ftoa+0x3a8>
     fc0:	721e04ff 	tst	w7, #0xc
     fc4:	54000721 	b.ne	10a8 <_ftoa+0x3a8>  // b.any
        while ((len < width) && (len < PRINTF_FTOA_BUFFER_SIZE)) {
     fc8:	2a0503e1 	mov	w1, w5
     fcc:	eb01011f 	cmp	x8, x1
     fd0:	54fff462 	b.cs	e5c <_ftoa+0x15c>  // b.hs, b.nlast
     fd4:	f1007d1f 	cmp	x8, #0x1f
            buf[len++] = '0';
     fd8:	52800602 	mov	w2, #0x30                  	// #48
        while ((len < width) && (len < PRINTF_FTOA_BUFFER_SIZE)) {
     fdc:	54fff4c8 	b.hi	e74 <_ftoa+0x174>  // b.pmore
            buf[len++] = '0';
     fe0:	91000508 	add	x8, x8, #0x1
     fe4:	8b080180 	add	x0, x12, x8
        while ((len < width) && (len < PRINTF_FTOA_BUFFER_SIZE)) {
     fe8:	eb01011f 	cmp	x8, x1
            buf[len++] = '0';
     fec:	381ff002 	sturb	w2, [x0, #-1]
        while ((len < width) && (len < PRINTF_FTOA_BUFFER_SIZE)) {
     ff0:	54fff360 	b.eq	e5c <_ftoa+0x15c>  // b.none
     ff4:	f100811f 	cmp	x8, #0x20
     ff8:	54ffff41 	b.ne	fe0 <_ftoa+0x2e0>  // b.any
     ffc:	17ffff9e 	b	e74 <_ftoa+0x174>
        ++frac;
    1000:	910005ce 	add	x14, x14, #0x1
        if (frac >= pow10[prec]) {
    1004:	9e6301c1 	ucvtf	d1, x14
    1008:	1e622030 	fcmpe	d1, d2
    100c:	5400004a 	b.ge	1014 <_ftoa+0x314>  // b.tcont
    1010:	17ffff78 	b	df0 <_ftoa+0xf0>
            ++whole;
    1014:	1100054a 	add	w10, w10, #0x1
            frac = 0;
    1018:	d280000e 	mov	x14, #0x0                   	// #0
    101c:	17ffff75 	b	df0 <_ftoa+0xf0>
        } else if (flags & FLAGS_PLUS) {
    1020:	371003c7 	tbnz	w7, #2, 1098 <_ftoa+0x398>
        } else if (flags & FLAGS_SPACE) {
    1024:	361ff287 	tbz	w7, #3, e74 <_ftoa+0x174>
            buf[len++] = ' ';
    1028:	52800400 	mov	w0, #0x20                  	// #32
    102c:	38286980 	strb	w0, [x12, x8]
    1030:	91000508 	add	x8, x8, #0x1
    1034:	17ffff90 	b	e74 <_ftoa+0x174>
        if ((!(diff < 0.5) || (diff > 0.5)) && (whole & 1)) {
    1038:	54ffee8c 	b.gt	e08 <_ftoa+0x108>
    103c:	17ffff75 	b	e10 <_ftoa+0x110>
        while ((len < PRINTF_FTOA_BUFFER_SIZE) && (count-- > 0U)) {
    1040:	f100813f 	cmp	x9, #0x20
    1044:	54000420 	b.eq	10c8 <_ftoa+0x3c8>  // b.none
    1048:	91000901 	add	x1, x8, #0x2
    104c:	51000884 	sub	w4, w4, #0x2
    1050:	8b040021 	add	x1, x1, x4
            buf[len++] = '0';
    1054:	52800602 	mov	w2, #0x30                  	// #48
        while ((len < PRINTF_FTOA_BUFFER_SIZE) && (count-- > 0U)) {
    1058:	34000340 	cbz	w0, 10c0 <_ftoa+0x3c0>
    105c:	d503201f 	nop
            buf[len++] = '0';
    1060:	91000529 	add	x9, x9, #0x1
    1064:	8b090180 	add	x0, x12, x9
        while ((len < PRINTF_FTOA_BUFFER_SIZE) && (count-- > 0U)) {
    1068:	f100813f 	cmp	x9, #0x20
            buf[len++] = '0';
    106c:	381ff002 	sturb	w2, [x0, #-1]
        while ((len < PRINTF_FTOA_BUFFER_SIZE) && (count-- > 0U)) {
    1070:	540002c0 	b.eq	10c8 <_ftoa+0x3c8>  // b.none
    1074:	eb01013f 	cmp	x9, x1
    1078:	54ffff41 	b.ne	1060 <_ftoa+0x360>  // b.any
            buf[len++] = '.';
    107c:	528005c0 	mov	w0, #0x2e                  	// #46
    1080:	91000428 	add	x8, x1, #0x1
    1084:	38216980 	strb	w0, [x12, x1]
    1088:	17ffff62 	b	e10 <_ftoa+0x110>
    } else if ((frac == 0U) || (frac & 1U)) {
    108c:	3607eb2e 	tbz	w14, #0, df0 <_ftoa+0xf0>
        ++frac;
    1090:	910005ce 	add	x14, x14, #0x1
    1094:	17ffff57 	b	df0 <_ftoa+0xf0>
            buf[len++] = '+'; // ignore the space if the '+' exists
    1098:	52800560 	mov	w0, #0x2b                  	// #43
    109c:	38286980 	strb	w0, [x12, x8]
    10a0:	91000508 	add	x8, x8, #0x1
    10a4:	17ffff74 	b	e74 <_ftoa+0x174>
            width--;
    10a8:	510004a5 	sub	w5, w5, #0x1
    10ac:	17ffffc7 	b	fc8 <_ftoa+0x2c8>
    double tmp = (value - whole) * pow10[prec];
    10b0:	b0000040 	adrp	x0, a000 <__swbuf_r+0xb0>
    10b4:	913e0000 	add	x0, x0, #0xf80
    10b8:	fc645802 	ldr	d2, [x0, w4, uxtw #3]
    10bc:	17ffff3f 	b	db8 <_ftoa+0xb8>
        while ((len < PRINTF_FTOA_BUFFER_SIZE) && (count-- > 0U)) {
    10c0:	aa0903e1 	mov	x1, x9
    10c4:	17ffffee 	b	107c <_ftoa+0x37c>
            buf[len++] = '0';
    10c8:	aa0903e8 	mov	x8, x9
    10cc:	17ffffb8 	b	fac <_ftoa+0x2ac>

00000000000010d0 <_out_char>:
    if (character) {
    10d0:	72001c00 	ands	w0, w0, #0xff
    10d4:	54000041 	b.ne	10dc <_out_char+0xc>  // b.any
}
    10d8:	d65f03c0 	ret
        _putchar(character);
    10dc:	17fffd05 	b	4f0 <putc>

00000000000010e0 <_out_fct>:
    if (character) {
    10e0:	72001c00 	ands	w0, w0, #0xff
    10e4:	54000080 	b.eq	10f4 <_out_fct+0x14>  // b.none
        ((out_fct_wrap_type*)buffer)->fct(character, ((out_fct_wrap_type*)buffer)->arg);
    10e8:	a9400422 	ldp	x2, x1, [x1]
    10ec:	aa0203f0 	mov	x16, x2
    10f0:	d61f0200 	br	x16
}
    10f4:	d65f03c0 	ret
    10f8:	d503201f 	nop
    10fc:	d503201f 	nop

0000000000001100 <_vsnprintf>:
#endif // PRINTF_SUPPORT_EXPONENTIAL
#endif // PRINTF_SUPPORT_FLOAT

// internal vsnprintf
static int _vsnprintf(out_fct_type out, char* buffer, const size_t maxlen, const char* format, va_list va)
{
    1100:	d102c3ff 	sub	sp, sp, #0xb0
    unsigned int flags, width, precision, n;
    size_t idx = 0U;

    if (!buffer) {
        // use null output function
        out = _out_null;
    1104:	f100003f 	cmp	x1, #0x0
{
    1108:	a9017bfd 	stp	x29, x30, [sp, #16]
    110c:	910043fd 	add	x29, sp, #0x10
    1110:	a90253f3 	stp	x19, x20, [sp, #32]
        out = _out_null;
    1114:	f0fffff3 	adrp	x19, 0 <main>
    1118:	9115c273 	add	x19, x19, #0x570
{
    111c:	a9056bf9 	stp	x25, x26, [sp, #80]
        out = _out_null;
    1120:	9a800273 	csel	x19, x19, x0, eq  // eq = none
{
    1124:	aa0103fa 	mov	x26, x1
    1128:	a90673fb 	stp	x27, x28, [sp, #96]
    112c:	aa0203fc 	mov	x28, x2
    }

    while (*format) {
    1130:	d280001b 	mov	x27, #0x0                   	// #0
    1134:	b9401880 	ldr	w0, [x4, #24]
    1138:	b9007be0 	str	w0, [sp, #120]
    113c:	f9400480 	ldr	x0, [x4, #8]
    1140:	f90047e0 	str	x0, [sp, #136]
    1144:	39400065 	ldrb	w5, [x3]
    1148:	f9400880 	ldr	x0, [x4, #16]
    114c:	f9004be0 	str	x0, [sp, #144]
    1150:	b9401c80 	ldr	w0, [x4, #28]
    1154:	b900abe0 	str	w0, [sp, #168]
    1158:	f9400094 	ldr	x20, [x4]
    115c:	34003ae5 	cbz	w5, 18b8 <_vsnprintf+0x7b8>
    1160:	a90463f7 	stp	x23, x24, [sp, #64]
        default:
            break;
        }

        // evaluate specifier
        switch (*format) {
    1164:	b0000058 	adrp	x24, a000 <__swbuf_r+0xb0>
    1168:	913b0300 	add	x0, x24, #0xec0
    116c:	aa0303f9 	mov	x25, x3
    1170:	f90043e0 	str	x0, [sp, #128]
    1174:	b0000040 	adrp	x0, a000 <__swbuf_r+0xb0>
    1178:	913da000 	add	x0, x0, #0xf68
    117c:	f9004fe0 	str	x0, [sp, #152]
    1180:	1400000a 	b	11a8 <_vsnprintf+0xa8>
            out(*format, buffer, idx++, maxlen);
    1184:	91000764 	add	x4, x27, #0x1
    1188:	2a0503e0 	mov	w0, w5
            out('%', buffer, idx++, maxlen);
            format++;
            break;

        default:
            out(*format, buffer, idx++, maxlen);
    118c:	aa1b03e2 	mov	x2, x27
    1190:	aa1c03e3 	mov	x3, x28
    1194:	aa1a03e1 	mov	x1, x26
    1198:	aa0403fb 	mov	x27, x4
    119c:	d63f0260 	blr	x19
    while (*format) {
    11a0:	39400325 	ldrb	w5, [x25]
    11a4:	34000c85 	cbz	w5, 1334 <_vsnprintf+0x234>
            format++;
    11a8:	91000739 	add	x25, x25, #0x1
        if (*format != '%') {
    11ac:	710094bf 	cmp	w5, #0x25
    11b0:	54fffea1 	b.ne	1184 <_vsnprintf+0x84>  // b.any
            switch (*format) {
    11b4:	aa1903e8 	mov	x8, x25
        flags = 0U;
    11b8:	52800006 	mov	w6, #0x0                   	// #0
            switch (*format) {
    11bc:	38401500 	ldrb	w0, [x8], #1
    11c0:	7100ac1f 	cmp	w0, #0x2b
    11c4:	54000180 	b.eq	11f4 <_vsnprintf+0xf4>  // b.none
    11c8:	540001c8 	b.hi	1200 <_vsnprintf+0x100>  // b.pmore
    11cc:	7100801f 	cmp	w0, #0x20
    11d0:	54000260 	b.eq	121c <_vsnprintf+0x11c>  // b.none
    11d4:	71008c1f 	cmp	w0, #0x23
    11d8:	540002e1 	b.ne	1234 <_vsnprintf+0x134>  // b.any
                flags |= FLAGS_HASH;
    11dc:	321c00c6 	orr	w6, w6, #0x10
            format++;
    11e0:	aa0803f9 	mov	x25, x8
            switch (*format) {
    11e4:	aa1903e8 	mov	x8, x25
    11e8:	38401500 	ldrb	w0, [x8], #1
    11ec:	7100ac1f 	cmp	w0, #0x2b
    11f0:	54fffec1 	b.ne	11c8 <_vsnprintf+0xc8>  // b.any
                flags |= FLAGS_PLUS;
    11f4:	321e00c6 	orr	w6, w6, #0x4
            format++;
    11f8:	aa0803f9 	mov	x25, x8
    11fc:	17fffffa 	b	11e4 <_vsnprintf+0xe4>
            switch (*format) {
    1200:	7100b41f 	cmp	w0, #0x2d
    1204:	54000120 	b.eq	1228 <_vsnprintf+0x128>  // b.none
    1208:	7100c01f 	cmp	w0, #0x30
    120c:	540062c1 	b.ne	1e64 <_vsnprintf+0xd64>  // b.any
                flags |= FLAGS_ZEROPAD;
    1210:	320000c6 	orr	w6, w6, #0x1
            format++;
    1214:	aa0803f9 	mov	x25, x8
    1218:	17fffff3 	b	11e4 <_vsnprintf+0xe4>
                flags |= FLAGS_SPACE;
    121c:	321d00c6 	orr	w6, w6, #0x8
            format++;
    1220:	aa0803f9 	mov	x25, x8
    1224:	17fffff0 	b	11e4 <_vsnprintf+0xe4>
                flags |= FLAGS_LEFT;
    1228:	321f00c6 	orr	w6, w6, #0x2
            format++;
    122c:	aa0803f9 	mov	x25, x8
    1230:	17ffffed 	b	11e4 <_vsnprintf+0xe4>
        } else if (*format == '*') {
    1234:	7100a81f 	cmp	w0, #0x2a
        width = 0U;
    1238:	52800018 	mov	w24, #0x0                   	// #0
        } else if (*format == '*') {
    123c:	540002e0 	b.eq	1298 <_vsnprintf+0x198>  // b.none
        precision = 0U;
    1240:	52800017 	mov	w23, #0x0                   	// #0
        switch (*format) {
    1244:	7101b01f 	cmp	w0, #0x6c
            format++;
    1248:	aa0803e4 	mov	x4, x8
        switch (*format) {
    124c:	54001f20 	b.eq	1630 <_vsnprintf+0x530>  // b.none
    1250:	54000588 	b.hi	1300 <_vsnprintf+0x200>  // b.pmore
    1254:	7101a01f 	cmp	w0, #0x68
    1258:	54001e20 	b.eq	161c <_vsnprintf+0x51c>  // b.none
    125c:	7101a81f 	cmp	w0, #0x6a
    1260:	54006241 	b.ne	1ea8 <_vsnprintf+0xda8>  // b.any
        switch (*format) {
    1264:	39400720 	ldrb	w0, [x25, #1]
            flags |= (sizeof(size_t) == sizeof(long) ? FLAGS_LONG : FLAGS_LONG_LONG);
    1268:	321800c6 	orr	w6, w6, #0x100
        switch (*format) {
    126c:	51009402 	sub	w2, w0, #0x25
            format++;
    1270:	91000499 	add	x25, x4, #0x1
        switch (*format) {
    1274:	71014c5f 	cmp	w2, #0x53
    1278:	54000069 	b.ls	1284 <_vsnprintf+0x184>  // b.plast
            out(*format, buffer, idx++, maxlen);
    127c:	91000764 	add	x4, x27, #0x1
    1280:	17ffffc3 	b	118c <_vsnprintf+0x8c>
        switch (*format) {
    1284:	f94043e1 	ldr	x1, [sp, #128]
    1288:	78625821 	ldrh	w1, [x1, w2, uxtw #1]
    128c:	10000062 	adr	x2, 1298 <_vsnprintf+0x198>
    1290:	8b21a841 	add	x1, x2, w1, sxth #2
    1294:	d61f0020 	br	x1
            const int w = va_arg(va, int);
    1298:	b9407be0 	ldr	w0, [sp, #120]
    129c:	37f806c0 	tbnz	w0, #31, 1374 <_vsnprintf+0x274>
    12a0:	91002e82 	add	x2, x20, #0xb
    12a4:	aa1403e0 	mov	x0, x20
    12a8:	927df054 	and	x20, x2, #0xfffffffffffffff8
    12ac:	b9400018 	ldr	w24, [x0]
            if (w < 0) {
    12b0:	36f80078 	tbz	w24, #31, 12bc <_vsnprintf+0x1bc>
                flags |= FLAGS_LEFT; // reverse padding
    12b4:	321f00c6 	orr	w6, w6, #0x2
                width = (unsigned int)-w;
    12b8:	4b1803f8 	neg	w24, w24
        if (*format == '.') {
    12bc:	39400720 	ldrb	w0, [x25, #1]
            format++;
    12c0:	aa0803f9 	mov	x25, x8
    12c4:	91000508 	add	x8, x8, #0x1
        if (*format == '.') {
    12c8:	7100b81f 	cmp	w0, #0x2e
    12cc:	54fffba1 	b.ne	1240 <_vsnprintf+0x140>  // b.any
            if (_is_digit(*format)) {
    12d0:	39400720 	ldrb	w0, [x25, #1]
            flags |= FLAGS_PRECISION;
    12d4:	321600c6 	orr	w6, w6, #0x400
            format++;
    12d8:	aa0803e4 	mov	x4, x8
    return (ch >= '0') && (ch <= '9');
    12dc:	5100c002 	sub	w2, w0, #0x30
            if (_is_digit(*format)) {
    12e0:	12001c42 	and	w2, w2, #0xff
    12e4:	7100245f 	cmp	w2, #0x9
    12e8:	54001b29 	b.ls	164c <_vsnprintf+0x54c>  // b.plast
            } else if (*format == '*') {
    12ec:	7100a81f 	cmp	w0, #0x2a
    12f0:	54002a20 	b.eq	1834 <_vsnprintf+0x734>  // b.none
            format++;
    12f4:	aa0803f9 	mov	x25, x8
    12f8:	91000508 	add	x8, x8, #0x1
    12fc:	17ffffd1 	b	1240 <_vsnprintf+0x140>
        switch (*format) {
    1300:	7101d01f 	cmp	w0, #0x74
    1304:	54fffb00 	b.eq	1264 <_vsnprintf+0x164>  // b.none
    1308:	7101e81f 	cmp	w0, #0x7a
    130c:	54fffac0 	b.eq	1264 <_vsnprintf+0x164>  // b.none
        switch (*format) {
    1310:	5101bc02 	sub	w2, w0, #0x6f
            format++;
    1314:	aa0803f9 	mov	x25, x8
        switch (*format) {
    1318:	7100245f 	cmp	w2, #0x9
    131c:	54fffb08 	b.hi	127c <_vsnprintf+0x17c>  // b.pmore
    1320:	f9404fe1 	ldr	x1, [sp, #152]
    1324:	78625821 	ldrh	w1, [x1, w2, uxtw #1]
    1328:	10000062 	adr	x2, 1334 <_vsnprintf+0x234>
    132c:	8b21a841 	add	x1, x2, w1, sxth #2
    1330:	d61f0020 	br	x1
    1334:	a94463f7 	ldp	x23, x24, [sp, #64]

    // termination
    out((char)0, buffer, idx < maxlen ? idx : maxlen - 1U, maxlen);

    // return written chars without terminating \0
    return (int)idx;
    1338:	2a1b03f4 	mov	w20, w27
    out((char)0, buffer, idx < maxlen ? idx : maxlen - 1U, maxlen);
    133c:	eb1b039f 	cmp	x28, x27
    1340:	d1000782 	sub	x2, x28, #0x1
    1344:	aa1a03e1 	mov	x1, x26
    1348:	9a9b9042 	csel	x2, x2, x27, ls  // ls = plast
    134c:	aa1c03e3 	mov	x3, x28
    1350:	52800000 	mov	w0, #0x0                   	// #0
    1354:	d63f0260 	blr	x19
}
    1358:	2a1403e0 	mov	w0, w20
    135c:	a9417bfd 	ldp	x29, x30, [sp, #16]
    1360:	a94253f3 	ldp	x19, x20, [sp, #32]
    1364:	a9456bf9 	ldp	x25, x26, [sp, #80]
    1368:	a94673fb 	ldp	x27, x28, [sp, #96]
    136c:	9102c3ff 	add	sp, sp, #0xb0
    1370:	d65f03c0 	ret
            const int w = va_arg(va, int);
    1374:	b9407be0 	ldr	w0, [sp, #120]
    1378:	11002002 	add	w2, w0, #0x8
    137c:	7100005f 	cmp	w2, #0x0
    1380:	5400228d 	b.le	17d0 <_vsnprintf+0x6d0>
    1384:	91002e84 	add	x4, x20, #0xb
    1388:	aa1403e0 	mov	x0, x20
    138c:	927df094 	and	x20, x4, #0xfffffffffffffff8
    1390:	b9007be2 	str	w2, [sp, #120]
    1394:	17ffffc6 	b	12ac <_vsnprintf+0x1ac>
            if (*format == 'x' || *format == 'X') {
    1398:	121a7802 	and	w2, w0, #0xffffffdf
    139c:	7101605f 	cmp	w2, #0x58
    13a0:	54001781 	b.ne	1690 <_vsnprintf+0x590>  // b.any
            if (*format == 'X') {
    13a4:	7101601f 	cmp	w0, #0x58
    13a8:	54003c81 	b.ne	1b38 <_vsnprintf+0xa38>  // b.any
                flags |= FLAGS_UPPERCASE;
    13ac:	321b00c6 	orr	w6, w6, #0x20
    13b0:	d2800208 	mov	x8, #0x10                  	// #16
                flags &= ~(FLAGS_PLUS | FLAGS_SPACE);
    13b4:	121c74c6 	and	w6, w6, #0xfffffff3
    13b8:	140000c0 	b	16b8 <_vsnprintf+0x5b8>
            if ((*format == 'g') || (*format == 'G'))
    13bc:	121a7802 	and	w2, w0, #0xffffffdf
            if ((*format == 'E') || (*format == 'G'))
    13c0:	121e7800 	and	w0, w0, #0xfffffffd
                flags |= FLAGS_ADAPT_EXP;
    13c4:	71011c5f 	cmp	w2, #0x47
    13c8:	321500c2 	orr	w2, w6, #0x800
    13cc:	1a860046 	csel	w6, w2, w6, eq  // eq = none
                flags |= FLAGS_UPPERCASE;
    13d0:	7101141f 	cmp	w0, #0x45
    13d4:	321b00c0 	orr	w0, w6, #0x20
    13d8:	1a860006 	csel	w6, w0, w6, eq  // eq = none
            idx = _etoa(out, buffer, idx, maxlen, va_arg(va, double), precision, width, flags);
    13dc:	b940abe0 	ldr	w0, [sp, #168]
    13e0:	37f81c20 	tbnz	w0, #31, 1764 <_vsnprintf+0x664>
    13e4:	91003e82 	add	x2, x20, #0xf
    13e8:	aa1403e0 	mov	x0, x20
    13ec:	927df054 	and	x20, x2, #0xfffffffffffffff8
    13f0:	fd400000 	ldr	d0, [x0]
    13f4:	aa1b03e2 	mov	x2, x27
    13f8:	2a1803e5 	mov	w5, w24
    13fc:	2a1703e4 	mov	w4, w23
    1400:	aa1c03e3 	mov	x3, x28
    1404:	aa1a03e1 	mov	x1, x26
    1408:	aa1303e0 	mov	x0, x19
    140c:	97fffd55 	bl	960 <_etoa>
    1410:	aa0003fb 	mov	x27, x0
            break;
    1414:	17ffff63 	b	11a0 <_vsnprintf+0xa0>
                flags |= FLAGS_UPPERCASE;
    1418:	7101181f 	cmp	w0, #0x46
    141c:	321b00c0 	orr	w0, w6, #0x20
    1420:	1a860006 	csel	w6, w0, w6, eq  // eq = none
            idx = _ftoa(out, buffer, idx, maxlen, va_arg(va, double), precision, width, flags);
    1424:	b940abe0 	ldr	w0, [sp, #168]
    1428:	37f818c0 	tbnz	w0, #31, 1740 <_vsnprintf+0x640>
    142c:	91003e82 	add	x2, x20, #0xf
    1430:	aa1403e0 	mov	x0, x20
    1434:	927df054 	and	x20, x2, #0xfffffffffffffff8
    1438:	fd400000 	ldr	d0, [x0]
    143c:	aa1b03e2 	mov	x2, x27
    1440:	2a1803e5 	mov	w5, w24
    1444:	2a1703e4 	mov	w4, w23
    1448:	aa1c03e3 	mov	x3, x28
    144c:	aa1a03e1 	mov	x1, x26
    1450:	aa1303e0 	mov	x0, x19
    1454:	97fffe2b 	bl	d00 <_ftoa>
    1458:	aa0003fb 	mov	x27, x0
            break;
    145c:	17ffff51 	b	11a0 <_vsnprintf+0xa0>
            out('%', buffer, idx++, maxlen);
    1460:	91000760 	add	x0, x27, #0x1
    1464:	aa1b03e2 	mov	x2, x27
    1468:	aa1c03e3 	mov	x3, x28
    146c:	aa0003fb 	mov	x27, x0
    1470:	aa1a03e1 	mov	x1, x26
    1474:	528004a0 	mov	w0, #0x25                  	// #37
    1478:	d63f0260 	blr	x19
            break;
    147c:	17ffff49 	b	11a0 <_vsnprintf+0xa0>
            flags |= FLAGS_ZEROPAD | FLAGS_UPPERCASE;
    1480:	52800420 	mov	w0, #0x21                  	// #33
    1484:	2a0000c6 	orr	w6, w6, w0
                idx = _ntoa_long_long(out, buffer, idx, maxlen, (uintptr_t)va_arg(va, void*), false, 16U, precision, width, flags);
    1488:	b9407be0 	ldr	w0, [sp, #120]
    148c:	37f817e0 	tbnz	w0, #31, 1788 <_vsnprintf+0x688>
    1490:	91003e82 	add	x2, x20, #0xf
    1494:	aa1403e0 	mov	x0, x20
    1498:	927df054 	and	x20, x2, #0xfffffffffffffff8
    149c:	2a1703e7 	mov	w7, w23
    14a0:	aa1b03e2 	mov	x2, x27
    14a4:	f9400004 	ldr	x4, [x0]
    14a8:	52800200 	mov	w0, #0x10                  	// #16
    14ac:	b90003e0 	str	w0, [sp]
    14b0:	b9000be6 	str	w6, [sp, #8]
    14b4:	d2800206 	mov	x6, #0x10                  	// #16
    14b8:	52800005 	mov	w5, #0x0                   	// #0
    14bc:	aa1c03e3 	mov	x3, x28
    14c0:	aa1a03e1 	mov	x1, x26
    14c4:	aa1303e0 	mov	x0, x19
    14c8:	97fffc72 	bl	690 <_ntoa_long>
    14cc:	aa0003fb 	mov	x27, x0
            break;
    14d0:	17ffff34 	b	11a0 <_vsnprintf+0xa0>
            if (!(flags & FLAGS_LEFT)) {
    14d4:	a9035bf5 	stp	x21, x22, [sp, #48]
    14d8:	36082306 	tbz	w6, #1, 1938 <_vsnprintf+0x838>
            out((char)va_arg(va, int), buffer, idx++, maxlen);
    14dc:	b9407be0 	ldr	w0, [sp, #120]
    14e0:	37f82a20 	tbnz	w0, #31, 1a24 <_vsnprintf+0x924>
    14e4:	91002e82 	add	x2, x20, #0xb
    14e8:	aa1403e0 	mov	x0, x20
    14ec:	927df054 	and	x20, x2, #0xfffffffffffffff8
    14f0:	39400000 	ldrb	w0, [x0]
    14f4:	aa1b03e2 	mov	x2, x27
    14f8:	aa1c03e3 	mov	x3, x28
    14fc:	aa1a03e1 	mov	x1, x26
    1500:	91000775 	add	x21, x27, #0x1
    1504:	d63f0260 	blr	x19
                while (l++ < width) {
    1508:	51000b00 	sub	w0, w24, #0x2
    150c:	91000b6a 	add	x10, x27, #0x2
    1510:	7100071f 	cmp	w24, #0x1
    1514:	8b00015b 	add	x27, x10, x0
    1518:	540007c9 	b.ls	1610 <_vsnprintf+0x510>  // b.plast
    151c:	d503201f 	nop
                    out(' ', buffer, idx++, maxlen);
    1520:	aa1503e2 	mov	x2, x21
    1524:	aa1c03e3 	mov	x3, x28
    1528:	910006b5 	add	x21, x21, #0x1
    152c:	aa1a03e1 	mov	x1, x26
    1530:	52800400 	mov	w0, #0x20                  	// #32
    1534:	d63f0260 	blr	x19
                while (l++ < width) {
    1538:	eb1b02bf 	cmp	x21, x27
    153c:	54ffff21 	b.ne	1520 <_vsnprintf+0x420>  // b.any
    1540:	a9435bf5 	ldp	x21, x22, [sp, #48]
    1544:	17ffff17 	b	11a0 <_vsnprintf+0xa0>
            const char* p = va_arg(va, char*);
    1548:	b9407be0 	ldr	w0, [sp, #120]
    154c:	a9035bf5 	stp	x21, x22, [sp, #48]
    1550:	37f812e0 	tbnz	w0, #31, 17ac <_vsnprintf+0x6ac>
    1554:	91003e82 	add	x2, x20, #0xf
    1558:	aa1403e0 	mov	x0, x20
    155c:	927df054 	and	x20, x2, #0xfffffffffffffff8
    1560:	f9400015 	ldr	x21, [x0]
    for (s = str; *s && maxsize--; ++s)
    1564:	394002a8 	ldrb	w8, [x21]
    1568:	2a0803e0 	mov	w0, w8
            unsigned int l = _strnlen_s(p, precision ? precision : (size_t)-1);
    156c:	350017d7 	cbnz	w23, 1864 <_vsnprintf+0x764>
    for (s = str; *s && maxsize--; ++s)
    1570:	92800022 	mov	x2, #0xfffffffffffffffe    	// #-2
    1574:	340035c8 	cbz	w8, 1c2c <_vsnprintf+0xb2c>
    1578:	91000456 	add	x22, x2, #0x1
    157c:	aa1503e2 	mov	x2, x21
    1580:	8b1602b6 	add	x22, x21, x22
    1584:	14000003 	b	1590 <_vsnprintf+0x490>
    1588:	eb0202df 	cmp	x22, x2
    158c:	54001900 	b.eq	18ac <_vsnprintf+0x7ac>  // b.none
    1590:	38401c44 	ldrb	w4, [x2, #1]!
    1594:	35ffffa4 	cbnz	w4, 1588 <_vsnprintf+0x488>
    return (unsigned int)(s - str);
    1598:	4b150041 	sub	w1, w2, w21
    159c:	b900a3e1 	str	w1, [sp, #160]
            if (flags & FLAGS_PRECISION) {
    15a0:	121600c1 	and	w1, w6, #0x400
    15a4:	b9007fe1 	str	w1, [sp, #124]
    15a8:	365000a6 	tbz	w6, #10, 15bc <_vsnprintf+0x4bc>
                l = (l < precision ? l : precision);
    15ac:	b940a3e1 	ldr	w1, [sp, #160]
    15b0:	6b17003f 	cmp	w1, w23
    15b4:	1a979021 	csel	w1, w1, w23, ls  // ls = plast
    15b8:	b900a3e1 	str	w1, [sp, #160]
            if (!(flags & FLAGS_LEFT)) {
    15bc:	121f00c1 	and	w1, w6, #0x2
    15c0:	b900afe1 	str	w1, [sp, #172]
    15c4:	36081826 	tbz	w6, #1, 18c8 <_vsnprintf+0x7c8>
            while ((*p != 0) && (!(flags & FLAGS_PRECISION) || precision--)) {
    15c8:	34001108 	cbz	w8, 17e8 <_vsnprintf+0x6e8>
    15cc:	aa1b03e2 	mov	x2, x27
    15d0:	cb1b02b6 	sub	x22, x21, x27
    15d4:	14000002 	b	15dc <_vsnprintf+0x4dc>
                out(*(p++), buffer, idx++, maxlen);
    15d8:	aa1503e2 	mov	x2, x21
            while ((*p != 0) && (!(flags & FLAGS_PRECISION) || precision--)) {
    15dc:	b9407fe1 	ldr	w1, [sp, #124]
    15e0:	34000081 	cbz	w1, 15f0 <_vsnprintf+0x4f0>
    15e4:	510006e4 	sub	w4, w23, #0x1
    15e8:	340016d7 	cbz	w23, 18c0 <_vsnprintf+0x7c0>
    15ec:	2a0403f7 	mov	w23, w4
                out(*(p++), buffer, idx++, maxlen);
    15f0:	91000455 	add	x21, x2, #0x1
    15f4:	aa1c03e3 	mov	x3, x28
    15f8:	aa1a03e1 	mov	x1, x26
    15fc:	d63f0260 	blr	x19
            while ((*p != 0) && (!(flags & FLAGS_PRECISION) || precision--)) {
    1600:	38756ac0 	ldrb	w0, [x22, x21]
    1604:	35fffea0 	cbnz	w0, 15d8 <_vsnprintf+0x4d8>
            if (flags & FLAGS_LEFT) {
    1608:	b940afe0 	ldr	w0, [sp, #172]
    160c:	35000ec0 	cbnz	w0, 17e4 <_vsnprintf+0x6e4>
                while (l++ < width) {
    1610:	aa1503fb 	mov	x27, x21
    1614:	a9435bf5 	ldp	x21, x22, [sp, #48]
    1618:	17fffee2 	b	11a0 <_vsnprintf+0xa0>
            if (*format == 'h') {
    161c:	39400720 	ldrb	w0, [x25, #1]
    1620:	7101a01f 	cmp	w0, #0x68
    1624:	540013c0 	b.eq	189c <_vsnprintf+0x79c>  // b.none
            flags |= FLAGS_SHORT;
    1628:	321900c6 	orr	w6, w6, #0x80
    162c:	17ffff10 	b	126c <_vsnprintf+0x16c>
            if (*format == 'l') {
    1630:	39400720 	ldrb	w0, [x25, #1]
    1634:	7101b01f 	cmp	w0, #0x6c
    1638:	54ffe181 	b.ne	1268 <_vsnprintf+0x168>  // b.any
        switch (*format) {
    163c:	39400b20 	ldrb	w0, [x25, #2]
                flags |= FLAGS_LONG_LONG;
    1640:	321804c6 	orr	w6, w6, #0x300
                format++;
    1644:	91000b24 	add	x4, x25, #0x2
    1648:	17ffff09 	b	126c <_vsnprintf+0x16c>
    unsigned int i = 0U;
    164c:	52800017 	mov	w23, #0x0                   	// #0
        i = i * 10U + (unsigned int)(*((*str)++) - '0');
    1650:	52800148 	mov	w8, #0xa                   	// #10
    1654:	d503201f 	nop
    1658:	1b0802e7 	madd	w7, w23, w8, w0
    while (_is_digit(**str)) {
    165c:	38401c80 	ldrb	w0, [x4, #1]!
    return (ch >= '0') && (ch <= '9');
    1660:	5100c002 	sub	w2, w0, #0x30
        i = i * 10U + (unsigned int)(*((*str)++) - '0');
    1664:	5100c0f7 	sub	w23, w7, #0x30
    while (_is_digit(**str)) {
    1668:	12001c42 	and	w2, w2, #0xff
    166c:	7100245f 	cmp	w2, #0x9
    1670:	54ffff49 	b.ls	1658 <_vsnprintf+0x558>  // b.plast
    1674:	aa0403f9 	mov	x25, x4
    1678:	91000488 	add	x8, x4, #0x1
    167c:	17fffef2 	b	1244 <_vsnprintf+0x144>
            if (*format == 'x' || *format == 'X') {
    1680:	121a7802 	and	w2, w0, #0xffffffdf
    1684:	7101605f 	cmp	w2, #0x58
    1688:	54002580 	b.eq	1b38 <_vsnprintf+0xa38>  // b.none
    168c:	d503201f 	nop
            } else if (*format == 'o') {
    1690:	7101bc1f 	cmp	w0, #0x6f
    1694:	540021a0 	b.eq	1ac8 <_vsnprintf+0x9c8>  // b.none
            } else if (*format == 'b') {
    1698:	7101881f 	cmp	w0, #0x62
    169c:	54002820 	b.eq	1ba0 <_vsnprintf+0xaa0>  // b.none
                flags &= ~FLAGS_HASH; // no hash for dec format
    16a0:	121b78c6 	and	w6, w6, #0xffffffef
    16a4:	d2800148 	mov	x8, #0xa                   	// #10
            if ((*format != 'i') && (*format != 'd')) {
    16a8:	7101a41f 	cmp	w0, #0x69
    16ac:	52800c82 	mov	w2, #0x64                  	// #100
    16b0:	7a421004 	ccmp	w0, w2, #0x4, ne  // ne = any
    16b4:	54ffe801 	b.ne	13b4 <_vsnprintf+0x2b4>  // b.any
                flags &= ~FLAGS_ZEROPAD;
    16b8:	f27600df 	tst	x6, #0x400
    16bc:	121f78c2 	and	w2, w6, #0xfffffffe
    16c0:	1a861046 	csel	w6, w2, w6, ne  // ne = any
            if ((*format == 'i') || (*format == 'd')) {
    16c4:	7101a41f 	cmp	w0, #0x69
    16c8:	52800c84 	mov	w4, #0x64                  	// #100
                if (flags & FLAGS_LONG_LONG) {
    16cc:	121700c2 	and	w2, w6, #0x200
            if ((*format == 'i') || (*format == 'd')) {
    16d0:	7a441004 	ccmp	w0, w4, #0x4, ne  // ne = any
                    const long long value = va_arg(va, long long);
    16d4:	b9407be0 	ldr	w0, [sp, #120]
            if ((*format == 'i') || (*format == 'd')) {
    16d8:	54000ce1 	b.ne	1874 <_vsnprintf+0x774>  // b.any
                if (flags & FLAGS_LONG_LONG) {
    16dc:	35002122 	cbnz	w2, 1b00 <_vsnprintf+0xa00>
                } else if (flags & FLAGS_LONG) {
    16e0:	37402306 	tbnz	w6, #8, 1b40 <_vsnprintf+0xa40>
                    const int value = (flags & FLAGS_CHAR) ? (char)va_arg(va, int) : (flags & FLAGS_SHORT) ? (short int)va_arg(va, int)
    16e4:	37301b26 	tbnz	w6, #6, 1a48 <_vsnprintf+0x948>
                                                                                                           : va_arg(va, int);
    16e8:	36382926 	tbz	w6, #7, 1c0c <_vsnprintf+0xb0c>
                    const int value = (flags & FLAGS_CHAR) ? (char)va_arg(va, int) : (flags & FLAGS_SHORT) ? (short int)va_arg(va, int)
    16ec:	37f83300 	tbnz	w0, #31, 1d4c <_vsnprintf+0xc4c>
    16f0:	91002e82 	add	x2, x20, #0xb
    16f4:	aa1403e0 	mov	x0, x20
    16f8:	927df054 	and	x20, x2, #0xfffffffffffffff8
    16fc:	79c00005 	ldrsh	w5, [x0]
                    idx = _ntoa_long(out, buffer, idx, maxlen, (unsigned int)(value > 0 ? value : 0 - value), value < 0, base, precision, width, flags);
    1700:	710000bf 	cmp	w5, #0x0
    1704:	5a85a4a4 	cneg	w4, w5, lt  // lt = tstop
    1708:	12003c84 	and	w4, w4, #0xffff
    170c:	2a1703e7 	mov	w7, w23
    1710:	531f7ca5 	lsr	w5, w5, #31
    1714:	93407c84 	sxtw	x4, w4
    1718:	aa1b03e2 	mov	x2, x27
    171c:	b9000be6 	str	w6, [sp, #8]
    1720:	aa0803e6 	mov	x6, x8
    1724:	b90003f8 	str	w24, [sp]
                    idx = _ntoa_long(out, buffer, idx, maxlen, value, false, base, precision, width, flags);
    1728:	aa1c03e3 	mov	x3, x28
    172c:	aa1a03e1 	mov	x1, x26
    1730:	aa1303e0 	mov	x0, x19
    1734:	97fffbd7 	bl	690 <_ntoa_long>
    1738:	aa0003fb 	mov	x27, x0
            break;
    173c:	17fffe99 	b	11a0 <_vsnprintf+0xa0>
            idx = _ftoa(out, buffer, idx, maxlen, va_arg(va, double), precision, width, flags);
    1740:	b940abe0 	ldr	w0, [sp, #168]
    1744:	11004002 	add	w2, w0, #0x10
    1748:	7100005f 	cmp	w2, #0x0
    174c:	54001b4d 	b.le	1ab4 <_vsnprintf+0x9b4>
    1750:	91003e84 	add	x4, x20, #0xf
    1754:	aa1403e0 	mov	x0, x20
    1758:	927df094 	and	x20, x4, #0xfffffffffffffff8
    175c:	b900abe2 	str	w2, [sp, #168]
    1760:	17ffff36 	b	1438 <_vsnprintf+0x338>
            idx = _etoa(out, buffer, idx, maxlen, va_arg(va, double), precision, width, flags);
    1764:	b940abe0 	ldr	w0, [sp, #168]
    1768:	11004002 	add	w2, w0, #0x10
    176c:	7100005f 	cmp	w2, #0x0
    1770:	5400198d 	b.le	1aa0 <_vsnprintf+0x9a0>
    1774:	91003e84 	add	x4, x20, #0xf
    1778:	aa1403e0 	mov	x0, x20
    177c:	927df094 	and	x20, x4, #0xfffffffffffffff8
    1780:	b900abe2 	str	w2, [sp, #168]
    1784:	17ffff1b 	b	13f0 <_vsnprintf+0x2f0>
                idx = _ntoa_long_long(out, buffer, idx, maxlen, (uintptr_t)va_arg(va, void*), false, 16U, precision, width, flags);
    1788:	b9407be0 	ldr	w0, [sp, #120]
    178c:	11002002 	add	w2, w0, #0x8
    1790:	7100005f 	cmp	w2, #0x0
    1794:	540017cd 	b.le	1a8c <_vsnprintf+0x98c>
    1798:	91003e84 	add	x4, x20, #0xf
    179c:	aa1403e0 	mov	x0, x20
    17a0:	927df094 	and	x20, x4, #0xfffffffffffffff8
    17a4:	b9007be2 	str	w2, [sp, #120]
    17a8:	17ffff3d 	b	149c <_vsnprintf+0x39c>
            const char* p = va_arg(va, char*);
    17ac:	b9407be0 	ldr	w0, [sp, #120]
    17b0:	11002002 	add	w2, w0, #0x8
    17b4:	7100005f 	cmp	w2, #0x0
    17b8:	5400160d 	b.le	1a78 <_vsnprintf+0x978>
    17bc:	91003e84 	add	x4, x20, #0xf
    17c0:	aa1403e0 	mov	x0, x20
    17c4:	927df094 	and	x20, x4, #0xfffffffffffffff8
    17c8:	b9007be2 	str	w2, [sp, #120]
    17cc:	17ffff65 	b	1560 <_vsnprintf+0x460>
            const int w = va_arg(va, int);
    17d0:	f94047e1 	ldr	x1, [sp, #136]
    17d4:	b9407be0 	ldr	w0, [sp, #120]
    17d8:	b9007be2 	str	w2, [sp, #120]
    17dc:	8b20c020 	add	x0, x1, w0, sxtw
    17e0:	17fffeb3 	b	12ac <_vsnprintf+0x1ac>
    17e4:	aa1503fb 	mov	x27, x21
                while (l++ < width) {
    17e8:	b940a3e0 	ldr	w0, [sp, #160]
    17ec:	6b18001f 	cmp	w0, w24
    17f0:	540009e2 	b.cs	192c <_vsnprintf+0x82c>  // b.hs, b.nlast
    17f4:	51000704 	sub	w4, w24, #0x1
    17f8:	91000776 	add	x22, x27, #0x1
    17fc:	4b000084 	sub	w4, w4, w0
    1800:	8b160095 	add	x21, x4, x22
    1804:	14000002 	b	180c <_vsnprintf+0x70c>
    1808:	910006d6 	add	x22, x22, #0x1
                    out(' ', buffer, idx++, maxlen);
    180c:	aa1b03e2 	mov	x2, x27
    1810:	aa1c03e3 	mov	x3, x28
    1814:	aa1a03e1 	mov	x1, x26
    1818:	52800400 	mov	w0, #0x20                  	// #32
    181c:	d63f0260 	blr	x19
    1820:	aa1603fb 	mov	x27, x22
                while (l++ < width) {
    1824:	eb1502df 	cmp	x22, x21
    1828:	54ffff01 	b.ne	1808 <_vsnprintf+0x708>  // b.any
                while (l++ < width) {
    182c:	aa1503fb 	mov	x27, x21
    1830:	17ffff79 	b	1614 <_vsnprintf+0x514>
                const int prec = (int)va_arg(va, int);
    1834:	b9407be0 	ldr	w0, [sp, #120]
    1838:	37f80b80 	tbnz	w0, #31, 19a8 <_vsnprintf+0x8a8>
    183c:	91002e82 	add	x2, x20, #0xb
    1840:	aa1403e0 	mov	x0, x20
    1844:	927df054 	and	x20, x2, #0xfffffffffffffff8
                precision = prec > 0 ? (unsigned int)prec : 0U;
    1848:	b9400007 	ldr	w7, [x0]
                format++;
    184c:	91000b39 	add	x25, x25, #0x2
        switch (*format) {
    1850:	39400320 	ldrb	w0, [x25]
    1854:	91000728 	add	x8, x25, #0x1
                precision = prec > 0 ? (unsigned int)prec : 0U;
    1858:	710000ff 	cmp	w7, #0x0
    185c:	1a9fa0f7 	csel	w23, w7, wzr, ge  // ge = tcont
                format++;
    1860:	17fffe79 	b	1244 <_vsnprintf+0x144>
            unsigned int l = _strnlen_s(p, precision ? precision : (size_t)-1);
    1864:	2a1703e2 	mov	w2, w23
    for (s = str; *s && maxsize--; ++s)
    1868:	34001e28 	cbz	w8, 1c2c <_vsnprintf+0xb2c>
    186c:	d1000442 	sub	x2, x2, #0x1
    1870:	17ffff42 	b	1578 <_vsnprintf+0x478>
                if (flags & FLAGS_LONG_LONG) {
    1874:	35001302 	cbnz	w2, 1ad4 <_vsnprintf+0x9d4>
                } else if (flags & FLAGS_LONG) {
    1878:	37401806 	tbnz	w6, #8, 1b78 <_vsnprintf+0xa78>
                    const unsigned int value = (flags & FLAGS_CHAR) ? (unsigned char)va_arg(va, unsigned int) : (flags & FLAGS_SHORT) ? (unsigned short int)va_arg(va, unsigned int)
    187c:	37300ba6 	tbnz	w6, #6, 19f0 <_vsnprintf+0x8f0>
                                                                                                                                      : va_arg(va, unsigned int);
    1880:	36381ba6 	tbz	w6, #7, 1bf4 <_vsnprintf+0xaf4>
                    const unsigned int value = (flags & FLAGS_CHAR) ? (unsigned char)va_arg(va, unsigned int) : (flags & FLAGS_SHORT) ? (unsigned short int)va_arg(va, unsigned int)
    1884:	37f82500 	tbnz	w0, #31, 1d24 <_vsnprintf+0xc24>
    1888:	aa1403e0 	mov	x0, x20
    188c:	91002e82 	add	x2, x20, #0xb
    1890:	927df054 	and	x20, x2, #0xfffffffffffffff8
    1894:	79400004 	ldrh	w4, [x0]
    1898:	1400005b 	b	1a04 <_vsnprintf+0x904>
        switch (*format) {
    189c:	39400b20 	ldrb	w0, [x25, #2]
                flags |= FLAGS_CHAR;
    18a0:	321a04c6 	orr	w6, w6, #0xc0
                format++;
    18a4:	91000b24 	add	x4, x25, #0x2
    18a8:	17fffe71 	b	126c <_vsnprintf+0x16c>
    return (unsigned int)(s - str);
    18ac:	4b1502c1 	sub	w1, w22, w21
    18b0:	b900a3e1 	str	w1, [sp, #160]
    18b4:	17ffff3b 	b	15a0 <_vsnprintf+0x4a0>
    while (*format) {
    18b8:	52800014 	mov	w20, #0x0                   	// #0
    18bc:	17fffea0 	b	133c <_vsnprintf+0x23c>
    18c0:	aa0203f5 	mov	x21, x2
    18c4:	17ffff51 	b	1608 <_vsnprintf+0x508>
                while (l++ < width) {
    18c8:	b940a3e1 	ldr	w1, [sp, #160]
    18cc:	6b18003f 	cmp	w1, w24
    18d0:	11000420 	add	w0, w1, #0x1
    18d4:	54002242 	b.cs	1d1c <_vsnprintf+0xc1c>  // b.hs, b.nlast
    18d8:	51000700 	sub	w0, w24, #0x1
    18dc:	91000776 	add	x22, x27, #0x1
    18e0:	4b010000 	sub	w0, w0, w1
    18e4:	8b160000 	add	x0, x0, x22
    18e8:	f90053e0 	str	x0, [sp, #160]
    18ec:	14000002 	b	18f4 <_vsnprintf+0x7f4>
    18f0:	910006d6 	add	x22, x22, #0x1
                    out(' ', buffer, idx++, maxlen);
    18f4:	aa1b03e2 	mov	x2, x27
    18f8:	52800400 	mov	w0, #0x20                  	// #32
    18fc:	aa1c03e3 	mov	x3, x28
    1900:	aa1a03e1 	mov	x1, x26
    1904:	d63f0260 	blr	x19
    1908:	aa1603fb 	mov	x27, x22
                while (l++ < width) {
    190c:	f94053e0 	ldr	x0, [sp, #160]
    1910:	eb16001f 	cmp	x0, x22
    1914:	54fffee1 	b.ne	18f0 <_vsnprintf+0x7f0>  // b.any
    1918:	394002a8 	ldrb	w8, [x21]
    191c:	11000700 	add	w0, w24, #0x1
    1920:	b900a3e0 	str	w0, [sp, #160]
            while ((*p != 0) && (!(flags & FLAGS_PRECISION) || precision--)) {
    1924:	2a0803e0 	mov	w0, w8
    1928:	35ffe528 	cbnz	w8, 15cc <_vsnprintf+0x4cc>
                while (l++ < width) {
    192c:	aa1b03f5 	mov	x21, x27
                while (l++ < width) {
    1930:	aa1503fb 	mov	x27, x21
    1934:	17ffff38 	b	1614 <_vsnprintf+0x514>
                while (l++ < width) {
    1938:	7100071f 	cmp	w24, #0x1
    193c:	54001ec9 	b.ls	1d14 <_vsnprintf+0xc14>  // b.plast
    1940:	51000b05 	sub	w5, w24, #0x2
    1944:	91000776 	add	x22, x27, #0x1
    1948:	8b0502d5 	add	x21, x22, x5
    194c:	14000002 	b	1954 <_vsnprintf+0x854>
    1950:	910006d6 	add	x22, x22, #0x1
                    out(' ', buffer, idx++, maxlen);
    1954:	aa1b03e2 	mov	x2, x27
    1958:	aa1c03e3 	mov	x3, x28
    195c:	aa1a03e1 	mov	x1, x26
    1960:	52800400 	mov	w0, #0x20                  	// #32
    1964:	d63f0260 	blr	x19
    1968:	aa1603fb 	mov	x27, x22
                while (l++ < width) {
    196c:	eb1502df 	cmp	x22, x21
    1970:	54ffff01 	b.ne	1950 <_vsnprintf+0x850>  // b.any
            out((char)va_arg(va, int), buffer, idx++, maxlen);
    1974:	b9407be0 	ldr	w0, [sp, #120]
    1978:	37f802a0 	tbnz	w0, #31, 19cc <_vsnprintf+0x8cc>
    197c:	91002e82 	add	x2, x20, #0xb
    1980:	aa1403e0 	mov	x0, x20
    1984:	927df054 	and	x20, x2, #0xfffffffffffffff8
    1988:	39400000 	ldrb	w0, [x0]
    198c:	aa1503e2 	mov	x2, x21
    1990:	910006bb 	add	x27, x21, #0x1
    1994:	aa1c03e3 	mov	x3, x28
    1998:	aa1a03e1 	mov	x1, x26
    199c:	d63f0260 	blr	x19
            if (flags & FLAGS_LEFT) {
    19a0:	a9435bf5 	ldp	x21, x22, [sp, #48]
    19a4:	17fffdff 	b	11a0 <_vsnprintf+0xa0>
                const int prec = (int)va_arg(va, int);
    19a8:	b9407be0 	ldr	w0, [sp, #120]
    19ac:	11002002 	add	w2, w0, #0x8
    19b0:	7100005f 	cmp	w2, #0x0
    19b4:	5400058d 	b.le	1a64 <_vsnprintf+0x964>
    19b8:	91002e84 	add	x4, x20, #0xb
    19bc:	aa1403e0 	mov	x0, x20
    19c0:	927df094 	and	x20, x4, #0xfffffffffffffff8
    19c4:	b9007be2 	str	w2, [sp, #120]
    19c8:	17ffffa0 	b	1848 <_vsnprintf+0x748>
            out((char)va_arg(va, int), buffer, idx++, maxlen);
    19cc:	b9407be0 	ldr	w0, [sp, #120]
    19d0:	11002002 	add	w2, w0, #0x8
    19d4:	7100005f 	cmp	w2, #0x0
    19d8:	540016ed 	b.le	1cb4 <_vsnprintf+0xbb4>
    19dc:	91002e84 	add	x4, x20, #0xb
    19e0:	aa1403e0 	mov	x0, x20
    19e4:	927df094 	and	x20, x4, #0xfffffffffffffff8
    19e8:	b9007be2 	str	w2, [sp, #120]
    19ec:	17ffffe7 	b	1988 <_vsnprintf+0x888>
                    const unsigned int value = (flags & FLAGS_CHAR) ? (unsigned char)va_arg(va, unsigned int) : (flags & FLAGS_SHORT) ? (unsigned short int)va_arg(va, unsigned int)
    19f0:	37f81220 	tbnz	w0, #31, 1c34 <_vsnprintf+0xb34>
    19f4:	91002e82 	add	x2, x20, #0xb
    19f8:	aa1403e0 	mov	x0, x20
    19fc:	927df054 	and	x20, x2, #0xfffffffffffffff8
    1a00:	39400004 	ldrb	w4, [x0]
                    idx = _ntoa_long(out, buffer, idx, maxlen, value, false, base, precision, width, flags);
    1a04:	2a1703e7 	mov	w7, w23
    1a08:	2a0403e4 	mov	w4, w4
    1a0c:	b9000be6 	str	w6, [sp, #8]
    1a10:	aa0803e6 	mov	x6, x8
    1a14:	b90003f8 	str	w24, [sp]
    1a18:	aa1b03e2 	mov	x2, x27
    1a1c:	52800005 	mov	w5, #0x0                   	// #0
    1a20:	17ffff42 	b	1728 <_vsnprintf+0x628>
            out((char)va_arg(va, int), buffer, idx++, maxlen);
    1a24:	b9407be0 	ldr	w0, [sp, #120]
    1a28:	11002002 	add	w2, w0, #0x8
    1a2c:	7100005f 	cmp	w2, #0x0
    1a30:	5400138d 	b.le	1ca0 <_vsnprintf+0xba0>
    1a34:	91002e84 	add	x4, x20, #0xb
    1a38:	aa1403e0 	mov	x0, x20
    1a3c:	927df094 	and	x20, x4, #0xfffffffffffffff8
    1a40:	b9007be2 	str	w2, [sp, #120]
    1a44:	17fffeab 	b	14f0 <_vsnprintf+0x3f0>
                    const int value = (flags & FLAGS_CHAR) ? (char)va_arg(va, int) : (flags & FLAGS_SHORT) ? (short int)va_arg(va, int)
    1a48:	37f81080 	tbnz	w0, #31, 1c58 <_vsnprintf+0xb58>
    1a4c:	91002e82 	add	x2, x20, #0xb
    1a50:	aa1403e0 	mov	x0, x20
    1a54:	927df054 	and	x20, x2, #0xfffffffffffffff8
    1a58:	39400005 	ldrb	w5, [x0]
    1a5c:	2a0503e4 	mov	w4, w5
    1a60:	17ffff2b 	b	170c <_vsnprintf+0x60c>
                const int prec = (int)va_arg(va, int);
    1a64:	f94047e1 	ldr	x1, [sp, #136]
    1a68:	b9407be0 	ldr	w0, [sp, #120]
    1a6c:	b9007be2 	str	w2, [sp, #120]
    1a70:	8b20c020 	add	x0, x1, w0, sxtw
    1a74:	17ffff75 	b	1848 <_vsnprintf+0x748>
            const char* p = va_arg(va, char*);
    1a78:	f94047e1 	ldr	x1, [sp, #136]
    1a7c:	b9407be0 	ldr	w0, [sp, #120]
    1a80:	b9007be2 	str	w2, [sp, #120]
    1a84:	8b20c020 	add	x0, x1, w0, sxtw
    1a88:	17fffeb6 	b	1560 <_vsnprintf+0x460>
                idx = _ntoa_long_long(out, buffer, idx, maxlen, (uintptr_t)va_arg(va, void*), false, 16U, precision, width, flags);
    1a8c:	f94047e1 	ldr	x1, [sp, #136]
    1a90:	b9407be0 	ldr	w0, [sp, #120]
    1a94:	b9007be2 	str	w2, [sp, #120]
    1a98:	8b20c020 	add	x0, x1, w0, sxtw
    1a9c:	17fffe80 	b	149c <_vsnprintf+0x39c>
            idx = _etoa(out, buffer, idx, maxlen, va_arg(va, double), precision, width, flags);
    1aa0:	f9404be1 	ldr	x1, [sp, #144]
    1aa4:	b940abe0 	ldr	w0, [sp, #168]
    1aa8:	b900abe2 	str	w2, [sp, #168]
    1aac:	8b20c020 	add	x0, x1, w0, sxtw
    1ab0:	17fffe50 	b	13f0 <_vsnprintf+0x2f0>
            idx = _ftoa(out, buffer, idx, maxlen, va_arg(va, double), precision, width, flags);
    1ab4:	f9404be1 	ldr	x1, [sp, #144]
    1ab8:	b940abe0 	ldr	w0, [sp, #168]
    1abc:	b900abe2 	str	w2, [sp, #168]
    1ac0:	8b20c020 	add	x0, x1, w0, sxtw
    1ac4:	17fffe5d 	b	1438 <_vsnprintf+0x338>
                flags &= ~(FLAGS_PLUS | FLAGS_SPACE);
    1ac8:	121c74c6 	and	w6, w6, #0xfffffff3
    1acc:	d2800108 	mov	x8, #0x8                   	// #8
    1ad0:	17fffefa 	b	16b8 <_vsnprintf+0x5b8>
                    idx = _ntoa_long_long(out, buffer, idx, maxlen, va_arg(va, unsigned long long), false, base, precision, width, flags);
    1ad4:	37f807e0 	tbnz	w0, #31, 1bd0 <_vsnprintf+0xad0>
    1ad8:	91003e82 	add	x2, x20, #0xf
    1adc:	aa1403e0 	mov	x0, x20
    1ae0:	927df054 	and	x20, x2, #0xfffffffffffffff8
    1ae4:	2a1703e7 	mov	w7, w23
    1ae8:	aa1b03e2 	mov	x2, x27
    1aec:	f9400004 	ldr	x4, [x0]
    1af0:	b90003f8 	str	w24, [sp]
    1af4:	b9000be6 	str	w6, [sp, #8]
    1af8:	aa0803e6 	mov	x6, x8
    1afc:	17fffe6f 	b	14b8 <_vsnprintf+0x3b8>
                    const long long value = va_arg(va, long long);
    1b00:	37f80560 	tbnz	w0, #31, 1bac <_vsnprintf+0xaac>
    1b04:	91003e82 	add	x2, x20, #0xf
    1b08:	aa1403e0 	mov	x0, x20
    1b0c:	927df054 	and	x20, x2, #0xfffffffffffffff8
    1b10:	f9400005 	ldr	x5, [x0]
                    idx = _ntoa_long_long(out, buffer, idx, maxlen, (unsigned long long)(value > 0 ? value : 0 - value), value < 0, base, precision, width, flags);
    1b14:	2a1703e7 	mov	w7, w23
    1b18:	aa1b03e2 	mov	x2, x27
    1b1c:	b90003f8 	str	w24, [sp]
    1b20:	f10000bf 	cmp	x5, #0x0
    1b24:	b9000be6 	str	w6, [sp, #8]
    1b28:	da85a4a4 	cneg	x4, x5, lt  // lt = tstop
    1b2c:	aa0803e6 	mov	x6, x8
    1b30:	d37ffca5 	lsr	x5, x5, #63
    1b34:	17fffe62 	b	14bc <_vsnprintf+0x3bc>
                flags &= ~FLAGS_HASH; // no hash for dec format
    1b38:	d2800208 	mov	x8, #0x10                  	// #16
    1b3c:	17fffedb 	b	16a8 <_vsnprintf+0x5a8>
                    const long value = va_arg(va, long);
    1b40:	37f80c40 	tbnz	w0, #31, 1cc8 <_vsnprintf+0xbc8>
    1b44:	91003e82 	add	x2, x20, #0xf
    1b48:	aa1403e0 	mov	x0, x20
    1b4c:	927df054 	and	x20, x2, #0xfffffffffffffff8
    1b50:	f9400005 	ldr	x5, [x0]
                    idx = _ntoa_long(out, buffer, idx, maxlen, (unsigned long)(value > 0 ? value : 0 - value), value < 0, base, precision, width, flags);
    1b54:	2a1703e7 	mov	w7, w23
    1b58:	aa1b03e2 	mov	x2, x27
    1b5c:	b90003f8 	str	w24, [sp]
    1b60:	f10000bf 	cmp	x5, #0x0
    1b64:	b9000be6 	str	w6, [sp, #8]
    1b68:	da85a4a4 	cneg	x4, x5, lt  // lt = tstop
    1b6c:	aa0803e6 	mov	x6, x8
    1b70:	d37ffca5 	lsr	x5, x5, #63
    1b74:	17fffeed 	b	1728 <_vsnprintf+0x628>
                    idx = _ntoa_long(out, buffer, idx, maxlen, va_arg(va, unsigned long), false, base, precision, width, flags);
    1b78:	37f80820 	tbnz	w0, #31, 1c7c <_vsnprintf+0xb7c>
    1b7c:	91003e82 	add	x2, x20, #0xf
    1b80:	aa1403e0 	mov	x0, x20
    1b84:	927df054 	and	x20, x2, #0xfffffffffffffff8
    1b88:	2a1703e7 	mov	w7, w23
    1b8c:	f9400004 	ldr	x4, [x0]
    1b90:	b90003f8 	str	w24, [sp]
    1b94:	b9000be6 	str	w6, [sp, #8]
    1b98:	aa0803e6 	mov	x6, x8
    1b9c:	17ffff9f 	b	1a18 <_vsnprintf+0x918>
                flags &= ~(FLAGS_PLUS | FLAGS_SPACE);
    1ba0:	121c74c6 	and	w6, w6, #0xfffffff3
    1ba4:	d2800048 	mov	x8, #0x2                   	// #2
    1ba8:	17fffec4 	b	16b8 <_vsnprintf+0x5b8>
                    const long long value = va_arg(va, long long);
    1bac:	b9407be0 	ldr	w0, [sp, #120]
    1bb0:	11002002 	add	w2, w0, #0x8
    1bb4:	7100005f 	cmp	w2, #0x0
    1bb8:	54000a4d 	b.le	1d00 <_vsnprintf+0xc00>
    1bbc:	91003e84 	add	x4, x20, #0xf
    1bc0:	aa1403e0 	mov	x0, x20
    1bc4:	927df094 	and	x20, x4, #0xfffffffffffffff8
    1bc8:	b9007be2 	str	w2, [sp, #120]
    1bcc:	17ffffd1 	b	1b10 <_vsnprintf+0xa10>
                    idx = _ntoa_long_long(out, buffer, idx, maxlen, va_arg(va, unsigned long long), false, base, precision, width, flags);
    1bd0:	b9407be0 	ldr	w0, [sp, #120]
    1bd4:	11002002 	add	w2, w0, #0x8
    1bd8:	7100005f 	cmp	w2, #0x0
    1bdc:	5400088d 	b.le	1cec <_vsnprintf+0xbec>
    1be0:	91003e84 	add	x4, x20, #0xf
    1be4:	aa1403e0 	mov	x0, x20
    1be8:	927df094 	and	x20, x4, #0xfffffffffffffff8
    1bec:	b9007be2 	str	w2, [sp, #120]
    1bf0:	17ffffbd 	b	1ae4 <_vsnprintf+0x9e4>
                                                                                                                                      : va_arg(va, unsigned int);
    1bf4:	37f80d00 	tbnz	w0, #31, 1d94 <_vsnprintf+0xc94>
    1bf8:	aa1403e0 	mov	x0, x20
    1bfc:	91002e82 	add	x2, x20, #0xb
    1c00:	927df054 	and	x20, x2, #0xfffffffffffffff8
    1c04:	b9400004 	ldr	w4, [x0]
    1c08:	17ffff7f 	b	1a04 <_vsnprintf+0x904>
                                                                                                           : va_arg(va, int);
    1c0c:	37f80b20 	tbnz	w0, #31, 1d70 <_vsnprintf+0xc70>
    1c10:	91002e82 	add	x2, x20, #0xb
    1c14:	aa1403e0 	mov	x0, x20
    1c18:	927df054 	and	x20, x2, #0xfffffffffffffff8
    1c1c:	b9400005 	ldr	w5, [x0]
                    idx = _ntoa_long(out, buffer, idx, maxlen, (unsigned int)(value > 0 ? value : 0 - value), value < 0, base, precision, width, flags);
    1c20:	710000bf 	cmp	w5, #0x0
    1c24:	5a85a4a4 	cneg	w4, w5, lt  // lt = tstop
    1c28:	17fffeb9 	b	170c <_vsnprintf+0x60c>
    for (s = str; *s && maxsize--; ++s)
    1c2c:	b900a3ff 	str	wzr, [sp, #160]
    1c30:	17fffe5c 	b	15a0 <_vsnprintf+0x4a0>
                    const unsigned int value = (flags & FLAGS_CHAR) ? (unsigned char)va_arg(va, unsigned int) : (flags & FLAGS_SHORT) ? (unsigned short int)va_arg(va, unsigned int)
    1c34:	b9407be0 	ldr	w0, [sp, #120]
    1c38:	11002002 	add	w2, w0, #0x8
    1c3c:	7100005f 	cmp	w2, #0x0
    1c40:	54000bed 	b.le	1dbc <_vsnprintf+0xcbc>
    1c44:	91002e84 	add	x4, x20, #0xb
    1c48:	aa1403e0 	mov	x0, x20
    1c4c:	927df094 	and	x20, x4, #0xfffffffffffffff8
    1c50:	b9007be2 	str	w2, [sp, #120]
    1c54:	17ffff6b 	b	1a00 <_vsnprintf+0x900>
                    const int value = (flags & FLAGS_CHAR) ? (char)va_arg(va, int) : (flags & FLAGS_SHORT) ? (short int)va_arg(va, int)
    1c58:	b9407be0 	ldr	w0, [sp, #120]
    1c5c:	11002002 	add	w2, w0, #0x8
    1c60:	7100005f 	cmp	w2, #0x0
    1c64:	54000b6d 	b.le	1dd0 <_vsnprintf+0xcd0>
    1c68:	91002e84 	add	x4, x20, #0xb
    1c6c:	aa1403e0 	mov	x0, x20
    1c70:	927df094 	and	x20, x4, #0xfffffffffffffff8
    1c74:	b9007be2 	str	w2, [sp, #120]
    1c78:	17ffff78 	b	1a58 <_vsnprintf+0x958>
                    idx = _ntoa_long(out, buffer, idx, maxlen, va_arg(va, unsigned long), false, base, precision, width, flags);
    1c7c:	b9407be0 	ldr	w0, [sp, #120]
    1c80:	11002002 	add	w2, w0, #0x8
    1c84:	7100005f 	cmp	w2, #0x0
    1c88:	54000aed 	b.le	1de4 <_vsnprintf+0xce4>
    1c8c:	91003e84 	add	x4, x20, #0xf
    1c90:	aa1403e0 	mov	x0, x20
    1c94:	927df094 	and	x20, x4, #0xfffffffffffffff8
    1c98:	b9007be2 	str	w2, [sp, #120]
    1c9c:	17ffffbb 	b	1b88 <_vsnprintf+0xa88>
            out((char)va_arg(va, int), buffer, idx++, maxlen);
    1ca0:	f94047e1 	ldr	x1, [sp, #136]
    1ca4:	b9407be0 	ldr	w0, [sp, #120]
    1ca8:	b9007be2 	str	w2, [sp, #120]
    1cac:	8b20c020 	add	x0, x1, w0, sxtw
    1cb0:	17fffe10 	b	14f0 <_vsnprintf+0x3f0>
    1cb4:	f94047e1 	ldr	x1, [sp, #136]
    1cb8:	b9407be0 	ldr	w0, [sp, #120]
    1cbc:	b9007be2 	str	w2, [sp, #120]
    1cc0:	8b20c020 	add	x0, x1, w0, sxtw
    1cc4:	17ffff31 	b	1988 <_vsnprintf+0x888>
                    const long value = va_arg(va, long);
    1cc8:	b9407be0 	ldr	w0, [sp, #120]
    1ccc:	11002002 	add	w2, w0, #0x8
    1cd0:	7100005f 	cmp	w2, #0x0
    1cd4:	5400092d 	b.le	1df8 <_vsnprintf+0xcf8>
    1cd8:	91003e84 	add	x4, x20, #0xf
    1cdc:	aa1403e0 	mov	x0, x20
    1ce0:	927df094 	and	x20, x4, #0xfffffffffffffff8
    1ce4:	b9007be2 	str	w2, [sp, #120]
    1ce8:	17ffff9a 	b	1b50 <_vsnprintf+0xa50>
                    idx = _ntoa_long_long(out, buffer, idx, maxlen, va_arg(va, unsigned long long), false, base, precision, width, flags);
    1cec:	f94047e1 	ldr	x1, [sp, #136]
    1cf0:	b9407be0 	ldr	w0, [sp, #120]
    1cf4:	b9007be2 	str	w2, [sp, #120]
    1cf8:	8b20c020 	add	x0, x1, w0, sxtw
    1cfc:	17ffff7a 	b	1ae4 <_vsnprintf+0x9e4>
                    const long long value = va_arg(va, long long);
    1d00:	f94047e1 	ldr	x1, [sp, #136]
    1d04:	b9407be0 	ldr	w0, [sp, #120]
    1d08:	b9007be2 	str	w2, [sp, #120]
    1d0c:	8b20c020 	add	x0, x1, w0, sxtw
    1d10:	17ffff80 	b	1b10 <_vsnprintf+0xa10>
                while (l++ < width) {
    1d14:	aa1b03f5 	mov	x21, x27
    1d18:	17ffff17 	b	1974 <_vsnprintf+0x874>
                while (l++ < width) {
    1d1c:	b900a3e0 	str	w0, [sp, #160]
    1d20:	17ffff01 	b	1924 <_vsnprintf+0x824>
                    const unsigned int value = (flags & FLAGS_CHAR) ? (unsigned char)va_arg(va, unsigned int) : (flags & FLAGS_SHORT) ? (unsigned short int)va_arg(va, unsigned int)
    1d24:	b9407be0 	ldr	w0, [sp, #120]
    1d28:	11002002 	add	w2, w0, #0x8
    1d2c:	7100005f 	cmp	w2, #0x0
    1d30:	5400078d 	b.le	1e20 <_vsnprintf+0xd20>
    1d34:	aa1403e0 	mov	x0, x20
    1d38:	91002e84 	add	x4, x20, #0xb
    1d3c:	927df094 	and	x20, x4, #0xfffffffffffffff8
    1d40:	b9007be2 	str	w2, [sp, #120]
    1d44:	79400004 	ldrh	w4, [x0]
    1d48:	17ffff2f 	b	1a04 <_vsnprintf+0x904>
                    const int value = (flags & FLAGS_CHAR) ? (char)va_arg(va, int) : (flags & FLAGS_SHORT) ? (short int)va_arg(va, int)
    1d4c:	b9407be0 	ldr	w0, [sp, #120]
    1d50:	11002002 	add	w2, w0, #0x8
    1d54:	7100005f 	cmp	w2, #0x0
    1d58:	540005ad 	b.le	1e0c <_vsnprintf+0xd0c>
    1d5c:	91002e84 	add	x4, x20, #0xb
    1d60:	aa1403e0 	mov	x0, x20
    1d64:	927df094 	and	x20, x4, #0xfffffffffffffff8
    1d68:	b9007be2 	str	w2, [sp, #120]
    1d6c:	17fffe64 	b	16fc <_vsnprintf+0x5fc>
                                                                                                           : va_arg(va, int);
    1d70:	b9407be0 	ldr	w0, [sp, #120]
    1d74:	11002002 	add	w2, w0, #0x8
    1d78:	7100005f 	cmp	w2, #0x0
    1d7c:	540005ed 	b.le	1e38 <_vsnprintf+0xd38>
    1d80:	91002e84 	add	x4, x20, #0xb
    1d84:	aa1403e0 	mov	x0, x20
    1d88:	927df094 	and	x20, x4, #0xfffffffffffffff8
    1d8c:	b9007be2 	str	w2, [sp, #120]
    1d90:	17ffffa3 	b	1c1c <_vsnprintf+0xb1c>
                                                                                                                                      : va_arg(va, unsigned int);
    1d94:	b9407be0 	ldr	w0, [sp, #120]
    1d98:	11002002 	add	w2, w0, #0x8
    1d9c:	7100005f 	cmp	w2, #0x0
    1da0:	5400056d 	b.le	1e4c <_vsnprintf+0xd4c>
    1da4:	aa1403e0 	mov	x0, x20
    1da8:	91002e84 	add	x4, x20, #0xb
    1dac:	927df094 	and	x20, x4, #0xfffffffffffffff8
    1db0:	b9007be2 	str	w2, [sp, #120]
    1db4:	b9400004 	ldr	w4, [x0]
    1db8:	17ffff13 	b	1a04 <_vsnprintf+0x904>
                    const unsigned int value = (flags & FLAGS_CHAR) ? (unsigned char)va_arg(va, unsigned int) : (flags & FLAGS_SHORT) ? (unsigned short int)va_arg(va, unsigned int)
    1dbc:	f94047e1 	ldr	x1, [sp, #136]
    1dc0:	b9407be0 	ldr	w0, [sp, #120]
    1dc4:	b9007be2 	str	w2, [sp, #120]
    1dc8:	8b20c020 	add	x0, x1, w0, sxtw
    1dcc:	17ffff0d 	b	1a00 <_vsnprintf+0x900>
                    const int value = (flags & FLAGS_CHAR) ? (char)va_arg(va, int) : (flags & FLAGS_SHORT) ? (short int)va_arg(va, int)
    1dd0:	f94047e1 	ldr	x1, [sp, #136]
    1dd4:	b9407be0 	ldr	w0, [sp, #120]
    1dd8:	b9007be2 	str	w2, [sp, #120]
    1ddc:	8b20c020 	add	x0, x1, w0, sxtw
    1de0:	17ffff1e 	b	1a58 <_vsnprintf+0x958>
                    idx = _ntoa_long(out, buffer, idx, maxlen, va_arg(va, unsigned long), false, base, precision, width, flags);
    1de4:	f94047e1 	ldr	x1, [sp, #136]
    1de8:	b9407be0 	ldr	w0, [sp, #120]
    1dec:	b9007be2 	str	w2, [sp, #120]
    1df0:	8b20c020 	add	x0, x1, w0, sxtw
    1df4:	17ffff65 	b	1b88 <_vsnprintf+0xa88>
                    const long value = va_arg(va, long);
    1df8:	f94047e1 	ldr	x1, [sp, #136]
    1dfc:	b9407be0 	ldr	w0, [sp, #120]
    1e00:	b9007be2 	str	w2, [sp, #120]
    1e04:	8b20c020 	add	x0, x1, w0, sxtw
    1e08:	17ffff52 	b	1b50 <_vsnprintf+0xa50>
                    const int value = (flags & FLAGS_CHAR) ? (char)va_arg(va, int) : (flags & FLAGS_SHORT) ? (short int)va_arg(va, int)
    1e0c:	f94047e1 	ldr	x1, [sp, #136]
    1e10:	b9407be0 	ldr	w0, [sp, #120]
    1e14:	b9007be2 	str	w2, [sp, #120]
    1e18:	8b20c020 	add	x0, x1, w0, sxtw
    1e1c:	17fffe38 	b	16fc <_vsnprintf+0x5fc>
                    const unsigned int value = (flags & FLAGS_CHAR) ? (unsigned char)va_arg(va, unsigned int) : (flags & FLAGS_SHORT) ? (unsigned short int)va_arg(va, unsigned int)
    1e20:	f94047e1 	ldr	x1, [sp, #136]
    1e24:	b9407be0 	ldr	w0, [sp, #120]
    1e28:	b9007be2 	str	w2, [sp, #120]
    1e2c:	8b20c020 	add	x0, x1, w0, sxtw
    1e30:	79400004 	ldrh	w4, [x0]
    1e34:	17fffef4 	b	1a04 <_vsnprintf+0x904>
                                                                                                           : va_arg(va, int);
    1e38:	f94047e1 	ldr	x1, [sp, #136]
    1e3c:	b9407be0 	ldr	w0, [sp, #120]
    1e40:	b9007be2 	str	w2, [sp, #120]
    1e44:	8b20c020 	add	x0, x1, w0, sxtw
    1e48:	17ffff75 	b	1c1c <_vsnprintf+0xb1c>
                                                                                                                                      : va_arg(va, unsigned int);
    1e4c:	f94047e1 	ldr	x1, [sp, #136]
    1e50:	b9407be0 	ldr	w0, [sp, #120]
    1e54:	b9007be2 	str	w2, [sp, #120]
    1e58:	8b20c020 	add	x0, x1, w0, sxtw
    1e5c:	b9400004 	ldr	w4, [x0]
    1e60:	17fffee9 	b	1a04 <_vsnprintf+0x904>
    return (ch >= '0') && (ch <= '9');
    1e64:	5100c002 	sub	w2, w0, #0x30
    unsigned int i = 0U;
    1e68:	52800018 	mov	w24, #0x0                   	// #0
        if (_is_digit(*format)) {
    1e6c:	12001c42 	and	w2, w2, #0xff
    1e70:	7100245f 	cmp	w2, #0x9
    1e74:	54ffa2a8 	b.hi	12c8 <_vsnprintf+0x1c8>  // b.pmore
        i = i * 10U + (unsigned int)(*((*str)++) - '0');
    1e78:	52800142 	mov	w2, #0xa                   	// #10
    1e7c:	d503201f 	nop
    1e80:	1b020305 	madd	w5, w24, w2, w0
    while (_is_digit(**str)) {
    1e84:	39400100 	ldrb	w0, [x8]
        i = i * 10U + (unsigned int)(*((*str)++) - '0');
    1e88:	aa0803f9 	mov	x25, x8
    1e8c:	91000508 	add	x8, x8, #0x1
    return (ch >= '0') && (ch <= '9');
    1e90:	5100c004 	sub	w4, w0, #0x30
        i = i * 10U + (unsigned int)(*((*str)++) - '0');
    1e94:	5100c0b8 	sub	w24, w5, #0x30
    while (_is_digit(**str)) {
    1e98:	12001c84 	and	w4, w4, #0xff
    1e9c:	7100249f 	cmp	w4, #0x9
    1ea0:	54ffff09 	b.ls	1e80 <_vsnprintf+0xd80>  // b.plast
    1ea4:	17fffd09 	b	12c8 <_vsnprintf+0x1c8>
        switch (*format) {
    1ea8:	aa1903e4 	mov	x4, x25
    1eac:	17fffcf0 	b	126c <_vsnprintf+0x16c>

0000000000001eb0 <printf>:

///////////////////////////////////////////////////////////////////////////////

int printf(const char* format, ...)
{
    1eb0:	a9ad7bfd 	stp	x29, x30, [sp, #-304]!
    1eb4:	910003fd 	mov	x29, sp
    1eb8:	f9000bf3 	str	x19, [sp, #16]
    1ebc:	aa0003f3 	mov	x19, x0
    1ec0:	3d801fe0 	str	q0, [sp, #112]
    1ec4:	3d8023e1 	str	q1, [sp, #128]
    1ec8:	3d8027e2 	str	q2, [sp, #144]
    1ecc:	3d802be3 	str	q3, [sp, #160]
    1ed0:	3d802fe4 	str	q4, [sp, #176]
    1ed4:	3d8033e5 	str	q5, [sp, #192]
    1ed8:	3d8037e6 	str	q6, [sp, #208]
    1edc:	3d803be7 	str	q7, [sp, #224]
    1ee0:	a90f8be1 	stp	x1, x2, [sp, #248]
    1ee4:	a91093e3 	stp	x3, x4, [sp, #264]
    1ee8:	a9119be5 	stp	x5, x6, [sp, #280]
    1eec:	f90097e7 	str	x7, [sp, #296]
    if (!init_uart_mmio()) {
    1ef0:	97fff968 	bl	490 <init_uart_mmio>
    1ef4:	72001c1f 	tst	w0, #0xff
    1ef8:	540002e0 	b.eq	1f54 <printf+0xa4>  // b.none
        return -1;
    }
    va_list va;
    va_start(va, format);
    1efc:	9103c3e0 	add	x0, sp, #0xf0
    1f00:	9104c3e3 	add	x3, sp, #0x130
    1f04:	9104c3e4 	add	x4, sp, #0x130
    1f08:	128006e2 	mov	w2, #0xffffffc8            	// #-56
    1f0c:	12800fe1 	mov	w1, #0xffffff80            	// #-128
    1f10:	a90513e3 	stp	x3, x4, [sp, #80]
    char buffer[1];
    const int ret = _vsnprintf(_out_char, buffer, (size_t)-1, format, va);
    1f14:	aa1303e3 	mov	x3, x19
    va_start(va, format);
    1f18:	f90033e0 	str	x0, [sp, #96]
    const int ret = _vsnprintf(_out_char, buffer, (size_t)-1, format, va);
    1f1c:	910083e4 	add	x4, sp, #0x20
    va_start(va, format);
    1f20:	290d07e2 	stp	w2, w1, [sp, #104]
    const int ret = _vsnprintf(_out_char, buffer, (size_t)-1, format, va);
    1f24:	90000000 	adrp	x0, 1000 <_ftoa+0x300>
    1f28:	91034000 	add	x0, x0, #0xd0
    1f2c:	910123e1 	add	x1, sp, #0x48
    1f30:	a94527e8 	ldp	x8, x9, [sp, #80]
    1f34:	92800002 	mov	x2, #0xffffffffffffffff    	// #-1
    1f38:	a9461fe6 	ldp	x6, x7, [sp, #96]
    1f3c:	a90227e8 	stp	x8, x9, [sp, #32]
    1f40:	a9031fe6 	stp	x6, x7, [sp, #48]
    1f44:	97fffc6f 	bl	1100 <_vsnprintf>
    va_end(va);
    return ret;
}
    1f48:	f9400bf3 	ldr	x19, [sp, #16]
    1f4c:	a8d37bfd 	ldp	x29, x30, [sp], #304
    1f50:	d65f03c0 	ret
        return -1;
    1f54:	12800000 	mov	w0, #0xffffffff            	// #-1
    1f58:	17fffffc 	b	1f48 <printf+0x98>
    1f5c:	d503201f 	nop

0000000000001f60 <sprintf_>:

int sprintf_(char* buffer, const char* format, ...)
{
    1f60:	a9b07bfd 	stp	x29, x30, [sp, #-256]!
    va_list va;
    va_start(va, format);
    1f64:	128005e9 	mov	w9, #0xffffffd0            	// #-48
    1f68:	12800fe8 	mov	w8, #0xffffff80            	// #-128
{
    1f6c:	910003fd 	mov	x29, sp
    va_start(va, format);
    1f70:	910343eb 	add	x11, sp, #0xd0
    1f74:	910403ea 	add	x10, sp, #0x100
    1f78:	a9032bea 	stp	x10, x10, [sp, #48]
{
    1f7c:	aa0103ea 	mov	x10, x1
    const int ret = _vsnprintf(_out_buffer, buffer, (size_t)-1, format, va);
    1f80:	aa0003e1 	mov	x1, x0
    va_start(va, format);
    1f84:	f90023eb 	str	x11, [sp, #64]
    const int ret = _vsnprintf(_out_buffer, buffer, (size_t)-1, format, va);
    1f88:	f0ffffe0 	adrp	x0, 0 <main>
    1f8c:	91154000 	add	x0, x0, #0x550
    va_start(va, format);
    1f90:	290923e9 	stp	w9, w8, [sp, #72]
    const int ret = _vsnprintf(_out_buffer, buffer, (size_t)-1, format, va);
    1f94:	a94337ec 	ldp	x12, x13, [sp, #48]
    1f98:	a90137ec 	stp	x12, x13, [sp, #16]
    1f9c:	a94427e8 	ldp	x8, x9, [sp, #64]
    1fa0:	a90227e8 	stp	x8, x9, [sp, #32]
{
    1fa4:	3d8017e0 	str	q0, [sp, #80]
    1fa8:	3d801be1 	str	q1, [sp, #96]
    1fac:	3d801fe2 	str	q2, [sp, #112]
    1fb0:	3d8023e3 	str	q3, [sp, #128]
    1fb4:	3d8027e4 	str	q4, [sp, #144]
    1fb8:	3d802be5 	str	q5, [sp, #160]
    1fbc:	3d802fe6 	str	q6, [sp, #176]
    1fc0:	3d8033e7 	str	q7, [sp, #192]
    1fc4:	a90d0fe2 	stp	x2, x3, [sp, #208]
    const int ret = _vsnprintf(_out_buffer, buffer, (size_t)-1, format, va);
    1fc8:	aa0a03e3 	mov	x3, x10
    1fcc:	92800002 	mov	x2, #0xffffffffffffffff    	// #-1
{
    1fd0:	a90e17e4 	stp	x4, x5, [sp, #224]
    const int ret = _vsnprintf(_out_buffer, buffer, (size_t)-1, format, va);
    1fd4:	910043e4 	add	x4, sp, #0x10
{
    1fd8:	a90f1fe6 	stp	x6, x7, [sp, #240]
    const int ret = _vsnprintf(_out_buffer, buffer, (size_t)-1, format, va);
    1fdc:	97fffc49 	bl	1100 <_vsnprintf>
    va_end(va);
    return ret;
}
    1fe0:	a8d07bfd 	ldp	x29, x30, [sp], #256
    1fe4:	d65f03c0 	ret
    1fe8:	d503201f 	nop
    1fec:	d503201f 	nop

0000000000001ff0 <snprintf_>:

int snprintf_(char* buffer, size_t count, const char* format, ...)
{
    1ff0:	a9b07bfd 	stp	x29, x30, [sp, #-256]!
    va_list va;
    va_start(va, format);
    1ff4:	128004eb 	mov	w11, #0xffffffd8            	// #-40
    1ff8:	12800fe9 	mov	w9, #0xffffff80            	// #-128
{
    1ffc:	910003fd 	mov	x29, sp
    va_start(va, format);
    2000:	910343ea 	add	x10, sp, #0xd0
    2004:	910403e8 	add	x8, sp, #0x100
    2008:	a90323e8 	stp	x8, x8, [sp, #48]
{
    200c:	aa0103e8 	mov	x8, x1
    const int ret = _vsnprintf(_out_buffer, buffer, count, format, va);
    2010:	aa0003e1 	mov	x1, x0
    va_start(va, format);
    2014:	f90023ea 	str	x10, [sp, #64]
{
    2018:	aa0203ea 	mov	x10, x2
    va_start(va, format);
    201c:	290927eb 	stp	w11, w9, [sp, #72]
    const int ret = _vsnprintf(_out_buffer, buffer, count, format, va);
    2020:	aa0803e2 	mov	x2, x8
    2024:	a94337ec 	ldp	x12, x13, [sp, #48]
    2028:	d0ffffe0 	adrp	x0, 0 <main>
    202c:	a94427e8 	ldp	x8, x9, [sp, #64]
    2030:	91154000 	add	x0, x0, #0x550
    2034:	a90137ec 	stp	x12, x13, [sp, #16]
    2038:	a90227e8 	stp	x8, x9, [sp, #32]
{
    203c:	3d8017e0 	str	q0, [sp, #80]
    2040:	3d801be1 	str	q1, [sp, #96]
    2044:	3d801fe2 	str	q2, [sp, #112]
    2048:	3d8023e3 	str	q3, [sp, #128]
    204c:	3d8027e4 	str	q4, [sp, #144]
    2050:	3d802be5 	str	q5, [sp, #160]
    2054:	3d802fe6 	str	q6, [sp, #176]
    2058:	3d8033e7 	str	q7, [sp, #192]
    205c:	a90d93e3 	stp	x3, x4, [sp, #216]
    const int ret = _vsnprintf(_out_buffer, buffer, count, format, va);
    2060:	910043e4 	add	x4, sp, #0x10
    2064:	aa0a03e3 	mov	x3, x10
{
    2068:	a90e9be5 	stp	x5, x6, [sp, #232]
    206c:	f9007fe7 	str	x7, [sp, #248]
    const int ret = _vsnprintf(_out_buffer, buffer, count, format, va);
    2070:	97fffc24 	bl	1100 <_vsnprintf>
    va_end(va);
    return ret;
}
    2074:	a8d07bfd 	ldp	x29, x30, [sp], #256
    2078:	d65f03c0 	ret
    207c:	d503201f 	nop

0000000000002080 <vprintf_>:

int vprintf_(const char* format, va_list va)
{
    2080:	a9bc7bfd 	stp	x29, x30, [sp, #-64]!
    char buffer[1];
    return _vsnprintf(_out_char, buffer, (size_t)-1, format, va);
    2084:	aa0003e3 	mov	x3, x0
    2088:	92800002 	mov	x2, #0xffffffffffffffff    	// #-1
{
    208c:	910003fd 	mov	x29, sp
    return _vsnprintf(_out_char, buffer, (size_t)-1, format, va);
    2090:	a9402428 	ldp	x8, x9, [x1]
    2094:	910043e4 	add	x4, sp, #0x10
    2098:	a9411c26 	ldp	x6, x7, [x1, #16]
    209c:	f0ffffe0 	adrp	x0, 1000 <_ftoa+0x300>
    20a0:	9100e3e1 	add	x1, sp, #0x38
    20a4:	91034000 	add	x0, x0, #0xd0
    20a8:	a90127e8 	stp	x8, x9, [sp, #16]
    20ac:	a9021fe6 	stp	x6, x7, [sp, #32]
    20b0:	97fffc14 	bl	1100 <_vsnprintf>
}
    20b4:	a8c47bfd 	ldp	x29, x30, [sp], #64
    20b8:	d65f03c0 	ret
    20bc:	d503201f 	nop

00000000000020c0 <vsnprintf_>:

int vsnprintf_(char* buffer, size_t count, const char* format, va_list va)
{
    20c0:	aa0303e4 	mov	x4, x3
    20c4:	a9bd7bfd 	stp	x29, x30, [sp, #-48]!
    20c8:	aa0103e5 	mov	x5, x1
    20cc:	910003fd 	mov	x29, sp
    return _vsnprintf(_out_buffer, buffer, count, format, va);
    20d0:	a9402488 	ldp	x8, x9, [x4]
    20d4:	aa0003e1 	mov	x1, x0
    20d8:	a9411c86 	ldp	x6, x7, [x4, #16]
    20dc:	aa0203e3 	mov	x3, x2
    20e0:	910043e4 	add	x4, sp, #0x10
    20e4:	aa0503e2 	mov	x2, x5
    20e8:	d0ffffe0 	adrp	x0, 0 <main>
    20ec:	91154000 	add	x0, x0, #0x550
    20f0:	a90127e8 	stp	x8, x9, [sp, #16]
    20f4:	a9021fe6 	stp	x6, x7, [sp, #32]
    20f8:	97fffc02 	bl	1100 <_vsnprintf>
}
    20fc:	a8c37bfd 	ldp	x29, x30, [sp], #48
    2100:	d65f03c0 	ret
    2104:	d503201f 	nop
    2108:	d503201f 	nop
    210c:	d503201f 	nop

0000000000002110 <fctprintf>:

int fctprintf(void (*out)(char character, void* arg), void* arg, const char* format, ...)
{
    2110:	a9af7bfd 	stp	x29, x30, [sp, #-272]!
    va_list va;
    va_start(va, format);
    2114:	128004e9 	mov	w9, #0xffffffd8            	// #-40
    2118:	12800fe8 	mov	w8, #0xffffff80            	// #-128
{
    211c:	910003fd 	mov	x29, sp
    va_start(va, format);
    2120:	910443ea 	add	x10, sp, #0x110
    2124:	910383eb 	add	x11, sp, #0xe0
    2128:	f90023ea 	str	x10, [sp, #64]
{
    212c:	aa0203ea 	mov	x10, x2
    va_start(va, format);
    2130:	910443e2 	add	x2, sp, #0x110
    2134:	f90027e2 	str	x2, [sp, #72]
    2138:	f9002beb 	str	x11, [sp, #80]
{
    213c:	aa0003ec 	mov	x12, x0
    va_start(va, format);
    2140:	290b23e9 	stp	w9, w8, [sp, #88]
{
    2144:	aa0103eb 	mov	x11, x1
    const out_fct_wrap_type out_fct_wrap = { out, arg };
    const int ret = _vsnprintf(_out_fct, (char*)(uintptr_t)&out_fct_wrap, (size_t)-1, format, va);
    2148:	a9443fee 	ldp	x14, x15, [sp, #64]
    214c:	9100c3e1 	add	x1, sp, #0x30
    2150:	a94527e8 	ldp	x8, x9, [sp, #80]
    2154:	92800002 	mov	x2, #0xffffffffffffffff    	// #-1
    2158:	f0ffffe0 	adrp	x0, 1000 <_ftoa+0x300>
    215c:	91038000 	add	x0, x0, #0xe0
    2160:	a9013fee 	stp	x14, x15, [sp, #16]
    2164:	a90227e8 	stp	x8, x9, [sp, #32]
    const out_fct_wrap_type out_fct_wrap = { out, arg };
    2168:	f9001bec 	str	x12, [sp, #48]
    216c:	f9001feb 	str	x11, [sp, #56]
{
    2170:	3d801be0 	str	q0, [sp, #96]
    2174:	3d801fe1 	str	q1, [sp, #112]
    2178:	3d8023e2 	str	q2, [sp, #128]
    217c:	3d8027e3 	str	q3, [sp, #144]
    2180:	3d802be4 	str	q4, [sp, #160]
    2184:	3d802fe5 	str	q5, [sp, #176]
    2188:	3d8033e6 	str	q6, [sp, #192]
    218c:	3d8037e7 	str	q7, [sp, #208]
    2190:	a90e93e3 	stp	x3, x4, [sp, #232]
    const int ret = _vsnprintf(_out_fct, (char*)(uintptr_t)&out_fct_wrap, (size_t)-1, format, va);
    2194:	910043e4 	add	x4, sp, #0x10
    2198:	aa0a03e3 	mov	x3, x10
{
    219c:	a90f9be5 	stp	x5, x6, [sp, #248]
    21a0:	f90087e7 	str	x7, [sp, #264]
    const int ret = _vsnprintf(_out_fct, (char*)(uintptr_t)&out_fct_wrap, (size_t)-1, format, va);
    21a4:	97fffbd7 	bl	1100 <_vsnprintf>
    va_end(va);
    return ret;
    21a8:	a8d17bfd 	ldp	x29, x30, [sp], #272
    21ac:	d65f03c0 	ret

00000000000021b0 <spawn>:
 */
#include "usyscall.h"
#include "libmem.h"

int spawn(struct Session* session, int fd, ipc_read_fn ipc_read, ipc_fsize_fn ipc_fsize, char* name, char** argv)
{
    21b0:	a9ba7bfd 	stp	x29, x30, [sp, #-96]!
    21b4:	910003fd 	mov	x29, sp
    21b8:	a90153f3 	stp	x19, x20, [sp, #16]
    21bc:	a9025bf5 	stp	x21, x22, [sp, #32]
    21c0:	2a0103f6 	mov	w22, w1
    21c4:	a90363f7 	stp	x23, x24, [sp, #48]
    21c8:	aa0203f8 	mov	x24, x2
    21cc:	aa0003f7 	mov	x23, x0
    21d0:	a9046bf9 	stp	x25, x26, [sp, #64]
    21d4:	aa0403f9 	mov	x25, x4
    21d8:	aa0503fa 	mov	x26, x5
    /* read elf image */
    int file_size = ipc_fsize(session, fd);
    21dc:	d63f0060 	blr	x3
    21e0:	2a0003f4 	mov	w20, w0
    void* img = malloc(file_size);
    21e4:	93407c00 	sxtw	x0, w0
    21e8:	9400038e 	bl	3020 <malloc>
    int read_len = 0;
    while (read_len < file_size) {
    21ec:	7100029f 	cmp	w20, #0x0
    void* img = malloc(file_size);
    21f0:	aa0003f5 	mov	x21, x0
    while (read_len < file_size) {
    21f4:	5400022d 	b.le	2238 <spawn+0x88>
    21f8:	52800013 	mov	w19, #0x0                   	// #0
    21fc:	f9002bfb 	str	x27, [sp, #80]
    2200:	5282001b 	mov	w27, #0x1000                	// #4096
    2204:	d503201f 	nop
        int cur_read_len = file_size - read_len < 4096 ? file_size - read_len : 4096;
    2208:	4b130284 	sub	w4, w20, w19
        if (cur_read_len < 0) {
            return -1;
        }
        read_len += ipc_read(session, fd, (char*)((uintptr_t)img + read_len), read_len, cur_read_len);
    220c:	2a1303e3 	mov	w3, w19
        int cur_read_len = file_size - read_len < 4096 ? file_size - read_len : 4096;
    2210:	7140049f 	cmp	w4, #0x1, lsl #12
        read_len += ipc_read(session, fd, (char*)((uintptr_t)img + read_len), read_len, cur_read_len);
    2214:	8b33c2a2 	add	x2, x21, w19, sxtw
    2218:	1a9bd084 	csel	w4, w4, w27, le
    221c:	2a1603e1 	mov	w1, w22
    2220:	aa1703e0 	mov	x0, x23
    2224:	d63f0300 	blr	x24
    2228:	0b000273 	add	w19, w19, w0
    while (read_len < file_size) {
    222c:	6b13029f 	cmp	w20, w19
    2230:	54fffecc 	b.gt	2208 <spawn+0x58>
    2234:	f9402bfb 	ldr	x27, [sp, #80]
    }
    /* sys call */
    int ret = syscall(SYSCALL_SPAWN, (uintptr_t)img, (uintptr_t)name, (uintptr_t)argv, 0);
    2238:	aa1a03e3 	mov	x3, x26
    223c:	aa1903e2 	mov	x2, x25
    2240:	aa1503e1 	mov	x1, x21
    2244:	d2800004 	mov	x4, #0x0                   	// #0
    2248:	52800020 	mov	w0, #0x1                   	// #1
    224c:	940000b9 	bl	2530 <syscall>
    2250:	2a0003f3 	mov	w19, w0
    free(img);
    2254:	aa1503e0 	mov	x0, x21
    2258:	94000376 	bl	3030 <free>
    return ret;
}
    225c:	2a1303e0 	mov	w0, w19
    2260:	a94153f3 	ldp	x19, x20, [sp, #16]
    2264:	a9425bf5 	ldp	x21, x22, [sp, #32]
    2268:	a94363f7 	ldp	x23, x24, [sp, #48]
    226c:	a9446bf9 	ldp	x25, x26, [sp, #64]
    2270:	a8c67bfd 	ldp	x29, x30, [sp], #96
    2274:	d65f03c0 	ret
    2278:	d503201f 	nop
    227c:	d503201f 	nop

0000000000002280 <thread>:

int thread(void* entry, char* name, char** argv)
{
    2280:	aa0103e4 	mov	x4, x1
    return syscall(SYSCALL_THREAD, (uintptr_t)entry, (uintptr_t)name, (uintptr_t)argv, 0);
    2284:	aa0203e3 	mov	x3, x2
    2288:	aa0003e1 	mov	x1, x0
    228c:	aa0403e2 	mov	x2, x4
    2290:	52800120 	mov	w0, #0x9                   	// #9
    2294:	d2800004 	mov	x4, #0x0                   	// #0
    2298:	140000a6 	b	2530 <syscall>
    229c:	d503201f 	nop

00000000000022a0 <exit>:
}

void exit(int status)
{
    syscall(SYSCALL_EXIT, (uintptr_t)status, 0, 0, 0);
    22a0:	93407c01 	sxtw	x1, w0
    22a4:	d2800004 	mov	x4, #0x0                   	// #0
    22a8:	d2800003 	mov	x3, #0x0                   	// #0
    22ac:	d2800002 	mov	x2, #0x0                   	// #0
    22b0:	52800040 	mov	w0, #0x2                   	// #2
    22b4:	1400009f 	b	2530 <syscall>
    22b8:	d503201f 	nop
    22bc:	d503201f 	nop

00000000000022c0 <yield>:
}

int yield(task_yield_reason reason)
{
    return syscall(SYSCALL_YIELD, (uintptr_t)reason, 0, 0, 0);
    22c0:	2a0003e1 	mov	w1, w0
    22c4:	d2800004 	mov	x4, #0x0                   	// #0
    22c8:	d2800003 	mov	x3, #0x0                   	// #0
    22cc:	d2800002 	mov	x2, #0x0                   	// #0
    22d0:	52800060 	mov	w0, #0x3                   	// #3
    22d4:	14000097 	b	2530 <syscall>
    22d8:	d503201f 	nop
    22dc:	d503201f 	nop

00000000000022e0 <kill>:
}

int kill(int pid)
{
    return syscall(SYSCALL_KILL, (intptr_t)pid, 0, 0, 0);
    22e0:	93407c01 	sxtw	x1, w0
    22e4:	d2800004 	mov	x4, #0x0                   	// #0
    22e8:	d2800003 	mov	x3, #0x0                   	// #0
    22ec:	d2800002 	mov	x2, #0x0                   	// #0
    22f0:	52800180 	mov	w0, #0xc                   	// #12
    22f4:	1400008f 	b	2530 <syscall>
    22f8:	d503201f 	nop
    22fc:	d503201f 	nop

0000000000002300 <register_server>:
}

int register_server(char* name)
{
    return syscall(SYSCALL_SERVER, (intptr_t)name, 0, 0, 0);
    2300:	aa0003e1 	mov	x1, x0
    2304:	d2800004 	mov	x4, #0x0                   	// #0
    2308:	d2800003 	mov	x3, #0x0                   	// #0
    230c:	d2800002 	mov	x2, #0x0                   	// #0
    2310:	528000a0 	mov	w0, #0x5                   	// #5
    2314:	14000087 	b	2530 <syscall>
    2318:	d503201f 	nop
    231c:	d503201f 	nop

0000000000002320 <session>:
}

int session(char* path, int capacity, struct Session* user_session)
{
    2320:	2a0103e4 	mov	w4, w1
    return syscall(SYSCALL_SESSION, (intptr_t)path, (intptr_t)capacity, (intptr_t)user_session, 0);
    2324:	aa0203e3 	mov	x3, x2
    2328:	aa0003e1 	mov	x1, x0
    232c:	528000c0 	mov	w0, #0x6                   	// #6
    2330:	93407c82 	sxtw	x2, w4
    2334:	d2800004 	mov	x4, #0x0                   	// #0
    2338:	1400007e 	b	2530 <syscall>
    233c:	d503201f 	nop

0000000000002340 <poll_session>:
}

int poll_session(struct Session* userland_session_arr, int arr_capacity)
{
    2340:	93407c22 	sxtw	x2, w1
    return syscall(SYSCALL_POLL_SESSION, (intptr_t)userland_session_arr, (intptr_t)arr_capacity, 0, 0);
    2344:	d2800004 	mov	x4, #0x0                   	// #0
    2348:	aa0003e1 	mov	x1, x0
    234c:	d2800003 	mov	x3, #0x0                   	// #0
    2350:	528000e0 	mov	w0, #0x7                   	// #7
    2354:	14000077 	b	2530 <syscall>
    2358:	d503201f 	nop
    235c:	d503201f 	nop

0000000000002360 <close_session>:
}

int close_session(struct Session* session)
{
    return syscall(SYSCALL_CLOSE_SESSION, (intptr_t)session, 0, 0, 0);
    2360:	aa0003e1 	mov	x1, x0
    2364:	d2800004 	mov	x4, #0x0                   	// #0
    2368:	d2800003 	mov	x3, #0x0                   	// #0
    236c:	d2800002 	mov	x2, #0x0                   	// #0
    2370:	52800100 	mov	w0, #0x8                   	// #8
    2374:	1400006f 	b	2530 <syscall>
    2378:	d503201f 	nop
    237c:	d503201f 	nop

0000000000002380 <get_memblock_info>:
}

int get_memblock_info(sys_state_info* info)
{
    return syscall(SYSCALL_SYS_STATE, SYS_STATE_MEMBLOCK_INFO, (intptr_t)info, 0, 0);
    2380:	aa0003e2 	mov	x2, x0
    2384:	d2800004 	mov	x4, #0x0                   	// #0
    2388:	d2800003 	mov	x3, #0x0                   	// #0
    238c:	d2800061 	mov	x1, #0x3                   	// #3
    2390:	52800140 	mov	w0, #0xa                   	// #10
    2394:	14000067 	b	2530 <syscall>
    2398:	d503201f 	nop
    239c:	d503201f 	nop

00000000000023a0 <set_priority>:
}

int set_priority(sys_state_info* info)
{
    return syscall(SYSCALL_SYS_STATE, SYS_STATE_SET_TASK_PRIORITY, (intptr_t)info, 0, 0);
    23a0:	aa0003e2 	mov	x2, x0
    23a4:	d2800004 	mov	x4, #0x0                   	// #0
    23a8:	d2800003 	mov	x3, #0x0                   	// #0
    23ac:	d2800021 	mov	x1, #0x1                   	// #1
    23b0:	52800140 	mov	w0, #0xa                   	// #10
    23b4:	1400005f 	b	2530 <syscall>
    23b8:	d503201f 	nop
    23bc:	d503201f 	nop

00000000000023c0 <task_heap_base>:
}

int task_heap_base()
{
    return syscall(SYSCALL_SYS_STATE, SYS_STATE_GET_HEAP_BASE, 0, 0, 0);
    23c0:	d2800004 	mov	x4, #0x0                   	// #0
    23c4:	d2800003 	mov	x3, #0x0                   	// #0
    23c8:	d2800002 	mov	x2, #0x0                   	// #0
    23cc:	d2800041 	mov	x1, #0x2                   	// #2
    23d0:	52800140 	mov	w0, #0xa                   	// #10
    23d4:	14000057 	b	2530 <syscall>
    23d8:	d503201f 	nop
    23dc:	d503201f 	nop

00000000000023e0 <show_task>:
}

int show_task()
{
    return syscall(SYSCALL_SYS_STATE, SYS_STATE_SHOW_TASKS, 0, 0, 0);
    23e0:	d2800004 	mov	x4, #0x0                   	// #0
    23e4:	d2800003 	mov	x3, #0x0                   	// #0
    23e8:	d2800002 	mov	x2, #0x0                   	// #0
    23ec:	d2800081 	mov	x1, #0x4                   	// #4
    23f0:	52800140 	mov	w0, #0xa                   	// #10
    23f4:	1400004f 	b	2530 <syscall>
    23f8:	d503201f 	nop
    23fc:	d503201f 	nop

0000000000002400 <show_mem>:
}

int show_mem()
{
    return syscall(SYSCALL_SYS_STATE, SYS_STATE_SHOW_MEM_INFO, 0, 0, 0);
    2400:	d2800004 	mov	x4, #0x0                   	// #0
    2404:	d2800003 	mov	x3, #0x0                   	// #0
    2408:	d2800002 	mov	x2, #0x0                   	// #0
    240c:	d28000a1 	mov	x1, #0x5                   	// #5
    2410:	52800140 	mov	w0, #0xa                   	// #10
    2414:	14000047 	b	2530 <syscall>
    2418:	d503201f 	nop
    241c:	d503201f 	nop

0000000000002420 <show_cpu>:
}

int show_cpu()
{
    return syscall(SYSCALL_SYS_STATE, SYS_STATE_SHOW_CPU_INFO, 0, 0, 0);
    2420:	d2800004 	mov	x4, #0x0                   	// #0
    2424:	d2800003 	mov	x3, #0x0                   	// #0
    2428:	d2800002 	mov	x2, #0x0                   	// #0
    242c:	d28000c1 	mov	x1, #0x6                   	// #6
    2430:	52800140 	mov	w0, #0xa                   	// #10
    2434:	1400003f 	b	2530 <syscall>
    2438:	d503201f 	nop
    243c:	d503201f 	nop

0000000000002440 <mmap>:
}

int mmap(uintptr_t vaddr, uintptr_t paddr, int len, bool is_dev)
{
    2440:	2a0203e5 	mov	w5, w2
    return syscall(SYSCALL_MMAP, vaddr, paddr, (intptr_t)len, (intptr_t)is_dev);
    2444:	92401c64 	and	x4, x3, #0xff
    2448:	aa0103e2 	mov	x2, x1
    244c:	aa0003e1 	mov	x1, x0
    2450:	93407ca3 	sxtw	x3, w5
    2454:	52800080 	mov	w0, #0x4                   	// #4
    2458:	14000036 	b	2530 <syscall>
    245c:	d503201f 	nop

0000000000002460 <register_irq>:
}

int register_irq(int irq, int opcode)
{
    return syscall(SYSCALL_REGISTER_IRQ, (intptr_t)irq, (intptr_t)opcode, 0, 0);
    2460:	93407c22 	sxtw	x2, w1
    2464:	d2800004 	mov	x4, #0x0                   	// #0
    2468:	93407c01 	sxtw	x1, w0
    246c:	d2800003 	mov	x3, #0x0                   	// #0
    2470:	52800160 	mov	w0, #0xb                   	// #11
    2474:	1400002f 	b	2530 <syscall>
    2478:	d503201f 	nop
    247c:	d503201f 	nop

0000000000002480 <semaphore_new>:
}

int semaphore_new(int val)
{
    return syscall(SYSCALL_SEMAPHORE, (intptr_t)SYS_SEM_NEW, (intptr_t)val, 0, 0);
    2480:	93407c02 	sxtw	x2, w0
    2484:	d2800004 	mov	x4, #0x0                   	// #0
    2488:	d2800003 	mov	x3, #0x0                   	// #0
    248c:	d2800001 	mov	x1, #0x0                   	// #0
    2490:	528001a0 	mov	w0, #0xd                   	// #13
    2494:	14000027 	b	2530 <syscall>
    2498:	d503201f 	nop
    249c:	d503201f 	nop

00000000000024a0 <semaphore_free>:
}

bool semaphore_free(int sem_id)
{
    24a0:	a9bf7bfd 	stp	x29, x30, [sp, #-16]!
    return syscall(SYSCALL_SEMAPHORE, (intptr_t)SYS_SEM_FREE, (intptr_t)sem_id, 0, 0);
    24a4:	93407c02 	sxtw	x2, w0
    24a8:	d2800004 	mov	x4, #0x0                   	// #0
{
    24ac:	910003fd 	mov	x29, sp
    return syscall(SYSCALL_SEMAPHORE, (intptr_t)SYS_SEM_FREE, (intptr_t)sem_id, 0, 0);
    24b0:	d2800003 	mov	x3, #0x0                   	// #0
    24b4:	d2800021 	mov	x1, #0x1                   	// #1
    24b8:	528001a0 	mov	w0, #0xd                   	// #13
    24bc:	9400001d 	bl	2530 <syscall>
    24c0:	7100001f 	cmp	w0, #0x0
}
    24c4:	1a9f07e0 	cset	w0, ne  // ne = any
    24c8:	a8c17bfd 	ldp	x29, x30, [sp], #16
    24cc:	d65f03c0 	ret

00000000000024d0 <semaphore_wait>:

bool semaphore_wait(int sem_id)
{
    24d0:	a9bf7bfd 	stp	x29, x30, [sp, #-16]!
    return syscall(SYSCALL_SEMAPHORE, (intptr_t)SYS_SEM_WAIT, (intptr_t)sem_id, 0, 0);
    24d4:	93407c02 	sxtw	x2, w0
    24d8:	d2800004 	mov	x4, #0x0                   	// #0
{
    24dc:	910003fd 	mov	x29, sp
    return syscall(SYSCALL_SEMAPHORE, (intptr_t)SYS_SEM_WAIT, (intptr_t)sem_id, 0, 0);
    24e0:	d2800003 	mov	x3, #0x0                   	// #0
    24e4:	d2800061 	mov	x1, #0x3                   	// #3
    24e8:	528001a0 	mov	w0, #0xd                   	// #13
    24ec:	94000011 	bl	2530 <syscall>
    24f0:	7100001f 	cmp	w0, #0x0
}
    24f4:	1a9f07e0 	cset	w0, ne  // ne = any
    24f8:	a8c17bfd 	ldp	x29, x30, [sp], #16
    24fc:	d65f03c0 	ret

0000000000002500 <semaphore_signal>:

bool semaphore_signal(int sem_id)
{
    2500:	a9bf7bfd 	stp	x29, x30, [sp, #-16]!
    return syscall(SYSCALL_SEMAPHORE, (intptr_t)SYS_SEM_SIGNAL, (intptr_t)sem_id, 0, 0);
    2504:	93407c02 	sxtw	x2, w0
    2508:	d2800004 	mov	x4, #0x0                   	// #0
{
    250c:	910003fd 	mov	x29, sp
    return syscall(SYSCALL_SEMAPHORE, (intptr_t)SYS_SEM_SIGNAL, (intptr_t)sem_id, 0, 0);
    2510:	d2800003 	mov	x3, #0x0                   	// #0
    2514:	d2800041 	mov	x1, #0x2                   	// #2
    2518:	528001a0 	mov	w0, #0xd                   	// #13
    251c:	94000005 	bl	2530 <syscall>
    2520:	7100001f 	cmp	w0, #0x0
    2524:	1a9f07e0 	cset	w0, ne  // ne = any
    2528:	a8c17bfd 	ldp	x29, x30, [sp], #16
    252c:	d65f03c0 	ret

0000000000002530 <syscall>:
 * See the Mulan PSL v2 for more details.
 */
#include "usyscall.h"

int syscall(int sys_num, intptr_t a1, intptr_t a2, intptr_t a3, intptr_t a4)
{
    2530:	2a0003e5 	mov	w5, w0
    2534:	aa0103e6 	mov	x6, x1
    2538:	aa0203e7 	mov	x7, x2
    253c:	aa0303e8 	mov	x8, x3
    2540:	aa0403e9 	mov	x9, x4
    int ret = -1;

    __asm__ volatile(
    2544:	aa0503e0 	mov	x0, x5
    2548:	aa0603e1 	mov	x1, x6
    254c:	aa0703e2 	mov	x2, x7
    2550:	aa0803e3 	mov	x3, x8
    2554:	aa0903e4 	mov	x4, x9
    2558:	d4000001 	svc	#0x0
    255c:	d5033b9f 	dsb	ish
    2560:	d5033fdf 	isb
    2564:	aa0003e5 	mov	x5, x0
        : "=r"(ret)
        : "r"(sys_num), "r"(a1), "r"(a2), "r"(a3), "r"(a4)
        : "memory", "r0", "r1", "r2", "r3", "r4");

    return ret;
    2568:	2a0503e0 	mov	w0, w5
    256c:	d65f03c0 	ret

0000000000002570 <new_ipc_msg>:
/// @warning this file doesnt support multi threads

/// ipc part

struct IpcMsg* new_ipc_msg(struct Session* session, const int argc, const int* arg_size)
{
    2570:	a9bd7bfd 	stp	x29, x30, [sp, #-48]!

    int arg_info_offset = len; // start of arg info
    len += argc * sizeof(struct IpcArgInfo);

    int arg_buf_offset = len; // start of arg buffer
    for (int i = 0; i < argc; i++) {
    2574:	7100003f 	cmp	w1, #0x0
{
    2578:	910003fd 	mov	x29, sp
    257c:	a90153f3 	stp	x19, x20, [sp, #16]
    len += argc * sizeof(struct IpcArgInfo);
    2580:	528000d4 	mov	w20, #0x6                   	// #6
    2584:	1b147c34 	mul	w20, w1, w20
{
    2588:	a9025bf5 	stp	x21, x22, [sp, #32]
    258c:	2a0103f5 	mov	w21, w1
    len += argc * sizeof(struct IpcArgInfo);
    2590:	11003294 	add	w20, w20, #0xc
    for (int i = 0; i < argc; i++) {
    2594:	5400056d 	b.le	2640 <new_ipc_msg+0xd0>
    2598:	aa0003e3 	mov	x3, x0
    len += argc * sizeof(struct IpcArgInfo);
    259c:	2a1403f6 	mov	w22, w20
    25a0:	aa0203f3 	mov	x19, x2
    for (int i = 0; i < argc; i++) {
    25a4:	d2800002 	mov	x2, #0x0                   	// #0
        len += arg_size[i];
    25a8:	b8627a61 	ldr	w1, [x19, x2, lsl #2]
    for (int i = 0; i < argc; i++) {
    25ac:	91000442 	add	x2, x2, #0x1
    25b0:	6b0202bf 	cmp	w21, w2
        len += arg_size[i];
    25b4:	0b0102d6 	add	w22, w22, w1
    for (int i = 0; i < argc; i++) {
    25b8:	54ffff8c 	b.gt	25a8 <new_ipc_msg+0x38>
    }
    struct IpcMsg* buf = session_alloc_buf(session, len);
    25bc:	aa0303e0 	mov	x0, x3
    25c0:	2a1603e1 	mov	w1, w22
    25c4:	9400016f 	bl	2b80 <session_alloc_buf>
    if (buf == NULL) {
    25c8:	b40004c0 	cbz	x0, 2660 <new_ipc_msg+0xf0>
        return NULL;
    }
    buf->header.len = len;
    25cc:	528000c5 	mov	w5, #0x6                   	// #6
    buf->header.done = 0;
    buf->header.valid = 0;
    25d0:	39400001 	ldrb	w1, [x0]
    25d4:	52800182 	mov	w2, #0xc                   	// #12
    25d8:	aa1303e3 	mov	x3, x19
    25dc:	1b057ea5 	mul	w5, w21, w5
    25e0:	121e7421 	and	w1, w1, #0xfffffffc
    25e4:	39000001 	strb	w1, [x0]
    25e8:	0b0200a5 	add	w5, w5, w2
    buf->header.len = len;
    25ec:	79000416 	strh	w22, [x0, #2]

    for (int i = 0; i < argc; i++) {
        struct IpcArgInfo* arg_info = (struct IpcArgInfo*)((char*)buf + arg_info_offset);
    25f0:	8b22c001 	add	x1, x0, w2, sxtw
        arg_info->len = arg_size[i];
    25f4:	b9400064 	ldr	w4, [x3]
    25f8:	79000424 	strh	w4, [x1, #2]
        arg_info->offset = arg_buf_offset;
    25fc:	7822c814 	strh	w20, [x0, w2, sxtw]

        // update arg_info_offset and arg_buf_offset
        arg_info_offset += sizeof(struct IpcArgInfo);
    2600:	11001842 	add	w2, w2, #0x6
    for (int i = 0; i < argc; i++) {
    2604:	6b05005f 	cmp	w2, w5
        arg_buf_offset += arg_size[i];
    2608:	b8404461 	ldr	w1, [x3], #4
    260c:	0b010294 	add	w20, w20, w1
    for (int i = 0; i < argc; i++) {
    2610:	54ffff01 	b.ne	25f0 <new_ipc_msg+0x80>  // b.any
    }
    buf->header.nr_args = argc;
    buf->header.init = 1;
    2614:	39400002 	ldrb	w2, [x0]
    2618:	531c0ea1 	ubfiz	w1, w21, #4, #4
    261c:	321e0021 	orr	w1, w1, #0x4
    2620:	52800163 	mov	w3, #0xb                   	// #11
    2624:	0a030042 	and	w2, w2, w3
    2628:	2a020021 	orr	w1, w1, w2
    262c:	39000001 	strb	w1, [x0]
    return buf;
}
    2630:	a94153f3 	ldp	x19, x20, [sp, #16]
    2634:	a9425bf5 	ldp	x21, x22, [sp, #32]
    2638:	a8c37bfd 	ldp	x29, x30, [sp], #48
    263c:	d65f03c0 	ret
    struct IpcMsg* buf = session_alloc_buf(session, len);
    2640:	2a1403e1 	mov	w1, w20
    2644:	9400014f 	bl	2b80 <session_alloc_buf>
    if (buf == NULL) {
    2648:	b40000c0 	cbz	x0, 2660 <new_ipc_msg+0xf0>
    buf->header.valid = 0;
    264c:	39400001 	ldrb	w1, [x0]
    buf->header.len = len;
    2650:	79000414 	strh	w20, [x0, #2]
    buf->header.valid = 0;
    2654:	121e7421 	and	w1, w1, #0xfffffffc
    2658:	39000001 	strb	w1, [x0]
    for (int i = 0; i < argc; i++) {
    265c:	17ffffee 	b	2614 <new_ipc_msg+0xa4>
        return NULL;
    2660:	d2800000 	mov	x0, #0x0                   	// #0
    2664:	17fffff3 	b	2630 <new_ipc_msg+0xc0>
    2668:	d503201f 	nop
    266c:	d503201f 	nop

0000000000002670 <ipc_msg_set_nth_arg>:
/// @param arg_num start with 0 for first arg
/// @param data
/// @param len data buffer len
/// @return
bool ipc_msg_set_nth_arg(struct IpcMsg* msg, const int arg_num, const void* const data, const int len)
{
    2670:	a9bf7bfd 	stp	x29, x30, [sp, #-16]!
    2674:	2a0103e4 	mov	w4, w1
    2678:	aa0203e1 	mov	x1, x2
    267c:	910003fd 	mov	x29, sp
    2680:	93407c62 	sxtw	x2, w3
    if (arg_num >= msg->header.nr_args) {
    2684:	39400003 	ldrb	w3, [x0]
    2688:	d3441c63 	ubfx	x3, x3, #4, #4
    268c:	6b04007f 	cmp	w3, w4
    2690:	540003ad 	b.le	2704 <ipc_msg_set_nth_arg+0x94>
        printf("[%s] IPC: arg_num out of msg range, arg_num: %d, nr_args: %u\n", __func__, arg_num, msg->header.nr_args);
        return false;
    }
    struct IpcArgInfo* nth_arg_info = IPCMSG_ARG_INFO(msg, arg_num);
    2694:	528000c5 	mov	w5, #0x6                   	// #6
    2698:	d2800183 	mov	x3, #0xc                   	// #12
    269c:	9b250c84 	smaddl	x4, w4, w5, x3
    26a0:	8b040005 	add	x5, x0, x4
    if (len < 0 || (uint32_t)len > (uint32_t)nth_arg_info->len) {
    26a4:	794004a3 	ldrh	w3, [x5, #2]
    26a8:	37f801e2 	tbnz	w2, #31, 26e4 <ipc_msg_set_nth_arg+0x74>
    26ac:	6b02007f 	cmp	w3, w2
    26b0:	540001a3 	b.cc	26e4 <ipc_msg_set_nth_arg+0x74>  // b.lo, b.ul, b.last
    if (IPCMSG_ARG_INFO(msg, arg_num)->null_ptr == 1) {
    26b4:	394010a3 	ldrb	w3, [x5, #4]
    26b8:	37000423 	tbnz	w3, #0, 273c <ipc_msg_set_nth_arg+0xcc>
    return (void*)((char*)msg + IPCMSG_ARG_INFO(msg, arg_num)->offset);
    26bc:	78646803 	ldrh	w3, [x0, x4]
    26c0:	8b030000 	add	x0, x0, x3

    void* buf = ipc_msg_get_nth_arg_buf(msg, arg_num);

    // handle attributes of different params
    if (data == NULL) {
        nth_arg_info->null_ptr = 1;
    26c4:	394010a3 	ldrb	w3, [x5, #4]
    if (data == NULL) {
    26c8:	b4000301 	cbz	x1, 2728 <ipc_msg_set_nth_arg+0xb8>
        memset(buf, 0x0, len);
        return true;
    } else {
        nth_arg_info->null_ptr = 0;
    26cc:	121f7863 	and	w3, w3, #0xfffffffe
    26d0:	390010a3 	strb	w3, [x5, #4]
    }

    memmove(buf, data, len);
    26d4:	940004cb 	bl	3a00 <memmove>
    return true;
    26d8:	52800020 	mov	w0, #0x1                   	// #1
}
    26dc:	a8c17bfd 	ldp	x29, x30, [sp], #16
    26e0:	d65f03c0 	ret
        printf("[%s] IPC: size of arg out of buffer range, given len: %d, len %u\n", __func__, len, nth_arg_info->len);
    26e4:	b0000041 	adrp	x1, b000 <pow10.0+0x80>
    26e8:	b0000040 	adrp	x0, b000 <pow10.0+0x80>
    26ec:	9105c021 	add	x1, x1, #0x170
    26f0:	91012000 	add	x0, x0, #0x48
    26f4:	97fffdef 	bl	1eb0 <printf>
        return false;
    26f8:	52800000 	mov	w0, #0x0                   	// #0
}
    26fc:	a8c17bfd 	ldp	x29, x30, [sp], #16
    2700:	d65f03c0 	ret
        printf("[%s] IPC: arg_num out of msg range, arg_num: %d, nr_args: %u\n", __func__, arg_num, msg->header.nr_args);
    2704:	2a0403e2 	mov	w2, w4
    2708:	b0000041 	adrp	x1, b000 <pow10.0+0x80>
    270c:	b0000040 	adrp	x0, b000 <pow10.0+0x80>
    2710:	9105c021 	add	x1, x1, #0x170
    2714:	91002000 	add	x0, x0, #0x8
    2718:	97fffde6 	bl	1eb0 <printf>
        return false;
    271c:	52800000 	mov	w0, #0x0                   	// #0
}
    2720:	a8c17bfd 	ldp	x29, x30, [sp], #16
    2724:	d65f03c0 	ret
        nth_arg_info->null_ptr = 1;
    2728:	32000063 	orr	w3, w3, #0x1
    272c:	390010a3 	strb	w3, [x5, #4]
        memset(buf, 0x0, len);
    2730:	940004e4 	bl	3ac0 <memset>
        return true;
    2734:	52800020 	mov	w0, #0x1                   	// #1
    2738:	17ffffe9 	b	26dc <ipc_msg_set_nth_arg+0x6c>
        return NULL;
    273c:	d2800000 	mov	x0, #0x0                   	// #0
    2740:	17ffffe1 	b	26c4 <ipc_msg_set_nth_arg+0x54>
    2744:	d503201f 	nop
    2748:	d503201f 	nop
    274c:	d503201f 	nop

0000000000002750 <ipc_msg_get_nth_arg>:
/// @param arg_num start with 0 for first arg
/// @param data
/// @param len data buffer len
/// @return
bool ipc_msg_get_nth_arg(struct IpcMsg* msg, const int arg_num, void* data, const int len)
{
    2750:	a9be7bfd 	stp	x29, x30, [sp, #-32]!
    2754:	aa0003e4 	mov	x4, x0
    2758:	910003fd 	mov	x29, sp
    275c:	f9000bf3 	str	x19, [sp, #16]
    if (arg_num >= msg->header.nr_args) {
    2760:	39400005 	ldrb	w5, [x0]
    2764:	d3441ca5 	ubfx	x5, x5, #4, #4
    2768:	6b0100bf 	cmp	w5, w1
    276c:	5400030d 	b.le	27cc <ipc_msg_get_nth_arg+0x7c>
        printf("[%s] IPC: arg_num out of msg range", __func__);
        return false;
    }
    struct IpcArgInfo* nth_arg_info = IPCMSG_ARG_INFO(msg, arg_num);
    2770:	528000c5 	mov	w5, #0x6                   	// #6
    2774:	aa0203e0 	mov	x0, x2
    2778:	d2800182 	mov	x2, #0xc                   	// #12
    277c:	9b250821 	smaddl	x1, w1, w5, x2
    2780:	8b010082 	add	x2, x4, x1
    if (len > nth_arg_info->len) {
    2784:	79400445 	ldrh	w5, [x2, #2]
    2788:	6b0300bf 	cmp	w5, w3
    278c:	5400036b 	b.lt	27f8 <ipc_msg_get_nth_arg+0xa8>  // b.tstop
        printf("[%s] IPC: size of arg out of buffer range", __func__);
        return false;
    }

    // handle null ptr: do nothing
    if (nth_arg_info->null_ptr == 1) {
    2790:	39401042 	ldrb	w2, [x2, #4]
        return true;
    2794:	52800033 	mov	w19, #0x1                   	// #1
    if (nth_arg_info->null_ptr == 1) {
    2798:	360000a2 	tbz	w2, #0, 27ac <ipc_msg_get_nth_arg+0x5c>
    }

    void* buf = ipc_msg_get_nth_arg_buf(msg, arg_num);
    memmove(data, buf, len);
    return true;
}
    279c:	2a1303e0 	mov	w0, w19
    27a0:	f9400bf3 	ldr	x19, [sp, #16]
    27a4:	a8c27bfd 	ldp	x29, x30, [sp], #32
    27a8:	d65f03c0 	ret
    return (void*)((char*)msg + IPCMSG_ARG_INFO(msg, arg_num)->offset);
    27ac:	78616881 	ldrh	w1, [x4, x1]
    memmove(data, buf, len);
    27b0:	93407c62 	sxtw	x2, w3
    27b4:	8b010081 	add	x1, x4, x1
    27b8:	94000492 	bl	3a00 <memmove>
}
    27bc:	2a1303e0 	mov	w0, w19
    27c0:	f9400bf3 	ldr	x19, [sp, #16]
    27c4:	a8c27bfd 	ldp	x29, x30, [sp], #32
    27c8:	d65f03c0 	ret
        printf("[%s] IPC: arg_num out of msg range", __func__);
    27cc:	b0000041 	adrp	x1, b000 <pow10.0+0x80>
    27d0:	9105c021 	add	x1, x1, #0x170
    27d4:	91006021 	add	x1, x1, #0x18
        return false;
    27d8:	52800013 	mov	w19, #0x0                   	// #0
        printf("[%s] IPC: arg_num out of msg range", __func__);
    27dc:	b0000040 	adrp	x0, b000 <pow10.0+0x80>
    27e0:	91024000 	add	x0, x0, #0x90
    27e4:	97fffdb3 	bl	1eb0 <printf>
}
    27e8:	2a1303e0 	mov	w0, w19
    27ec:	f9400bf3 	ldr	x19, [sp, #16]
    27f0:	a8c27bfd 	ldp	x29, x30, [sp], #32
    27f4:	d65f03c0 	ret
        printf("[%s] IPC: size of arg out of buffer range", __func__);
    27f8:	b0000041 	adrp	x1, b000 <pow10.0+0x80>
    27fc:	9105c021 	add	x1, x1, #0x170
    2800:	91006021 	add	x1, x1, #0x18
        return false;
    2804:	52800013 	mov	w19, #0x0                   	// #0
        printf("[%s] IPC: size of arg out of buffer range", __func__);
    2808:	b0000040 	adrp	x0, b000 <pow10.0+0x80>
    280c:	9102e000 	add	x0, x0, #0xb8
    2810:	97fffda8 	bl	1eb0 <printf>
}
    2814:	2a1303e0 	mov	w0, w19
    2818:	f9400bf3 	ldr	x19, [sp, #16]
    281c:	a8c27bfd 	ldp	x29, x30, [sp], #32
    2820:	d65f03c0 	ret
    2824:	d503201f 	nop
    2828:	d503201f 	nop
    282c:	d503201f 	nop

0000000000002830 <ipc_msg_send_wait>:

void ipc_msg_send_wait(struct IpcMsg* msg)
{
    2830:	a9be7bfd 	stp	x29, x30, [sp, #-32]!
    msg->header.magic = IPC_MSG_MAGIC;
    msg->header.valid = 1;
    2834:	d2800021 	mov	x1, #0x1                   	// #1
    2838:	f2db9741 	movk	x1, #0xdcba, lsl #32
    283c:	f2f579a1 	movk	x1, #0xabcd, lsl #48
{
    2840:	910003fd 	mov	x29, sp
    2844:	f9000bf3 	str	x19, [sp, #16]
    2848:	aa0003f3 	mov	x19, x0
    msg->header.valid = 1;
    284c:	f9400000 	ldr	x0, [x0]
    2850:	927e7400 	and	x0, x0, #0xfffffffc
    2854:	aa010000 	orr	x0, x0, x1
    2858:	f9000260 	str	x0, [x19]
    msg->header.done = 0;
    while (msg->header.done == 0) {
    285c:	d503201f 	nop
        /// @todo syscall yield with prio decrease
        yield(SYS_TASK_YIELD_BLOCK_IPC);
    2860:	52800040 	mov	w0, #0x2                   	// #2
    2864:	97fffe97 	bl	22c0 <yield>
    while (msg->header.done == 0) {
    2868:	39400261 	ldrb	w1, [x19]
    286c:	360fffa1 	tbz	w1, #1, 2860 <ipc_msg_send_wait+0x30>
    }
    assert(msg->header.done == 1);
}
    2870:	f9400bf3 	ldr	x19, [sp, #16]
    2874:	a8c27bfd 	ldp	x29, x30, [sp], #32
    2878:	d65f03c0 	ret
    287c:	d503201f 	nop

0000000000002880 <ipc_msg_send_nowait>:

void ipc_msg_send_nowait(struct IpcMsg* msg)
{
    msg->header.magic = IPC_MSG_MAGIC;
    msg->header.valid = 1;
    2880:	f9400001 	ldr	x1, [x0]
    2884:	d2800022 	mov	x2, #0x1                   	// #1
    2888:	f2db9742 	movk	x2, #0xdcba, lsl #32
    288c:	f2f579a2 	movk	x2, #0xabcd, lsl #48
    2890:	927e7421 	and	x1, x1, #0xfffffffc
    2894:	aa020021 	orr	x1, x1, x2
    2898:	f9000001 	str	x1, [x0]
    msg->header.done = 0;
}
    289c:	d65f03c0 	ret

00000000000028a0 <ipc_session_wait>:

int ipc_session_wait(struct Session* session)
{
    28a0:	a9be7bfd 	stp	x29, x30, [sp, #-32]!
    28a4:	910003fd 	mov	x29, sp
    28a8:	f9000bf3 	str	x19, [sp, #16]
    struct IpcMsg* msg = IPCSESSION_MSG(session);
    28ac:	b9800801 	ldrsw	x1, [x0, #8]
    28b0:	f9400800 	ldr	x0, [x0, #16]
    28b4:	8b010013 	add	x19, x0, x1
    while (msg->header.done == 0) {
    28b8:	38616800 	ldrb	w0, [x0, x1]
    28bc:	370800a0 	tbnz	w0, #1, 28d0 <ipc_session_wait+0x30>
        /// @todo syscall yield with prio decrease
        yield(SYS_TASK_YIELD_BLOCK_IPC);
    28c0:	52800040 	mov	w0, #0x2                   	// #2
    28c4:	97fffe7f 	bl	22c0 <yield>
    while (msg->header.done == 0) {
    28c8:	39400260 	ldrb	w0, [x19]
    28cc:	360fffa0 	tbz	w0, #1, 28c0 <ipc_session_wait+0x20>
    }
    assert(msg->header.done == 1);
    return msg->header.ret_val;
}
    28d0:	b9400a60 	ldr	w0, [x19, #8]
    28d4:	f9400bf3 	ldr	x19, [sp, #16]
    28d8:	a8c27bfd 	ldp	x29, x30, [sp], #32
    28dc:	d65f03c0 	ret

00000000000028e0 <cur_session_id>:

static int cur_sess_id = -1;
static struct IpcMsg* ipc_server_loop_cur_msg = NULL;
int cur_session_id(void)
{
    return cur_sess_id;
    28e0:	d0000040 	adrp	x0, c000 <IpcTestNull+0x6e8>
}
    28e4:	b9412800 	ldr	w0, [x0, #296]
    28e8:	d65f03c0 	ret
    28ec:	d503201f 	nop

00000000000028f0 <delay_session>:

static bool session_delayed = false;
void delay_session(void)
{
    session_delayed = true;
    28f0:	f0000040 	adrp	x0, d000 <__malloc_av_+0x780>
    28f4:	52800021 	mov	w1, #0x1                   	// #1
    28f8:	390b4001 	strb	w1, [x0, #720]
}
    28fc:	d65f03c0 	ret

0000000000002900 <is_cur_session_delayed>:

bool is_cur_session_delayed(void)
{
    return session_delayed;
    2900:	f0000040 	adrp	x0, d000 <__malloc_av_+0x780>
}
    2904:	394b4000 	ldrb	w0, [x0, #720]
    2908:	d65f03c0 	ret
    290c:	d503201f 	nop

0000000000002910 <is_cur_handler_been_delayed>:

bool is_cur_handler_been_delayed()
{
    if (ipc_server_loop_cur_msg == NULL) {
    2910:	f0000040 	adrp	x0, d000 <__malloc_av_+0x780>
    2914:	f9416c00 	ldr	x0, [x0, #728]
    2918:	b4000080 	cbz	x0, 2928 <is_cur_handler_been_delayed+0x18>
        return false;
    }
    return ipc_server_loop_cur_msg->header.delayed == 1;
    291c:	39400000 	ldrb	w0, [x0]
    2920:	d3430c00 	ubfx	x0, x0, #3, #1
}
    2924:	d65f03c0 	ret
        return false;
    2928:	52800000 	mov	w0, #0x0                   	// #0
}
    292c:	d65f03c0 	ret

0000000000002930 <ipc_server_loop>:

void ipc_server_loop(struct IpcNode* ipc_node)
{
    2930:	d10dc3ff 	sub	sp, sp, #0x370
    struct Session session_list[NR_MAX_SESSION];
    memset(session_list, 0, sizeof(session_list));
    2934:	d2806002 	mov	x2, #0x300                 	// #768
    2938:	52800001 	mov	w1, #0x0                   	// #0
{
    293c:	a9007bfd 	stp	x29, x30, [sp]
    2940:	910003fd 	mov	x29, sp
    2944:	a90153f3 	stp	x19, x20, [sp, #16]
    2948:	aa0003f3 	mov	x19, x0
    memset(session_list, 0, sizeof(session_list));
    294c:	9101c3e0 	add	x0, sp, #0x70
{
    2950:	a9025bf5 	stp	x21, x22, [sp, #32]
    2954:	d0000055 	adrp	x21, c000 <IpcTestNull+0x6e8>
    2958:	9104a2b5 	add	x21, x21, #0x128
    295c:	a90363f7 	stp	x23, x24, [sp, #48]
    2960:	b0000056 	adrp	x22, b000 <pow10.0+0x80>
    2964:	910442d6 	add	x22, x22, #0x110
    2968:	a9046bf9 	stp	x25, x26, [sp, #64]
                ipc_server_loop_cur_msg = IPCSESSION_MSG(&session_list[i]);
                /* handle every message in current session
                    a session could be delay in case one of its message(current message) needs to wait for an interrupt message's arrival
                    interfaces[opcode] should explicitly call delay_session() and return to delay this session
                */
                while (ipc_server_loop_cur_msg->header.magic == IPC_MSG_MAGIC && ipc_server_loop_cur_msg->header.valid == 1 && ipc_server_loop_cur_msg->header.done == 0) {
    296c:	529b9754 	mov	w20, #0xdcba                	// #56506
    2970:	72b579b4 	movk	w20, #0xabcd, lsl #16
{
    2974:	a90573fb 	stp	x27, x28, [sp, #80]
    memset(session_list, 0, sizeof(session_list));
    2978:	94000452 	bl	3ac0 <memset>
    297c:	f0000044 	adrp	x4, d000 <__malloc_av_+0x780>
    2980:	910b409c 	add	x28, x4, #0x2d0
    2984:	b0000040 	adrp	x0, b000 <pow10.0+0x80>
    2988:	9103a000 	add	x0, x0, #0xe8
    298c:	f90037e0 	str	x0, [sp, #104]
    2990:	b000005b 	adrp	x27, b000 <pow10.0+0x80>
    2994:	9104e360 	add	x0, x27, #0x138
    2998:	f90033e0 	str	x0, [sp, #96]
        poll_session(session_list, NR_MAX_SESSION);
    299c:	9101c3e0 	add	x0, sp, #0x70
        for (int repeat = 0; repeat <= 1 && has_delayed; repeat++) {
    29a0:	5280001a 	mov	w26, #0x0                   	// #0
                        break;
                    }
                    ipc_server_loop_cur_msg = IPCSESSION_MSG(&session_list[i]);
                }
                // stop handle this session
                cur_sess_id = -1;
    29a4:	12800018 	mov	w24, #0xffffffff            	// #-1
        poll_session(session_list, NR_MAX_SESSION);
    29a8:	52800401 	mov	w1, #0x20                  	// #32
    29ac:	97fffe65 	bl	2340 <poll_session>
        for (int repeat = 0; repeat <= 1 && has_delayed; repeat++) {
    29b0:	9101c3fb 	add	x27, sp, #0x70
    29b4:	910dc3f7 	add	x23, sp, #0x370
            has_delayed = false;
    29b8:	52800019 	mov	w25, #0x0                   	// #0
    29bc:	d503201f 	nop
                if (session_list[i].buf == NULL) {
    29c0:	f9400b60 	ldr	x0, [x27, #16]
                session_delayed = false;
    29c4:	3900039f 	strb	wzr, [x28]
                if (session_list[i].buf == NULL) {
    29c8:	b4000980 	cbz	x0, 2af8 <ipc_server_loop+0x1c8>
                ipc_server_loop_cur_msg = IPCSESSION_MSG(&session_list[i]);
    29cc:	b9800b62 	ldrsw	x2, [x27, #8]
                cur_sess_id = session_list[i].id;
    29d0:	b9400361 	ldr	w1, [x27]
                ipc_server_loop_cur_msg = IPCSESSION_MSG(&session_list[i]);
    29d4:	8b020000 	add	x0, x0, x2
                cur_sess_id = session_list[i].id;
    29d8:	b90002a1 	str	w1, [x21]
                ipc_server_loop_cur_msg = IPCSESSION_MSG(&session_list[i]);
    29dc:	f9000780 	str	x0, [x28, #8]
                while (ipc_server_loop_cur_msg->header.magic == IPC_MSG_MAGIC && ipc_server_loop_cur_msg->header.valid == 1 && ipc_server_loop_cur_msg->header.done == 0) {
    29e0:	b9400401 	ldr	w1, [x0, #4]
    29e4:	6b14003f 	cmp	w1, w20
    29e8:	54000340 	b.eq	2a50 <ipc_server_loop+0x120>  // b.none
    29ec:	14000039 	b	2ad0 <ipc_server_loop+0x1a0>
                        ipc_node->interfaces[ipc_server_loop_cur_msg->header.opcode](ipc_server_loop_cur_msg);
    29f0:	d63f0040 	blr	x2
                        if (ipc_server_loop_cur_msg->header.done == 0) {
    29f4:	f9400780 	ldr	x0, [x28, #8]
    29f8:	39400001 	ldrb	w1, [x0]
    29fc:	36080641 	tbz	w1, #1, 2ac4 <ipc_server_loop+0x194>
    void* buf;
};

__attribute__((__always_inline__)) static inline int session_used_size(struct Session* session)
{
    return ((session->tail + session->capacity) - session->head) % session->capacity;
    2a00:	29409b62 	ldp	w2, w6, [x27, #4]
    2a04:	b9400f61 	ldr	w1, [x27, #12]
                    if (session_forward_head(&session_list[i], ipc_server_loop_cur_msg->header.len) < 0) {
    2a08:	79400400 	ldrh	w0, [x0, #2]
    2a0c:	0b010041 	add	w1, w2, w1
    2a10:	4b060021 	sub	w1, w1, w6
    2a14:	1ac20c25 	sdiv	w5, w1, w2
    2a18:	1b0284a1 	msub	w1, w5, w2, w1
    return session->capacity - session_used_size(session);
}

__attribute__((__always_inline__)) static inline int session_forward_head(struct Session* session, int len)
{
    if (len > session_used_size(session)) {
    2a1c:	6b01001f 	cmp	w0, w1
    2a20:	5400078c 	b.gt	2b10 <ipc_server_loop+0x1e0>
        printf("forward head with too much size, session used size: %d\n", session_used_size(session));
        return -1;
    }
    session->head = (session->head + len) % session->capacity;
    2a24:	0b060000 	add	w0, w0, w6
    2a28:	1ac20c01 	sdiv	w1, w0, w2
    2a2c:	1b028020 	msub	w0, w1, w2, w0
    2a30:	b9000b60 	str	w0, [x27, #8]
    2a34:	37f804e0 	tbnz	w0, #31, 2ad0 <ipc_server_loop+0x1a0>
                    ipc_server_loop_cur_msg = IPCSESSION_MSG(&session_list[i]);
    2a38:	f9400b61 	ldr	x1, [x27, #16]
    2a3c:	8b20c020 	add	x0, x1, w0, sxtw
    2a40:	f9000780 	str	x0, [x28, #8]
                while (ipc_server_loop_cur_msg->header.magic == IPC_MSG_MAGIC && ipc_server_loop_cur_msg->header.valid == 1 && ipc_server_loop_cur_msg->header.done == 0) {
    2a44:	b9400401 	ldr	w1, [x0, #4]
    2a48:	6b14003f 	cmp	w1, w20
    2a4c:	54000421 	b.ne	2ad0 <ipc_server_loop+0x1a0>  // b.any
    2a50:	39400001 	ldrb	w1, [x0]
    2a54:	12000421 	and	w1, w1, #0x3
    2a58:	7100043f 	cmp	w1, #0x1
    2a5c:	540003a1 	b.ne	2ad0 <ipc_server_loop+0x1a0>  // b.any
    return ((session->tail + session->capacity) - session->head) % session->capacity;
    2a60:	29409761 	ldp	w1, w5, [x27, #4]
    2a64:	b9400f66 	ldr	w6, [x27, #12]
    2a68:	0b0100c2 	add	w2, w6, w1
    2a6c:	4b050042 	sub	w2, w2, w5
    2a70:	1ac10c45 	sdiv	w5, w2, w1
    2a74:	1b0188a2 	msub	w2, w5, w1, w2
                    if (session_used_size(&session_list[i]) == 0 && session_forward_tail(&session_list[i], ipc_server_loop_cur_msg->header.len) < 0) {
    2a78:	35000122 	cbnz	w2, 2a9c <ipc_server_loop+0x16c>
    2a7c:	79400402 	ldrh	w2, [x0, #2]
    return session->head;
}

__attribute__((__always_inline__)) static inline int session_forward_tail(struct Session* session, int len)
{
    if (len > session_remain_capacity(session)) {
    2a80:	6b01005f 	cmp	w2, w1
    2a84:	5400056c 	b.gt	2b30 <ipc_server_loop+0x200>
        printf("forward tail with too much size\n");
        return -1;
    }
    session->tail = (session->tail + len) % session->capacity;
    2a88:	0b060042 	add	w2, w2, w6
    2a8c:	1ac10c45 	sdiv	w5, w2, w1
    2a90:	1b0188a2 	msub	w2, w5, w1, w2
    2a94:	b9000f62 	str	w2, [x27, #12]
    2a98:	37f801c2 	tbnz	w2, #31, 2ad0 <ipc_server_loop+0x1a0>
                    if (ipc_node->interfaces[ipc_server_loop_cur_msg->header.opcode]) {
    2a9c:	39400402 	ldrb	w2, [x0, #1]
    2aa0:	39400401 	ldrb	w1, [x0, #1]
    2aa4:	8b020e62 	add	x2, x19, x2, lsl #3
    2aa8:	f9400442 	ldr	x2, [x2, #8]
    2aac:	b5fffa22 	cbnz	x2, 29f0 <ipc_server_loop+0xc0>
                        printf("Unsupport opcode(%u) for server: %s\n", ipc_server_loop_cur_msg->header.opcode, ipc_node->name);
    2ab0:	f9400262 	ldr	x2, [x19]
    2ab4:	aa1603e0 	mov	x0, x22
    2ab8:	97fffcfe 	bl	1eb0 <printf>
                    if (session_forward_head(&session_list[i], ipc_server_loop_cur_msg->header.len) < 0) {
    2abc:	f9400780 	ldr	x0, [x28, #8]
    2ac0:	17ffffd0 	b	2a00 <ipc_server_loop+0xd0>
                            ipc_server_loop_cur_msg->header.delayed = 1;
    2ac4:	321d0021 	orr	w1, w1, #0x8
                            has_delayed = true;
    2ac8:	52800039 	mov	w25, #0x1                   	// #1
                            ipc_server_loop_cur_msg->header.delayed = 1;
    2acc:	39000001 	strb	w1, [x0]
                cur_sess_id = -1;
    2ad0:	b90002b8 	str	w24, [x21]
            for (int i = 0; i < NR_MAX_SESSION; i++) {
    2ad4:	9100637b 	add	x27, x27, #0x18
                ipc_server_loop_cur_msg = NULL;
    2ad8:	f900079f 	str	xzr, [x28, #8]
            for (int i = 0; i < NR_MAX_SESSION; i++) {
    2adc:	eb1b02ff 	cmp	x23, x27
    2ae0:	54fff701 	b.ne	29c0 <ipc_server_loop+0x90>  // b.any
        for (int repeat = 0; repeat <= 1 && has_delayed; repeat++) {
    2ae4:	52000340 	eor	w0, w26, #0x1
    2ae8:	5280003a 	mov	w26, #0x1                   	// #1
    2aec:	6a00033f 	tst	w25, w0
    2af0:	54fff601 	b.ne	29b0 <ipc_server_loop+0x80>  // b.any
    2af4:	17ffffaa 	b	299c <ipc_server_loop+0x6c>
                    yield(SYS_TASK_YIELD_NO_REASON);
    2af8:	97fffdf2 	bl	22c0 <yield>
        for (int repeat = 0; repeat <= 1 && has_delayed; repeat++) {
    2afc:	52000340 	eor	w0, w26, #0x1
    2b00:	5280003a 	mov	w26, #0x1                   	// #1
    2b04:	6a00033f 	tst	w25, w0
    2b08:	54fff541 	b.ne	29b0 <ipc_server_loop+0x80>  // b.any
    2b0c:	17ffffa4 	b	299c <ipc_server_loop+0x6c>
        printf("forward head with too much size, session used size: %d\n", session_used_size(session));
    2b10:	f94033e0 	ldr	x0, [sp, #96]
            for (int i = 0; i < NR_MAX_SESSION; i++) {
    2b14:	9100637b 	add	x27, x27, #0x18
    2b18:	97fffce6 	bl	1eb0 <printf>
                cur_sess_id = -1;
    2b1c:	b90002b8 	str	w24, [x21]
                ipc_server_loop_cur_msg = NULL;
    2b20:	f900079f 	str	xzr, [x28, #8]
            for (int i = 0; i < NR_MAX_SESSION; i++) {
    2b24:	eb1b02ff 	cmp	x23, x27
    2b28:	54fff4c1 	b.ne	29c0 <ipc_server_loop+0x90>  // b.any
    2b2c:	17ffffee 	b	2ae4 <ipc_server_loop+0x1b4>
        printf("forward tail with too much size\n");
    2b30:	f94037e0 	ldr	x0, [sp, #104]
    2b34:	9100637b 	add	x27, x27, #0x18
    2b38:	97fffcde 	bl	1eb0 <printf>
                cur_sess_id = -1;
    2b3c:	b90002b8 	str	w24, [x21]
                ipc_server_loop_cur_msg = NULL;
    2b40:	f900079f 	str	xzr, [x28, #8]
            for (int i = 0; i < NR_MAX_SESSION; i++) {
    2b44:	eb1b02ff 	cmp	x23, x27
    2b48:	54fff3c1 	b.ne	29c0 <ipc_server_loop+0x90>  // b.any
    2b4c:	17ffffe6 	b	2ae4 <ipc_server_loop+0x1b4>

0000000000002b50 <connect_session>:

#include "session.h"
#include "usyscall.h"

int connect_session(struct Session* _session, char* _path, int _capacity)
{
    2b50:	aa0003e3 	mov	x3, x0
    2b54:	aa0103e0 	mov	x0, x1
    2b58:	2a0203e1 	mov	w1, w2
    return session(_path, _capacity, _session);
    2b5c:	aa0303e2 	mov	x2, x3
    2b60:	17fffdf0 	b	2320 <session>
    2b64:	d503201f 	nop
    2b68:	d503201f 	nop
    2b6c:	d503201f 	nop

0000000000002b70 <free_session>:
}

int free_session(struct Session* session)
{
    return close_session(session);
    2b70:	17fffdfc 	b	2360 <close_session>
    2b74:	d503201f 	nop
    2b78:	d503201f 	nop
    2b7c:	d503201f 	nop

0000000000002b80 <session_alloc_buf>:
}

// ipc_msg alloc_buffer(ipc_session)

void* session_alloc_buf(struct Session* session, int len)
{
    2b80:	a9bd7bfd 	stp	x29, x30, [sp, #-48]!
    2b84:	910003fd 	mov	x29, sp
    2b88:	f90013f5 	str	x21, [sp, #32]
    if (len < 0 || len > session_remain_capacity(session)) {
    2b8c:	37f80561 	tbnz	w1, #31, 2c38 <session_alloc_buf+0xb8>
    2b90:	a90153f3 	stp	x19, x20, [sp, #16]
    2b94:	2a0103f4 	mov	w20, w1
    2b98:	aa0003f3 	mov	x19, x0
    return ((session->tail + session->capacity) - session->head) % session->capacity;
    2b9c:	29408801 	ldp	w1, w2, [x0, #4]
        return NULL;
    2ba0:	d2800015 	mov	x21, #0x0                   	// #0
    2ba4:	b9400c03 	ldr	w3, [x0, #12]
    2ba8:	0b030020 	add	w0, w1, w3
    2bac:	4b020000 	sub	w0, w0, w2
    2bb0:	1ac10c02 	sdiv	w2, w0, w1
    2bb4:	1b018040 	msub	w0, w2, w1, w0
    return session->capacity - session_used_size(session);
    2bb8:	4b000021 	sub	w1, w1, w0
    if (len < 0 || len > session_remain_capacity(session)) {
    2bbc:	6b01029f 	cmp	w20, w1
    2bc0:	5400032c 	b.gt	2c24 <session_alloc_buf+0xa4>
    }
    void* buf = (void*)((uintptr_t)session->buf + session->tail);
    2bc4:	f9400a75 	ldr	x21, [x19, #16]
    // we mapped double size of page, so it's ok to write buffer directly
    memset(buf, 0, len);
    2bc8:	93407e82 	sxtw	x2, w20
    2bcc:	52800001 	mov	w1, #0x0                   	// #0
    void* buf = (void*)((uintptr_t)session->buf + session->tail);
    2bd0:	8b23c2b5 	add	x21, x21, w3, sxtw
    memset(buf, 0, len);
    2bd4:	aa1503e0 	mov	x0, x21
    2bd8:	940003ba 	bl	3ac0 <memset>
    return ((session->tail + session->capacity) - session->head) % session->capacity;
    2bdc:	29408e60 	ldp	w0, w3, [x19, #4]
    2be0:	b9400e61 	ldr	w1, [x19, #12]
    2be4:	0b010002 	add	w2, w0, w1
    2be8:	4b030043 	sub	w3, w2, w3
    2bec:	1ac00c62 	sdiv	w2, w3, w0
    2bf0:	1b008c42 	msub	w2, w2, w0, w3
    return session->capacity - session_used_size(session);
    2bf4:	4b020002 	sub	w2, w0, w2
    if (len > session_remain_capacity(session)) {
    2bf8:	6b02029f 	cmp	w20, w2
    2bfc:	5400028c 	b.gt	2c4c <session_alloc_buf+0xcc>
    session->tail = (session->tail + len) % session->capacity;
    2c00:	0b010294 	add	w20, w20, w1
    2c04:	1ac00e81 	sdiv	w1, w20, w0
    2c08:	1b00d034 	msub	w20, w1, w0, w20
    2c0c:	b9000e74 	str	w20, [x19, #12]
    return session->tail;
    2c10:	a94153f3 	ldp	x19, x20, [sp, #16]
    session_forward_tail(session, len);
    return buf;
}
    2c14:	aa1503e0 	mov	x0, x21
    2c18:	f94013f5 	ldr	x21, [sp, #32]
    2c1c:	a8c37bfd 	ldp	x29, x30, [sp], #48
    2c20:	d65f03c0 	ret
    2c24:	aa1503e0 	mov	x0, x21
    2c28:	a94153f3 	ldp	x19, x20, [sp, #16]
    2c2c:	f94013f5 	ldr	x21, [sp, #32]
    2c30:	a8c37bfd 	ldp	x29, x30, [sp], #48
    2c34:	d65f03c0 	ret
        return NULL;
    2c38:	d2800015 	mov	x21, #0x0                   	// #0
}
    2c3c:	aa1503e0 	mov	x0, x21
    2c40:	f94013f5 	ldr	x21, [sp, #32]
    2c44:	a8c37bfd 	ldp	x29, x30, [sp], #48
    2c48:	d65f03c0 	ret
        printf("forward tail with too much size\n");
    2c4c:	b0000040 	adrp	x0, b000 <pow10.0+0x80>
    2c50:	9103a000 	add	x0, x0, #0xe8
    2c54:	97fffc97 	bl	1eb0 <printf>
        return -1;
    2c58:	a94153f3 	ldp	x19, x20, [sp, #16]
    2c5c:	17ffffee 	b	2c14 <session_alloc_buf+0x94>

0000000000002c60 <session_free_buf>:

bool session_free_buf(struct Session* session, int len)
{
    if (len < 0 || len > session_used_size(session)) {
    2c60:	37f80241 	tbnz	w1, #31, 2ca8 <session_free_buf+0x48>
    return ((session->tail + session->capacity) - session->head) % session->capacity;
    2c64:	29409403 	ldp	w3, w5, [x0, #4]
    2c68:	aa0003e2 	mov	x2, x0
    2c6c:	b9400c00 	ldr	w0, [x0, #12]
    2c70:	0b000060 	add	w0, w3, w0
    2c74:	4b050000 	sub	w0, w0, w5
    2c78:	1ac30c04 	sdiv	w4, w0, w3
    2c7c:	1b038080 	msub	w0, w4, w3, w0
    2c80:	6b00003f 	cmp	w1, w0
    2c84:	5400012c 	b.gt	2ca8 <session_free_buf+0x48>
    session->head = (session->head + len) % session->capacity;
    2c88:	0b050021 	add	w1, w1, w5
        return false;
    }
    assert(session_forward_head(session, len) != -1);
    return true;
    2c8c:	52800020 	mov	w0, #0x1                   	// #1
    2c90:	1ac30c24 	sdiv	w4, w1, w3
    2c94:	1b038481 	msub	w1, w4, w3, w1
    2c98:	b9000841 	str	w1, [x2, #8]
    assert(session_forward_head(session, len) != -1);
    2c9c:	3100043f 	cmn	w1, #0x1
    2ca0:	54000080 	b.eq	2cb0 <session_free_buf+0x50>  // b.none
}
    2ca4:	d65f03c0 	ret
        return false;
    2ca8:	52800000 	mov	w0, #0x0                   	// #0
}
    2cac:	d65f03c0 	ret
{
    2cb0:	a9bf7bfd 	stp	x29, x30, [sp, #-16]!
    assert(session_forward_head(session, len) != -1);
    2cb4:	b0000043 	adrp	x3, b000 <pow10.0+0x80>
    2cb8:	b0000042 	adrp	x2, b000 <pow10.0+0x80>
{
    2cbc:	910003fd 	mov	x29, sp
    assert(session_forward_head(session, len) != -1);
    2cc0:	b0000040 	adrp	x0, b000 <pow10.0+0x80>
    2cc4:	91068063 	add	x3, x3, #0x1a0
    2cc8:	91078042 	add	x2, x2, #0x1e0
    2ccc:	91074000 	add	x0, x0, #0x1d0
    2cd0:	52800801 	mov	w1, #0x40                  	// #64
    2cd4:	94000033 	bl	2da0 <__assert_func>
    2cd8:	d503201f 	nop
    2cdc:	d503201f 	nop

0000000000002ce0 <_exit>:
#include <sys/types.h>

// _exit: 
void _exit(int status)
{
    while (1) { }
    2ce0:	14000000 	b	2ce0 <_exit>
    2ce4:	d503201f 	nop
    2ce8:	d503201f 	nop
    2cec:	d503201f 	nop

0000000000002cf0 <_sbrk>:
{
    extern char end; /* Defined by the linker */
    static char* heap_end;
    char* prev_heap_end;

    if (heap_end == 0) {
    2cf0:	f0000043 	adrp	x3, d000 <__malloc_av_+0x780>
    2cf4:	f9417061 	ldr	x1, [x3, #736]
    2cf8:	f0000042 	adrp	x2, d000 <__malloc_av_+0x780>
    2cfc:	9117a042 	add	x2, x2, #0x5e8
    2d00:	f100003f 	cmp	x1, #0x0
    2d04:	9a810041 	csel	x1, x2, x1, eq  // eq = none
    prev_heap_end = heap_end;

    // 
    //  incr 

    heap_end += incr;
    2d08:	8b000022 	add	x2, x1, x0
    return (void*)prev_heap_end;
}
    2d0c:	aa0103e0 	mov	x0, x1
    heap_end += incr;
    2d10:	f9017062 	str	x2, [x3, #736]
}
    2d14:	d65f03c0 	ret
    2d18:	d503201f 	nop
    2d1c:	d503201f 	nop

0000000000002d20 <_write>:

// _write: 
ssize_t _write(int file, const void* ptr, size_t len)
{
    2d20:	aa0203e0 	mov	x0, x2
    // 
    // 

    return len; // 
}
    2d24:	d65f03c0 	ret
    2d28:	d503201f 	nop
    2d2c:	d503201f 	nop

0000000000002d30 <_close>:

// _close: 
int _close(int file)
{
    return -1; // 
}
    2d30:	12800000 	mov	w0, #0xffffffff            	// #-1
    2d34:	d65f03c0 	ret
    2d38:	d503201f 	nop
    2d3c:	d503201f 	nop

0000000000002d40 <_fstat>:

// _fstat: 
int _fstat(int file, struct stat* st)
{
    return 0; // 
}
    2d40:	52800000 	mov	w0, #0x0                   	// #0
    2d44:	d65f03c0 	ret
    2d48:	d503201f 	nop
    2d4c:	d503201f 	nop

0000000000002d50 <_isatty>:

// _isatty: TTY
int _isatty(int file)
{
    return 1; // TTY
}
    2d50:	52800020 	mov	w0, #0x1                   	// #1
    2d54:	d65f03c0 	ret
    2d58:	d503201f 	nop
    2d5c:	d503201f 	nop

0000000000002d60 <_lseek>:

// _lseek: /
off_t _lseek(int file, off_t offset, int whence)
{
    return -1; // 
}
    2d60:	92800000 	mov	x0, #0xffffffffffffffff    	// #-1
    2d64:	d65f03c0 	ret
    2d68:	d503201f 	nop
    2d6c:	d503201f 	nop

0000000000002d70 <_read>:

// _read: 
ssize_t _read(int file, void* ptr, size_t len)
{
    return 0; // 
}
    2d70:	d2800000 	mov	x0, #0x0                   	// #0
    2d74:	d65f03c0 	ret
    2d78:	d503201f 	nop
    2d7c:	d503201f 	nop

0000000000002d80 <_kill>:

// _kill: 
int _kill(int pid, int sig)
{
    return -1; // 
}
    2d80:	12800000 	mov	w0, #0xffffffff            	// #-1
    2d84:	d65f03c0 	ret
    2d88:	d503201f 	nop
    2d8c:	d503201f 	nop

0000000000002d90 <_getpid>:

// _getpid: ID
int _getpid()
{
    return 1; // ID
}
    2d90:	52800020 	mov	w0, #0x1                   	// #1
    2d94:	d65f03c0 	ret
    2d98:	d503201f 	nop
    2d9c:	d503201f 	nop

0000000000002da0 <__assert_func>:
    2da0:	a9bf7bfd 	stp	x29, x30, [sp, #-16]!
    2da4:	d0000044 	adrp	x4, c000 <IpcTestNull+0x6e8>
    2da8:	aa0003e7 	mov	x7, x0
    2dac:	910003fd 	mov	x29, sp
    2db0:	f9409885 	ldr	x5, [x4, #304]
    2db4:	aa0203e6 	mov	x6, x2
    2db8:	2a0103e4 	mov	w4, w1
    2dbc:	aa0303e2 	mov	x2, x3
    2dc0:	f9400ca0 	ldr	x0, [x5, #24]
    2dc4:	b4000106 	cbz	x6, 2de4 <__assert_func+0x44>
    2dc8:	b0000045 	adrp	x5, b000 <pow10.0+0x80>
    2dcc:	9107e0a5 	add	x5, x5, #0x1f8
    2dd0:	aa0703e3 	mov	x3, x7
    2dd4:	b0000041 	adrp	x1, b000 <pow10.0+0x80>
    2dd8:	91082021 	add	x1, x1, #0x208
    2ddc:	94000049 	bl	2f00 <fiprintf>
    2de0:	94000bd8 	bl	5d40 <abort>
    2de4:	90000045 	adrp	x5, a000 <__swbuf_r+0xb0>
    2de8:	913740a5 	add	x5, x5, #0xdd0
    2dec:	aa0503e6 	mov	x6, x5
    2df0:	17fffff8 	b	2dd0 <__assert_func+0x30>
    2df4:	d503201f 	nop
    2df8:	d503201f 	nop
    2dfc:	d503201f 	nop

0000000000002e00 <__assert>:
    2e00:	a9bf7bfd 	stp	x29, x30, [sp, #-16]!
    2e04:	aa0203e3 	mov	x3, x2
    2e08:	d2800002 	mov	x2, #0x0                   	// #0
    2e0c:	910003fd 	mov	x29, sp
    2e10:	97ffffe4 	bl	2da0 <__assert_func>
    2e14:	d503201f 	nop
    2e18:	d503201f 	nop
    2e1c:	d503201f 	nop

0000000000002e20 <atexit>:
    2e20:	aa0003e1 	mov	x1, x0
    2e24:	d2800003 	mov	x3, #0x0                   	// #0
    2e28:	d2800002 	mov	x2, #0x0                   	// #0
    2e2c:	52800000 	mov	w0, #0x0                   	// #0
    2e30:	14000bcc 	b	5d60 <__register_exitproc>
    2e34:	d503201f 	nop
    2e38:	d503201f 	nop
    2e3c:	d503201f 	nop

0000000000002e40 <__libc_fini_array>:
    2e40:	a9be7bfd 	stp	x29, x30, [sp, #-32]!
    2e44:	b0000041 	adrp	x1, b000 <pow10.0+0x80>
    2e48:	b0000040 	adrp	x0, b000 <pow10.0+0x80>
    2e4c:	910003fd 	mov	x29, sp
    2e50:	a90153f3 	stp	x19, x20, [sp, #16]
    2e54:	f9411c33 	ldr	x19, [x1, #568]
    2e58:	f9412014 	ldr	x20, [x0, #576]
    2e5c:	cb140273 	sub	x19, x19, x20
    2e60:	9343fe73 	asr	x19, x19, #3
    2e64:	b40000b3 	cbz	x19, 2e78 <__libc_fini_array+0x38>
    2e68:	d1000673 	sub	x19, x19, #0x1
    2e6c:	f8737a80 	ldr	x0, [x20, x19, lsl #3]
    2e70:	d63f0000 	blr	x0
    2e74:	b5ffffb3 	cbnz	x19, 2e68 <__libc_fini_array+0x28>
    2e78:	a94153f3 	ldp	x19, x20, [sp, #16]
    2e7c:	a8c27bfd 	ldp	x29, x30, [sp], #32
    2e80:	14001f9d 	b	acf4 <_fini>
    2e84:	d503201f 	nop
    2e88:	d503201f 	nop
    2e8c:	d503201f 	nop

0000000000002e90 <_fiprintf_r>:
    2e90:	a9b07bfd 	stp	x29, x30, [sp, #-256]!
    2e94:	128004e9 	mov	w9, #0xffffffd8            	// #-40
    2e98:	12800fe8 	mov	w8, #0xffffff80            	// #-128
    2e9c:	910003fd 	mov	x29, sp
    2ea0:	910343ea 	add	x10, sp, #0xd0
    2ea4:	910403eb 	add	x11, sp, #0x100
    2ea8:	a9032feb 	stp	x11, x11, [sp, #48]
    2eac:	f90023ea 	str	x10, [sp, #64]
    2eb0:	290923e9 	stp	w9, w8, [sp, #72]
    2eb4:	a9432fea 	ldp	x10, x11, [sp, #48]
    2eb8:	a9012fea 	stp	x10, x11, [sp, #16]
    2ebc:	a94427e8 	ldp	x8, x9, [sp, #64]
    2ec0:	a90227e8 	stp	x8, x9, [sp, #32]
    2ec4:	3d8017e0 	str	q0, [sp, #80]
    2ec8:	3d801be1 	str	q1, [sp, #96]
    2ecc:	3d801fe2 	str	q2, [sp, #112]
    2ed0:	3d8023e3 	str	q3, [sp, #128]
    2ed4:	3d8027e4 	str	q4, [sp, #144]
    2ed8:	3d802be5 	str	q5, [sp, #160]
    2edc:	3d802fe6 	str	q6, [sp, #176]
    2ee0:	3d8033e7 	str	q7, [sp, #192]
    2ee4:	a90d93e3 	stp	x3, x4, [sp, #216]
    2ee8:	910043e3 	add	x3, sp, #0x10
    2eec:	a90e9be5 	stp	x5, x6, [sp, #232]
    2ef0:	f9007fe7 	str	x7, [sp, #248]
    2ef4:	940003c7 	bl	3e10 <_vfiprintf_r>
    2ef8:	a8d07bfd 	ldp	x29, x30, [sp], #256
    2efc:	d65f03c0 	ret

0000000000002f00 <fiprintf>:
    2f00:	a9b07bfd 	stp	x29, x30, [sp, #-256]!
    2f04:	d0000048 	adrp	x8, c000 <IpcTestNull+0x6e8>
    2f08:	aa0003eb 	mov	x11, x0
    2f0c:	910003fd 	mov	x29, sp
    2f10:	910343ec 	add	x12, sp, #0xd0
    2f14:	910403ea 	add	x10, sp, #0x100
    2f18:	f9409900 	ldr	x0, [x8, #304]
    2f1c:	128005e9 	mov	w9, #0xffffffd0            	// #-48
    2f20:	12800fe8 	mov	w8, #0xffffff80            	// #-128
    2f24:	a9032bea 	stp	x10, x10, [sp, #48]
    2f28:	aa0103ea 	mov	x10, x1
    2f2c:	f90023ec 	str	x12, [sp, #64]
    2f30:	aa0b03e1 	mov	x1, x11
    2f34:	290923e9 	stp	w9, w8, [sp, #72]
    2f38:	a94337ec 	ldp	x12, x13, [sp, #48]
    2f3c:	a90137ec 	stp	x12, x13, [sp, #16]
    2f40:	a94427e8 	ldp	x8, x9, [sp, #64]
    2f44:	a90227e8 	stp	x8, x9, [sp, #32]
    2f48:	3d8017e0 	str	q0, [sp, #80]
    2f4c:	3d801be1 	str	q1, [sp, #96]
    2f50:	3d801fe2 	str	q2, [sp, #112]
    2f54:	3d8023e3 	str	q3, [sp, #128]
    2f58:	3d8027e4 	str	q4, [sp, #144]
    2f5c:	3d802be5 	str	q5, [sp, #160]
    2f60:	3d802fe6 	str	q6, [sp, #176]
    2f64:	3d8033e7 	str	q7, [sp, #192]
    2f68:	a90d0fe2 	stp	x2, x3, [sp, #208]
    2f6c:	910043e3 	add	x3, sp, #0x10
    2f70:	aa0a03e2 	mov	x2, x10
    2f74:	a90e17e4 	stp	x4, x5, [sp, #224]
    2f78:	a90f1fe6 	stp	x6, x7, [sp, #240]
    2f7c:	940003a5 	bl	3e10 <_vfiprintf_r>
    2f80:	a8d07bfd 	ldp	x29, x30, [sp], #256
    2f84:	d65f03c0 	ret
    2f88:	d503201f 	nop
    2f8c:	d503201f 	nop

0000000000002f90 <__libc_init_array>:
    2f90:	a9bd7bfd 	stp	x29, x30, [sp, #-48]!
    2f94:	b0000041 	adrp	x1, b000 <pow10.0+0x80>
    2f98:	b0000040 	adrp	x0, b000 <pow10.0+0x80>
    2f9c:	910003fd 	mov	x29, sp
    2fa0:	a90153f3 	stp	x19, x20, [sp, #16]
    2fa4:	f9412834 	ldr	x20, [x1, #592]
    2fa8:	f90013f5 	str	x21, [sp, #32]
    2fac:	f9412c15 	ldr	x21, [x0, #600]
    2fb0:	cb150294 	sub	x20, x20, x21
    2fb4:	9343fe94 	asr	x20, x20, #3
    2fb8:	b40000f4 	cbz	x20, 2fd4 <__libc_init_array+0x44>
    2fbc:	d2800013 	mov	x19, #0x0                   	// #0
    2fc0:	f8737aa0 	ldr	x0, [x21, x19, lsl #3]
    2fc4:	91000673 	add	x19, x19, #0x1
    2fc8:	d63f0000 	blr	x0
    2fcc:	eb13029f 	cmp	x20, x19
    2fd0:	54ffff81 	b.ne	2fc0 <__libc_init_array+0x30>  // b.any
    2fd4:	940ff40b 	bl	400000 <_init>
    2fd8:	b0000041 	adrp	x1, b000 <pow10.0+0x80>
    2fdc:	b0000040 	adrp	x0, b000 <pow10.0+0x80>
    2fe0:	f9413034 	ldr	x20, [x1, #608]
    2fe4:	f9413415 	ldr	x21, [x0, #616]
    2fe8:	cb150294 	sub	x20, x20, x21
    2fec:	9343fe94 	asr	x20, x20, #3
    2ff0:	b40000f4 	cbz	x20, 300c <__libc_init_array+0x7c>
    2ff4:	d2800013 	mov	x19, #0x0                   	// #0
    2ff8:	f8737aa0 	ldr	x0, [x21, x19, lsl #3]
    2ffc:	91000673 	add	x19, x19, #0x1
    3000:	d63f0000 	blr	x0
    3004:	eb13029f 	cmp	x20, x19
    3008:	54ffff81 	b.ne	2ff8 <__libc_init_array+0x68>  // b.any
    300c:	a94153f3 	ldp	x19, x20, [sp, #16]
    3010:	f94013f5 	ldr	x21, [sp, #32]
    3014:	a8c37bfd 	ldp	x29, x30, [sp], #48
    3018:	d65f03c0 	ret
    301c:	d503201f 	nop

0000000000003020 <malloc>:
    3020:	b0000042 	adrp	x2, c000 <IpcTestNull+0x6e8>
    3024:	aa0003e1 	mov	x1, x0
    3028:	f9409840 	ldr	x0, [x2, #304]
    302c:	14000005 	b	3040 <_malloc_r>

0000000000003030 <free>:
    3030:	b0000042 	adrp	x2, c000 <IpcTestNull+0x6e8>
    3034:	aa0003e1 	mov	x1, x0
    3038:	f9409840 	ldr	x0, [x2, #304]
    303c:	14000dd5 	b	6790 <_free_r>

0000000000003040 <_malloc_r>:
    3040:	a9ba7bfd 	stp	x29, x30, [sp, #-96]!
    3044:	910003fd 	mov	x29, sp
    3048:	a90153f3 	stp	x19, x20, [sp, #16]
    304c:	91005c33 	add	x19, x1, #0x17
    3050:	a9025bf5 	stp	x21, x22, [sp, #32]
    3054:	aa0003f5 	mov	x21, x0
    3058:	a90363f7 	stp	x23, x24, [sp, #48]
    305c:	f100ba7f 	cmp	x19, #0x2e
    3060:	54000c88 	b.hi	31f0 <_malloc_r+0x1b0>  // b.pmore
    3064:	f100803f 	cmp	x1, #0x20
    3068:	54002068 	b.hi	3474 <_malloc_r+0x434>  // b.pmore
    306c:	9400030d 	bl	3ca0 <__malloc_lock>
    3070:	d2800413 	mov	x19, #0x20                  	// #32
    3074:	d2800a00 	mov	x0, #0x50                  	// #80
    3078:	52800085 	mov	w5, #0x4                   	// #4
    307c:	b0000054 	adrp	x20, c000 <IpcTestNull+0x6e8>
    3080:	91220294 	add	x20, x20, #0x880
    3084:	8b000280 	add	x0, x20, x0
    3088:	110008a5 	add	w5, w5, #0x2
    308c:	d1004000 	sub	x0, x0, #0x10
    3090:	f9400c01 	ldr	x1, [x0, #24]
    3094:	eb00003f 	cmp	x1, x0
    3098:	54002181 	b.ne	34c8 <_malloc_r+0x488>  // b.any
    309c:	f9401284 	ldr	x4, [x20, #32]
    30a0:	91004282 	add	x2, x20, #0x10
    30a4:	eb02009f 	cmp	x4, x2
    30a8:	54000f20 	b.eq	328c <_malloc_r+0x24c>  // b.none
    30ac:	f9400481 	ldr	x1, [x4, #8]
    30b0:	927ef421 	and	x1, x1, #0xfffffffffffffffc
    30b4:	cb130023 	sub	x3, x1, x19
    30b8:	f1007c7f 	cmp	x3, #0x1f
    30bc:	54002d4c 	b.gt	3664 <_malloc_r+0x624>
    30c0:	a9020a82 	stp	x2, x2, [x20, #32]
    30c4:	b6f81f23 	tbz	x3, #63, 34a8 <_malloc_r+0x468>
    30c8:	f107fc3f 	cmp	x1, #0x1ff
    30cc:	54002428 	b.hi	3550 <_malloc_r+0x510>  // b.pmore
    30d0:	d343fc22 	lsr	x2, x1, #3
    30d4:	d2800021 	mov	x1, #0x1                   	// #1
    30d8:	11000440 	add	w0, w2, #0x1
    30dc:	13027c42 	asr	w2, w2, #2
    30e0:	531f7800 	lsl	w0, w0, #1
    30e4:	f9400683 	ldr	x3, [x20, #8]
    30e8:	8b20ce80 	add	x0, x20, w0, sxtw #3
    30ec:	9ac22021 	lsl	x1, x1, x2
    30f0:	aa030021 	orr	x1, x1, x3
    30f4:	f85f0402 	ldr	x2, [x0], #-16
    30f8:	f9000681 	str	x1, [x20, #8]
    30fc:	a9010082 	stp	x2, x0, [x4, #16]
    3100:	f9000804 	str	x4, [x0, #16]
    3104:	f9000c44 	str	x4, [x2, #24]
    3108:	13027ca2 	asr	w2, w5, #2
    310c:	d2800020 	mov	x0, #0x1                   	// #1
    3110:	9ac22000 	lsl	x0, x0, x2
    3114:	eb01001f 	cmp	x0, x1
    3118:	54000c68 	b.hi	32a4 <_malloc_r+0x264>  // b.pmore
    311c:	ea01001f 	tst	x0, x1
    3120:	540000c1 	b.ne	3138 <_malloc_r+0xf8>  // b.any
    3124:	121e74a5 	and	w5, w5, #0xfffffffc
    3128:	d37ff800 	lsl	x0, x0, #1
    312c:	110010a5 	add	w5, w5, #0x4
    3130:	ea01001f 	tst	x0, x1
    3134:	54ffffa0 	b.eq	3128 <_malloc_r+0xe8>  // b.none
    3138:	928001e9 	mov	x9, #0xfffffffffffffff0    	// #-16
    313c:	110004a7 	add	w7, w5, #0x1
    3140:	2a0503e8 	mov	w8, w5
    3144:	531f78e7 	lsl	w7, w7, #1
    3148:	8b27cd27 	add	x7, x9, w7, sxtw #3
    314c:	8b070287 	add	x7, x20, x7
    3150:	aa0703e4 	mov	x4, x7
    3154:	f9400c81 	ldr	x1, [x4, #24]
    3158:	14000009 	b	317c <_malloc_r+0x13c>
    315c:	f9400422 	ldr	x2, [x1, #8]
    3160:	aa0103e6 	mov	x6, x1
    3164:	f9400c21 	ldr	x1, [x1, #24]
    3168:	927ef442 	and	x2, x2, #0xfffffffffffffffc
    316c:	cb130043 	sub	x3, x2, x19
    3170:	f1007c7f 	cmp	x3, #0x1f
    3174:	5400238c 	b.gt	35e4 <_malloc_r+0x5a4>
    3178:	b6f82563 	tbz	x3, #63, 3624 <_malloc_r+0x5e4>
    317c:	eb01009f 	cmp	x4, x1
    3180:	54fffee1 	b.ne	315c <_malloc_r+0x11c>  // b.any
    3184:	7100f91f 	cmp	w8, #0x3e
    3188:	540029cd 	b.le	36c0 <_malloc_r+0x680>
    318c:	91004084 	add	x4, x4, #0x10
    3190:	11000508 	add	w8, w8, #0x1
    3194:	f240051f 	tst	x8, #0x3
    3198:	54fffde1 	b.ne	3154 <_malloc_r+0x114>  // b.any
    319c:	14000005 	b	31b0 <_malloc_r+0x170>
    31a0:	f85f04e1 	ldr	x1, [x7], #-16
    31a4:	510004a5 	sub	w5, w5, #0x1
    31a8:	eb07003f 	cmp	x1, x7
    31ac:	540035a1 	b.ne	3860 <_malloc_r+0x820>  // b.any
    31b0:	f24004bf 	tst	x5, #0x3
    31b4:	54ffff61 	b.ne	31a0 <_malloc_r+0x160>  // b.any
    31b8:	f9400681 	ldr	x1, [x20, #8]
    31bc:	8a200021 	bic	x1, x1, x0
    31c0:	f9000681 	str	x1, [x20, #8]
    31c4:	d37ff800 	lsl	x0, x0, #1
    31c8:	f100001f 	cmp	x0, #0x0
    31cc:	fa411002 	ccmp	x0, x1, #0x2, ne  // ne = any
    31d0:	54000089 	b.ls	31e0 <_malloc_r+0x1a0>  // b.plast
    31d4:	14000034 	b	32a4 <_malloc_r+0x264>
    31d8:	d37ff800 	lsl	x0, x0, #1
    31dc:	11001108 	add	w8, w8, #0x4
    31e0:	ea01001f 	tst	x0, x1
    31e4:	54ffffa0 	b.eq	31d8 <_malloc_r+0x198>  // b.none
    31e8:	2a0803e5 	mov	w5, w8
    31ec:	17ffffd4 	b	313c <_malloc_r+0xfc>
    31f0:	927cee73 	and	x19, x19, #0xfffffffffffffff0
    31f4:	b2407be2 	mov	x2, #0x7fffffff            	// #2147483647
    31f8:	eb02027f 	cmp	x19, x2
    31fc:	fa539022 	ccmp	x1, x19, #0x2, ls  // ls = plast
    3200:	540013a8 	b.hi	3474 <_malloc_r+0x434>  // b.pmore
    3204:	940002a7 	bl	3ca0 <__malloc_lock>
    3208:	f107de7f 	cmp	x19, #0x1f7
    320c:	54002229 	b.ls	3650 <_malloc_r+0x610>  // b.plast
    3210:	d349fe60 	lsr	x0, x19, #9
    3214:	b4001420 	cbz	x0, 3498 <_malloc_r+0x458>
    3218:	f100101f 	cmp	x0, #0x4
    321c:	54001d08 	b.hi	35bc <_malloc_r+0x57c>  // b.pmore
    3220:	d346fe60 	lsr	x0, x19, #6
    3224:	1100e405 	add	w5, w0, #0x39
    3228:	1100e000 	add	w0, w0, #0x38
    322c:	531f78a4 	lsl	w4, w5, #1
    3230:	937d7c84 	sbfiz	x4, x4, #3, #32
    3234:	b0000054 	adrp	x20, c000 <IpcTestNull+0x6e8>
    3238:	91220294 	add	x20, x20, #0x880
    323c:	8b040284 	add	x4, x20, x4
    3240:	d1004084 	sub	x4, x4, #0x10
    3244:	f9400c81 	ldr	x1, [x4, #24]
    3248:	eb01009f 	cmp	x4, x1
    324c:	540000c1 	b.ne	3264 <_malloc_r+0x224>  // b.any
    3250:	17ffff93 	b	309c <_malloc_r+0x5c>
    3254:	b6f815e3 	tbz	x3, #63, 3510 <_malloc_r+0x4d0>
    3258:	f9400c21 	ldr	x1, [x1, #24]
    325c:	eb01009f 	cmp	x4, x1
    3260:	54fff1e0 	b.eq	309c <_malloc_r+0x5c>  // b.none
    3264:	f9400422 	ldr	x2, [x1, #8]
    3268:	927ef442 	and	x2, x2, #0xfffffffffffffffc
    326c:	cb130043 	sub	x3, x2, x19
    3270:	f1007c7f 	cmp	x3, #0x1f
    3274:	54ffff0d 	b.le	3254 <_malloc_r+0x214>
    3278:	f9401284 	ldr	x4, [x20, #32]
    327c:	91004282 	add	x2, x20, #0x10
    3280:	2a0003e5 	mov	w5, w0
    3284:	eb02009f 	cmp	x4, x2
    3288:	54fff121 	b.ne	30ac <_malloc_r+0x6c>  // b.any
    328c:	f9400681 	ldr	x1, [x20, #8]
    3290:	13027ca2 	asr	w2, w5, #2
    3294:	d2800020 	mov	x0, #0x1                   	// #1
    3298:	9ac22000 	lsl	x0, x0, x2
    329c:	eb01001f 	cmp	x0, x1
    32a0:	54fff3e9 	b.ls	311c <_malloc_r+0xdc>  // b.plast
    32a4:	f9400a97 	ldr	x23, [x20, #16]
    32a8:	f94006f6 	ldr	x22, [x23, #8]
    32ac:	927ef6d8 	and	x24, x22, #0xfffffffffffffffc
    32b0:	eb18027f 	cmp	x19, x24
    32b4:	cb130300 	sub	x0, x24, x19
    32b8:	fa5f9804 	ccmp	x0, #0x1f, #0x4, ls  // ls = plast
    32bc:	54000bec 	b.gt	3438 <_malloc_r+0x3f8>
    32c0:	d0000041 	adrp	x1, d000 <__malloc_av_+0x780>
    32c4:	a90573fb 	stp	x27, x28, [sp, #80]
    32c8:	d000005b 	adrp	x27, d000 <__malloc_av_+0x780>
    32cc:	f9419021 	ldr	x1, [x1, #800]
    32d0:	d28203e3 	mov	x3, #0x101f                	// #4127
    32d4:	f9404b62 	ldr	x2, [x27, #144]
    32d8:	8b010261 	add	x1, x19, x1
    32dc:	8b030036 	add	x22, x1, x3
    32e0:	91008021 	add	x1, x1, #0x20
    32e4:	b100045f 	cmn	x2, #0x1
    32e8:	9274ced6 	and	x22, x22, #0xfffffffffffff000
    32ec:	9a8112d6 	csel	x22, x22, x1, ne  // ne = any
    32f0:	aa1503e0 	mov	x0, x21
    32f4:	aa1603e1 	mov	x1, x22
    32f8:	a9046bf9 	stp	x25, x26, [sp, #64]
    32fc:	94000271 	bl	3cc0 <_sbrk_r>
    3300:	8b1802fa 	add	x26, x23, x24
    3304:	aa0003f9 	mov	x25, x0
    3308:	b100041f 	cmn	x0, #0x1
    330c:	54001f20 	b.eq	36f0 <_malloc_r+0x6b0>  // b.none
    3310:	eb00035f 	cmp	x26, x0
    3314:	fa5482e4 	ccmp	x23, x20, #0x4, hi  // hi = pmore
    3318:	54001ec1 	b.ne	36f0 <_malloc_r+0x6b0>  // b.any
    331c:	d000005c 	adrp	x28, d000 <__malloc_av_+0x780>
    3320:	b942eb81 	ldr	w1, [x28, #744]
    3324:	0b160021 	add	w1, w1, w22
    3328:	b902eb81 	str	w1, [x28, #744]
    332c:	eb00035f 	cmp	x26, x0
    3330:	54001ce0 	b.eq	36cc <_malloc_r+0x68c>  // b.none
    3334:	f9404b60 	ldr	x0, [x27, #144]
    3338:	b100041f 	cmn	x0, #0x1
    333c:	54001d60 	b.eq	36e8 <_malloc_r+0x6a8>  // b.none
    3340:	cb1a033a 	sub	x26, x25, x26
    3344:	0b1a0021 	add	w1, w1, w26
    3348:	b902eb81 	str	w1, [x28, #744]
    334c:	f2400f3a 	ands	x26, x25, #0xf
    3350:	54001e40 	b.eq	3718 <_malloc_r+0x6d8>  // b.none
    3354:	cb1a0339 	sub	x25, x25, x26
    3358:	d2820201 	mov	x1, #0x1010                	// #4112
    335c:	91004339 	add	x25, x25, #0x10
    3360:	cb1a0021 	sub	x1, x1, x26
    3364:	8b16033b 	add	x27, x25, x22
    3368:	aa1503e0 	mov	x0, x21
    336c:	cb1b0036 	sub	x22, x1, x27
    3370:	92402ed6 	and	x22, x22, #0xfff
    3374:	aa1603e1 	mov	x1, x22
    3378:	94000252 	bl	3cc0 <_sbrk_r>
    337c:	b100041f 	cmn	x0, #0x1
    3380:	54002480 	b.eq	3810 <_malloc_r+0x7d0>  // b.none
    3384:	cb190000 	sub	x0, x0, x25
    3388:	2a1603e2 	mov	w2, w22
    338c:	8b160016 	add	x22, x0, x22
    3390:	b942eb81 	ldr	w1, [x28, #744]
    3394:	b24002d6 	orr	x22, x22, #0x1
    3398:	f9000a99 	str	x25, [x20, #16]
    339c:	0b010041 	add	w1, w2, w1
    33a0:	b902eb81 	str	w1, [x28, #744]
    33a4:	f9000736 	str	x22, [x25, #8]
    33a8:	eb1402ff 	cmp	x23, x20
    33ac:	54002000 	b.eq	37ac <_malloc_r+0x76c>  // b.none
    33b0:	f1007f1f 	cmp	x24, #0x1f
    33b4:	54001cc9 	b.ls	374c <_malloc_r+0x70c>  // b.plast
    33b8:	d1006300 	sub	x0, x24, #0x18
    33bc:	d2800124 	mov	x4, #0x9                   	// #9
    33c0:	f94006e2 	ldr	x2, [x23, #8]
    33c4:	927cec00 	and	x0, x0, #0xfffffffffffffff0
    33c8:	8b0002e3 	add	x3, x23, x0
    33cc:	92400042 	and	x2, x2, #0x1
    33d0:	aa000042 	orr	x2, x2, x0
    33d4:	f90006e2 	str	x2, [x23, #8]
    33d8:	f8008c64 	str	x4, [x3, #8]!
    33dc:	f9000464 	str	x4, [x3, #8]
    33e0:	f1007c1f 	cmp	x0, #0x1f
    33e4:	54002088 	b.hi	37f4 <_malloc_r+0x7b4>  // b.pmore
    33e8:	f9400736 	ldr	x22, [x25, #8]
    33ec:	aa1903f7 	mov	x23, x25
    33f0:	d0000040 	adrp	x0, d000 <__malloc_av_+0x780>
    33f4:	93407c21 	sxtw	x1, w1
    33f8:	f9418802 	ldr	x2, [x0, #784]
    33fc:	eb02003f 	cmp	x1, x2
    3400:	54000049 	b.ls	3408 <_malloc_r+0x3c8>  // b.plast
    3404:	f9018801 	str	x1, [x0, #784]
    3408:	d0000040 	adrp	x0, d000 <__malloc_av_+0x780>
    340c:	f9418c02 	ldr	x2, [x0, #792]
    3410:	eb02003f 	cmp	x1, x2
    3414:	54000049 	b.ls	341c <_malloc_r+0x3dc>  // b.plast
    3418:	f9018c01 	str	x1, [x0, #792]
    341c:	927ef6c0 	and	x0, x22, #0xfffffffffffffffc
    3420:	eb00027f 	cmp	x19, x0
    3424:	cb130000 	sub	x0, x0, x19
    3428:	fa5f9804 	ccmp	x0, #0x1f, #0x4, ls  // ls = plast
    342c:	5400194d 	b.le	3754 <_malloc_r+0x714>
    3430:	a9446bf9 	ldp	x25, x26, [sp, #64]
    3434:	a94573fb 	ldp	x27, x28, [sp, #80]
    3438:	8b1302e2 	add	x2, x23, x19
    343c:	b2400273 	orr	x19, x19, #0x1
    3440:	f90006f3 	str	x19, [x23, #8]
    3444:	b2400001 	orr	x1, x0, #0x1
    3448:	f9000a82 	str	x2, [x20, #16]
    344c:	f9000441 	str	x1, [x2, #8]
    3450:	aa1503e0 	mov	x0, x21
    3454:	910042f7 	add	x23, x23, #0x10
    3458:	94000216 	bl	3cb0 <__malloc_unlock>
    345c:	aa1703e0 	mov	x0, x23
    3460:	a94153f3 	ldp	x19, x20, [sp, #16]
    3464:	a9425bf5 	ldp	x21, x22, [sp, #32]
    3468:	a94363f7 	ldp	x23, x24, [sp, #48]
    346c:	a8c67bfd 	ldp	x29, x30, [sp], #96
    3470:	d65f03c0 	ret
    3474:	52800180 	mov	w0, #0xc                   	// #12
    3478:	d2800017 	mov	x23, #0x0                   	// #0
    347c:	b90002a0 	str	w0, [x21]
    3480:	aa1703e0 	mov	x0, x23
    3484:	a94153f3 	ldp	x19, x20, [sp, #16]
    3488:	a9425bf5 	ldp	x21, x22, [sp, #32]
    348c:	a94363f7 	ldp	x23, x24, [sp, #48]
    3490:	a8c67bfd 	ldp	x29, x30, [sp], #96
    3494:	d65f03c0 	ret
    3498:	d2808004 	mov	x4, #0x400                 	// #1024
    349c:	52800805 	mov	w5, #0x40                  	// #64
    34a0:	528007e0 	mov	w0, #0x3f                  	// #63
    34a4:	17ffff64 	b	3234 <_malloc_r+0x1f4>
    34a8:	8b010081 	add	x1, x4, x1
    34ac:	aa1503e0 	mov	x0, x21
    34b0:	91004097 	add	x23, x4, #0x10
    34b4:	f9400422 	ldr	x2, [x1, #8]
    34b8:	b2400042 	orr	x2, x2, #0x1
    34bc:	f9000422 	str	x2, [x1, #8]
    34c0:	940001fc 	bl	3cb0 <__malloc_unlock>
    34c4:	17ffffef 	b	3480 <_malloc_r+0x440>
    34c8:	a9409022 	ldp	x2, x4, [x1, #8]
    34cc:	91004037 	add	x23, x1, #0x10
    34d0:	f9400c23 	ldr	x3, [x1, #24]
    34d4:	aa1503e0 	mov	x0, x21
    34d8:	927ef442 	and	x2, x2, #0xfffffffffffffffc
    34dc:	8b020022 	add	x2, x1, x2
    34e0:	f9400441 	ldr	x1, [x2, #8]
    34e4:	f9000c83 	str	x3, [x4, #24]
    34e8:	f9000864 	str	x4, [x3, #16]
    34ec:	b2400021 	orr	x1, x1, #0x1
    34f0:	f9000441 	str	x1, [x2, #8]
    34f4:	940001ef 	bl	3cb0 <__malloc_unlock>
    34f8:	aa1703e0 	mov	x0, x23
    34fc:	a94153f3 	ldp	x19, x20, [sp, #16]
    3500:	a9425bf5 	ldp	x21, x22, [sp, #32]
    3504:	a94363f7 	ldp	x23, x24, [sp, #48]
    3508:	a8c67bfd 	ldp	x29, x30, [sp], #96
    350c:	d65f03c0 	ret
    3510:	8b020022 	add	x2, x1, x2
    3514:	91004037 	add	x23, x1, #0x10
    3518:	a9410c24 	ldp	x4, x3, [x1, #16]
    351c:	aa1503e0 	mov	x0, x21
    3520:	f9400441 	ldr	x1, [x2, #8]
    3524:	f9000c83 	str	x3, [x4, #24]
    3528:	b2400021 	orr	x1, x1, #0x1
    352c:	f9000864 	str	x4, [x3, #16]
    3530:	f9000441 	str	x1, [x2, #8]
    3534:	940001df 	bl	3cb0 <__malloc_unlock>
    3538:	aa1703e0 	mov	x0, x23
    353c:	a94153f3 	ldp	x19, x20, [sp, #16]
    3540:	a9425bf5 	ldp	x21, x22, [sp, #32]
    3544:	a94363f7 	ldp	x23, x24, [sp, #48]
    3548:	a8c67bfd 	ldp	x29, x30, [sp], #96
    354c:	d65f03c0 	ret
    3550:	d349fc20 	lsr	x0, x1, #9
    3554:	f127fc3f 	cmp	x1, #0x9ff
    3558:	540009e9 	b.ls	3694 <_malloc_r+0x654>  // b.plast
    355c:	f100501f 	cmp	x0, #0x14
    3560:	54001068 	b.hi	376c <_malloc_r+0x72c>  // b.pmore
    3564:	11017003 	add	w3, w0, #0x5c
    3568:	11016c02 	add	w2, w0, #0x5b
    356c:	531f7863 	lsl	w3, w3, #1
    3570:	937d7c63 	sbfiz	x3, x3, #3, #32
    3574:	8b030283 	add	x3, x20, x3
    3578:	f85f0460 	ldr	x0, [x3], #-16
    357c:	eb00007f 	cmp	x3, x0
    3580:	54000be0 	b.eq	36fc <_malloc_r+0x6bc>  // b.none
    3584:	d503201f 	nop
    3588:	f9400402 	ldr	x2, [x0, #8]
    358c:	927ef442 	and	x2, x2, #0xfffffffffffffffc
    3590:	eb01005f 	cmp	x2, x1
    3594:	54000089 	b.ls	35a4 <_malloc_r+0x564>  // b.plast
    3598:	f9400800 	ldr	x0, [x0, #16]
    359c:	eb00007f 	cmp	x3, x0
    35a0:	54ffff41 	b.ne	3588 <_malloc_r+0x548>  // b.any
    35a4:	f9400681 	ldr	x1, [x20, #8]
    35a8:	f9400c03 	ldr	x3, [x0, #24]
    35ac:	a9010c80 	stp	x0, x3, [x4, #16]
    35b0:	f9000864 	str	x4, [x3, #16]
    35b4:	f9000c04 	str	x4, [x0, #24]
    35b8:	17fffed4 	b	3108 <_malloc_r+0xc8>
    35bc:	f100501f 	cmp	x0, #0x14
    35c0:	54000769 	b.ls	36ac <_malloc_r+0x66c>  // b.plast
    35c4:	f101501f 	cmp	x0, #0x54
    35c8:	54000e28 	b.hi	378c <_malloc_r+0x74c>  // b.pmore
    35cc:	d34cfe60 	lsr	x0, x19, #12
    35d0:	1101bc05 	add	w5, w0, #0x6f
    35d4:	1101b800 	add	w0, w0, #0x6e
    35d8:	531f78a4 	lsl	w4, w5, #1
    35dc:	937d7c84 	sbfiz	x4, x4, #3, #32
    35e0:	17ffff15 	b	3234 <_malloc_r+0x1f4>
    35e4:	f94008c7 	ldr	x7, [x6, #16]
    35e8:	b2400260 	orr	x0, x19, #0x1
    35ec:	f90004c0 	str	x0, [x6, #8]
    35f0:	8b1300c4 	add	x4, x6, x19
    35f4:	91004285 	add	x5, x20, #0x10
    35f8:	b2400068 	orr	x8, x3, #0x1
    35fc:	f9000ce1 	str	x1, [x7, #24]
    3600:	910040d7 	add	x23, x6, #0x10
    3604:	f9000827 	str	x7, [x1, #16]
    3608:	aa1503e0 	mov	x0, x21
    360c:	a9021284 	stp	x4, x4, [x20, #32]
    3610:	a9009488 	stp	x8, x5, [x4, #8]
    3614:	f9000c85 	str	x5, [x4, #24]
    3618:	f82268c3 	str	x3, [x6, x2]
    361c:	940001a5 	bl	3cb0 <__malloc_unlock>
    3620:	17ffff98 	b	3480 <_malloc_r+0x440>
    3624:	8b0200c2 	add	x2, x6, x2
    3628:	aa0603f7 	mov	x23, x6
    362c:	aa1503e0 	mov	x0, x21
    3630:	f9400443 	ldr	x3, [x2, #8]
    3634:	f8410ee4 	ldr	x4, [x23, #16]!
    3638:	b2400063 	orr	x3, x3, #0x1
    363c:	f9000443 	str	x3, [x2, #8]
    3640:	f9000c81 	str	x1, [x4, #24]
    3644:	f9000824 	str	x4, [x1, #16]
    3648:	9400019a 	bl	3cb0 <__malloc_unlock>
    364c:	17ffff8d 	b	3480 <_malloc_r+0x440>
    3650:	d343fe65 	lsr	x5, x19, #3
    3654:	110004a0 	add	w0, w5, #0x1
    3658:	531f7800 	lsl	w0, w0, #1
    365c:	937d7c00 	sbfiz	x0, x0, #3, #32
    3660:	17fffe87 	b	307c <_malloc_r+0x3c>
    3664:	8b130085 	add	x5, x4, x19
    3668:	b2400273 	orr	x19, x19, #0x1
    366c:	f9000493 	str	x19, [x4, #8]
    3670:	b2400066 	orr	x6, x3, #0x1
    3674:	a9021685 	stp	x5, x5, [x20, #32]
    3678:	aa1503e0 	mov	x0, x21
    367c:	91004097 	add	x23, x4, #0x10
    3680:	a90088a6 	stp	x6, x2, [x5, #8]
    3684:	f9000ca2 	str	x2, [x5, #24]
    3688:	f8216883 	str	x3, [x4, x1]
    368c:	94000189 	bl	3cb0 <__malloc_unlock>
    3690:	17ffff7c 	b	3480 <_malloc_r+0x440>
    3694:	d346fc20 	lsr	x0, x1, #6
    3698:	1100e403 	add	w3, w0, #0x39
    369c:	1100e002 	add	w2, w0, #0x38
    36a0:	531f7863 	lsl	w3, w3, #1
    36a4:	937d7c63 	sbfiz	x3, x3, #3, #32
    36a8:	17ffffb3 	b	3574 <_malloc_r+0x534>
    36ac:	11017005 	add	w5, w0, #0x5c
    36b0:	11016c00 	add	w0, w0, #0x5b
    36b4:	531f78a4 	lsl	w4, w5, #1
    36b8:	937d7c84 	sbfiz	x4, x4, #3, #32
    36bc:	17fffede 	b	3234 <_malloc_r+0x1f4>
    36c0:	11000508 	add	w8, w8, #0x1
    36c4:	91008084 	add	x4, x4, #0x20
    36c8:	17fffeb2 	b	3190 <_malloc_r+0x150>
    36cc:	f2402f5f 	tst	x26, #0xfff
    36d0:	54ffe321 	b.ne	3334 <_malloc_r+0x2f4>  // b.any
    36d4:	f9400a97 	ldr	x23, [x20, #16]
    36d8:	8b160316 	add	x22, x24, x22
    36dc:	b24002d6 	orr	x22, x22, #0x1
    36e0:	f90006f6 	str	x22, [x23, #8]
    36e4:	17ffff43 	b	33f0 <_malloc_r+0x3b0>
    36e8:	f9004b79 	str	x25, [x27, #144]
    36ec:	17ffff18 	b	334c <_malloc_r+0x30c>
    36f0:	f9400a97 	ldr	x23, [x20, #16]
    36f4:	f94006f6 	ldr	x22, [x23, #8]
    36f8:	17ffff49 	b	341c <_malloc_r+0x3dc>
    36fc:	f9400686 	ldr	x6, [x20, #8]
    3700:	13027c42 	asr	w2, w2, #2
    3704:	d2800021 	mov	x1, #0x1                   	// #1
    3708:	9ac22021 	lsl	x1, x1, x2
    370c:	aa060021 	orr	x1, x1, x6
    3710:	f9000681 	str	x1, [x20, #8]
    3714:	17ffffa6 	b	35ac <_malloc_r+0x56c>
    3718:	8b16033a 	add	x26, x25, x22
    371c:	aa1503e0 	mov	x0, x21
    3720:	cb1a03fa 	neg	x26, x26
    3724:	92402f5a 	and	x26, x26, #0xfff
    3728:	aa1a03e1 	mov	x1, x26
    372c:	94000165 	bl	3cc0 <_sbrk_r>
    3730:	52800002 	mov	w2, #0x0                   	// #0
    3734:	b100041f 	cmn	x0, #0x1
    3738:	54ffe2c0 	b.eq	3390 <_malloc_r+0x350>  // b.none
    373c:	cb190000 	sub	x0, x0, x25
    3740:	2a1a03e2 	mov	w2, w26
    3744:	8b1a0016 	add	x22, x0, x26
    3748:	17ffff12 	b	3390 <_malloc_r+0x350>
    374c:	d2800020 	mov	x0, #0x1                   	// #1
    3750:	f9000720 	str	x0, [x25, #8]
    3754:	aa1503e0 	mov	x0, x21
    3758:	d2800017 	mov	x23, #0x0                   	// #0
    375c:	94000155 	bl	3cb0 <__malloc_unlock>
    3760:	a9446bf9 	ldp	x25, x26, [sp, #64]
    3764:	a94573fb 	ldp	x27, x28, [sp, #80]
    3768:	17ffff46 	b	3480 <_malloc_r+0x440>
    376c:	f101501f 	cmp	x0, #0x54
    3770:	54000228 	b.hi	37b4 <_malloc_r+0x774>  // b.pmore
    3774:	d34cfc20 	lsr	x0, x1, #12
    3778:	1101bc03 	add	w3, w0, #0x6f
    377c:	1101b802 	add	w2, w0, #0x6e
    3780:	531f7863 	lsl	w3, w3, #1
    3784:	937d7c63 	sbfiz	x3, x3, #3, #32
    3788:	17ffff7b 	b	3574 <_malloc_r+0x534>
    378c:	f105501f 	cmp	x0, #0x154
    3790:	54000228 	b.hi	37d4 <_malloc_r+0x794>  // b.pmore
    3794:	d34ffe60 	lsr	x0, x19, #15
    3798:	1101e005 	add	w5, w0, #0x78
    379c:	1101dc00 	add	w0, w0, #0x77
    37a0:	531f78a4 	lsl	w4, w5, #1
    37a4:	937d7c84 	sbfiz	x4, x4, #3, #32
    37a8:	17fffea3 	b	3234 <_malloc_r+0x1f4>
    37ac:	aa1903f7 	mov	x23, x25
    37b0:	17ffff10 	b	33f0 <_malloc_r+0x3b0>
    37b4:	f105501f 	cmp	x0, #0x154
    37b8:	54000368 	b.hi	3824 <_malloc_r+0x7e4>  // b.pmore
    37bc:	d34ffc20 	lsr	x0, x1, #15
    37c0:	1101e003 	add	w3, w0, #0x78
    37c4:	1101dc02 	add	w2, w0, #0x77
    37c8:	531f7863 	lsl	w3, w3, #1
    37cc:	937d7c63 	sbfiz	x3, x3, #3, #32
    37d0:	17ffff69 	b	3574 <_malloc_r+0x534>
    37d4:	f115501f 	cmp	x0, #0x554
    37d8:	54000368 	b.hi	3844 <_malloc_r+0x804>  // b.pmore
    37dc:	d352fe60 	lsr	x0, x19, #18
    37e0:	1101f405 	add	w5, w0, #0x7d
    37e4:	1101f000 	add	w0, w0, #0x7c
    37e8:	531f78a4 	lsl	w4, w5, #1
    37ec:	937d7c84 	sbfiz	x4, x4, #3, #32
    37f0:	17fffe91 	b	3234 <_malloc_r+0x1f4>
    37f4:	910042e1 	add	x1, x23, #0x10
    37f8:	aa1503e0 	mov	x0, x21
    37fc:	94000be5 	bl	6790 <_free_r>
    3800:	f9400a97 	ldr	x23, [x20, #16]
    3804:	b942eb81 	ldr	w1, [x28, #744]
    3808:	f94006f6 	ldr	x22, [x23, #8]
    380c:	17fffef9 	b	33f0 <_malloc_r+0x3b0>
    3810:	d100435a 	sub	x26, x26, #0x10
    3814:	52800002 	mov	w2, #0x0                   	// #0
    3818:	8b1a0376 	add	x22, x27, x26
    381c:	cb1902d6 	sub	x22, x22, x25
    3820:	17fffedc 	b	3390 <_malloc_r+0x350>
    3824:	f115501f 	cmp	x0, #0x554
    3828:	54000168 	b.hi	3854 <_malloc_r+0x814>  // b.pmore
    382c:	d352fc20 	lsr	x0, x1, #18
    3830:	1101f403 	add	w3, w0, #0x7d
    3834:	1101f002 	add	w2, w0, #0x7c
    3838:	531f7863 	lsl	w3, w3, #1
    383c:	937d7c63 	sbfiz	x3, x3, #3, #32
    3840:	17ffff4d 	b	3574 <_malloc_r+0x534>
    3844:	d280fe04 	mov	x4, #0x7f0                 	// #2032
    3848:	52800fe5 	mov	w5, #0x7f                  	// #127
    384c:	52800fc0 	mov	w0, #0x7e                  	// #126
    3850:	17fffe79 	b	3234 <_malloc_r+0x1f4>
    3854:	d280fe03 	mov	x3, #0x7f0                 	// #2032
    3858:	52800fc2 	mov	w2, #0x7e                  	// #126
    385c:	17ffff46 	b	3574 <_malloc_r+0x534>
    3860:	f9400681 	ldr	x1, [x20, #8]
    3864:	17fffe58 	b	31c4 <_malloc_r+0x184>
    3868:	d503201f 	nop
    386c:	d503201f 	nop
    3870:	d503201f 	nop
    3874:	d503201f 	nop
    3878:	d503201f 	nop
    387c:	d503201f 	nop

0000000000003880 <memcpy>:
    3880:	f9800020 	prfm	pldl1keep, [x1]
    3884:	8b020024 	add	x4, x1, x2
    3888:	8b020005 	add	x5, x0, x2
    388c:	f100405f 	cmp	x2, #0x10
    3890:	54000209 	b.ls	38d0 <memcpy+0x50>  // b.plast
    3894:	f101805f 	cmp	x2, #0x60
    3898:	54000648 	b.hi	3960 <memcpy+0xe0>  // b.pmore
    389c:	d1000449 	sub	x9, x2, #0x1
    38a0:	a9401c26 	ldp	x6, x7, [x1]
    38a4:	37300469 	tbnz	w9, #6, 3930 <memcpy+0xb0>
    38a8:	a97f348c 	ldp	x12, x13, [x4, #-16]
    38ac:	362800a9 	tbz	w9, #5, 38c0 <memcpy+0x40>
    38b0:	a9412428 	ldp	x8, x9, [x1, #16]
    38b4:	a97e2c8a 	ldp	x10, x11, [x4, #-32]
    38b8:	a9012408 	stp	x8, x9, [x0, #16]
    38bc:	a93e2caa 	stp	x10, x11, [x5, #-32]
    38c0:	a9001c06 	stp	x6, x7, [x0]
    38c4:	a93f34ac 	stp	x12, x13, [x5, #-16]
    38c8:	d65f03c0 	ret
    38cc:	d503201f 	nop
    38d0:	f100205f 	cmp	x2, #0x8
    38d4:	540000e3 	b.cc	38f0 <memcpy+0x70>  // b.lo, b.ul, b.last
    38d8:	f9400026 	ldr	x6, [x1]
    38dc:	f85f8087 	ldur	x7, [x4, #-8]
    38e0:	f9000006 	str	x6, [x0]
    38e4:	f81f80a7 	stur	x7, [x5, #-8]
    38e8:	d65f03c0 	ret
    38ec:	d503201f 	nop
    38f0:	361000c2 	tbz	w2, #2, 3908 <memcpy+0x88>
    38f4:	b9400026 	ldr	w6, [x1]
    38f8:	b85fc087 	ldur	w7, [x4, #-4]
    38fc:	b9000006 	str	w6, [x0]
    3900:	b81fc0a7 	stur	w7, [x5, #-4]
    3904:	d65f03c0 	ret
    3908:	b4000102 	cbz	x2, 3928 <memcpy+0xa8>
    390c:	d341fc49 	lsr	x9, x2, #1
    3910:	39400026 	ldrb	w6, [x1]
    3914:	385ff087 	ldurb	w7, [x4, #-1]
    3918:	38696828 	ldrb	w8, [x1, x9]
    391c:	39000006 	strb	w6, [x0]
    3920:	38296808 	strb	w8, [x0, x9]
    3924:	381ff0a7 	sturb	w7, [x5, #-1]
    3928:	d65f03c0 	ret
    392c:	d503201f 	nop
    3930:	a9412428 	ldp	x8, x9, [x1, #16]
    3934:	a9422c2a 	ldp	x10, x11, [x1, #32]
    3938:	a943342c 	ldp	x12, x13, [x1, #48]
    393c:	a97e0881 	ldp	x1, x2, [x4, #-32]
    3940:	a97f0c84 	ldp	x4, x3, [x4, #-16]
    3944:	a9001c06 	stp	x6, x7, [x0]
    3948:	a9012408 	stp	x8, x9, [x0, #16]
    394c:	a9022c0a 	stp	x10, x11, [x0, #32]
    3950:	a903340c 	stp	x12, x13, [x0, #48]
    3954:	a93e08a1 	stp	x1, x2, [x5, #-32]
    3958:	a93f0ca4 	stp	x4, x3, [x5, #-16]
    395c:	d65f03c0 	ret
    3960:	92400c09 	and	x9, x0, #0xf
    3964:	927cec03 	and	x3, x0, #0xfffffffffffffff0
    3968:	a940342c 	ldp	x12, x13, [x1]
    396c:	cb090021 	sub	x1, x1, x9
    3970:	8b090042 	add	x2, x2, x9
    3974:	a9411c26 	ldp	x6, x7, [x1, #16]
    3978:	a900340c 	stp	x12, x13, [x0]
    397c:	a9422428 	ldp	x8, x9, [x1, #32]
    3980:	a9432c2a 	ldp	x10, x11, [x1, #48]
    3984:	a9c4342c 	ldp	x12, x13, [x1, #64]!
    3988:	f1024042 	subs	x2, x2, #0x90
    398c:	54000169 	b.ls	39b8 <memcpy+0x138>  // b.plast
    3990:	a9011c66 	stp	x6, x7, [x3, #16]
    3994:	a9411c26 	ldp	x6, x7, [x1, #16]
    3998:	a9022468 	stp	x8, x9, [x3, #32]
    399c:	a9422428 	ldp	x8, x9, [x1, #32]
    39a0:	a9032c6a 	stp	x10, x11, [x3, #48]
    39a4:	a9432c2a 	ldp	x10, x11, [x1, #48]
    39a8:	a984346c 	stp	x12, x13, [x3, #64]!
    39ac:	a9c4342c 	ldp	x12, x13, [x1, #64]!
    39b0:	f1010042 	subs	x2, x2, #0x40
    39b4:	54fffee8 	b.hi	3990 <memcpy+0x110>  // b.pmore
    39b8:	a97c0881 	ldp	x1, x2, [x4, #-64]
    39bc:	a9011c66 	stp	x6, x7, [x3, #16]
    39c0:	a97d1c86 	ldp	x6, x7, [x4, #-48]
    39c4:	a9022468 	stp	x8, x9, [x3, #32]
    39c8:	a97e2488 	ldp	x8, x9, [x4, #-32]
    39cc:	a9032c6a 	stp	x10, x11, [x3, #48]
    39d0:	a97f2c8a 	ldp	x10, x11, [x4, #-16]
    39d4:	a904346c 	stp	x12, x13, [x3, #64]
    39d8:	a93c08a1 	stp	x1, x2, [x5, #-64]
    39dc:	a93d1ca6 	stp	x6, x7, [x5, #-48]
    39e0:	a93e24a8 	stp	x8, x9, [x5, #-32]
    39e4:	a93f2caa 	stp	x10, x11, [x5, #-16]
    39e8:	d65f03c0 	ret
    39ec:	d503201f 	nop
    39f0:	d503201f 	nop
    39f4:	d503201f 	nop
    39f8:	d503201f 	nop
    39fc:	d503201f 	nop

0000000000003a00 <memmove>:
    3a00:	cb010005 	sub	x5, x0, x1
    3a04:	f101805f 	cmp	x2, #0x60
    3a08:	fa4280a2 	ccmp	x5, x2, #0x2, hi  // hi = pmore
    3a0c:	54fff3a2 	b.cs	3880 <memcpy>  // b.hs, b.nlast
    3a10:	b40004c5 	cbz	x5, 3aa8 <memmove+0xa8>
    3a14:	8b020004 	add	x4, x0, x2
    3a18:	8b020023 	add	x3, x1, x2
    3a1c:	92400c85 	and	x5, x4, #0xf
    3a20:	a97f346c 	ldp	x12, x13, [x3, #-16]
    3a24:	cb050063 	sub	x3, x3, x5
    3a28:	cb050042 	sub	x2, x2, x5
    3a2c:	a97f1c66 	ldp	x6, x7, [x3, #-16]
    3a30:	a93f348c 	stp	x12, x13, [x4, #-16]
    3a34:	a97e2468 	ldp	x8, x9, [x3, #-32]
    3a38:	a97d2c6a 	ldp	x10, x11, [x3, #-48]
    3a3c:	a9fc346c 	ldp	x12, x13, [x3, #-64]!
    3a40:	cb050084 	sub	x4, x4, x5
    3a44:	f1020042 	subs	x2, x2, #0x80
    3a48:	54000189 	b.ls	3a78 <memmove+0x78>  // b.plast
    3a4c:	d503201f 	nop
    3a50:	a93f1c86 	stp	x6, x7, [x4, #-16]
    3a54:	a97f1c66 	ldp	x6, x7, [x3, #-16]
    3a58:	a93e2488 	stp	x8, x9, [x4, #-32]
    3a5c:	a97e2468 	ldp	x8, x9, [x3, #-32]
    3a60:	a93d2c8a 	stp	x10, x11, [x4, #-48]
    3a64:	a97d2c6a 	ldp	x10, x11, [x3, #-48]
    3a68:	a9bc348c 	stp	x12, x13, [x4, #-64]!
    3a6c:	a9fc346c 	ldp	x12, x13, [x3, #-64]!
    3a70:	f1010042 	subs	x2, x2, #0x40
    3a74:	54fffee8 	b.hi	3a50 <memmove+0x50>  // b.pmore
    3a78:	a9431422 	ldp	x2, x5, [x1, #48]
    3a7c:	a93f1c86 	stp	x6, x7, [x4, #-16]
    3a80:	a9421c26 	ldp	x6, x7, [x1, #32]
    3a84:	a93e2488 	stp	x8, x9, [x4, #-32]
    3a88:	a9412428 	ldp	x8, x9, [x1, #16]
    3a8c:	a93d2c8a 	stp	x10, x11, [x4, #-48]
    3a90:	a9402c2a 	ldp	x10, x11, [x1]
    3a94:	a93c348c 	stp	x12, x13, [x4, #-64]
    3a98:	a9031402 	stp	x2, x5, [x0, #48]
    3a9c:	a9021c06 	stp	x6, x7, [x0, #32]
    3aa0:	a9012408 	stp	x8, x9, [x0, #16]
    3aa4:	a9002c0a 	stp	x10, x11, [x0]
    3aa8:	d65f03c0 	ret
    3aac:	d503201f 	nop
    3ab0:	d503201f 	nop
    3ab4:	d503201f 	nop
    3ab8:	d503201f 	nop
    3abc:	d503201f 	nop

0000000000003ac0 <memset>:
    3ac0:	4e010c20 	dup	v0.16b, w1
    3ac4:	8b020004 	add	x4, x0, x2
    3ac8:	f101805f 	cmp	x2, #0x60
    3acc:	540003c8 	b.hi	3b44 <memset+0x84>  // b.pmore
    3ad0:	f100405f 	cmp	x2, #0x10
    3ad4:	54000202 	b.cs	3b14 <memset+0x54>  // b.hs, b.nlast
    3ad8:	4e083c01 	mov	x1, v0.d[0]
    3adc:	361800a2 	tbz	w2, #3, 3af0 <memset+0x30>
    3ae0:	f9000001 	str	x1, [x0]
    3ae4:	f81f8081 	stur	x1, [x4, #-8]
    3ae8:	d65f03c0 	ret
    3aec:	d503201f 	nop
    3af0:	36100082 	tbz	w2, #2, 3b00 <memset+0x40>
    3af4:	b9000001 	str	w1, [x0]
    3af8:	b81fc081 	stur	w1, [x4, #-4]
    3afc:	d65f03c0 	ret
    3b00:	b4000082 	cbz	x2, 3b10 <memset+0x50>
    3b04:	39000001 	strb	w1, [x0]
    3b08:	36080042 	tbz	w2, #1, 3b10 <memset+0x50>
    3b0c:	781fe081 	sturh	w1, [x4, #-2]
    3b10:	d65f03c0 	ret
    3b14:	3d800000 	str	q0, [x0]
    3b18:	373000c2 	tbnz	w2, #6, 3b30 <memset+0x70>
    3b1c:	3c9f0080 	stur	q0, [x4, #-16]
    3b20:	36280062 	tbz	w2, #5, 3b2c <memset+0x6c>
    3b24:	3d800400 	str	q0, [x0, #16]
    3b28:	3c9e0080 	stur	q0, [x4, #-32]
    3b2c:	d65f03c0 	ret
    3b30:	3d800400 	str	q0, [x0, #16]
    3b34:	ad010000 	stp	q0, q0, [x0, #32]
    3b38:	ad3f0080 	stp	q0, q0, [x4, #-32]
    3b3c:	d65f03c0 	ret
    3b40:	d503201f 	nop
    3b44:	12001c21 	and	w1, w1, #0xff
    3b48:	927cec03 	and	x3, x0, #0xfffffffffffffff0
    3b4c:	3d800000 	str	q0, [x0]
    3b50:	f104005f 	cmp	x2, #0x100
    3b54:	7a402820 	ccmp	w1, #0x0, #0x0, cs  // cs = hs, nlast
    3b58:	54000180 	b.eq	3b88 <memset+0xc8>  // b.none
    3b5c:	cb030082 	sub	x2, x4, x3
    3b60:	d1004063 	sub	x3, x3, #0x10
    3b64:	d1014042 	sub	x2, x2, #0x50
    3b68:	ad010060 	stp	q0, q0, [x3, #32]
    3b6c:	ad820060 	stp	q0, q0, [x3, #64]!
    3b70:	f1010042 	subs	x2, x2, #0x40
    3b74:	54ffffa8 	b.hi	3b68 <memset+0xa8>  // b.pmore
    3b78:	ad3e0080 	stp	q0, q0, [x4, #-64]
    3b7c:	ad3f0080 	stp	q0, q0, [x4, #-32]
    3b80:	d65f03c0 	ret
    3b84:	d503201f 	nop
    3b88:	d53b00e5 	mrs	x5, dczid_el0
    3b8c:	3727fe85 	tbnz	w5, #4, 3b5c <memset+0x9c>
    3b90:	12000ca5 	and	w5, w5, #0xf
    3b94:	710010bf 	cmp	w5, #0x4
    3b98:	54000281 	b.ne	3be8 <memset+0x128>  // b.any
    3b9c:	3d800460 	str	q0, [x3, #16]
    3ba0:	ad010060 	stp	q0, q0, [x3, #32]
    3ba4:	927ae463 	and	x3, x3, #0xffffffffffffffc0
    3ba8:	ad020060 	stp	q0, q0, [x3, #64]
    3bac:	ad030060 	stp	q0, q0, [x3, #96]
    3bb0:	cb030082 	sub	x2, x4, x3
    3bb4:	d1040042 	sub	x2, x2, #0x100
    3bb8:	91020063 	add	x3, x3, #0x80
    3bbc:	d503201f 	nop
    3bc0:	d50b7423 	dc	zva, x3
    3bc4:	91010063 	add	x3, x3, #0x40
    3bc8:	f1010042 	subs	x2, x2, #0x40
    3bcc:	54ffffa8 	b.hi	3bc0 <memset+0x100>  // b.pmore
    3bd0:	ad000060 	stp	q0, q0, [x3]
    3bd4:	ad010060 	stp	q0, q0, [x3, #32]
    3bd8:	ad3e0080 	stp	q0, q0, [x4, #-64]
    3bdc:	ad3f0080 	stp	q0, q0, [x4, #-32]
    3be0:	d65f03c0 	ret
    3be4:	d503201f 	nop
    3be8:	710014bf 	cmp	w5, #0x5
    3bec:	54000241 	b.ne	3c34 <memset+0x174>  // b.any
    3bf0:	3d800460 	str	q0, [x3, #16]
    3bf4:	ad010060 	stp	q0, q0, [x3, #32]
    3bf8:	ad020060 	stp	q0, q0, [x3, #64]
    3bfc:	ad030060 	stp	q0, q0, [x3, #96]
    3c00:	9279e063 	and	x3, x3, #0xffffffffffffff80
    3c04:	cb030082 	sub	x2, x4, x3
    3c08:	d1040042 	sub	x2, x2, #0x100
    3c0c:	91020063 	add	x3, x3, #0x80
    3c10:	d50b7423 	dc	zva, x3
    3c14:	91020063 	add	x3, x3, #0x80
    3c18:	f1020042 	subs	x2, x2, #0x80
    3c1c:	54ffffa8 	b.hi	3c10 <memset+0x150>  // b.pmore
    3c20:	ad3c0080 	stp	q0, q0, [x4, #-128]
    3c24:	ad3d0080 	stp	q0, q0, [x4, #-96]
    3c28:	ad3e0080 	stp	q0, q0, [x4, #-64]
    3c2c:	ad3f0080 	stp	q0, q0, [x4, #-32]
    3c30:	d65f03c0 	ret
    3c34:	52800086 	mov	w6, #0x4                   	// #4
    3c38:	1ac520c7 	lsl	w7, w6, w5
    3c3c:	910100e5 	add	x5, x7, #0x40
    3c40:	eb05005f 	cmp	x2, x5
    3c44:	54fff8c3 	b.cc	3b5c <memset+0x9c>  // b.lo, b.ul, b.last
    3c48:	d10004e6 	sub	x6, x7, #0x1
    3c4c:	8b070065 	add	x5, x3, x7
    3c50:	91004063 	add	x3, x3, #0x10
    3c54:	eb0300a2 	subs	x2, x5, x3
    3c58:	8a2600a5 	bic	x5, x5, x6
    3c5c:	540000a0 	b.eq	3c70 <memset+0x1b0>  // b.none
    3c60:	ac820060 	stp	q0, q0, [x3], #64
    3c64:	ad3f0060 	stp	q0, q0, [x3, #-32]
    3c68:	f1010042 	subs	x2, x2, #0x40
    3c6c:	54ffffa8 	b.hi	3c60 <memset+0x1a0>  // b.pmore
    3c70:	aa0503e3 	mov	x3, x5
    3c74:	cb050082 	sub	x2, x4, x5
    3c78:	eb070042 	subs	x2, x2, x7
    3c7c:	540000a3 	b.cc	3c90 <memset+0x1d0>  // b.lo, b.ul, b.last
    3c80:	d50b7423 	dc	zva, x3
    3c84:	8b070063 	add	x3, x3, x7
    3c88:	eb070042 	subs	x2, x2, x7
    3c8c:	54ffffa2 	b.cs	3c80 <memset+0x1c0>  // b.hs, b.nlast
    3c90:	8b070042 	add	x2, x2, x7
    3c94:	d1008063 	sub	x3, x3, #0x20
    3c98:	17ffffb6 	b	3b70 <memset+0xb0>
    3c9c:	d503201f 	nop

0000000000003ca0 <__malloc_lock>:
    3ca0:	d65f03c0 	ret
    3ca4:	d503201f 	nop
    3ca8:	d503201f 	nop
    3cac:	d503201f 	nop

0000000000003cb0 <__malloc_unlock>:
    3cb0:	d65f03c0 	ret
    3cb4:	d503201f 	nop
    3cb8:	d503201f 	nop
    3cbc:	d503201f 	nop

0000000000003cc0 <_sbrk_r>:
    3cc0:	a9be7bfd 	stp	x29, x30, [sp, #-32]!
    3cc4:	910003fd 	mov	x29, sp
    3cc8:	a90153f3 	stp	x19, x20, [sp, #16]
    3ccc:	d0000054 	adrp	x20, d000 <__malloc_av_+0x780>
    3cd0:	aa0003f3 	mov	x19, x0
    3cd4:	b905da9f 	str	wzr, [x20, #1496]
    3cd8:	aa0103e0 	mov	x0, x1
    3cdc:	97fffc05 	bl	2cf0 <_sbrk>
    3ce0:	b100041f 	cmn	x0, #0x1
    3ce4:	54000080 	b.eq	3cf4 <_sbrk_r+0x34>  // b.none
    3ce8:	a94153f3 	ldp	x19, x20, [sp, #16]
    3cec:	a8c27bfd 	ldp	x29, x30, [sp], #32
    3cf0:	d65f03c0 	ret
    3cf4:	b945da81 	ldr	w1, [x20, #1496]
    3cf8:	34ffff81 	cbz	w1, 3ce8 <_sbrk_r+0x28>
    3cfc:	b9000261 	str	w1, [x19]
    3d00:	a94153f3 	ldp	x19, x20, [sp, #16]
    3d04:	a8c27bfd 	ldp	x29, x30, [sp], #32
    3d08:	d65f03c0 	ret
    3d0c:	d503201f 	nop

0000000000003d10 <__sprint_r.part.0>:
    3d10:	a9bb7bfd 	stp	x29, x30, [sp, #-80]!
    3d14:	910003fd 	mov	x29, sp
    3d18:	b940ac23 	ldr	w3, [x1, #172]
    3d1c:	a90363f7 	stp	x23, x24, [sp, #48]
    3d20:	aa0203f8 	mov	x24, x2
    3d24:	36680563 	tbz	w3, #13, 3dd0 <__sprint_r.part.0+0xc0>
    3d28:	a9025bf5 	stp	x21, x22, [sp, #32]
    3d2c:	aa0003f5 	mov	x21, x0
    3d30:	f9400840 	ldr	x0, [x2, #16]
    3d34:	a90153f3 	stp	x19, x20, [sp, #16]
    3d38:	aa0103f4 	mov	x20, x1
    3d3c:	a9046bf9 	stp	x25, x26, [sp, #64]
    3d40:	f940005a 	ldr	x26, [x2]
    3d44:	b40003c0 	cbz	x0, 3dbc <__sprint_r.part.0+0xac>
    3d48:	a9406756 	ldp	x22, x25, [x26]
    3d4c:	d342ff39 	lsr	x25, x25, #2
    3d50:	2a1903f7 	mov	w23, w25
    3d54:	7100033f 	cmp	w25, #0x0
    3d58:	540002ad 	b.le	3dac <__sprint_r.part.0+0x9c>
    3d5c:	d2800013 	mov	x19, #0x0                   	// #0
    3d60:	14000003 	b	3d6c <__sprint_r.part.0+0x5c>
    3d64:	6b1302ff 	cmp	w23, w19
    3d68:	5400020d 	b.le	3da8 <__sprint_r.part.0+0x98>
    3d6c:	b8737ac1 	ldr	w1, [x22, x19, lsl #2]
    3d70:	aa1403e2 	mov	x2, x20
    3d74:	aa1503e0 	mov	x0, x21
    3d78:	91000673 	add	x19, x19, #0x1
    3d7c:	94000a15 	bl	65d0 <_fputwc_r>
    3d80:	3100041f 	cmn	w0, #0x1
    3d84:	54ffff01 	b.ne	3d64 <__sprint_r.part.0+0x54>  // b.any
    3d88:	a94153f3 	ldp	x19, x20, [sp, #16]
    3d8c:	a9425bf5 	ldp	x21, x22, [sp, #32]
    3d90:	a9446bf9 	ldp	x25, x26, [sp, #64]
    3d94:	b9000b1f 	str	wzr, [x24, #8]
    3d98:	f9000b1f 	str	xzr, [x24, #16]
    3d9c:	a94363f7 	ldp	x23, x24, [sp, #48]
    3da0:	a8c57bfd 	ldp	x29, x30, [sp], #80
    3da4:	d65f03c0 	ret
    3da8:	f9400b00 	ldr	x0, [x24, #16]
    3dac:	cb39c800 	sub	x0, x0, w25, sxtw #2
    3db0:	f9000b00 	str	x0, [x24, #16]
    3db4:	9100435a 	add	x26, x26, #0x10
    3db8:	b5fffc80 	cbnz	x0, 3d48 <__sprint_r.part.0+0x38>
    3dbc:	52800000 	mov	w0, #0x0                   	// #0
    3dc0:	a94153f3 	ldp	x19, x20, [sp, #16]
    3dc4:	a9425bf5 	ldp	x21, x22, [sp, #32]
    3dc8:	a9446bf9 	ldp	x25, x26, [sp, #64]
    3dcc:	17fffff2 	b	3d94 <__sprint_r.part.0+0x84>
    3dd0:	94000b2c 	bl	6a80 <__sfvwrite_r>
    3dd4:	b9000b1f 	str	wzr, [x24, #8]
    3dd8:	f9000b1f 	str	xzr, [x24, #16]
    3ddc:	a94363f7 	ldp	x23, x24, [sp, #48]
    3de0:	a8c57bfd 	ldp	x29, x30, [sp], #80
    3de4:	d65f03c0 	ret
    3de8:	d503201f 	nop
    3dec:	d503201f 	nop

0000000000003df0 <__sprint_r>:
    3df0:	f9400844 	ldr	x4, [x2, #16]
    3df4:	b4000044 	cbz	x4, 3dfc <__sprint_r+0xc>
    3df8:	17ffffc6 	b	3d10 <__sprint_r.part.0>
    3dfc:	52800000 	mov	w0, #0x0                   	// #0
    3e00:	b900085f 	str	wzr, [x2, #8]
    3e04:	d65f03c0 	ret
    3e08:	d503201f 	nop
    3e0c:	d503201f 	nop

0000000000003e10 <_vfiprintf_r>:
    3e10:	d10843ff 	sub	sp, sp, #0x210
    3e14:	a9007bfd 	stp	x29, x30, [sp]
    3e18:	910003fd 	mov	x29, sp
    3e1c:	a9025bf5 	stp	x21, x22, [sp, #32]
    3e20:	aa0303f5 	mov	x21, x3
    3e24:	f9400063 	ldr	x3, [x3]
    3e28:	f90037e3 	str	x3, [sp, #104]
    3e2c:	f94006a3 	ldr	x3, [x21, #8]
    3e30:	f90043e3 	str	x3, [sp, #128]
    3e34:	b9401aa3 	ldr	w3, [x21, #24]
    3e38:	a90153f3 	stp	x19, x20, [sp, #16]
    3e3c:	aa0003f3 	mov	x19, x0
    3e40:	aa0203f4 	mov	x20, x2
    3e44:	9103e3e0 	add	x0, sp, #0xf8
    3e48:	d2800102 	mov	x2, #0x8                   	// #8
    3e4c:	a9046bf9 	stp	x25, x26, [sp, #64]
    3e50:	aa0103f9 	mov	x25, x1
    3e54:	52800001 	mov	w1, #0x0                   	// #0
    3e58:	b900b3e3 	str	w3, [sp, #176]
    3e5c:	97ffff19 	bl	3ac0 <memset>
    3e60:	b4000073 	cbz	x19, 3e6c <_vfiprintf_r+0x5c>
    3e64:	b9405260 	ldr	w0, [x19, #80]
    3e68:	34002020 	cbz	w0, 426c <_vfiprintf_r+0x45c>
    3e6c:	79c02321 	ldrsh	w1, [x25, #16]
    3e70:	12003c20 	and	w0, w1, #0xffff
    3e74:	376800e1 	tbnz	w1, #13, 3e90 <_vfiprintf_r+0x80>
    3e78:	b940af22 	ldr	w2, [x25, #172]
    3e7c:	32130021 	orr	w1, w1, #0x2000
    3e80:	12003c20 	and	w0, w1, #0xffff
    3e84:	79002321 	strh	w1, [x25, #16]
    3e88:	12127841 	and	w1, w2, #0xffffdfff
    3e8c:	b900af21 	str	w1, [x25, #172]
    3e90:	36180520 	tbz	w0, #3, 3f34 <_vfiprintf_r+0x124>
    3e94:	f9400f21 	ldr	x1, [x25, #24]
    3e98:	b40004e1 	cbz	x1, 3f34 <_vfiprintf_r+0x124>
    3e9c:	52800341 	mov	w1, #0x1a                  	// #26
    3ea0:	0a010000 	and	w0, w0, w1
    3ea4:	7100281f 	cmp	w0, #0xa
    3ea8:	54000580 	b.eq	3f58 <_vfiprintf_r+0x148>  // b.none
    3eac:	a90573fb 	stp	x27, x28, [sp, #80]
    3eb0:	910643fc 	add	x28, sp, #0x190
    3eb4:	d0000055 	adrp	x21, d000 <__malloc_av_+0x780>
    3eb8:	aa1c03fb 	mov	x27, x28
    3ebc:	910302b5 	add	x21, x21, #0xc0
    3ec0:	90000040 	adrp	x0, b000 <pow10.0+0x80>
    3ec4:	910aa000 	add	x0, x0, #0x2a8
    3ec8:	a90363f7 	stp	x23, x24, [sp, #48]
    3ecc:	b90067ff 	str	wzr, [sp, #100]
    3ed0:	f9003fe0 	str	x0, [sp, #120]
    3ed4:	f90047ff 	str	xzr, [sp, #136]
    3ed8:	a909ffff 	stp	xzr, xzr, [sp, #152]
    3edc:	f90057ff 	str	xzr, [sp, #168]
    3ee0:	f9008bfc 	str	x28, [sp, #272]
    3ee4:	b9011bff 	str	wzr, [sp, #280]
    3ee8:	f90093ff 	str	xzr, [sp, #288]
    3eec:	aa1403f7 	mov	x23, x20
    3ef0:	f94076b6 	ldr	x22, [x21, #232]
    3ef4:	94000fa7 	bl	7d90 <__locale_mb_cur_max>
    3ef8:	9103e3e4 	add	x4, sp, #0xf8
    3efc:	93407c03 	sxtw	x3, w0
    3f00:	aa1703e2 	mov	x2, x23
    3f04:	9103d3e1 	add	x1, sp, #0xf4
    3f08:	aa1303e0 	mov	x0, x19
    3f0c:	d63f02c0 	blr	x22
    3f10:	7100001f 	cmp	w0, #0x0
    3f14:	340004a0 	cbz	w0, 3fa8 <_vfiprintf_r+0x198>
    3f18:	540003ab 	b.lt	3f8c <_vfiprintf_r+0x17c>  // b.tstop
    3f1c:	b940f7e1 	ldr	w1, [sp, #244]
    3f20:	7100943f 	cmp	w1, #0x25
    3f24:	54001720 	b.eq	4208 <_vfiprintf_r+0x3f8>  // b.none
    3f28:	93407c00 	sxtw	x0, w0
    3f2c:	8b0002f7 	add	x23, x23, x0
    3f30:	17fffff0 	b	3ef0 <_vfiprintf_r+0xe0>
    3f34:	aa1903e1 	mov	x1, x25
    3f38:	aa1303e0 	mov	x0, x19
    3f3c:	9400072d 	bl	5bf0 <__swsetup_r>
    3f40:	3500b220 	cbnz	w0, 5584 <_vfiprintf_r+0x1774>
    3f44:	79402320 	ldrh	w0, [x25, #16]
    3f48:	52800341 	mov	w1, #0x1a                  	// #26
    3f4c:	0a010000 	and	w0, w0, w1
    3f50:	7100281f 	cmp	w0, #0xa
    3f54:	54fffac1 	b.ne	3eac <_vfiprintf_r+0x9c>  // b.any
    3f58:	79c02720 	ldrsh	w0, [x25, #18]
    3f5c:	37fffa80 	tbnz	w0, #31, 3eac <_vfiprintf_r+0x9c>
    3f60:	a9401ea6 	ldp	x6, x7, [x21]
    3f64:	aa1403e2 	mov	x2, x20
    3f68:	a94116a4 	ldp	x4, x5, [x21, #16]
    3f6c:	aa1903e1 	mov	x1, x25
    3f70:	aa1303e0 	mov	x0, x19
    3f74:	910303e3 	add	x3, sp, #0xc0
    3f78:	a90c1fe6 	stp	x6, x7, [sp, #192]
    3f7c:	a90d17e4 	stp	x4, x5, [sp, #208]
    3f80:	9400068c 	bl	59b0 <__sbprintf>
    3f84:	b90067e0 	str	w0, [sp, #100]
    3f88:	140000b2 	b	4250 <_vfiprintf_r+0x440>
    3f8c:	9103e3e0 	add	x0, sp, #0xf8
    3f90:	d2800102 	mov	x2, #0x8                   	// #8
    3f94:	52800001 	mov	w1, #0x0                   	// #0
    3f98:	97fffeca 	bl	3ac0 <memset>
    3f9c:	d2800020 	mov	x0, #0x1                   	// #1
    3fa0:	8b0002f7 	add	x23, x23, x0
    3fa4:	17ffffd3 	b	3ef0 <_vfiprintf_r+0xe0>
    3fa8:	2a0003f6 	mov	w22, w0
    3fac:	cb1402e0 	sub	x0, x23, x20
    3fb0:	2a0003f8 	mov	w24, w0
    3fb4:	34008d60 	cbz	w0, 5160 <_vfiprintf_r+0x1350>
    3fb8:	f94093e2 	ldr	x2, [sp, #288]
    3fbc:	93407f01 	sxtw	x1, w24
    3fc0:	b9411be0 	ldr	w0, [sp, #280]
    3fc4:	8b020022 	add	x2, x1, x2
    3fc8:	a9000774 	stp	x20, x1, [x27]
    3fcc:	11000400 	add	w0, w0, #0x1
    3fd0:	b9011be0 	str	w0, [sp, #280]
    3fd4:	f90093e2 	str	x2, [sp, #288]
    3fd8:	71001c1f 	cmp	w0, #0x7
    3fdc:	5400120d 	b.le	421c <_vfiprintf_r+0x40c>
    3fe0:	b4006222 	cbz	x2, 4c24 <_vfiprintf_r+0xe14>
    3fe4:	910443e2 	add	x2, sp, #0x110
    3fe8:	aa1903e1 	mov	x1, x25
    3fec:	aa1303e0 	mov	x0, x19
    3ff0:	97ffff48 	bl	3d10 <__sprint_r.part.0>
    3ff4:	35001260 	cbnz	w0, 4240 <_vfiprintf_r+0x430>
    3ff8:	910643fb 	add	x27, sp, #0x190
    3ffc:	b94067e0 	ldr	w0, [sp, #100]
    4000:	0b180000 	add	w0, w0, w24
    4004:	b90067e0 	str	w0, [sp, #100]
    4008:	34008ad6 	cbz	w22, 5160 <_vfiprintf_r+0x1350>
    400c:	394006e0 	ldrb	w0, [x23, #1]
    4010:	12800004 	mov	w4, #0xffffffff            	// #-1
    4014:	910006f4 	add	x20, x23, #0x1
    4018:	2a0403f6 	mov	w22, w4
    401c:	5280001c 	mov	w28, #0x0                   	// #0
    4020:	b90063ff 	str	wzr, [sp, #96]
    4024:	3903bfff 	strb	wzr, [sp, #239]
    4028:	91000694 	add	x20, x20, #0x1
    402c:	51008001 	sub	w1, w0, #0x20
    4030:	7101683f 	cmp	w1, #0x5a
    4034:	54000c49 	b.ls	41bc <_vfiprintf_r+0x3ac>  // b.plast
    4038:	34008940 	cbz	w0, 5160 <_vfiprintf_r+0x1350>
    403c:	52800036 	mov	w22, #0x1                   	// #1
    4040:	9104a3fa 	add	x26, sp, #0x128
    4044:	2a1603f7 	mov	w23, w22
    4048:	3903bfff 	strb	wzr, [sp, #239]
    404c:	3904a3e0 	strb	w0, [sp, #296]
    4050:	52800004 	mov	w4, #0x0                   	// #0
    4054:	f9003bff 	str	xzr, [sp, #112]
    4058:	b9411be1 	ldr	w1, [sp, #280]
    405c:	11000ac0 	add	w0, w22, #0x2
    4060:	721f038a 	ands	w10, w28, #0x2
    4064:	52801098 	mov	w24, #0x84                  	// #132
    4068:	11000422 	add	w2, w1, #0x1
    406c:	1a961016 	csel	w22, w0, w22, ne  // ne = any
    4070:	2a0203e8 	mov	w8, w2
    4074:	6a180398 	ands	w24, w28, w24
    4078:	f94093e0 	ldr	x0, [sp, #288]
    407c:	540000a1 	b.ne	4090 <_vfiprintf_r+0x280>  // b.any
    4080:	b94063e3 	ldr	w3, [sp, #96]
    4084:	4b160069 	sub	w9, w3, w22
    4088:	7100013f 	cmp	w9, #0x0
    408c:	5400496c 	b.gt	49b8 <_vfiprintf_r+0xba8>
    4090:	3943bfe2 	ldrb	w2, [sp, #239]
    4094:	340001a2 	cbz	w2, 40c8 <_vfiprintf_r+0x2b8>
    4098:	9103bfe1 	add	x1, sp, #0xef
    409c:	91000400 	add	x0, x0, #0x1
    40a0:	f9000361 	str	x1, [x27]
    40a4:	d2800021 	mov	x1, #0x1                   	// #1
    40a8:	f9000761 	str	x1, [x27, #8]
    40ac:	b9011be8 	str	w8, [sp, #280]
    40b0:	f90093e0 	str	x0, [sp, #288]
    40b4:	71001d1f 	cmp	w8, #0x7
    40b8:	540044cc 	b.gt	4950 <_vfiprintf_r+0xb40>
    40bc:	2a0803e1 	mov	w1, w8
    40c0:	9100437b 	add	x27, x27, #0x10
    40c4:	11000508 	add	w8, w8, #0x1
    40c8:	340002ca 	cbz	w10, 4120 <_vfiprintf_r+0x310>
    40cc:	91000800 	add	x0, x0, #0x2
    40d0:	9103c3e2 	add	x2, sp, #0xf0
    40d4:	d2800041 	mov	x1, #0x2                   	// #2
    40d8:	a9000762 	stp	x2, x1, [x27]
    40dc:	b9011be8 	str	w8, [sp, #280]
    40e0:	f90093e0 	str	x0, [sp, #288]
    40e4:	71001d1f 	cmp	w8, #0x7
    40e8:	5400460d 	b.le	49a8 <_vfiprintf_r+0xb98>
    40ec:	b4005b20 	cbz	x0, 4c50 <_vfiprintf_r+0xe40>
    40f0:	910443e2 	add	x2, sp, #0x110
    40f4:	aa1903e1 	mov	x1, x25
    40f8:	aa1303e0 	mov	x0, x19
    40fc:	b90093e4 	str	w4, [sp, #144]
    4100:	97ffff04 	bl	3d10 <__sprint_r.part.0>
    4104:	35000940 	cbnz	w0, 422c <_vfiprintf_r+0x41c>
    4108:	b9411be1 	ldr	w1, [sp, #280]
    410c:	910643fb 	add	x27, sp, #0x190
    4110:	b94093e4 	ldr	w4, [sp, #144]
    4114:	f94093e0 	ldr	x0, [sp, #288]
    4118:	11000428 	add	w8, w1, #0x1
    411c:	d503201f 	nop
    4120:	7102031f 	cmp	w24, #0x80
    4124:	54002f80 	b.eq	4714 <_vfiprintf_r+0x904>  // b.none
    4128:	4b170098 	sub	w24, w4, w23
    412c:	7100031f 	cmp	w24, #0x0
    4130:	540038cc 	b.gt	4848 <_vfiprintf_r+0xa38>
    4134:	93407ef7 	sxtw	x23, w23
    4138:	a9005f7a 	stp	x26, x23, [x27]
    413c:	8b0002e0 	add	x0, x23, x0
    4140:	b9011be8 	str	w8, [sp, #280]
    4144:	f90093e0 	str	x0, [sp, #288]
    4148:	71001d1f 	cmp	w8, #0x7
    414c:	540029ad 	b.le	4680 <_vfiprintf_r+0x870>
    4150:	b4004ba0 	cbz	x0, 4ac4 <_vfiprintf_r+0xcb4>
    4154:	910443e2 	add	x2, sp, #0x110
    4158:	aa1903e1 	mov	x1, x25
    415c:	aa1303e0 	mov	x0, x19
    4160:	97fffeec 	bl	3d10 <__sprint_r.part.0>
    4164:	35000640 	cbnz	w0, 422c <_vfiprintf_r+0x41c>
    4168:	f94093e0 	ldr	x0, [sp, #288]
    416c:	910643e5 	add	x5, sp, #0x190
    4170:	361000bc 	tbz	w28, #2, 4184 <_vfiprintf_r+0x374>
    4174:	b94063e1 	ldr	w1, [sp, #96]
    4178:	4b160037 	sub	w23, w1, w22
    417c:	710002ff 	cmp	w23, #0x0
    4180:	54004b0c 	b.gt	4ae0 <_vfiprintf_r+0xcd0>
    4184:	b94063e1 	ldr	w1, [sp, #96]
    4188:	6b16003f 	cmp	w1, w22
    418c:	1a96a023 	csel	w3, w1, w22, ge  // ge = tcont
    4190:	b94067e1 	ldr	w1, [sp, #100]
    4194:	0b030021 	add	w1, w1, w3
    4198:	b90067e1 	str	w1, [sp, #100]
    419c:	b5003c60 	cbnz	x0, 4928 <_vfiprintf_r+0xb18>
    41a0:	f9403be1 	ldr	x1, [sp, #112]
    41a4:	b9011bff 	str	wzr, [sp, #280]
    41a8:	910643fb 	add	x27, sp, #0x190
    41ac:	b4ffea01 	cbz	x1, 3eec <_vfiprintf_r+0xdc>
    41b0:	aa1303e0 	mov	x0, x19
    41b4:	94000977 	bl	6790 <_free_r>
    41b8:	17ffff4d 	b	3eec <_vfiprintf_r+0xdc>
    41bc:	f9403fe2 	ldr	x2, [sp, #120]
    41c0:	78615841 	ldrh	w1, [x2, w1, uxtw #1]
    41c4:	10000062 	adr	x2, 41d0 <_vfiprintf_r+0x3c0>
    41c8:	8b21a841 	add	x1, x2, w1, sxth #2
    41cc:	d61f0020 	br	x1
    41d0:	5100c001 	sub	w1, w0, #0x30
    41d4:	b90063ff 	str	wzr, [sp, #96]
    41d8:	b94063e0 	ldr	w0, [sp, #96]
    41dc:	0b000802 	add	w2, w0, w0, lsl #2
    41e0:	38401680 	ldrb	w0, [x20], #1
    41e4:	0b020421 	add	w1, w1, w2, lsl #1
    41e8:	b90063e1 	str	w1, [sp, #96]
    41ec:	5100c001 	sub	w1, w0, #0x30
    41f0:	7100243f 	cmp	w1, #0x9
    41f4:	54ffff29 	b.ls	41d8 <_vfiprintf_r+0x3c8>  // b.plast
    41f8:	17ffff8d 	b	402c <_vfiprintf_r+0x21c>
    41fc:	39400280 	ldrb	w0, [x20]
    4200:	321c039c 	orr	w28, w28, #0x10
    4204:	17ffff89 	b	4028 <_vfiprintf_r+0x218>
    4208:	2a0003f6 	mov	w22, w0
    420c:	cb1402e0 	sub	x0, x23, x20
    4210:	2a0003f8 	mov	w24, w0
    4214:	34ffefc0 	cbz	w0, 400c <_vfiprintf_r+0x1fc>
    4218:	17ffff68 	b	3fb8 <_vfiprintf_r+0x1a8>
    421c:	9100437b 	add	x27, x27, #0x10
    4220:	17ffff77 	b	3ffc <_vfiprintf_r+0x1ec>
    4224:	aa1903f3 	mov	x19, x25
    4228:	aa1403f9 	mov	x25, x20
    422c:	f9403be0 	ldr	x0, [sp, #112]
    4230:	b4000080 	cbz	x0, 4240 <_vfiprintf_r+0x430>
    4234:	f9403be1 	ldr	x1, [sp, #112]
    4238:	aa1303e0 	mov	x0, x19
    423c:	94000955 	bl	6790 <_free_r>
    4240:	79c02320 	ldrsh	w0, [x25, #16]
    4244:	a94363f7 	ldp	x23, x24, [sp, #48]
    4248:	a94573fb 	ldp	x27, x28, [sp, #80]
    424c:	373099c0 	tbnz	w0, #6, 5584 <_vfiprintf_r+0x1774>
    4250:	b94067e0 	ldr	w0, [sp, #100]
    4254:	a9407bfd 	ldp	x29, x30, [sp]
    4258:	a94153f3 	ldp	x19, x20, [sp, #16]
    425c:	a9425bf5 	ldp	x21, x22, [sp, #32]
    4260:	a9446bf9 	ldp	x25, x26, [sp, #64]
    4264:	910843ff 	add	sp, sp, #0x210
    4268:	d65f03c0 	ret
    426c:	aa1303e0 	mov	x0, x19
    4270:	94000870 	bl	6430 <__sinit>
    4274:	17fffefe 	b	3e6c <_vfiprintf_r+0x5c>
    4278:	b940b3e1 	ldr	w1, [sp, #176]
    427c:	2a1603e4 	mov	w4, w22
    4280:	37f856c1 	tbnz	w1, #31, 4d58 <_vfiprintf_r+0xf48>
    4284:	f94037e1 	ldr	x1, [sp, #104]
    4288:	91003c38 	add	x24, x1, #0xf
    428c:	927df318 	and	x24, x24, #0xfffffffffffffff8
    4290:	f94037e1 	ldr	x1, [sp, #104]
    4294:	3903bfff 	strb	wzr, [sp, #239]
    4298:	f940003a 	ldr	x26, [x1]
    429c:	b400753a 	cbz	x26, 5140 <_vfiprintf_r+0x1330>
    42a0:	71014c1f 	cmp	w0, #0x53
    42a4:	54006740 	b.eq	4f8c <_vfiprintf_r+0x117c>  // b.none
    42a8:	3720673c 	tbnz	w28, #4, 4f8c <_vfiprintf_r+0x117c>
    42ac:	3100049f 	cmn	w4, #0x1
    42b0:	54009520 	b.eq	5554 <_vfiprintf_r+0x1744>  // b.none
    42b4:	93407c82 	sxtw	x2, w4
    42b8:	aa1a03e0 	mov	x0, x26
    42bc:	52800001 	mov	w1, #0x0                   	// #0
    42c0:	b9006be4 	str	w4, [sp, #104]
    42c4:	94001118 	bl	8724 <memchr>
    42c8:	f9003be0 	str	x0, [sp, #112]
    42cc:	b9406be4 	ldr	w4, [sp, #104]
    42d0:	b40090a0 	cbz	x0, 54e4 <_vfiprintf_r+0x16d4>
    42d4:	cb1a0003 	sub	x3, x0, x26
    42d8:	52800004 	mov	w4, #0x0                   	// #0
    42dc:	7100007f 	cmp	w3, #0x0
    42e0:	2a0303f7 	mov	w23, w3
    42e4:	1a9fa076 	csel	w22, w3, wzr, ge  // ge = tcont
    42e8:	a906fff8 	stp	x24, xzr, [sp, #104]
    42ec:	14000060 	b	446c <_vfiprintf_r+0x65c>
    42f0:	71010c1f 	cmp	w0, #0x43
    42f4:	54000040 	b.eq	42fc <_vfiprintf_r+0x4ec>  // b.none
    42f8:	3620569c 	tbz	w28, #4, 4dc8 <_vfiprintf_r+0xfb8>
    42fc:	910423e0 	add	x0, sp, #0x108
    4300:	d2800102 	mov	x2, #0x8                   	// #8
    4304:	52800001 	mov	w1, #0x0                   	// #0
    4308:	97fffdee 	bl	3ac0 <memset>
    430c:	b940b3e0 	ldr	w0, [sp, #176]
    4310:	37f87a20 	tbnz	w0, #31, 5254 <_vfiprintf_r+0x1444>
    4314:	f94037e0 	ldr	x0, [sp, #104]
    4318:	91002c01 	add	x1, x0, #0xb
    431c:	927df021 	and	x1, x1, #0xfffffffffffffff8
    4320:	f90037e1 	str	x1, [sp, #104]
    4324:	b9400002 	ldr	w2, [x0]
    4328:	9104a3fa 	add	x26, sp, #0x128
    432c:	910423e3 	add	x3, sp, #0x108
    4330:	aa1a03e1 	mov	x1, x26
    4334:	aa1303e0 	mov	x0, x19
    4338:	940005d2 	bl	5a80 <_wcrtomb_r>
    433c:	2a0003f7 	mov	w23, w0
    4340:	3100041f 	cmn	w0, #0x1
    4344:	54009260 	b.eq	5590 <_vfiprintf_r+0x1780>  // b.none
    4348:	7100001f 	cmp	w0, #0x0
    434c:	3903bfff 	strb	wzr, [sp, #239]
    4350:	1a9fa016 	csel	w22, w0, wzr, ge  // ge = tcont
    4354:	17ffff3f 	b	4050 <_vfiprintf_r+0x240>
    4358:	b94063e1 	ldr	w1, [sp, #96]
    435c:	f90037e0 	str	x0, [sp, #104]
    4360:	4b0103e1 	neg	w1, w1
    4364:	b90063e1 	str	w1, [sp, #96]
    4368:	39400280 	ldrb	w0, [x20]
    436c:	321e039c 	orr	w28, w28, #0x4
    4370:	17ffff2e 	b	4028 <_vfiprintf_r+0x218>
    4374:	aa1403e2 	mov	x2, x20
    4378:	38401440 	ldrb	w0, [x2], #1
    437c:	7100a81f 	cmp	w0, #0x2a
    4380:	5400a6a0 	b.eq	5854 <_vfiprintf_r+0x1a44>  // b.none
    4384:	5100c001 	sub	w1, w0, #0x30
    4388:	aa0203f4 	mov	x20, x2
    438c:	52800016 	mov	w22, #0x0                   	// #0
    4390:	7100243f 	cmp	w1, #0x9
    4394:	54ffe4c8 	b.hi	402c <_vfiprintf_r+0x21c>  // b.pmore
    4398:	38401680 	ldrb	w0, [x20], #1
    439c:	0b160ac4 	add	w4, w22, w22, lsl #2
    43a0:	0b040436 	add	w22, w1, w4, lsl #1
    43a4:	5100c001 	sub	w1, w0, #0x30
    43a8:	7100243f 	cmp	w1, #0x9
    43ac:	54ffff69 	b.ls	4398 <_vfiprintf_r+0x588>  // b.plast
    43b0:	17ffff1f 	b	402c <_vfiprintf_r+0x21c>
    43b4:	52800560 	mov	w0, #0x2b                  	// #43
    43b8:	3903bfe0 	strb	w0, [sp, #239]
    43bc:	39400280 	ldrb	w0, [x20]
    43c0:	17ffff1a 	b	4028 <_vfiprintf_r+0x218>
    43c4:	b940b3e0 	ldr	w0, [sp, #176]
    43c8:	37f84da0 	tbnz	w0, #31, 4d7c <_vfiprintf_r+0xf6c>
    43cc:	f94037e0 	ldr	x0, [sp, #104]
    43d0:	91002c00 	add	x0, x0, #0xb
    43d4:	927df000 	and	x0, x0, #0xfffffffffffffff8
    43d8:	f94037e1 	ldr	x1, [sp, #104]
    43dc:	b9400021 	ldr	w1, [x1]
    43e0:	b90063e1 	str	w1, [sp, #96]
    43e4:	37fffba1 	tbnz	w1, #31, 4358 <_vfiprintf_r+0x548>
    43e8:	f90037e0 	str	x0, [sp, #104]
    43ec:	39400280 	ldrb	w0, [x20]
    43f0:	17ffff0e 	b	4028 <_vfiprintf_r+0x218>
    43f4:	2a1603e4 	mov	w4, w22
    43f8:	321c0396 	orr	w22, w28, #0x10
    43fc:	b940b3e0 	ldr	w0, [sp, #176]
    4400:	37280056 	tbnz	w22, #5, 4408 <_vfiprintf_r+0x5f8>
    4404:	36204876 	tbz	w22, #4, 4d10 <_vfiprintf_r+0xf00>
    4408:	37f85a40 	tbnz	w0, #31, 4f50 <_vfiprintf_r+0x1140>
    440c:	f94037e1 	ldr	x1, [sp, #104]
    4410:	91003c20 	add	x0, x1, #0xf
    4414:	927df000 	and	x0, x0, #0xfffffffffffffff8
    4418:	f90037e0 	str	x0, [sp, #104]
    441c:	f9400021 	ldr	x1, [x1]
    4420:	52800020 	mov	w0, #0x1                   	// #1
    4424:	3903bfff 	strb	wzr, [sp, #239]
    4428:	3100049f 	cmn	w4, #0x1
    442c:	54001320 	b.eq	4690 <_vfiprintf_r+0x880>  // b.none
    4430:	f100003f 	cmp	x1, #0x0
    4434:	12187adc 	and	w28, w22, #0xffffff7f
    4438:	7a400880 	ccmp	w4, #0x0, #0x0, eq  // eq = none
    443c:	54001261 	b.ne	4688 <_vfiprintf_r+0x878>  // b.any
    4440:	35000660 	cbnz	w0, 450c <_vfiprintf_r+0x6fc>
    4444:	120002d7 	and	w23, w22, #0x1
    4448:	36003f56 	tbz	w22, #0, 4c30 <_vfiprintf_r+0xe20>
    444c:	91062ffa 	add	x26, sp, #0x18b
    4450:	52800600 	mov	w0, #0x30                  	// #48
    4454:	52800004 	mov	w4, #0x0                   	// #0
    4458:	39062fe0 	strb	w0, [sp, #395]
    445c:	d503201f 	nop
    4460:	6b17009f 	cmp	w4, w23
    4464:	f9003bff 	str	xzr, [sp, #112]
    4468:	1a97a096 	csel	w22, w4, w23, ge  // ge = tcont
    446c:	3943bfe0 	ldrb	w0, [sp, #239]
    4470:	7100001f 	cmp	w0, #0x0
    4474:	1a9606d6 	cinc	w22, w22, ne  // ne = any
    4478:	17fffef8 	b	4058 <_vfiprintf_r+0x248>
    447c:	39400280 	ldrb	w0, [x20]
    4480:	3219039c 	orr	w28, w28, #0x80
    4484:	17fffee9 	b	4028 <_vfiprintf_r+0x218>
    4488:	2a1603e4 	mov	w4, w22
    448c:	321c039c 	orr	w28, w28, #0x10
    4490:	b940b3e0 	ldr	w0, [sp, #176]
    4494:	3728005c 	tbnz	w28, #5, 449c <_vfiprintf_r+0x68c>
    4498:	362042dc 	tbz	w28, #4, 4cf0 <_vfiprintf_r+0xee0>
    449c:	37f85460 	tbnz	w0, #31, 4f28 <_vfiprintf_r+0x1118>
    44a0:	f94037e0 	ldr	x0, [sp, #104]
    44a4:	91003c01 	add	x1, x0, #0xf
    44a8:	927df021 	and	x1, x1, #0xfffffffffffffff8
    44ac:	f90037e1 	str	x1, [sp, #104]
    44b0:	f9400001 	ldr	x1, [x0]
    44b4:	12157b96 	and	w22, w28, #0xfffffbff
    44b8:	52800000 	mov	w0, #0x0                   	// #0
    44bc:	17ffffda 	b	4424 <_vfiprintf_r+0x614>
    44c0:	2a1603e4 	mov	w4, w22
    44c4:	321c039c 	orr	w28, w28, #0x10
    44c8:	b940b3e0 	ldr	w0, [sp, #176]
    44cc:	3728005c 	tbnz	w28, #5, 44d4 <_vfiprintf_r+0x6c4>
    44d0:	36203ffc 	tbz	w28, #4, 4ccc <_vfiprintf_r+0xebc>
    44d4:	37f85160 	tbnz	w0, #31, 4f00 <_vfiprintf_r+0x10f0>
    44d8:	f94037e0 	ldr	x0, [sp, #104]
    44dc:	91003c01 	add	x1, x0, #0xf
    44e0:	927df021 	and	x1, x1, #0xfffffffffffffff8
    44e4:	f90037e1 	str	x1, [sp, #104]
    44e8:	f9400000 	ldr	x0, [x0]
    44ec:	aa0003e1 	mov	x1, x0
    44f0:	b7f83b80 	tbnz	x0, #63, 4c60 <_vfiprintf_r+0xe50>
    44f4:	3100049f 	cmn	w4, #0x1
    44f8:	540036e0 	b.eq	4bd4 <_vfiprintf_r+0xdc4>  // b.none
    44fc:	7100009f 	cmp	w4, #0x0
    4500:	12187b9c 	and	w28, w28, #0xffffff7f
    4504:	fa400820 	ccmp	x1, #0x0, #0x0, eq  // eq = none
    4508:	54003661 	b.ne	4bd4 <_vfiprintf_r+0xdc4>  // b.any
    450c:	910633fa 	add	x26, sp, #0x18c
    4510:	52800004 	mov	w4, #0x0                   	// #0
    4514:	52800017 	mov	w23, #0x0                   	// #0
    4518:	17ffffd2 	b	4460 <_vfiprintf_r+0x650>
    451c:	aa1303e0 	mov	x0, x19
    4520:	94000adc 	bl	7090 <_localeconv_r>
    4524:	f9400400 	ldr	x0, [x0, #8]
    4528:	f90053e0 	str	x0, [sp, #160]
    452c:	94001555 	bl	9a80 <strlen>
    4530:	aa0003e1 	mov	x1, x0
    4534:	aa0103f7 	mov	x23, x1
    4538:	aa1303e0 	mov	x0, x19
    453c:	f90057e1 	str	x1, [sp, #168]
    4540:	94000ad4 	bl	7090 <_localeconv_r>
    4544:	f9400800 	ldr	x0, [x0, #16]
    4548:	f9004fe0 	str	x0, [sp, #152]
    454c:	f10002ff 	cmp	x23, #0x0
    4550:	fa401804 	ccmp	x0, #0x0, #0x4, ne  // ne = any
    4554:	54003b80 	b.eq	4cc4 <_vfiprintf_r+0xeb4>  // b.none
    4558:	39400000 	ldrb	w0, [x0]
    455c:	32160381 	orr	w1, w28, #0x400
    4560:	7100001f 	cmp	w0, #0x0
    4564:	39400280 	ldrb	w0, [x20]
    4568:	1a9c103c 	csel	w28, w1, w28, ne  // ne = any
    456c:	17fffeaf 	b	4028 <_vfiprintf_r+0x218>
    4570:	39400280 	ldrb	w0, [x20]
    4574:	3200039c 	orr	w28, w28, #0x1
    4578:	17fffeac 	b	4028 <_vfiprintf_r+0x218>
    457c:	3943bfe1 	ldrb	w1, [sp, #239]
    4580:	39400280 	ldrb	w0, [x20]
    4584:	35ffd521 	cbnz	w1, 4028 <_vfiprintf_r+0x218>
    4588:	52800401 	mov	w1, #0x20                  	// #32
    458c:	3903bfe1 	strb	w1, [sp, #239]
    4590:	17fffea6 	b	4028 <_vfiprintf_r+0x218>
    4594:	b940b3e0 	ldr	w0, [sp, #176]
    4598:	372801bc 	tbnz	w28, #5, 45cc <_vfiprintf_r+0x7bc>
    459c:	3720019c 	tbnz	w28, #4, 45cc <_vfiprintf_r+0x7bc>
    45a0:	37306cfc 	tbnz	w28, #6, 533c <_vfiprintf_r+0x152c>
    45a4:	364889bc 	tbz	w28, #9, 56d8 <_vfiprintf_r+0x18c8>
    45a8:	37f89040 	tbnz	w0, #31, 57b0 <_vfiprintf_r+0x19a0>
    45ac:	f94037e0 	ldr	x0, [sp, #104]
    45b0:	91003c01 	add	x1, x0, #0xf
    45b4:	927df021 	and	x1, x1, #0xfffffffffffffff8
    45b8:	f90037e1 	str	x1, [sp, #104]
    45bc:	f9400000 	ldr	x0, [x0]
    45c0:	394193e1 	ldrb	w1, [sp, #100]
    45c4:	39000001 	strb	w1, [x0]
    45c8:	17fffe49 	b	3eec <_vfiprintf_r+0xdc>
    45cc:	37f84180 	tbnz	w0, #31, 4dfc <_vfiprintf_r+0xfec>
    45d0:	f94037e0 	ldr	x0, [sp, #104]
    45d4:	91003c01 	add	x1, x0, #0xf
    45d8:	927df021 	and	x1, x1, #0xfffffffffffffff8
    45dc:	f90037e1 	str	x1, [sp, #104]
    45e0:	f9400000 	ldr	x0, [x0]
    45e4:	b98067e1 	ldrsw	x1, [sp, #100]
    45e8:	f9000001 	str	x1, [x0]
    45ec:	17fffe40 	b	3eec <_vfiprintf_r+0xdc>
    45f0:	39400280 	ldrb	w0, [x20]
    45f4:	7101b01f 	cmp	w0, #0x6c
    45f8:	54005960 	b.eq	5124 <_vfiprintf_r+0x1314>  // b.none
    45fc:	321c039c 	orr	w28, w28, #0x10
    4600:	17fffe8a 	b	4028 <_vfiprintf_r+0x218>
    4604:	39400280 	ldrb	w0, [x20]
    4608:	7101a01f 	cmp	w0, #0x68
    460c:	54005840 	b.eq	5114 <_vfiprintf_r+0x1304>  // b.none
    4610:	321a039c 	orr	w28, w28, #0x40
    4614:	17fffe85 	b	4028 <_vfiprintf_r+0x218>
    4618:	39400280 	ldrb	w0, [x20]
    461c:	321b039c 	orr	w28, w28, #0x20
    4620:	17fffe82 	b	4028 <_vfiprintf_r+0x218>
    4624:	b940b3e0 	ldr	w0, [sp, #176]
    4628:	2a1603e4 	mov	w4, w22
    462c:	37f83ba0 	tbnz	w0, #31, 4da0 <_vfiprintf_r+0xf90>
    4630:	f94037e2 	ldr	x2, [sp, #104]
    4634:	91003c40 	add	x0, x2, #0xf
    4638:	927df000 	and	x0, x0, #0xfffffffffffffff8
    463c:	f90037e0 	str	x0, [sp, #104]
    4640:	528f0600 	mov	w0, #0x7830                	// #30768
    4644:	f0000021 	adrp	x1, b000 <pow10.0+0x80>
    4648:	9109c021 	add	x1, x1, #0x270
    464c:	321f0396 	orr	w22, w28, #0x2
    4650:	f90047e1 	str	x1, [sp, #136]
    4654:	7901e3e0 	strh	w0, [sp, #240]
    4658:	52800040 	mov	w0, #0x2                   	// #2
    465c:	f9400041 	ldr	x1, [x2]
    4660:	17ffff71 	b	4424 <_vfiprintf_r+0x614>
    4664:	910643fb 	add	x27, sp, #0x190
    4668:	93407ee0 	sxtw	x0, w23
    466c:	52800021 	mov	w1, #0x1                   	// #1
    4670:	b9011be1 	str	w1, [sp, #280]
    4674:	f90093e0 	str	x0, [sp, #288]
    4678:	a91903fa 	stp	x26, x0, [sp, #400]
    467c:	d503201f 	nop
    4680:	91004365 	add	x5, x27, #0x10
    4684:	17fffebb 	b	4170 <_vfiprintf_r+0x360>
    4688:	2a1c03f6 	mov	w22, w28
    468c:	d503201f 	nop
    4690:	7100041f 	cmp	w0, #0x1
    4694:	54002a20 	b.eq	4bd8 <_vfiprintf_r+0xdc8>  // b.none
    4698:	910633f7 	add	x23, sp, #0x18c
    469c:	aa1703fa 	mov	x26, x23
    46a0:	7100081f 	cmp	w0, #0x2
    46a4:	54000161 	b.ne	46d0 <_vfiprintf_r+0x8c0>  // b.any
    46a8:	f94047e2 	ldr	x2, [sp, #136]
    46ac:	d503201f 	nop
    46b0:	92400c20 	and	x0, x1, #0xf
    46b4:	d344fc21 	lsr	x1, x1, #4
    46b8:	38606840 	ldrb	w0, [x2, x0]
    46bc:	381fff40 	strb	w0, [x26, #-1]!
    46c0:	b5ffff81 	cbnz	x1, 46b0 <_vfiprintf_r+0x8a0>
    46c4:	4b1a02f7 	sub	w23, w23, w26
    46c8:	2a1603fc 	mov	w28, w22
    46cc:	17ffff65 	b	4460 <_vfiprintf_r+0x650>
    46d0:	12000820 	and	w0, w1, #0x7
    46d4:	aa1a03e2 	mov	x2, x26
    46d8:	1100c000 	add	w0, w0, #0x30
    46dc:	381fff40 	strb	w0, [x26, #-1]!
    46e0:	d343fc21 	lsr	x1, x1, #3
    46e4:	b5ffff61 	cbnz	x1, 46d0 <_vfiprintf_r+0x8c0>
    46e8:	7100c01f 	cmp	w0, #0x30
    46ec:	1a9f07e0 	cset	w0, ne  // ne = any
    46f0:	6a0002df 	tst	w22, w0
    46f4:	54fffe80 	b.eq	46c4 <_vfiprintf_r+0x8b4>  // b.none
    46f8:	d1000842 	sub	x2, x2, #0x2
    46fc:	52800600 	mov	w0, #0x30                  	// #48
    4700:	2a1603fc 	mov	w28, w22
    4704:	4b0202f7 	sub	w23, w23, w2
    4708:	381ff340 	sturb	w0, [x26, #-1]
    470c:	aa0203fa 	mov	x26, x2
    4710:	17ffff54 	b	4460 <_vfiprintf_r+0x650>
    4714:	b94063e2 	ldr	w2, [sp, #96]
    4718:	4b160058 	sub	w24, w2, w22
    471c:	7100031f 	cmp	w24, #0x0
    4720:	54ffd04d 	b.le	4128 <_vfiprintf_r+0x318>
    4724:	7100431f 	cmp	w24, #0x10
    4728:	540073cd 	b.le	55a0 <_vfiprintf_r+0x1790>
    472c:	2a0103e3 	mov	w3, w1
    4730:	f0000029 	adrp	x9, b000 <pow10.0+0x80>
    4734:	aa1403e1 	mov	x1, x20
    4738:	910dc129 	add	x9, x9, #0x370
    473c:	aa1303f4 	mov	x20, x19
    4740:	d2800208 	mov	x8, #0x10                  	// #16
    4744:	2a1803f3 	mov	w19, w24
    4748:	aa0103f8 	mov	x24, x1
    474c:	b90093e4 	str	w4, [sp, #144]
    4750:	b900b7f6 	str	w22, [sp, #180]
    4754:	aa1903f6 	mov	x22, x25
    4758:	aa0903f9 	mov	x25, x9
    475c:	14000007 	b	4778 <_vfiprintf_r+0x968>
    4760:	1100086a 	add	w10, w3, #0x2
    4764:	9100437b 	add	x27, x27, #0x10
    4768:	2a0203e3 	mov	w3, w2
    476c:	51004273 	sub	w19, w19, #0x10
    4770:	7100427f 	cmp	w19, #0x10
    4774:	540002cd 	b.le	47cc <_vfiprintf_r+0x9bc>
    4778:	91004000 	add	x0, x0, #0x10
    477c:	11000462 	add	w2, w3, #0x1
    4780:	a9002379 	stp	x25, x8, [x27]
    4784:	b9011be2 	str	w2, [sp, #280]
    4788:	f90093e0 	str	x0, [sp, #288]
    478c:	71001c5f 	cmp	w2, #0x7
    4790:	54fffe8d 	b.le	4760 <_vfiprintf_r+0x950>
    4794:	b4000d60 	cbz	x0, 4940 <_vfiprintf_r+0xb30>
    4798:	910443e2 	add	x2, sp, #0x110
    479c:	aa1603e1 	mov	x1, x22
    47a0:	aa1403e0 	mov	x0, x20
    47a4:	97fffd5b 	bl	3d10 <__sprint_r.part.0>
    47a8:	35004c60 	cbnz	w0, 5134 <_vfiprintf_r+0x1324>
    47ac:	b9411be3 	ldr	w3, [sp, #280]
    47b0:	51004273 	sub	w19, w19, #0x10
    47b4:	910643fb 	add	x27, sp, #0x190
    47b8:	d2800208 	mov	x8, #0x10                  	// #16
    47bc:	1100046a 	add	w10, w3, #0x1
    47c0:	f94093e0 	ldr	x0, [sp, #288]
    47c4:	7100427f 	cmp	w19, #0x10
    47c8:	54fffd8c 	b.gt	4778 <_vfiprintf_r+0x968>
    47cc:	aa1803e1 	mov	x1, x24
    47d0:	aa1903e9 	mov	x9, x25
    47d4:	b94093e4 	ldr	w4, [sp, #144]
    47d8:	aa1603f9 	mov	x25, x22
    47dc:	b940b7f6 	ldr	w22, [sp, #180]
    47e0:	2a1303f8 	mov	w24, w19
    47e4:	aa1403f3 	mov	x19, x20
    47e8:	aa0103f4 	mov	x20, x1
    47ec:	93407f01 	sxtw	x1, w24
    47f0:	a9000769 	stp	x9, x1, [x27]
    47f4:	8b010000 	add	x0, x0, x1
    47f8:	b9011bea 	str	w10, [sp, #280]
    47fc:	f90093e0 	str	x0, [sp, #288]
    4800:	71001d5f 	cmp	w10, #0x7
    4804:	5400258d 	b.le	4cb4 <_vfiprintf_r+0xea4>
    4808:	b4005920 	cbz	x0, 532c <_vfiprintf_r+0x151c>
    480c:	910443e2 	add	x2, sp, #0x110
    4810:	aa1903e1 	mov	x1, x25
    4814:	aa1303e0 	mov	x0, x19
    4818:	b90093e4 	str	w4, [sp, #144]
    481c:	97fffd3d 	bl	3d10 <__sprint_r.part.0>
    4820:	35ffd060 	cbnz	w0, 422c <_vfiprintf_r+0x41c>
    4824:	b94093e4 	ldr	w4, [sp, #144]
    4828:	910643fb 	add	x27, sp, #0x190
    482c:	b9411be1 	ldr	w1, [sp, #280]
    4830:	4b170098 	sub	w24, w4, w23
    4834:	11000428 	add	w8, w1, #0x1
    4838:	f94093e0 	ldr	x0, [sp, #288]
    483c:	7100031f 	cmp	w24, #0x0
    4840:	54ffc7ad 	b.le	4134 <_vfiprintf_r+0x324>
    4844:	d503201f 	nop
    4848:	f0000029 	adrp	x9, b000 <pow10.0+0x80>
    484c:	910dc129 	add	x9, x9, #0x370
    4850:	7100431f 	cmp	w24, #0x10
    4854:	540004ed 	b.le	48f0 <_vfiprintf_r+0xae0>
    4858:	2a0103e3 	mov	w3, w1
    485c:	d2800204 	mov	x4, #0x10                  	// #16
    4860:	f9004bf4 	str	x20, [sp, #144]
    4864:	aa1903f4 	mov	x20, x25
    4868:	aa1303f9 	mov	x25, x19
    486c:	aa0903f3 	mov	x19, x9
    4870:	14000007 	b	488c <_vfiprintf_r+0xa7c>
    4874:	11000868 	add	w8, w3, #0x2
    4878:	9100437b 	add	x27, x27, #0x10
    487c:	2a0203e3 	mov	w3, w2
    4880:	51004318 	sub	w24, w24, #0x10
    4884:	7100431f 	cmp	w24, #0x10
