
XiZi-3568.elf:     file format elf64-littleaarch64


Disassembly of section .start_sec:

0000000010000000 <_boot_start>:
    10000000:	9400001d 	bl	10000074 <el2_setup>
    10000004:	d2a00600 	mov	x0, #0x300000              	// #3145728
    10000008:	d5181040 	msr	cpacr_el1, x0
    1000000c:	d5033fdf 	isb
    10000010:	d518403f 	msr	elr_el1, xzr
    10000014:	580006a0 	ldr	x0, 100000e8 <el2_setup+0x74>
    10000018:	d2820001 	mov	x1, #0x1000                	// #4096
    1000001c:	d53800a2 	mrs	x2, mpidr_el1
    10000020:	92400442 	and	x2, x2, #0x3
    10000024:	aa0203e5 	mov	x5, x2
    10000028:	9b017c43 	mul	x3, x2, x1
    1000002c:	cb030000 	sub	x0, x0, x3
    10000030:	9100001f 	mov	sp, x0
    10000034:	d28018a2 	mov	x2, #0xc5                  	// #197
    10000038:	d5184002 	msr	spsr_el1, x2
    1000003c:	d53800a2 	mrs	x2, mpidr_el1
    10000040:	92400442 	and	x2, x2, #0x3
    10000044:	aa0203e5 	mov	x5, x2
    10000048:	f10000bf 	cmp	x5, #0x0
    1000004c:	54000060 	b.eq	10000058 <primary_cpu_init>  // b.none
    10000050:	940000e4 	bl	100003e0 <bootmain>
    10000054:	94000000 	bl	10000054 <_boot_start+0x54>

0000000010000058 <primary_cpu_init>:
    10000058:	580004c1 	ldr	x1, 100000f0 <el2_setup+0x7c>
    1000005c:	580004e2 	ldr	x2, 100000f8 <el2_setup+0x84>
    10000060:	d2800003 	mov	x3, #0x0                   	// #0
    10000064:	eb02003f 	cmp	x1, x2
    10000068:	a8810c23 	stp	x3, x3, [x1], #16
    1000006c:	54ffffcb 	b.lt	10000064 <primary_cpu_init+0xc>  // b.tstop
    10000070:	940000dc 	bl	100003e0 <bootmain>

0000000010000074 <el2_setup>:
    10000074:	d5384240 	mrs	x0, currentel
    10000078:	d342fc00 	lsr	x0, x0, #2
    1000007c:	92400400 	and	x0, x0, #0x3
    10000080:	f100081f 	cmp	x0, #0x2
    10000084:	54000040 	b.eq	1000008c <el2_setup+0x18>  // b.none
    10000088:	d65f03c0 	ret
    1000008c:	d2b00000 	mov	x0, #0x80000000            	// #2147483648
    10000090:	d51c1100 	msr	hcr_el2, x0
    10000094:	d53ce100 	mrs	x0, cnthctl_el2
    10000098:	b2400400 	orr	x0, x0, #0x3
    1000009c:	d51ce100 	msr	cnthctl_el2, x0
    100000a0:	d5380000 	mrs	x0, midr_el1
    100000a4:	d53800a1 	mrs	x1, mpidr_el1
    100000a8:	d51c0000 	msr	vpidr_el2, x0
    100000ac:	d51c00a1 	msr	vmpidr_el2, x1
    100000b0:	d2867fe0 	mov	x0, #0x33ff                	// #13311
    100000b4:	d51c1140 	msr	cptr_el2, x0
    100000b8:	d51c117f 	msr	hstr_el2, xzr
    100000bc:	910003e0 	mov	x0, sp
    100000c0:	d51c4100 	msr	sp_el1, x0
    100000c4:	d5381000 	mrs	x0, sctlr_el1
    100000c8:	b2400000 	orr	x0, x0, #0x1
    100000cc:	927ef800 	and	x0, x0, #0xfffffffffffffffd
    100000d0:	b27e0000 	orr	x0, x0, #0x4
    100000d4:	d5181000 	msr	sctlr_el1, x0
    100000d8:	d28038a0 	mov	x0, #0x1c5                 	// #453
    100000dc:	d51c4000 	msr	spsr_el2, x0
    100000e0:	d51c403e 	msr	elr_el2, x30
    100000e4:	d69f03e0 	eret
    100000e8:	10409000 	.word	0x10409000
    100000ec:	00000000 	.word	0x00000000
    100000f0:	10000498 	.word	0x10000498
    100000f4:	00000000 	.word	0x00000000
    100000f8:	10409000 	.word	0x10409000
    100000fc:	00000000 	.word	0x00000000

0000000010000100 <build_boot_pgdir>:

uint64_t boot_dev_l4pgdirs[NUM_LEVEL3_PDE][NUM_LEVEL4_PTE] __attribute__((aligned(0x1000))) = { 0 };
uint64_t boot_kern_l4pgdirs[NUM_LEVEL3_PDE][NUM_LEVEL4_PTE] __attribute__((aligned(0x1000))) = { 0 };

static void build_boot_pgdir()
{
    10000100:	d100c3ff 	sub	sp, sp, #0x30
    static bool built = false;
    if (!built) {
    10000104:	90002020 	adrp	x0, 10404000 <_bss_inited>
    10000108:	91000400 	add	x0, x0, #0x1
    1000010c:	39400000 	ldrb	w0, [x0]
    10000110:	52000000 	eor	w0, w0, #0x1
    10000114:	12001c00 	and	w0, w0, #0xff
    10000118:	7100001f 	cmp	w0, #0x0
    1000011c:	540012c0 	b.eq	10000374 <build_boot_pgdir+0x274>  // b.none
        uint64_t dev_phy_mem_base = DEV_PHYMEM_BASE;
    10000120:	d2be0000 	mov	x0, #0xf0000000            	// #4026531840
    10000124:	f90003e0 	str	x0, [sp]

        // dev mem
        boot_l2pgdir[(dev_phy_mem_base >> LEVEL2_PDE_SHIFT) & IDX_MASK] = (uint64_t)boot_dev_l3pgdir | L2_TYPE_TAB | L2_PTE_VALID;
    10000128:	f000aa00 	adrp	x0, 11543000 <boot_end_addr+0x113a000>
    1000012c:	f9428c00 	ldr	x0, [x0, #1304]
    10000130:	f94003e1 	ldr	x1, [sp]
    10000134:	d35efc21 	lsr	x1, x1, #30
    10000138:	92402021 	and	x1, x1, #0x1ff
    1000013c:	b2400402 	orr	x2, x0, #0x3
    10000140:	f000aa00 	adrp	x0, 11543000 <boot_end_addr+0x113a000>
    10000144:	f942e000 	ldr	x0, [x0, #1472]
    10000148:	f8217802 	str	x2, [x0, x1, lsl #3]
        boot_l2pgdir[(MMIO_P2V_WO(dev_phy_mem_base) >> LEVEL2_PDE_SHIFT) & IDX_MASK] = (uint64_t)boot_dev_l3pgdir | L2_TYPE_TAB | L2_PTE_VALID;
    1000014c:	f000aa00 	adrp	x0, 11543000 <boot_end_addr+0x113a000>
    10000150:	f9428c00 	ldr	x0, [x0, #1304]
    10000154:	f94003e2 	ldr	x2, [sp]
    10000158:	d2c00801 	mov	x1, #0x4000000000          	// #274877906944
    1000015c:	8b010041 	add	x1, x2, x1
    10000160:	d35efc21 	lsr	x1, x1, #30
    10000164:	92402021 	and	x1, x1, #0x1ff
    10000168:	b2400402 	orr	x2, x0, #0x3
    1000016c:	f000aa00 	adrp	x0, 11543000 <boot_end_addr+0x113a000>
    10000170:	f942e000 	ldr	x0, [x0, #1472]
    10000174:	f8217802 	str	x2, [x0, x1, lsl #3]

        uint64_t cur_mem_paddr = ALIGNDOWN((uint64_t)DEV_PHYMEM_BASE, LEVEL2_PDE_SIZE);
    10000178:	d2b80000 	mov	x0, #0xc0000000            	// #3221225472
    1000017c:	f90017e0 	str	x0, [sp, #40]
        for (size_t i = 0; i < NUM_LEVEL3_PDE; i++) {
    10000180:	f90013ff 	str	xzr, [sp, #32]
    10000184:	14000041 	b	10000288 <build_boot_pgdir+0x188>
            boot_dev_l3pgdir[i] = (uint64_t)boot_dev_l4pgdirs[i] | L3_TYPE_TAB | L3_PTE_VALID;
    10000188:	f94013e0 	ldr	x0, [sp, #32]
    1000018c:	d374cc01 	lsl	x1, x0, #12
    10000190:	f000aa00 	adrp	x0, 11543000 <boot_end_addr+0x113a000>
    10000194:	f942b800 	ldr	x0, [x0, #1392]
    10000198:	8b000020 	add	x0, x1, x0
    1000019c:	b2400402 	orr	x2, x0, #0x3
    100001a0:	f000aa00 	adrp	x0, 11543000 <boot_end_addr+0x113a000>
    100001a4:	f9428c00 	ldr	x0, [x0, #1304]
    100001a8:	f94013e1 	ldr	x1, [sp, #32]
    100001ac:	f8217802 	str	x2, [x0, x1, lsl #3]

            for (size_t j = 0; j < NUM_LEVEL4_PTE; j++) {
    100001b0:	f9000fff 	str	xzr, [sp, #24]
    100001b4:	1400002f 	b	10000270 <build_boot_pgdir+0x170>
                boot_dev_l4pgdirs[i][j] = cur_mem_paddr | L4_TYPE_PAGE | L4_PTE_DEV | L4_PTE_AF | L4_PTE_XN;
    100001b8:	f94017e1 	ldr	x1, [sp, #40]
    100001bc:	d2808060 	mov	x0, #0x403                 	// #1027
    100001c0:	f2e00c00 	movk	x0, #0x60, lsl #48
    100001c4:	aa000022 	orr	x2, x1, x0
    100001c8:	f000aa00 	adrp	x0, 11543000 <boot_end_addr+0x113a000>
    100001cc:	f942b800 	ldr	x0, [x0, #1392]
    100001d0:	f94013e1 	ldr	x1, [sp, #32]
    100001d4:	d377d823 	lsl	x3, x1, #9
    100001d8:	f9400fe1 	ldr	x1, [sp, #24]
    100001dc:	8b010061 	add	x1, x3, x1
    100001e0:	f8217802 	str	x2, [x0, x1, lsl #3]
                if (cur_mem_paddr >= DEV_PHYMEM_BASE && cur_mem_paddr < DEV_PHYMEM_BASE + DEV_MEM_SIZE) {
    100001e4:	f94017e1 	ldr	x1, [sp, #40]
    100001e8:	12a20000 	mov	w0, #0xefffffff            	// #-268435457
    100001ec:	eb00003f 	cmp	x1, x0
    100001f0:	54000209 	b.ls	10000230 <build_boot_pgdir+0x130>  // b.plast
    100001f4:	f94017e1 	ldr	x1, [sp, #40]
    100001f8:	b2407fe0 	mov	x0, #0xffffffff            	// #4294967295
    100001fc:	eb00003f 	cmp	x1, x0
    10000200:	54000188 	b.hi	10000230 <build_boot_pgdir+0x130>  // b.pmore
                    boot_dev_l4pgdirs[i][j] = cur_mem_paddr | 0x403;
    10000204:	f94017e1 	ldr	x1, [sp, #40]
    10000208:	d2808060 	mov	x0, #0x403                 	// #1027
    1000020c:	aa000022 	orr	x2, x1, x0
    10000210:	f000aa00 	adrp	x0, 11543000 <boot_end_addr+0x113a000>
    10000214:	f942b800 	ldr	x0, [x0, #1392]
    10000218:	f94013e1 	ldr	x1, [sp, #32]
    1000021c:	d377d823 	lsl	x3, x1, #9
    10000220:	f9400fe1 	ldr	x1, [sp, #24]
    10000224:	8b010061 	add	x1, x3, x1
    10000228:	f8217802 	str	x2, [x0, x1, lsl #3]
    1000022c:	1400000b 	b	10000258 <build_boot_pgdir+0x158>
                } else {
                    // boot_dev_l4pgdirs[i][j] = cur_mem_paddr | 0x713;
                    boot_dev_l4pgdirs[i][j] = cur_mem_paddr | 0x403;
    10000230:	f94017e1 	ldr	x1, [sp, #40]
    10000234:	d2808060 	mov	x0, #0x403                 	// #1027
    10000238:	aa000022 	orr	x2, x1, x0
    1000023c:	f000aa00 	adrp	x0, 11543000 <boot_end_addr+0x113a000>
    10000240:	f942b800 	ldr	x0, [x0, #1392]
    10000244:	f94013e1 	ldr	x1, [sp, #32]
    10000248:	d377d823 	lsl	x3, x1, #9
    1000024c:	f9400fe1 	ldr	x1, [sp, #24]
    10000250:	8b010061 	add	x1, x3, x1
    10000254:	f8217802 	str	x2, [x0, x1, lsl #3]
                }

                cur_mem_paddr += PAGE_SIZE;
    10000258:	f94017e0 	ldr	x0, [sp, #40]
    1000025c:	91400400 	add	x0, x0, #0x1, lsl #12
    10000260:	f90017e0 	str	x0, [sp, #40]
            for (size_t j = 0; j < NUM_LEVEL4_PTE; j++) {
    10000264:	f9400fe0 	ldr	x0, [sp, #24]
    10000268:	91000400 	add	x0, x0, #0x1
    1000026c:	f9000fe0 	str	x0, [sp, #24]
    10000270:	f9400fe0 	ldr	x0, [sp, #24]
    10000274:	f107fc1f 	cmp	x0, #0x1ff
    10000278:	54fffa09 	b.ls	100001b8 <build_boot_pgdir+0xb8>  // b.plast
        for (size_t i = 0; i < NUM_LEVEL3_PDE; i++) {
    1000027c:	f94013e0 	ldr	x0, [sp, #32]
    10000280:	91000400 	add	x0, x0, #0x1
    10000284:	f90013e0 	str	x0, [sp, #32]
    10000288:	f94013e0 	ldr	x0, [sp, #32]
    1000028c:	f107fc1f 	cmp	x0, #0x1ff
    10000290:	54fff7c9 	b.ls	10000188 <build_boot_pgdir+0x88>  // b.plast
            // }
            // cur_mem_paddr += PAGE_SIZE * 0x200;
        }

        // identical mem
        boot_l2pgdir[(PHY_MEM_BASE >> LEVEL2_PDE_SHIFT) & IDX_MASK] = (uint64_t)boot_kern_l3pgdir | L2_TYPE_TAB | L2_PTE_VALID;
    10000294:	f000aa00 	adrp	x0, 11543000 <boot_end_addr+0x113a000>
    10000298:	f942b400 	ldr	x0, [x0, #1384]
    1000029c:	b2400401 	orr	x1, x0, #0x3
    100002a0:	f000aa00 	adrp	x0, 11543000 <boot_end_addr+0x113a000>
    100002a4:	f942e000 	ldr	x0, [x0, #1472]
    100002a8:	f9000001 	str	x1, [x0]
        boot_l2pgdir[(P2V_WO(PHY_MEM_BASE) >> LEVEL2_PDE_SHIFT) & IDX_MASK] = (uint64_t)boot_kern_l3pgdir | L2_TYPE_TAB | L2_PTE_VALID;
    100002ac:	f000aa00 	adrp	x0, 11543000 <boot_end_addr+0x113a000>
    100002b0:	f942b400 	ldr	x0, [x0, #1384]
    100002b4:	b2400401 	orr	x1, x0, #0x3
    100002b8:	f000aa00 	adrp	x0, 11543000 <boot_end_addr+0x113a000>
    100002bc:	f942e000 	ldr	x0, [x0, #1472]
    100002c0:	f9060001 	str	x1, [x0, #3072]

        cur_mem_paddr = ALIGNDOWN((uint64_t)0x00000000ULL, PAGE_SIZE);
    100002c4:	f90017ff 	str	xzr, [sp, #40]
        for (size_t i = 0; i < NUM_LEVEL3_PDE; i++) {
    100002c8:	f9000bff 	str	xzr, [sp, #16]
    100002cc:	14000023 	b	10000358 <build_boot_pgdir+0x258>
            boot_kern_l3pgdir[i] = (uint64_t)boot_kern_l4pgdirs[i] | L3_TYPE_TAB | L3_PTE_VALID;
    100002d0:	f9400be0 	ldr	x0, [sp, #16]
    100002d4:	d374cc01 	lsl	x1, x0, #12
    100002d8:	f000aa00 	adrp	x0, 11543000 <boot_end_addr+0x113a000>
    100002dc:	f942f000 	ldr	x0, [x0, #1504]
    100002e0:	8b000020 	add	x0, x1, x0
    100002e4:	b2400402 	orr	x2, x0, #0x3
    100002e8:	f000aa00 	adrp	x0, 11543000 <boot_end_addr+0x113a000>
    100002ec:	f942b400 	ldr	x0, [x0, #1384]
    100002f0:	f9400be1 	ldr	x1, [sp, #16]
    100002f4:	f8217802 	str	x2, [x0, x1, lsl #3]

            for (size_t j = 0; j < NUM_LEVEL4_PTE; j++) {
    100002f8:	f90007ff 	str	xzr, [sp, #8]
    100002fc:	14000011 	b	10000340 <build_boot_pgdir+0x240>
                // boot_kern_l4pgdirs[i][j] = cur_mem_paddr | L4_TYPE_PAGE | L4_PTE_NORMAL | L4_PTE_AF;
                boot_kern_l4pgdirs[i][j] = cur_mem_paddr | 0x713;
    10000300:	f94017e1 	ldr	x1, [sp, #40]
    10000304:	d280e260 	mov	x0, #0x713                 	// #1811
    10000308:	aa000022 	orr	x2, x1, x0
    1000030c:	f000aa00 	adrp	x0, 11543000 <boot_end_addr+0x113a000>
    10000310:	f942f000 	ldr	x0, [x0, #1504]
    10000314:	f9400be1 	ldr	x1, [sp, #16]
    10000318:	d377d823 	lsl	x3, x1, #9
    1000031c:	f94007e1 	ldr	x1, [sp, #8]
    10000320:	8b010061 	add	x1, x3, x1
    10000324:	f8217802 	str	x2, [x0, x1, lsl #3]

                cur_mem_paddr += PAGE_SIZE;
    10000328:	f94017e0 	ldr	x0, [sp, #40]
    1000032c:	91400400 	add	x0, x0, #0x1, lsl #12
    10000330:	f90017e0 	str	x0, [sp, #40]
            for (size_t j = 0; j < NUM_LEVEL4_PTE; j++) {
    10000334:	f94007e0 	ldr	x0, [sp, #8]
    10000338:	91000400 	add	x0, x0, #0x1
    1000033c:	f90007e0 	str	x0, [sp, #8]
    10000340:	f94007e0 	ldr	x0, [sp, #8]
    10000344:	f107fc1f 	cmp	x0, #0x1ff
    10000348:	54fffdc9 	b.ls	10000300 <build_boot_pgdir+0x200>  // b.plast
        for (size_t i = 0; i < NUM_LEVEL3_PDE; i++) {
    1000034c:	f9400be0 	ldr	x0, [sp, #16]
    10000350:	91000400 	add	x0, x0, #0x1
    10000354:	f9000be0 	str	x0, [sp, #16]
    10000358:	f9400be0 	ldr	x0, [sp, #16]
    1000035c:	f107fc1f 	cmp	x0, #0x1ff
    10000360:	54fffb89 	b.ls	100002d0 <build_boot_pgdir+0x1d0>  // b.plast
            }
        }

        built = true;
    10000364:	90002020 	adrp	x0, 10404000 <_bss_inited>
    10000368:	91000400 	add	x0, x0, #0x1
    1000036c:	52800021 	mov	w1, #0x1                   	// #1
    10000370:	39000001 	strb	w1, [x0]
    }
}
    10000374:	d503201f 	nop
    10000378:	9100c3ff 	add	sp, sp, #0x30
    1000037c:	d65f03c0 	ret

0000000010000380 <load_boot_pgdir>:

#include "log.h"

static void load_boot_pgdir()
{
    10000380:	d10043ff 	sub	sp, sp, #0x10

    TTBR0_W((uintptr_t)boot_l2pgdir);
    10000384:	f000aa00 	adrp	x0, 11543000 <boot_end_addr+0x113a000>
    10000388:	f942e000 	ldr	x0, [x0, #1472]
    1000038c:	d5182000 	msr	ttbr0_el1, x0
    TTBR1_W(0);
    10000390:	52800000 	mov	w0, #0x0                   	// #0
    10000394:	d5182020 	msr	ttbr1_el1, x0

#define TCR_TRUE_VALUE (0x0000000080813519ULL)
    uint64_t tcr = 0;
    10000398:	f90007ff 	str	xzr, [sp, #8]
    TCR_R(tcr);
    1000039c:	d5382040 	mrs	x0, tcr_el1
    100003a0:	f90007e0 	str	x0, [sp, #8]
    tcr &= (uint64_t)~0xFF;
    100003a4:	f94007e0 	ldr	x0, [sp, #8]
    100003a8:	9278dc00 	and	x0, x0, #0xffffffffffffff00
    100003ac:	f90007e0 	str	x0, [sp, #8]
    tcr |= 0x19;
    100003b0:	f94007e1 	ldr	x1, [sp, #8]
    100003b4:	d2800320 	mov	x0, #0x19                  	// #25
    100003b8:	aa000020 	orr	x0, x1, x0
    100003bc:	f90007e0 	str	x0, [sp, #8]
    TCR_W(tcr);
    100003c0:	f94007e0 	ldr	x0, [sp, #8]
    100003c4:	d5182040 	msr	tcr_el1, x0
    // debug_printf_("pgdir[%d] = %p\r\n", 384, boot_l2pgdir[384]);
    // debug_printf_("test upper address: %x\r\n", *(uintptr_t*)P2V(boot_l2pgdir));

    // flush all TLB
    // debug_printf_("Flushing TLB.\r\n");
    DSB();
    100003c8:	d5033b9f 	dsb	ish
    CLEARTLB(0);
    100003cc:	d508831f 	tlbi	vmalle1is
    ISB();
    100003d0:	d5033fdf 	isb
}
    100003d4:	d503201f 	nop
    100003d8:	910043ff 	add	sp, sp, #0x10
    100003dc:	d65f03c0 	ret

00000000100003e0 <bootmain>:
}

extern void main(void);
static bool _bss_inited = false;
void bootmain()
{
    100003e0:	a9bf7bfd 	stp	x29, x30, [sp, #-16]!
    100003e4:	910003fd 	mov	x29, sp
    build_boot_pgdir();
    100003e8:	97ffff46 	bl	10000100 <build_boot_pgdir>
    load_boot_pgdir();
    100003ec:	97ffffe5 	bl	10000380 <load_boot_pgdir>
    __asm__ __volatile__("add sp, sp, %0" ::"r"(KERN_OFFSET));
    100003f0:	d2c00c00 	mov	x0, #0x6000000000          	// #412316860416
    100003f4:	8b2063ff 	add	sp, sp, x0
    if (!_bss_inited) {
    100003f8:	90002020 	adrp	x0, 10404000 <_bss_inited>
    100003fc:	91000000 	add	x0, x0, #0x0
    10000400:	39400000 	ldrb	w0, [x0]
    10000404:	52000000 	eor	w0, w0, #0x1
    10000408:	12001c00 	and	w0, w0, #0xff
    1000040c:	7100001f 	cmp	w0, #0x0
    10000410:	540001e0 	b.eq	1000044c <bootmain+0x6c>  // b.none
        memset(&kernel_data_begin, 0x00, (size_t)((uint64_t)kernel_data_end - (uint64_t)kernel_data_begin));
    10000414:	f000aa00 	adrp	x0, 11543000 <boot_end_addr+0x113a000>
    10000418:	f942c001 	ldr	x1, [x0, #1408]
    1000041c:	f000aa00 	adrp	x0, 11543000 <boot_end_addr+0x113a000>
    10000420:	f942d800 	ldr	x0, [x0, #1456]
    10000424:	cb000020 	sub	x0, x1, x0
    10000428:	aa0003e2 	mov	x2, x0
    1000042c:	52800001 	mov	w1, #0x0                   	// #0
    10000430:	f000aa00 	adrp	x0, 11543000 <boot_end_addr+0x113a000>
    10000434:	f942d800 	ldr	x0, [x0, #1456]
    10000438:	9400000c 	bl	10000468 <__memset_veneer>
        _bss_inited = true;
    1000043c:	90002020 	adrp	x0, 10404000 <_bss_inited>
    10000440:	91000000 	add	x0, x0, #0x0
    10000444:	52800021 	mov	w1, #0x1                   	// #1
    10000448:	39000001 	strb	w1, [x0]
    }
    main();
    1000044c:	9400000d 	bl	10000480 <__main_veneer>
    10000450:	d503201f 	nop
    10000454:	a8c17bfd 	ldp	x29, x30, [sp], #16
    10000458:	d65f03c0 	ret
    1000045c:	00000000 	udf	#0
    10000460:	1400000e 	b	10000498 <boot_start_addr>
    10000464:	d503201f 	nop

0000000010000468 <__memset_veneer>:
    10000468:	58000090 	ldr	x16, 10000478 <__memset_veneer+0x10>
    1000046c:	10000011 	adr	x17, 1000046c <__memset_veneer+0x4>
    10000470:	8b110210 	add	x16, x16, x17
    10000474:	d61f0200 	br	x16
    10000478:	0040de54 	.word	0x0040de54
    1000047c:	00000060 	.word	0x00000060

0000000010000480 <__main_veneer>:
    10000480:	58000090 	ldr	x16, 10000490 <__main_veneer+0x10>
    10000484:	10000011 	adr	x17, 10000484 <__main_veneer+0x4>
    10000488:	8b110210 	add	x16, x16, x17
    1000048c:	d61f0200 	br	x16
    10000490:	0041fa14 	.word	0x0041fa14
    10000494:	00000060 	.word	0x00000060

0000000010000498 <boot_start_addr>:
	...

0000000010001000 <boot_l2pgdir>:
	...

0000000010002000 <boot_dev_l3pgdir>:
	...

0000000010003000 <boot_kern_l3pgdir>:
	...

0000000010004000 <boot_dev_l4pgdirs>:
	...

0000000010204000 <boot_kern_l4pgdirs>:
	...

0000000010404000 <_bss_inited>:
	...

0000000010404001 <built.0>:
	...

Disassembly of section .text:

000000601040e000 <deregister_tm_clones>:
  601040e000:	b00089a0 	adrp	x0, 6011543000 <_binary_default_fs_start+0x96000>
  601040e004:	91144000 	add	x0, x0, #0x510
  601040e008:	b00089a1 	adrp	x1, 6011543000 <_binary_default_fs_start+0x96000>
  601040e00c:	91144021 	add	x1, x1, #0x510
  601040e010:	eb00003f 	cmp	x1, x0
  601040e014:	540000c0 	b.eq	601040e02c <deregister_tm_clones+0x2c>  // b.none
  601040e018:	d0000081 	adrp	x1, 6010420000 <main+0x168>
  601040e01c:	f9444421 	ldr	x1, [x1, #2184]
  601040e020:	b4000061 	cbz	x1, 601040e02c <deregister_tm_clones+0x2c>
  601040e024:	aa0103f0 	mov	x16, x1
  601040e028:	d61f0200 	br	x16
  601040e02c:	d65f03c0 	ret

000000601040e030 <register_tm_clones>:
  601040e030:	b00089a0 	adrp	x0, 6011543000 <_binary_default_fs_start+0x96000>
  601040e034:	91144000 	add	x0, x0, #0x510
  601040e038:	b00089a1 	adrp	x1, 6011543000 <_binary_default_fs_start+0x96000>
  601040e03c:	91144021 	add	x1, x1, #0x510
  601040e040:	cb000021 	sub	x1, x1, x0
  601040e044:	d37ffc22 	lsr	x2, x1, #63
  601040e048:	8b810c41 	add	x1, x2, x1, asr #3
  601040e04c:	9341fc21 	asr	x1, x1, #1
  601040e050:	b40000c1 	cbz	x1, 601040e068 <register_tm_clones+0x38>
  601040e054:	d0000082 	adrp	x2, 6010420000 <main+0x168>
  601040e058:	f9444842 	ldr	x2, [x2, #2192]
  601040e05c:	b4000062 	cbz	x2, 601040e068 <register_tm_clones+0x38>
  601040e060:	aa0203f0 	mov	x16, x2
  601040e064:	d61f0200 	br	x16
  601040e068:	d65f03c0 	ret
  601040e06c:	00000000 	udf	#0

000000601040e070 <__do_global_dtors_aux>:
  601040e070:	a9be7bfd 	stp	x29, x30, [sp, #-32]!
  601040e074:	910003fd 	mov	x29, sp
  601040e078:	f9000bf3 	str	x19, [sp, #16]
  601040e07c:	b00089b3 	adrp	x19, 6011543000 <_binary_default_fs_start+0x96000>
  601040e080:	39588260 	ldrb	w0, [x19, #1568]
  601040e084:	35000140 	cbnz	w0, 601040e0ac <__do_global_dtors_aux+0x3c>
  601040e088:	97ffffde 	bl	601040e000 <deregister_tm_clones>
  601040e08c:	d0000080 	adrp	x0, 6010420000 <main+0x168>
  601040e090:	f9444c00 	ldr	x0, [x0, #2200]
  601040e094:	b4000080 	cbz	x0, 601040e0a4 <__do_global_dtors_aux+0x34>
  601040e098:	d0000080 	adrp	x0, 6010420000 <main+0x168>
  601040e09c:	91221000 	add	x0, x0, #0x884
  601040e0a0:	d503201f 	nop
  601040e0a4:	52800020 	mov	w0, #0x1                   	// #1
  601040e0a8:	39188260 	strb	w0, [x19, #1568]
  601040e0ac:	f9400bf3 	ldr	x19, [sp, #16]
  601040e0b0:	a8c27bfd 	ldp	x29, x30, [sp], #32
  601040e0b4:	d65f03c0 	ret
	...

000000601040e0c0 <frame_dummy>:
  601040e0c0:	d0000080 	adrp	x0, 6010420000 <main+0x168>
  601040e0c4:	f9445000 	ldr	x0, [x0, #2208]
  601040e0c8:	b4000140 	cbz	x0, 601040e0f0 <frame_dummy+0x30>
  601040e0cc:	a9bf7bfd 	stp	x29, x30, [sp, #-16]!
  601040e0d0:	b00089a1 	adrp	x1, 6011543000 <_binary_default_fs_start+0x96000>
  601040e0d4:	d0000080 	adrp	x0, 6010420000 <main+0x168>
  601040e0d8:	910003fd 	mov	x29, sp
  601040e0dc:	9118a021 	add	x1, x1, #0x628
  601040e0e0:	91221000 	add	x0, x0, #0x884
  601040e0e4:	d503201f 	nop
  601040e0e8:	a8c17bfd 	ldp	x29, x30, [sp], #16
  601040e0ec:	17ffffd1 	b	601040e030 <register_tm_clones>
  601040e0f0:	17ffffd0 	b	601040e030 <register_tm_clones>
  601040e0f4:	00000000 	udf	#0

000000601040e0f8 <_mainCRTStartup>:
  601040e0f8:	58000281 	ldr	x1, 601040e148 <_cpu_init_hook+0x4>
  601040e0fc:	927cec20 	and	x0, x1, #0xfffffffffffffff0
  601040e100:	9100001f 	mov	sp, x0
  601040e104:	d280001d 	mov	x29, #0x0                   	// #0
  601040e108:	a9bf77fd 	stp	x29, x29, [sp, #-16]!
  601040e10c:	910003fd 	mov	x29, sp
  601040e110:	9400000d 	bl	601040e144 <_cpu_init_hook>
  601040e114:	580001e0 	ldr	x0, 601040e150 <_cpu_init_hook+0xc>
  601040e118:	52800001 	mov	w1, #0x0                   	// #0
  601040e11c:	580001e2 	ldr	x2, 601040e158 <_cpu_init_hook+0x14>
  601040e120:	cb000042 	sub	x2, x2, x0
  601040e124:	94000067 	bl	601040e2c0 <memset>
  601040e128:	580001c0 	ldr	x0, 601040e160 <_cpu_init_hook+0x1c>
  601040e12c:	94000011 	bl	601040e170 <atexit>
  601040e130:	9400003c 	bl	601040e220 <__libc_init_array>
  601040e134:	d2800000 	mov	x0, #0x0                   	// #0
  601040e138:	d2800001 	mov	x1, #0x0                   	// #0
  601040e13c:	94004757 	bl	601041fe98 <main>
  601040e140:	14000014 	b	601040e190 <exit>

000000601040e144 <_cpu_init_hook>:
  601040e144:	d65f03c0 	ret
	...
  601040e150:	11543620 	.word	0x11543620
  601040e154:	00000060 	.word	0x00000060
  601040e158:	11b47000 	.word	0x11b47000
  601040e15c:	00000060 	.word	0x00000060
  601040e160:	1040e1d0 	.word	0x1040e1d0
  601040e164:	00000060 	.word	0x00000060
	...

000000601040e170 <atexit>:
  601040e170:	aa0003e1 	mov	x1, x0
  601040e174:	d2800003 	mov	x3, #0x0                   	// #0
  601040e178:	d2800002 	mov	x2, #0x0                   	// #0
  601040e17c:	52800000 	mov	w0, #0x0                   	// #0
  601040e180:	140000c8 	b	601040e4a0 <__register_exitproc>
	...

000000601040e190 <exit>:
  601040e190:	a9be7bfd 	stp	x29, x30, [sp, #-32]!
  601040e194:	d2800001 	mov	x1, #0x0                   	// #0
  601040e198:	910003fd 	mov	x29, sp
  601040e19c:	f9000bf3 	str	x19, [sp, #16]
  601040e1a0:	2a0003f3 	mov	w19, w0
  601040e1a4:	940000e7 	bl	601040e540 <__call_exitprocs>
  601040e1a8:	d0000080 	adrp	x0, 6010420000 <main+0x168>
  601040e1ac:	f9446c00 	ldr	x0, [x0, #2264]
  601040e1b0:	f9402c01 	ldr	x1, [x0, #88]
  601040e1b4:	b4000041 	cbz	x1, 601040e1bc <exit+0x2c>
  601040e1b8:	d63f0020 	blr	x1
  601040e1bc:	2a1303e0 	mov	w0, w19
  601040e1c0:	94004808 	bl	60104201e0 <_exit>
	...

000000601040e1d0 <__libc_fini_array>:
  601040e1d0:	a9be7bfd 	stp	x29, x30, [sp, #-32]!
  601040e1d4:	d0000081 	adrp	x1, 6010420000 <main+0x168>
  601040e1d8:	d0000080 	adrp	x0, 6010420000 <main+0x168>
  601040e1dc:	910003fd 	mov	x29, sp
  601040e1e0:	a90153f3 	stp	x19, x20, [sp, #16]
  601040e1e4:	f9445433 	ldr	x19, [x1, #2216]
  601040e1e8:	f9445814 	ldr	x20, [x0, #2224]
  601040e1ec:	cb140273 	sub	x19, x19, x20
  601040e1f0:	9343fe73 	asr	x19, x19, #3
  601040e1f4:	b40000b3 	cbz	x19, 601040e208 <__libc_fini_array+0x38>
  601040e1f8:	d1000673 	sub	x19, x19, #0x1
  601040e1fc:	f8737a80 	ldr	x0, [x20, x19, lsl #3]
  601040e200:	d63f0000 	blr	x0
  601040e204:	b5ffffb3 	cbnz	x19, 601040e1f8 <__libc_fini_array+0x28>
  601040e208:	a94153f3 	ldp	x19, x20, [sp, #16]
  601040e20c:	a8c27bfd 	ldp	x29, x30, [sp], #32
  601040e210:	14004990 	b	6010420850 <_fini>
	...

000000601040e220 <__libc_init_array>:
  601040e220:	a9bd7bfd 	stp	x29, x30, [sp, #-48]!
  601040e224:	d0000081 	adrp	x1, 6010420000 <main+0x168>
  601040e228:	d0000080 	adrp	x0, 6010420000 <main+0x168>
  601040e22c:	910003fd 	mov	x29, sp
  601040e230:	a90153f3 	stp	x19, x20, [sp, #16]
  601040e234:	f9445c34 	ldr	x20, [x1, #2232]
  601040e238:	f90013f5 	str	x21, [sp, #32]
  601040e23c:	f9446015 	ldr	x21, [x0, #2240]
  601040e240:	cb150294 	sub	x20, x20, x21
  601040e244:	9343fe94 	asr	x20, x20, #3
  601040e248:	b40000f4 	cbz	x20, 601040e264 <__libc_init_array+0x44>
  601040e24c:	d2800013 	mov	x19, #0x0                   	// #0
  601040e250:	f8737aa0 	ldr	x0, [x21, x19, lsl #3]
  601040e254:	91000673 	add	x19, x19, #0x1
  601040e258:	d63f0000 	blr	x0
  601040e25c:	eb13029f 	cmp	x20, x19
  601040e260:	54ffff81 	b.ne	601040e250 <__libc_init_array+0x30>  // b.any
  601040e264:	9400496e 	bl	601042081c <_init>
  601040e268:	d0000081 	adrp	x1, 6010420000 <main+0x168>
  601040e26c:	d0000080 	adrp	x0, 6010420000 <main+0x168>
  601040e270:	f9446434 	ldr	x20, [x1, #2248]
  601040e274:	f9446815 	ldr	x21, [x0, #2256]
  601040e278:	cb150294 	sub	x20, x20, x21
  601040e27c:	9343fe94 	asr	x20, x20, #3
  601040e280:	b40000f4 	cbz	x20, 601040e29c <__libc_init_array+0x7c>
  601040e284:	d2800013 	mov	x19, #0x0                   	// #0
  601040e288:	f8737aa0 	ldr	x0, [x21, x19, lsl #3]
  601040e28c:	91000673 	add	x19, x19, #0x1
  601040e290:	d63f0000 	blr	x0
  601040e294:	eb13029f 	cmp	x20, x19
  601040e298:	54ffff81 	b.ne	601040e288 <__libc_init_array+0x68>  // b.any
  601040e29c:	a94153f3 	ldp	x19, x20, [sp, #16]
  601040e2a0:	f94013f5 	ldr	x21, [sp, #32]
  601040e2a4:	a8c37bfd 	ldp	x29, x30, [sp], #48
  601040e2a8:	d65f03c0 	ret
	...

000000601040e2c0 <memset>:
  601040e2c0:	4e010c20 	dup	v0.16b, w1
  601040e2c4:	8b020004 	add	x4, x0, x2
  601040e2c8:	f101805f 	cmp	x2, #0x60
  601040e2cc:	540003c8 	b.hi	601040e344 <memset+0x84>  // b.pmore
  601040e2d0:	f100405f 	cmp	x2, #0x10
  601040e2d4:	54000202 	b.cs	601040e314 <memset+0x54>  // b.hs, b.nlast
  601040e2d8:	4e083c01 	mov	x1, v0.d[0]
  601040e2dc:	361800a2 	tbz	w2, #3, 601040e2f0 <memset+0x30>
  601040e2e0:	f9000001 	str	x1, [x0]
  601040e2e4:	f81f8081 	stur	x1, [x4, #-8]
  601040e2e8:	d65f03c0 	ret
  601040e2ec:	d503201f 	nop
  601040e2f0:	36100082 	tbz	w2, #2, 601040e300 <memset+0x40>
  601040e2f4:	b9000001 	str	w1, [x0]
  601040e2f8:	b81fc081 	stur	w1, [x4, #-4]
  601040e2fc:	d65f03c0 	ret
  601040e300:	b4000082 	cbz	x2, 601040e310 <memset+0x50>
  601040e304:	39000001 	strb	w1, [x0]
  601040e308:	36080042 	tbz	w2, #1, 601040e310 <memset+0x50>
  601040e30c:	781fe081 	sturh	w1, [x4, #-2]
  601040e310:	d65f03c0 	ret
  601040e314:	3d800000 	str	q0, [x0]
  601040e318:	373000c2 	tbnz	w2, #6, 601040e330 <memset+0x70>
  601040e31c:	3c9f0080 	stur	q0, [x4, #-16]
  601040e320:	36280062 	tbz	w2, #5, 601040e32c <memset+0x6c>
  601040e324:	3d800400 	str	q0, [x0, #16]
  601040e328:	3c9e0080 	stur	q0, [x4, #-32]
  601040e32c:	d65f03c0 	ret
  601040e330:	3d800400 	str	q0, [x0, #16]
  601040e334:	ad010000 	stp	q0, q0, [x0, #32]
  601040e338:	ad3f0080 	stp	q0, q0, [x4, #-32]
  601040e33c:	d65f03c0 	ret
  601040e340:	d503201f 	nop
  601040e344:	12001c21 	and	w1, w1, #0xff
  601040e348:	927cec03 	and	x3, x0, #0xfffffffffffffff0
  601040e34c:	3d800000 	str	q0, [x0]
  601040e350:	f104005f 	cmp	x2, #0x100
  601040e354:	7a402820 	ccmp	w1, #0x0, #0x0, cs  // cs = hs, nlast
  601040e358:	54000180 	b.eq	601040e388 <memset+0xc8>  // b.none
  601040e35c:	cb030082 	sub	x2, x4, x3
  601040e360:	d1004063 	sub	x3, x3, #0x10
  601040e364:	d1014042 	sub	x2, x2, #0x50
  601040e368:	ad010060 	stp	q0, q0, [x3, #32]
  601040e36c:	ad820060 	stp	q0, q0, [x3, #64]!
  601040e370:	f1010042 	subs	x2, x2, #0x40
  601040e374:	54ffffa8 	b.hi	601040e368 <memset+0xa8>  // b.pmore
  601040e378:	ad3e0080 	stp	q0, q0, [x4, #-64]
  601040e37c:	ad3f0080 	stp	q0, q0, [x4, #-32]
  601040e380:	d65f03c0 	ret
  601040e384:	d503201f 	nop
  601040e388:	d53b00e5 	mrs	x5, dczid_el0
  601040e38c:	3727fe85 	tbnz	w5, #4, 601040e35c <memset+0x9c>
  601040e390:	12000ca5 	and	w5, w5, #0xf
  601040e394:	710010bf 	cmp	w5, #0x4
  601040e398:	54000281 	b.ne	601040e3e8 <memset+0x128>  // b.any
  601040e39c:	3d800460 	str	q0, [x3, #16]
  601040e3a0:	ad010060 	stp	q0, q0, [x3, #32]
  601040e3a4:	927ae463 	and	x3, x3, #0xffffffffffffffc0
  601040e3a8:	ad020060 	stp	q0, q0, [x3, #64]
  601040e3ac:	ad030060 	stp	q0, q0, [x3, #96]
  601040e3b0:	cb030082 	sub	x2, x4, x3
  601040e3b4:	d1040042 	sub	x2, x2, #0x100
  601040e3b8:	91020063 	add	x3, x3, #0x80
  601040e3bc:	d503201f 	nop
  601040e3c0:	d50b7423 	dc	zva, x3
  601040e3c4:	91010063 	add	x3, x3, #0x40
  601040e3c8:	f1010042 	subs	x2, x2, #0x40
  601040e3cc:	54ffffa8 	b.hi	601040e3c0 <memset+0x100>  // b.pmore
  601040e3d0:	ad000060 	stp	q0, q0, [x3]
  601040e3d4:	ad010060 	stp	q0, q0, [x3, #32]
  601040e3d8:	ad3e0080 	stp	q0, q0, [x4, #-64]
  601040e3dc:	ad3f0080 	stp	q0, q0, [x4, #-32]
  601040e3e0:	d65f03c0 	ret
  601040e3e4:	d503201f 	nop
  601040e3e8:	710014bf 	cmp	w5, #0x5
  601040e3ec:	54000241 	b.ne	601040e434 <memset+0x174>  // b.any
  601040e3f0:	3d800460 	str	q0, [x3, #16]
  601040e3f4:	ad010060 	stp	q0, q0, [x3, #32]
  601040e3f8:	ad020060 	stp	q0, q0, [x3, #64]
  601040e3fc:	ad030060 	stp	q0, q0, [x3, #96]
  601040e400:	9279e063 	and	x3, x3, #0xffffffffffffff80
  601040e404:	cb030082 	sub	x2, x4, x3
  601040e408:	d1040042 	sub	x2, x2, #0x100
  601040e40c:	91020063 	add	x3, x3, #0x80
  601040e410:	d50b7423 	dc	zva, x3
  601040e414:	91020063 	add	x3, x3, #0x80
  601040e418:	f1020042 	subs	x2, x2, #0x80
  601040e41c:	54ffffa8 	b.hi	601040e410 <memset+0x150>  // b.pmore
  601040e420:	ad3c0080 	stp	q0, q0, [x4, #-128]
  601040e424:	ad3d0080 	stp	q0, q0, [x4, #-96]
  601040e428:	ad3e0080 	stp	q0, q0, [x4, #-64]
  601040e42c:	ad3f0080 	stp	q0, q0, [x4, #-32]
  601040e430:	d65f03c0 	ret
  601040e434:	52800086 	mov	w6, #0x4                   	// #4
  601040e438:	1ac520c7 	lsl	w7, w6, w5
  601040e43c:	910100e5 	add	x5, x7, #0x40
  601040e440:	eb05005f 	cmp	x2, x5
  601040e444:	54fff8c3 	b.cc	601040e35c <memset+0x9c>  // b.lo, b.ul, b.last
  601040e448:	d10004e6 	sub	x6, x7, #0x1
  601040e44c:	8b070065 	add	x5, x3, x7
  601040e450:	91004063 	add	x3, x3, #0x10
  601040e454:	eb0300a2 	subs	x2, x5, x3
  601040e458:	8a2600a5 	bic	x5, x5, x6
  601040e45c:	540000a0 	b.eq	601040e470 <memset+0x1b0>  // b.none
  601040e460:	ac820060 	stp	q0, q0, [x3], #64
  601040e464:	ad3f0060 	stp	q0, q0, [x3, #-32]
  601040e468:	f1010042 	subs	x2, x2, #0x40
  601040e46c:	54ffffa8 	b.hi	601040e460 <memset+0x1a0>  // b.pmore
  601040e470:	aa0503e3 	mov	x3, x5
  601040e474:	cb050082 	sub	x2, x4, x5
  601040e478:	eb070042 	subs	x2, x2, x7
  601040e47c:	540000a3 	b.cc	601040e490 <memset+0x1d0>  // b.lo, b.ul, b.last
  601040e480:	d50b7423 	dc	zva, x3
  601040e484:	8b070063 	add	x3, x3, x7
  601040e488:	eb070042 	subs	x2, x2, x7
  601040e48c:	54ffffa2 	b.cs	601040e480 <memset+0x1c0>  // b.hs, b.nlast
  601040e490:	8b070042 	add	x2, x2, x7
  601040e494:	d1008063 	sub	x3, x3, #0x20
  601040e498:	17ffffb6 	b	601040e370 <memset+0xb0>
  601040e49c:	00000000 	udf	#0

000000601040e4a0 <__register_exitproc>:
  601040e4a0:	d0000084 	adrp	x4, 6010420000 <main+0x168>
  601040e4a4:	f9446c84 	ldr	x4, [x4, #2264]
  601040e4a8:	f940fc85 	ldr	x5, [x4, #504]
  601040e4ac:	b4000405 	cbz	x5, 601040e52c <__register_exitproc+0x8c>
  601040e4b0:	b94008a4 	ldr	w4, [x5, #8]
  601040e4b4:	71007c9f 	cmp	w4, #0x1f
  601040e4b8:	5400040c 	b.gt	601040e538 <__register_exitproc+0x98>
  601040e4bc:	93407c86 	sxtw	x6, w4
  601040e4c0:	350000e0 	cbnz	w0, 601040e4dc <__register_exitproc+0x3c>
  601040e4c4:	910008c2 	add	x2, x6, #0x2
  601040e4c8:	11000484 	add	w4, w4, #0x1
  601040e4cc:	b90008a4 	str	w4, [x5, #8]
  601040e4d0:	52800000 	mov	w0, #0x0                   	// #0
  601040e4d4:	f82278a1 	str	x1, [x5, x2, lsl #3]
  601040e4d8:	d65f03c0 	ret
  601040e4dc:	8b24cca7 	add	x7, x5, w4, sxtw #3
  601040e4e0:	52800028 	mov	w8, #0x1                   	// #1
  601040e4e4:	1ac42108 	lsl	w8, w8, w4
  601040e4e8:	93407c86 	sxtw	x6, w4
  601040e4ec:	f90088e2 	str	x2, [x7, #272]
  601040e4f0:	b94310a2 	ldr	w2, [x5, #784]
  601040e4f4:	2a080042 	orr	w2, w2, w8
  601040e4f8:	b90310a2 	str	w2, [x5, #784]
  601040e4fc:	f90108e3 	str	x3, [x7, #528]
  601040e500:	7100081f 	cmp	w0, #0x2
  601040e504:	54fffe01 	b.ne	601040e4c4 <__register_exitproc+0x24>  // b.any
  601040e508:	b94314a0 	ldr	w0, [x5, #788]
  601040e50c:	910008c2 	add	x2, x6, #0x2
  601040e510:	11000484 	add	w4, w4, #0x1
  601040e514:	b90008a4 	str	w4, [x5, #8]
  601040e518:	2a080008 	orr	w8, w0, w8
  601040e51c:	b90314a8 	str	w8, [x5, #788]
  601040e520:	52800000 	mov	w0, #0x0                   	// #0
  601040e524:	f82278a1 	str	x1, [x5, x2, lsl #3]
  601040e528:	17ffffec 	b	601040e4d8 <__register_exitproc+0x38>
  601040e52c:	91080085 	add	x5, x4, #0x200
  601040e530:	f900fc85 	str	x5, [x4, #504]
  601040e534:	17ffffdf 	b	601040e4b0 <__register_exitproc+0x10>
  601040e538:	12800000 	mov	w0, #0xffffffff            	// #-1
  601040e53c:	d65f03c0 	ret

000000601040e540 <__call_exitprocs>:
  601040e540:	a9bb7bfd 	stp	x29, x30, [sp, #-80]!
  601040e544:	d0000082 	adrp	x2, 6010420000 <main+0x168>
  601040e548:	910003fd 	mov	x29, sp
  601040e54c:	a9025bf5 	stp	x21, x22, [sp, #32]
  601040e550:	f9446c56 	ldr	x22, [x2, #2264]
  601040e554:	f940fed5 	ldr	x21, [x22, #504]
  601040e558:	b40002f5 	cbz	x21, 601040e5b4 <__call_exitprocs+0x74>
  601040e55c:	a90363f7 	stp	x23, x24, [sp, #48]
  601040e560:	2a0003f8 	mov	w24, w0
  601040e564:	52800037 	mov	w23, #0x1                   	// #1
  601040e568:	a9046bf9 	stp	x25, x26, [sp, #64]
  601040e56c:	aa0103f9 	mov	x25, x1
  601040e570:	a90153f3 	stp	x19, x20, [sp, #16]
  601040e574:	b9400ab3 	ldr	w19, [x21, #8]
  601040e578:	71000674 	subs	w20, w19, #0x1
  601040e57c:	54000164 	b.mi	601040e5a8 <__call_exitprocs+0x68>  // b.first
  601040e580:	8b33ceb3 	add	x19, x21, w19, sxtw #3
  601040e584:	91002273 	add	x19, x19, #0x8
  601040e588:	b40001d9 	cbz	x25, 601040e5c0 <__call_exitprocs+0x80>
  601040e58c:	f9410260 	ldr	x0, [x19, #512]
  601040e590:	eb19001f 	cmp	x0, x25
  601040e594:	54000160 	b.eq	601040e5c0 <__call_exitprocs+0x80>  // b.none
  601040e598:	51000694 	sub	w20, w20, #0x1
  601040e59c:	d1002273 	sub	x19, x19, #0x8
  601040e5a0:	3100069f 	cmn	w20, #0x1
  601040e5a4:	54ffff21 	b.ne	601040e588 <__call_exitprocs+0x48>  // b.any
  601040e5a8:	a94153f3 	ldp	x19, x20, [sp, #16]
  601040e5ac:	a94363f7 	ldp	x23, x24, [sp, #48]
  601040e5b0:	a9446bf9 	ldp	x25, x26, [sp, #64]
  601040e5b4:	a9425bf5 	ldp	x21, x22, [sp, #32]
  601040e5b8:	a8c57bfd 	ldp	x29, x30, [sp], #80
  601040e5bc:	d65f03c0 	ret
  601040e5c0:	b9400aa2 	ldr	w2, [x21, #8]
  601040e5c4:	f9400263 	ldr	x3, [x19]
  601040e5c8:	51000442 	sub	w2, w2, #0x1
  601040e5cc:	6b14005f 	cmp	w2, w20
  601040e5d0:	54000360 	b.eq	601040e63c <__call_exitprocs+0xfc>  // b.none
  601040e5d4:	f900027f 	str	xzr, [x19]
  601040e5d8:	b4fffe03 	cbz	x3, 601040e598 <__call_exitprocs+0x58>
  601040e5dc:	b94312a1 	ldr	w1, [x21, #784]
  601040e5e0:	910442a0 	add	x0, x21, #0x110
  601040e5e4:	b9400aba 	ldr	w26, [x21, #8]
  601040e5e8:	1ad422e2 	lsl	w2, w23, w20
  601040e5ec:	6a01005f 	tst	w2, w1
  601040e5f0:	54000161 	b.ne	601040e61c <__call_exitprocs+0xdc>  // b.any
  601040e5f4:	d63f0060 	blr	x3
  601040e5f8:	b9400aa1 	ldr	w1, [x21, #8]
  601040e5fc:	f940fec0 	ldr	x0, [x22, #504]
  601040e600:	6b1a003f 	cmp	w1, w26
  601040e604:	54000061 	b.ne	601040e610 <__call_exitprocs+0xd0>  // b.any
  601040e608:	eb15001f 	cmp	x0, x21
  601040e60c:	54fffc60 	b.eq	601040e598 <__call_exitprocs+0x58>  // b.none
  601040e610:	b4fffcc0 	cbz	x0, 601040e5a8 <__call_exitprocs+0x68>
  601040e614:	aa0003f5 	mov	x21, x0
  601040e618:	17ffffd7 	b	601040e574 <__call_exitprocs+0x34>
  601040e61c:	b9420401 	ldr	w1, [x0, #516]
  601040e620:	f9408260 	ldr	x0, [x19, #256]
  601040e624:	6a01005f 	tst	w2, w1
  601040e628:	540000e1 	b.ne	601040e644 <__call_exitprocs+0x104>  // b.any
  601040e62c:	aa0003e1 	mov	x1, x0
  601040e630:	2a1803e0 	mov	w0, w24
  601040e634:	d63f0060 	blr	x3
  601040e638:	17fffff0 	b	601040e5f8 <__call_exitprocs+0xb8>
  601040e63c:	b9000ab4 	str	w20, [x21, #8]
  601040e640:	17ffffe6 	b	601040e5d8 <__call_exitprocs+0x98>
  601040e644:	d63f0060 	blr	x3
  601040e648:	17ffffec 	b	601040e5f8 <__call_exitprocs+0xb8>

000000601040e64c <cpu_start_secondary>:
#define PSCI_CPUON 0xc4000003

extern void _boot_start();
void psci_call(uint64_t fn, uint8_t cpuid, uint64_t entry, uint64_t ctxid);
void cpu_start_secondary(uint8_t cpu_id)
{
  601040e64c:	a9be7bfd 	stp	x29, x30, [sp, #-32]!
  601040e650:	910003fd 	mov	x29, sp
  601040e654:	39007fe0 	strb	w0, [sp, #31]
    psci_call(PSCI_CPUON, cpu_id, (uintptr_t)&_boot_start, 0);
  601040e658:	b00089a0 	adrp	x0, 6011543000 <_binary_default_fs_start+0x96000>
  601040e65c:	f942a000 	ldr	x0, [x0, #1344]
  601040e660:	d2800003 	mov	x3, #0x0                   	// #0
  601040e664:	aa0003e2 	mov	x2, x0
  601040e668:	39407fe1 	ldrb	w1, [sp, #31]
  601040e66c:	d2800060 	mov	x0, #0x3                   	// #3
  601040e670:	f2b88000 	movk	x0, #0xc400, lsl #16
  601040e674:	9400000c 	bl	601040e6a4 <psci_call>
}
  601040e678:	d503201f 	nop
  601040e67c:	a8c27bfd 	ldp	x29, x30, [sp], #32
  601040e680:	d65f03c0 	ret

000000601040e684 <start_smp_cache_broadcast>:

void start_smp_cache_broadcast(int cpu_id)
{
  601040e684:	d10043ff 	sub	sp, sp, #0x10
  601040e688:	b9000fe0 	str	w0, [sp, #12]
    return;
  601040e68c:	d503201f 	nop
  601040e690:	910043ff 	add	sp, sp, #0x10
  601040e694:	d65f03c0 	ret

000000601040e698 <cpu_get_current>:
  601040e698:	d53800a0 	mrs	x0, mpidr_el1
  601040e69c:	92400400 	and	x0, x0, #0x3
  601040e6a0:	d65f03c0 	ret

000000601040e6a4 <psci_call>:
  601040e6a4:	d4000002 	hvc	#0x0
  601040e6a8:	d65f03c0 	ret

000000601040e6ac <context_switch>:
  601040e6ac:	910003e9 	mov	x9, sp
  601040e6b0:	910003ea 	mov	x10, sp
  601040e6b4:	d101c129 	sub	x9, x9, #0x70
  601040e6b8:	a900492a 	stp	x10, x18, [x9]
  601040e6bc:	a9015133 	stp	x19, x20, [x9, #16]
  601040e6c0:	a9025935 	stp	x21, x22, [x9, #32]
  601040e6c4:	a9036137 	stp	x23, x24, [x9, #48]
  601040e6c8:	a9046939 	stp	x25, x26, [x9, #64]
  601040e6cc:	a905713b 	stp	x27, x28, [x9, #80]
  601040e6d0:	a906793d 	stp	x29, x30, [x9, #96]
  601040e6d4:	f9000009 	str	x9, [x0]
  601040e6d8:	aa0103e9 	mov	x9, x1
  601040e6dc:	a940492a 	ldp	x10, x18, [x9]
  601040e6e0:	a9415133 	ldp	x19, x20, [x9, #16]
  601040e6e4:	a9425935 	ldp	x21, x22, [x9, #32]
  601040e6e8:	a9436137 	ldp	x23, x24, [x9, #48]
  601040e6ec:	a9446939 	ldp	x25, x26, [x9, #64]
  601040e6f0:	a945713b 	ldp	x27, x28, [x9, #80]
  601040e6f4:	a946793d 	ldp	x29, x30, [x9, #96]
  601040e6f8:	9101c129 	add	x9, x9, #0x70
  601040e6fc:	9100013f 	mov	sp, x9
  601040e700:	d65f03c0 	ret

000000601040e704 <r_cntp_ctl_el0>:
#include <stddef.h>
#include <stdint.h>

// armv8 generic timer
static inline uint32_t r_cntp_ctl_el0()
{
  601040e704:	d10043ff 	sub	sp, sp, #0x10
    uint32_t x;
    __asm__ volatile("mrs %0, cntp_ctl_el0" : "=r"(x));
  601040e708:	d53be220 	mrs	x0, cntp_ctl_el0
  601040e70c:	b9000fe0 	str	w0, [sp, #12]
    return x;
  601040e710:	b9400fe0 	ldr	w0, [sp, #12]
}
  601040e714:	910043ff 	add	sp, sp, #0x10
  601040e718:	d65f03c0 	ret

000000601040e71c <w_cntp_ctl_el0>:

static inline void w_cntp_ctl_el0(uint32_t x)
{
  601040e71c:	d10043ff 	sub	sp, sp, #0x10
  601040e720:	b9000fe0 	str	w0, [sp, #12]
    __asm__ volatile("msr cntp_ctl_el0, %0" : : "r"(x));
  601040e724:	b9400fe0 	ldr	w0, [sp, #12]
  601040e728:	d51be220 	msr	cntp_ctl_el0, x0
}
  601040e72c:	d503201f 	nop
  601040e730:	910043ff 	add	sp, sp, #0x10
  601040e734:	d65f03c0 	ret

000000601040e738 <w_cntp_tval_el0>:
    __asm__ volatile("mrs %0, cntp_tval_el0" : "=r"(x));
    return x;
}

static inline void w_cntp_tval_el0(uint32_t x)
{
  601040e738:	d10043ff 	sub	sp, sp, #0x10
  601040e73c:	b9000fe0 	str	w0, [sp, #12]
    __asm__ volatile("msr cntp_tval_el0, %0" : : "r"(x));
  601040e740:	b9400fe0 	ldr	w0, [sp, #12]
  601040e744:	d51be200 	msr	cntp_tval_el0, x0
}
  601040e748:	d503201f 	nop
  601040e74c:	910043ff 	add	sp, sp, #0x10
  601040e750:	d65f03c0 	ret

000000601040e754 <r_cntvct_el0>:

static inline uint64_t r_cntvct_el0()
{
  601040e754:	d10043ff 	sub	sp, sp, #0x10
    uint64_t x;
    __asm__ volatile("mrs %0, cntvct_el0" : "=r"(x));
  601040e758:	d53be040 	mrs	x0, cntvct_el0
  601040e75c:	f90007e0 	str	x0, [sp, #8]
    return x;
  601040e760:	f94007e0 	ldr	x0, [sp, #8]
}
  601040e764:	910043ff 	add	sp, sp, #0x10
  601040e768:	d65f03c0 	ret

000000601040e76c <r_cntfrq_el0>:

static inline uint32_t r_cntfrq_el0()
{
  601040e76c:	d10043ff 	sub	sp, sp, #0x10
    uint32_t x;
    __asm__ volatile("mrs %0, cntfrq_el0" : "=r"(x));
  601040e770:	d53be000 	mrs	x0, cntfrq_el0
  601040e774:	b9000fe0 	str	w0, [sp, #12]
    return x;
  601040e778:	b9400fe0 	ldr	w0, [sp, #12]
  601040e77c:	910043ff 	add	sp, sp, #0x10
  601040e780:	d65f03c0 	ret

000000601040e784 <enable_timer>:
#define CNTV_CTL_ENABLE (1 << 0)
#define CNTV_CTL_IMASK (1 << 1)
#define CNTV_CTL_ISTATUS (1 << 2)

static void enable_timer()
{
  601040e784:	a9be7bfd 	stp	x29, x30, [sp, #-32]!
  601040e788:	910003fd 	mov	x29, sp
    uint32_t c = r_cntp_ctl_el0();
  601040e78c:	97ffffde 	bl	601040e704 <r_cntp_ctl_el0>
  601040e790:	b9001fe0 	str	w0, [sp, #28]
    c |= CNTV_CTL_ENABLE;
  601040e794:	b9401fe0 	ldr	w0, [sp, #28]
  601040e798:	32000000 	orr	w0, w0, #0x1
  601040e79c:	b9001fe0 	str	w0, [sp, #28]
    c &= ~CNTV_CTL_IMASK;
  601040e7a0:	b9401fe0 	ldr	w0, [sp, #28]
  601040e7a4:	121e7800 	and	w0, w0, #0xfffffffd
  601040e7a8:	b9001fe0 	str	w0, [sp, #28]
    w_cntp_ctl_el0(c);
  601040e7ac:	b9401fe0 	ldr	w0, [sp, #28]
  601040e7b0:	97ffffdb 	bl	601040e71c <w_cntp_ctl_el0>
}
  601040e7b4:	d503201f 	nop
  601040e7b8:	a8c27bfd 	ldp	x29, x30, [sp], #32
  601040e7bc:	d65f03c0 	ret

000000601040e7c0 <disable_timer>:

static void disable_timer()
{
  601040e7c0:	a9be7bfd 	stp	x29, x30, [sp, #-32]!
  601040e7c4:	910003fd 	mov	x29, sp
    uint32_t c = r_cntp_ctl_el0();
  601040e7c8:	97ffffcf 	bl	601040e704 <r_cntp_ctl_el0>
  601040e7cc:	b9001fe0 	str	w0, [sp, #28]
    c |= CNTV_CTL_IMASK;
  601040e7d0:	b9401fe0 	ldr	w0, [sp, #28]
  601040e7d4:	321f0000 	orr	w0, w0, #0x2
  601040e7d8:	b9001fe0 	str	w0, [sp, #28]
    c &= ~CNTV_CTL_ENABLE;
  601040e7dc:	b9401fe0 	ldr	w0, [sp, #28]
  601040e7e0:	121f7800 	and	w0, w0, #0xfffffffe
  601040e7e4:	b9001fe0 	str	w0, [sp, #28]
    w_cntp_ctl_el0(c);
  601040e7e8:	b9401fe0 	ldr	w0, [sp, #28]
  601040e7ec:	97ffffcc 	bl	601040e71c <w_cntp_ctl_el0>
}
  601040e7f0:	d503201f 	nop
  601040e7f4:	a8c27bfd 	ldp	x29, x30, [sp], #32
  601040e7f8:	d65f03c0 	ret

000000601040e7fc <reload_timer>:

static void reload_timer()
{
  601040e7fc:	a9be7bfd 	stp	x29, x30, [sp, #-32]!
  601040e800:	910003fd 	mov	x29, sp
    // interval 1ms
    static uint32_t ms = 1;
    uint32_t interval = ms * 1000;
  601040e804:	d00000a0 	adrp	x0, 6010424000 <impure_data+0x210>
  601040e808:	9114e000 	add	x0, x0, #0x538
  601040e80c:	b9400001 	ldr	w1, [x0]
  601040e810:	52807d00 	mov	w0, #0x3e8                 	// #1000
  601040e814:	1b007c20 	mul	w0, w1, w0
  601040e818:	b9001fe0 	str	w0, [sp, #28]
    uint32_t interval_clk = interval * (r_cntfrq_el0() / 1000000);
  601040e81c:	97ffffd4 	bl	601040e76c <r_cntfrq_el0>
  601040e820:	2a0003e1 	mov	w1, w0
  601040e824:	529bd060 	mov	w0, #0xde83                	// #56963
  601040e828:	72a86360 	movk	w0, #0x431b, lsl #16
  601040e82c:	9ba07c20 	umull	x0, w1, w0
  601040e830:	d360fc00 	lsr	x0, x0, #32
  601040e834:	53127c00 	lsr	w0, w0, #18
  601040e838:	b9401fe1 	ldr	w1, [sp, #28]
  601040e83c:	1b007c20 	mul	w0, w1, w0
  601040e840:	b9001be0 	str	w0, [sp, #24]
    w_cntp_tval_el0(interval_clk);
  601040e844:	b9401be0 	ldr	w0, [sp, #24]
  601040e848:	97ffffbc 	bl	601040e738 <w_cntp_tval_el0>
}
  601040e84c:	d503201f 	nop
  601040e850:	a8c27bfd 	ldp	x29, x30, [sp], #32
  601040e854:	d65f03c0 	ret

000000601040e858 <_sys_clock_init>:

void _sys_clock_init()
{
  601040e858:	a9bf7bfd 	stp	x29, x30, [sp, #-16]!
  601040e85c:	910003fd 	mov	x29, sp
    disable_timer();
  601040e860:	97ffffd8 	bl	601040e7c0 <disable_timer>
    reload_timer();
  601040e864:	97ffffe6 	bl	601040e7fc <reload_timer>
    enable_timer();
  601040e868:	97ffffc7 	bl	601040e784 <enable_timer>
}
  601040e86c:	d503201f 	nop
  601040e870:	a8c17bfd 	ldp	x29, x30, [sp], #16
  601040e874:	d65f03c0 	ret

000000601040e878 <_get_clock_int>:

static uint32_t _get_clock_int()
{
    return 30;
  601040e878:	528003c0 	mov	w0, #0x1e                  	// #30
}
  601040e87c:	d65f03c0 	ret

000000601040e880 <_get_tick>:

static uint64_t _get_tick()
{
  601040e880:	a9bf7bfd 	stp	x29, x30, [sp, #-16]!
  601040e884:	910003fd 	mov	x29, sp
    return r_cntvct_el0();
  601040e888:	97ffffb3 	bl	601040e754 <r_cntvct_el0>
}
  601040e88c:	a8c17bfd 	ldp	x29, x30, [sp], #16
  601040e890:	d65f03c0 	ret

000000601040e894 <_get_second>:

static uint64_t _get_second()
{
    return 0;
  601040e894:	d2800000 	mov	x0, #0x0                   	// #0
}
  601040e898:	d65f03c0 	ret

000000601040e89c <_is_timer_expired>:

static bool _is_timer_expired()
{
    return true;
  601040e89c:	52800020 	mov	w0, #0x1                   	// #1
}
  601040e8a0:	d65f03c0 	ret

000000601040e8a4 <_clear_clock_intr>:

static void _clear_clock_intr()
{
  601040e8a4:	a9bf7bfd 	stp	x29, x30, [sp, #-16]!
  601040e8a8:	910003fd 	mov	x29, sp
    disable_timer();
  601040e8ac:	97ffffc5 	bl	601040e7c0 <disable_timer>
    reload_timer();
  601040e8b0:	97ffffd3 	bl	601040e7fc <reload_timer>
    enable_timer();
  601040e8b4:	97ffffb4 	bl	601040e784 <enable_timer>
}
  601040e8b8:	d503201f 	nop
  601040e8bc:	a8c17bfd 	ldp	x29, x30, [sp], #16
  601040e8c0:	d65f03c0 	ret

000000601040e8c4 <hardkernel_clock_init>:
    .is_timer_expired = _is_timer_expired,
    .clear_clock_intr = _clear_clock_intr,
};

struct XiziClockDriver* hardkernel_clock_init(struct TraceTag* hardkernel_tag)
{
  601040e8c4:	a9be7bfd 	stp	x29, x30, [sp, #-32]!
  601040e8c8:	910003fd 	mov	x29, sp
  601040e8cc:	f9000fe0 	str	x0, [sp, #24]
    hardkernel_clock_driver.sys_clock_init();
  601040e8d0:	d00000a0 	adrp	x0, 6010424000 <impure_data+0x210>
  601040e8d4:	91150000 	add	x0, x0, #0x540
  601040e8d8:	f9400000 	ldr	x0, [x0]
  601040e8dc:	d63f0000 	blr	x0
    return &hardkernel_clock_driver;
  601040e8e0:	d00000a0 	adrp	x0, 6010424000 <impure_data+0x210>
  601040e8e4:	91150000 	add	x0, x0, #0x540
  601040e8e8:	a8c27bfd 	ldp	x29, x30, [sp], #32
  601040e8ec:	d65f03c0 	ret

000000601040e8f0 <load_pgdir>:

// extern struct MmuCommonDone mmu_common_done;
static struct MmuDriverRightGroup right_group;

void load_pgdir(uintptr_t pgdir_paddr)
{
  601040e8f0:	a9bd7bfd 	stp	x29, x30, [sp, #-48]!
  601040e8f4:	910003fd 	mov	x29, sp
  601040e8f8:	f9000fe0 	str	x0, [sp, #24]
    /* get cache driver */
    struct ICacheDone* p_icache_done = AchieveResource(&right_group.icache_driver_tag);
  601040e8fc:	b00089a0 	adrp	x0, 6011543000 <_binary_default_fs_start+0x96000>
  601040e900:	91196000 	add	x0, x0, #0x658
  601040e904:	94001da3 	bl	6010415f90 <AchieveResource>
  601040e908:	f90017e0 	str	x0, [sp, #40]
    struct DCacheDone* p_dcache_done = AchieveResource(&right_group.dcache_driver_tag);
  601040e90c:	b00089a0 	adrp	x0, 6011543000 <_binary_default_fs_start+0x96000>
  601040e910:	91198000 	add	x0, x0, #0x660
  601040e914:	94001d9f 	bl	6010415f90 <AchieveResource>
  601040e918:	f90013e0 	str	x0, [sp, #32]

    TTBR0_W((uint64_t)pgdir_paddr);
  601040e91c:	f9400fe0 	ldr	x0, [sp, #24]
  601040e920:	d5182000 	msr	ttbr0_el1, x0
    DSB();
  601040e924:	d5033b9f 	dsb	ish
    CLEARTLB(0);
  601040e928:	d508831f 	tlbi	vmalle1is
    ISB();
  601040e92c:	d5033fdf 	isb
    p_icache_done->invalidateall();
  601040e930:	f94017e0 	ldr	x0, [sp, #40]
  601040e934:	f9400c00 	ldr	x0, [x0, #24]
  601040e938:	d63f0000 	blr	x0
    p_dcache_done->flushall();
  601040e93c:	f94013e0 	ldr	x0, [sp, #32]
  601040e940:	f9401800 	ldr	x0, [x0, #48]
  601040e944:	d63f0000 	blr	x0
}
  601040e948:	d503201f 	nop
  601040e94c:	a8c37bfd 	ldp	x29, x30, [sp], #48
  601040e950:	d65f03c0 	ret

000000601040e954 <tlb_flush_range>:
{
    __asm__ volatile("tlbi vae1is, %0" ::"r"(va));
}

static void tlb_flush_range(uintptr_t vstart, int len)
{
  601040e954:	d100c3ff 	sub	sp, sp, #0x30
  601040e958:	f90007e0 	str	x0, [sp, #8]
  601040e95c:	b90007e1 	str	w1, [sp, #4]
    uintptr_t vaddr = vstart;
  601040e960:	f94007e0 	ldr	x0, [sp, #8]
  601040e964:	f90017e0 	str	x0, [sp, #40]
    uintptr_t vend = vaddr + len;
  601040e968:	b98007e0 	ldrsw	x0, [sp, #4]
  601040e96c:	f94017e1 	ldr	x1, [sp, #40]
  601040e970:	8b000020 	add	x0, x1, x0
  601040e974:	f90013e0 	str	x0, [sp, #32]
    for (; vaddr < vend; vaddr += PAGE_SIZE) {
  601040e978:	14000009 	b	601040e99c <tlb_flush_range+0x48>
  601040e97c:	f94017e0 	ldr	x0, [sp, #40]
  601040e980:	f9000fe0 	str	x0, [sp, #24]
    __asm__ volatile("tlbi vae1is, %0" ::"r"(va));
  601040e984:	f9400fe0 	ldr	x0, [sp, #24]
  601040e988:	d5088320 	tlbi	vae1is, x0
}
  601040e98c:	d503201f 	nop
    for (; vaddr < vend; vaddr += PAGE_SIZE) {
  601040e990:	f94017e0 	ldr	x0, [sp, #40]
  601040e994:	91400400 	add	x0, x0, #0x1, lsl #12
  601040e998:	f90017e0 	str	x0, [sp, #40]
  601040e99c:	f94017e1 	ldr	x1, [sp, #40]
  601040e9a0:	f94013e0 	ldr	x0, [sp, #32]
  601040e9a4:	eb00003f 	cmp	x1, x0
  601040e9a8:	54fffea3 	b.cc	601040e97c <tlb_flush_range+0x28>  // b.lo, b.ul, b.last
        _tlb_flush(vaddr);
    }
}
  601040e9ac:	d503201f 	nop
  601040e9b0:	d503201f 	nop
  601040e9b4:	9100c3ff 	add	sp, sp, #0x30
  601040e9b8:	d65f03c0 	ret

000000601040e9bc <tlb_flush_all>:

static void tlb_flush_all()
{
    CLEARTLB(0);
  601040e9bc:	d508831f 	tlbi	vmalle1is
}
  601040e9c0:	d503201f 	nop
  601040e9c4:	d65f03c0 	ret

000000601040e9c8 <hardkernel_mmu_init>:
    .TlbFlushAll = tlb_flush_all,
    .TlbFlush = tlb_flush_range,
};

struct MmuCommonDone* hardkernel_mmu_init(struct TraceTag* hardkernel_tag, char* icache_name, char* dcache_name)
{
  601040e9c8:	a9bd7bfd 	stp	x29, x30, [sp, #-48]!
  601040e9cc:	910003fd 	mov	x29, sp
  601040e9d0:	f90017e0 	str	x0, [sp, #40]
  601040e9d4:	f90013e1 	str	x1, [sp, #32]
  601040e9d8:	f9000fe2 	str	x2, [sp, #24]
    /* init right group for mmu driver */
    AchieveResourceTag(&right_group.icache_driver_tag, hardkernel_tag, icache_name);
  601040e9dc:	f94013e2 	ldr	x2, [sp, #32]
  601040e9e0:	f94017e1 	ldr	x1, [sp, #40]
  601040e9e4:	b00089a0 	adrp	x0, 6011543000 <_binary_default_fs_start+0x96000>
  601040e9e8:	91196000 	add	x0, x0, #0x658
  601040e9ec:	94001d16 	bl	6010415e44 <AchieveResourceTag>
    AchieveResourceTag(&right_group.dcache_driver_tag, hardkernel_tag, dcache_name);
  601040e9f0:	f9400fe2 	ldr	x2, [sp, #24]
  601040e9f4:	f94017e1 	ldr	x1, [sp, #40]
  601040e9f8:	b00089a0 	adrp	x0, 6011543000 <_binary_default_fs_start+0x96000>
  601040e9fc:	91198000 	add	x0, x0, #0x660
  601040ea00:	94001d11 	bl	6010415e44 <AchieveResourceTag>

    return &mmu_common_done;
  601040ea04:	d00000a0 	adrp	x0, 6010424000 <impure_data+0x210>
  601040ea08:	9115c000 	add	x0, x0, #0x570
  601040ea0c:	a8c37bfd 	ldp	x29, x30, [sp], #48
  601040ea10:	d65f03c0 	ret

000000601040ea14 <GetUsrPteAttr>:
#define ARMV8_PDE_VALID             (0b11 << 0)

// clang-format on

void GetUsrPteAttr(uintptr_t* attr)
{
  601040ea14:	d10043ff 	sub	sp, sp, #0x10
  601040ea18:	f90007e0 	str	x0, [sp, #8]
    // *attr = ARMV8_PTE_AP_U | ARMV8_PTE_AP_RW | ARMV8_PTE_AF | ARMV8_PTE_NORMAL | ARMV8_PTE_VALID;
    *attr = 0x713 | ARMV8_PTE_AP_U;
  601040ea1c:	f94007e0 	ldr	x0, [sp, #8]
  601040ea20:	d280ea61 	mov	x1, #0x753                 	// #1875
  601040ea24:	f9000001 	str	x1, [x0]
}
  601040ea28:	d503201f 	nop
  601040ea2c:	910043ff 	add	sp, sp, #0x10
  601040ea30:	d65f03c0 	ret

000000601040ea34 <GetUsrDevPteAttr>:

void GetUsrDevPteAttr(uintptr_t* attr)
{
  601040ea34:	d10043ff 	sub	sp, sp, #0x10
  601040ea38:	f90007e0 	str	x0, [sp, #8]
    // *attr = ARMV8_PTE_AP_U | ARMV8_PTE_AP_RW | ARMV8_PTE_AF | ARMV8_PTE_DEVICE | ARMV8_PTE_XN | ARMV8_PTE_VALID;
    *attr = 0x403 | ARMV8_PTE_AP_U;
  601040ea3c:	f94007e0 	ldr	x0, [sp, #8]
  601040ea40:	d2808861 	mov	x1, #0x443                 	// #1091
  601040ea44:	f9000001 	str	x1, [x0]
}
  601040ea48:	d503201f 	nop
  601040ea4c:	910043ff 	add	sp, sp, #0x10
  601040ea50:	d65f03c0 	ret

000000601040ea54 <GetDevPteAttr>:

void GetDevPteAttr(uintptr_t* attr)
{
  601040ea54:	d10043ff 	sub	sp, sp, #0x10
  601040ea58:	f90007e0 	str	x0, [sp, #8]
    // *attr = ARMV8_PTE_AP_K | ARMV8_PTE_AP_RW | ARMV8_PTE_AF | ARMV8_PTE_DEVICE | ARMV8_PTE_XN | ARMV8_PTE_VALID;
    *attr = 0x403ULL;
  601040ea5c:	f94007e0 	ldr	x0, [sp, #8]
  601040ea60:	d2808061 	mov	x1, #0x403                 	// #1027
  601040ea64:	f9000001 	str	x1, [x0]
}
  601040ea68:	d503201f 	nop
  601040ea6c:	910043ff 	add	sp, sp, #0x10
  601040ea70:	d65f03c0 	ret

000000601040ea74 <GetKernPteAttr>:

void GetKernPteAttr(uintptr_t* attr)
{
  601040ea74:	d10043ff 	sub	sp, sp, #0x10
  601040ea78:	f90007e0 	str	x0, [sp, #8]
    // *attr = ARMV8_PTE_AP_K | ARMV8_PTE_AP_RW | ARMV8_PTE_AF | ARMV8_PTE_NORMAL | ARMV8_PTE_VALID;
    *attr = 0x713ULL;
  601040ea7c:	f94007e0 	ldr	x0, [sp, #8]
  601040ea80:	d280e261 	mov	x1, #0x713                 	// #1811
  601040ea84:	f9000001 	str	x1, [x0]
}
  601040ea88:	d503201f 	nop
  601040ea8c:	910043ff 	add	sp, sp, #0x10
  601040ea90:	d65f03c0 	ret

000000601040ea94 <GetPdeAttr>:

void GetPdeAttr(uintptr_t* attr)
{
  601040ea94:	d10043ff 	sub	sp, sp, #0x10
  601040ea98:	f90007e0 	str	x0, [sp, #8]
    *attr = ARMV8_PDE_VALID;
  601040ea9c:	f94007e0 	ldr	x0, [sp, #8]
  601040eaa0:	d2800061 	mov	x1, #0x3                   	// #3
  601040eaa4:	f9000001 	str	x1, [x0]
  601040eaa8:	d503201f 	nop
  601040eaac:	910043ff 	add	sp, sp, #0x10
  601040eab0:	d65f03c0 	ret

000000601040eab4 <w_icc_igrpen1_el1>:
    __asm__ volatile("mrs %0, S3_0_C12_C12_7" : "=r"(x));
    return x;
}

static inline void w_icc_igrpen1_el1(uint32_t x)
{
  601040eab4:	d10043ff 	sub	sp, sp, #0x10
  601040eab8:	b9000fe0 	str	w0, [sp, #12]
    __asm__ volatile("msr S3_0_C12_C12_7, %0" : : "r"(x));
  601040eabc:	b9400fe0 	ldr	w0, [sp, #12]
  601040eac0:	d518cce0 	msr	s3_0_c12_c12_7, x0
}
  601040eac4:	d503201f 	nop
  601040eac8:	910043ff 	add	sp, sp, #0x10
  601040eacc:	d65f03c0 	ret

000000601040ead0 <w_icc_pmr_el1>:
    __asm__ volatile("mrs %0, S3_0_C4_C6_0" : "=r"(x));
    return x;
}

static inline void w_icc_pmr_el1(uint32_t x)
{
  601040ead0:	d10043ff 	sub	sp, sp, #0x10
  601040ead4:	b9000fe0 	str	w0, [sp, #12]
    __asm__ volatile("msr S3_0_C4_C6_0, %0" : : "r"(x));
  601040ead8:	b9400fe0 	ldr	w0, [sp, #12]
  601040eadc:	d5184600 	msr	s3_0_c4_c6_0, x0
}
  601040eae0:	d503201f 	nop
  601040eae4:	910043ff 	add	sp, sp, #0x10
  601040eae8:	d65f03c0 	ret

000000601040eaec <gic_read_irq_ack>:

inline uint32_t gic_read_irq_ack()
{
  601040eaec:	d10043ff 	sub	sp, sp, #0x10
    uint32_t x;
    __asm__ volatile("mrs %0, S3_0_C12_C12_0" : "=r"(x));
  601040eaf0:	d538cc00 	mrs	x0, s3_0_c12_c12_0
  601040eaf4:	b9000fe0 	str	w0, [sp, #12]
    return x;
  601040eaf8:	b9400fe0 	ldr	w0, [sp, #12]
}
  601040eafc:	910043ff 	add	sp, sp, #0x10
  601040eb00:	d65f03c0 	ret

000000601040eb04 <gic_write_end_of_irq>:

inline void
gic_write_end_of_irq(uint32_t x)
{
  601040eb04:	d10043ff 	sub	sp, sp, #0x10
  601040eb08:	b9000fe0 	str	w0, [sp, #12]
    __asm__ volatile("msr S3_0_C12_C12_1, %0" : : "r"(x));
  601040eb0c:	b9400fe0 	ldr	w0, [sp, #12]
  601040eb10:	d518cc20 	msr	s3_0_c12_c12_1, x0
}
  601040eb14:	d503201f 	nop
  601040eb18:	910043ff 	add	sp, sp, #0x10
  601040eb1c:	d65f03c0 	ret

000000601040eb20 <icc_sre_el1>:

static inline uint32_t icc_sre_el1()
{
  601040eb20:	d10043ff 	sub	sp, sp, #0x10
    uint32_t x;
    __asm__ volatile("mrs %0, S3_0_C12_C12_5" : "=r"(x));
  601040eb24:	d538cca0 	mrs	x0, s3_0_c12_c12_5
  601040eb28:	b9000fe0 	str	w0, [sp, #12]
    return x;
  601040eb2c:	b9400fe0 	ldr	w0, [sp, #12]
}
  601040eb30:	910043ff 	add	sp, sp, #0x10
  601040eb34:	d65f03c0 	ret

000000601040eb38 <w_icc_sre_el1>:

static inline void w_icc_sre_el1(uint32_t x)
{
  601040eb38:	d10043ff 	sub	sp, sp, #0x10
  601040eb3c:	b9000fe0 	str	w0, [sp, #12]
    __asm__ volatile("msr S3_0_C12_C12_5, %0" : : "r"(x));
  601040eb40:	b9400fe0 	ldr	w0, [sp, #12]
  601040eb44:	d518cca0 	msr	s3_0_c12_c12_5, x0
}
  601040eb48:	d503201f 	nop
  601040eb4c:	910043ff 	add	sp, sp, #0x10
  601040eb50:	d65f03c0 	ret

000000601040eb54 <gicd_write>:

static void gicd_write(uint32_t off, uint32_t val)
{
  601040eb54:	d10043ff 	sub	sp, sp, #0x10
  601040eb58:	b9000fe0 	str	w0, [sp, #12]
  601040eb5c:	b9000be1 	str	w1, [sp, #8]
    *(volatile uint32_t*)(gicv3.gicd + off) = val;
  601040eb60:	b00089a0 	adrp	x0, 6011543000 <_binary_default_fs_start+0x96000>
  601040eb64:	9119c000 	add	x0, x0, #0x670
  601040eb68:	f9400001 	ldr	x1, [x0]
  601040eb6c:	b9400fe0 	ldr	w0, [sp, #12]
  601040eb70:	8b000020 	add	x0, x1, x0
  601040eb74:	b9400be1 	ldr	w1, [sp, #8]
  601040eb78:	b9000001 	str	w1, [x0]
}
  601040eb7c:	d503201f 	nop
  601040eb80:	910043ff 	add	sp, sp, #0x10
  601040eb84:	d65f03c0 	ret

000000601040eb88 <gicd_read>:

static uint32_t gicd_read(uint32_t off)
{
  601040eb88:	d10043ff 	sub	sp, sp, #0x10
  601040eb8c:	b9000fe0 	str	w0, [sp, #12]
    return *(volatile uint32_t*)(gicv3.gicd + off);
  601040eb90:	b00089a0 	adrp	x0, 6011543000 <_binary_default_fs_start+0x96000>
  601040eb94:	9119c000 	add	x0, x0, #0x670
  601040eb98:	f9400001 	ldr	x1, [x0]
  601040eb9c:	b9400fe0 	ldr	w0, [sp, #12]
  601040eba0:	8b000020 	add	x0, x1, x0
  601040eba4:	b9400000 	ldr	w0, [x0]
}
  601040eba8:	910043ff 	add	sp, sp, #0x10
  601040ebac:	d65f03c0 	ret

000000601040ebb0 <gicr_write>:

static void gicr_write(uint32_t cpuid, uint32_t off, uint32_t val)
{
  601040ebb0:	d10043ff 	sub	sp, sp, #0x10
  601040ebb4:	b9000fe0 	str	w0, [sp, #12]
  601040ebb8:	b9000be1 	str	w1, [sp, #8]
  601040ebbc:	b90007e2 	str	w2, [sp, #4]
    *(volatile uint32_t*)(gicv3.rdist_addrs[cpuid] + off) = val;
  601040ebc0:	b00089a0 	adrp	x0, 6011543000 <_binary_default_fs_start+0x96000>
  601040ebc4:	9119c001 	add	x1, x0, #0x670
  601040ebc8:	b9400fe0 	ldr	w0, [sp, #12]
  601040ebcc:	d37df000 	lsl	x0, x0, #3
  601040ebd0:	8b000020 	add	x0, x1, x0
  601040ebd4:	f9400401 	ldr	x1, [x0, #8]
  601040ebd8:	b9400be0 	ldr	w0, [sp, #8]
  601040ebdc:	8b000020 	add	x0, x1, x0
  601040ebe0:	b94007e1 	ldr	w1, [sp, #4]
  601040ebe4:	b9000001 	str	w1, [x0]
}
  601040ebe8:	d503201f 	nop
  601040ebec:	910043ff 	add	sp, sp, #0x10
  601040ebf0:	d65f03c0 	ret

000000601040ebf4 <gicr_read>:

static uint32_t gicr_read(uint32_t cpuid, uint32_t off)
{
  601040ebf4:	d10043ff 	sub	sp, sp, #0x10
  601040ebf8:	b9000fe0 	str	w0, [sp, #12]
  601040ebfc:	b9000be1 	str	w1, [sp, #8]
    return *(volatile uint32_t*)(gicv3.rdist_addrs[cpuid] + off);
  601040ec00:	b00089a0 	adrp	x0, 6011543000 <_binary_default_fs_start+0x96000>
  601040ec04:	9119c001 	add	x1, x0, #0x670
  601040ec08:	b9400fe0 	ldr	w0, [sp, #12]
  601040ec0c:	d37df000 	lsl	x0, x0, #3
  601040ec10:	8b000020 	add	x0, x1, x0
  601040ec14:	f9400401 	ldr	x1, [x0, #8]
  601040ec18:	b9400be0 	ldr	w0, [sp, #8]
  601040ec1c:	8b000020 	add	x0, x1, x0
  601040ec20:	b9400000 	ldr	w0, [x0]
}
  601040ec24:	910043ff 	add	sp, sp, #0x10
  601040ec28:	d65f03c0 	ret

000000601040ec2c <giccinit>:

static void giccinit()
{
  601040ec2c:	a9bf7bfd 	stp	x29, x30, [sp, #-16]!
  601040ec30:	910003fd 	mov	x29, sp
    w_icc_igrpen1_el1(0);
  601040ec34:	52800000 	mov	w0, #0x0                   	// #0
  601040ec38:	97ffff9f 	bl	601040eab4 <w_icc_igrpen1_el1>
    w_icc_pmr_el1(0xff);
  601040ec3c:	52801fe0 	mov	w0, #0xff                  	// #255
  601040ec40:	97ffffa4 	bl	601040ead0 <w_icc_pmr_el1>
}
  601040ec44:	d503201f 	nop
  601040ec48:	a8c17bfd 	ldp	x29, x30, [sp], #16
  601040ec4c:	d65f03c0 	ret

000000601040ec50 <gicdinit>:

static void gicdinit()
{
  601040ec50:	a9be7bfd 	stp	x29, x30, [sp, #-32]!
  601040ec54:	910003fd 	mov	x29, sp
    gicd_write(D_CTLR, 0);
  601040ec58:	52800001 	mov	w1, #0x0                   	// #0
  601040ec5c:	52800000 	mov	w0, #0x0                   	// #0
  601040ec60:	97ffffbd 	bl	601040eb54 <gicd_write>

    uint32_t typer = gicd_read(D_TYPER);
  601040ec64:	52800080 	mov	w0, #0x4                   	// #4
  601040ec68:	97ffffc8 	bl	601040eb88 <gicd_read>
  601040ec6c:	b9001be0 	str	w0, [sp, #24]
    uint32_t lines = typer & 0x1f;
  601040ec70:	b9401be0 	ldr	w0, [sp, #24]
  601040ec74:	12001000 	and	w0, w0, #0x1f
  601040ec78:	b90017e0 	str	w0, [sp, #20]

    for (int i = 0; i < lines; i++)
  601040ec7c:	b9001fff 	str	wzr, [sp, #28]
  601040ec80:	14000009 	b	601040eca4 <gicdinit+0x54>
        gicd_write(D_IGROUPR(i), ~0);
  601040ec84:	b9801fe0 	ldrsw	x0, [sp, #28]
  601040ec88:	91008000 	add	x0, x0, #0x20
  601040ec8c:	531e7400 	lsl	w0, w0, #2
  601040ec90:	12800001 	mov	w1, #0xffffffff            	// #-1
  601040ec94:	97ffffb0 	bl	601040eb54 <gicd_write>
    for (int i = 0; i < lines; i++)
  601040ec98:	b9401fe0 	ldr	w0, [sp, #28]
  601040ec9c:	11000400 	add	w0, w0, #0x1
  601040eca0:	b9001fe0 	str	w0, [sp, #28]
  601040eca4:	b9401fe0 	ldr	w0, [sp, #28]
  601040eca8:	b94017e1 	ldr	w1, [sp, #20]
  601040ecac:	6b00003f 	cmp	w1, w0
  601040ecb0:	54fffea8 	b.hi	601040ec84 <gicdinit+0x34>  // b.pmore
}
  601040ecb4:	d503201f 	nop
  601040ecb8:	d503201f 	nop
  601040ecbc:	a8c27bfd 	ldp	x29, x30, [sp], #32
  601040ecc0:	d65f03c0 	ret

000000601040ecc4 <gicrinit>:

static void gicrinit(uint32_t cpuid)
{
  601040ecc4:	a9bd7bfd 	stp	x29, x30, [sp, #-48]!
  601040ecc8:	910003fd 	mov	x29, sp
  601040eccc:	b9001fe0 	str	w0, [sp, #28]
    gicr_write(cpuid, R_CTLR, 0);
  601040ecd0:	52800002 	mov	w2, #0x0                   	// #0
  601040ecd4:	52800001 	mov	w1, #0x0                   	// #0
  601040ecd8:	b9401fe0 	ldr	w0, [sp, #28]
  601040ecdc:	97ffffb5 	bl	601040ebb0 <gicr_write>

    w_icc_sre_el1(icc_sre_el1() | 1);
  601040ece0:	97ffff90 	bl	601040eb20 <icc_sre_el1>
  601040ece4:	32000000 	orr	w0, w0, #0x1
  601040ece8:	97ffff94 	bl	601040eb38 <w_icc_sre_el1>

    gicr_write(cpuid, R_IGROUPR0, ~0);
  601040ecec:	12800002 	mov	w2, #0xffffffff            	// #-1
  601040ecf0:	52801001 	mov	w1, #0x80                  	// #128
  601040ecf4:	72a00021 	movk	w1, #0x1, lsl #16
  601040ecf8:	b9401fe0 	ldr	w0, [sp, #28]
  601040ecfc:	97ffffad 	bl	601040ebb0 <gicr_write>
    gicr_write(cpuid, R_IGRPMODR0, 0);
  601040ed00:	52800002 	mov	w2, #0x0                   	// #0
  601040ed04:	5281a001 	mov	w1, #0xd00                 	// #3328
  601040ed08:	72a00021 	movk	w1, #0x1, lsl #16
  601040ed0c:	b9401fe0 	ldr	w0, [sp, #28]
  601040ed10:	97ffffa8 	bl	601040ebb0 <gicr_write>

    uint32_t waker = gicr_read(cpuid, R_WAKER);
  601040ed14:	52800281 	mov	w1, #0x14                  	// #20
  601040ed18:	b9401fe0 	ldr	w0, [sp, #28]
  601040ed1c:	97ffffb6 	bl	601040ebf4 <gicr_read>
  601040ed20:	b9002fe0 	str	w0, [sp, #44]
    gicr_write(cpuid, R_WAKER, waker & ~(1 << 1));
  601040ed24:	b9402fe0 	ldr	w0, [sp, #44]
  601040ed28:	121e7800 	and	w0, w0, #0xfffffffd
  601040ed2c:	2a0003e2 	mov	w2, w0
  601040ed30:	52800281 	mov	w1, #0x14                  	// #20
  601040ed34:	b9401fe0 	ldr	w0, [sp, #28]
  601040ed38:	97ffff9e 	bl	601040ebb0 <gicr_write>
    while (gicr_read(cpuid, R_WAKER) & (1 << 2))
  601040ed3c:	d503201f 	nop
  601040ed40:	52800281 	mov	w1, #0x14                  	// #20
  601040ed44:	b9401fe0 	ldr	w0, [sp, #28]
  601040ed48:	97ffffab 	bl	601040ebf4 <gicr_read>
  601040ed4c:	121e0000 	and	w0, w0, #0x4
  601040ed50:	7100001f 	cmp	w0, #0x0
  601040ed54:	54ffff61 	b.ne	601040ed40 <gicrinit+0x7c>  // b.any
        ;
}
  601040ed58:	d503201f 	nop
  601040ed5c:	d503201f 	nop
  601040ed60:	a8c37bfd 	ldp	x29, x30, [sp], #48
  601040ed64:	d65f03c0 	ret

000000601040ed68 <gic_enable>:

void gic_enable()
{
  601040ed68:	a9bf7bfd 	stp	x29, x30, [sp, #-16]!
  601040ed6c:	910003fd 	mov	x29, sp
    gicd_write(D_CTLR, (1 << 1));
  601040ed70:	52800041 	mov	w1, #0x2                   	// #2
  601040ed74:	52800000 	mov	w0, #0x0                   	// #0
  601040ed78:	97ffff77 	bl	601040eb54 <gicd_write>
    w_icc_igrpen1_el1(1);
  601040ed7c:	52800020 	mov	w0, #0x1                   	// #1
  601040ed80:	97ffff4d 	bl	601040eab4 <w_icc_igrpen1_el1>
}
  601040ed84:	d503201f 	nop
  601040ed88:	a8c17bfd 	ldp	x29, x30, [sp], #16
  601040ed8c:	d65f03c0 	ret

000000601040ed90 <gic_init>:

void gic_init()
{
  601040ed90:	a9be7bfd 	stp	x29, x30, [sp, #-32]!
  601040ed94:	910003fd 	mov	x29, sp
    gicv3.gicd = (char*)GICV3;
  601040ed98:	b00089a0 	adrp	x0, 6011543000 <_binary_default_fs_start+0x96000>
  601040ed9c:	9119c000 	add	x0, x0, #0x670
  601040eda0:	d2bfa801 	mov	x1, #0xfd400000            	// #4248829952
  601040eda4:	f2c00801 	movk	x1, #0x40, lsl #32
  601040eda8:	f9000001 	str	x1, [x0]
    for (int i = 0; i < NR_CPU; i++) {
  601040edac:	b9001fff 	str	wzr, [sp, #28]
  601040edb0:	14000011 	b	601040edf4 <gic_init+0x64>
        gicv3.rdist_addrs[i] = (char*)(GICV3_REDIST + (i) * 0x20000);
  601040edb4:	b9401fe0 	ldr	w0, [sp, #28]
  601040edb8:	530f3800 	lsl	w0, w0, #17
  601040edbc:	93407c01 	sxtw	x1, w0
  601040edc0:	d2bfa8c0 	mov	x0, #0xfd460000            	// #4249223168
  601040edc4:	f2c00800 	movk	x0, #0x40, lsl #32
  601040edc8:	8b000020 	add	x0, x1, x0
  601040edcc:	aa0003e2 	mov	x2, x0
  601040edd0:	b00089a0 	adrp	x0, 6011543000 <_binary_default_fs_start+0x96000>
  601040edd4:	9119c001 	add	x1, x0, #0x670
  601040edd8:	b9801fe0 	ldrsw	x0, [sp, #28]
  601040eddc:	d37df000 	lsl	x0, x0, #3
  601040ede0:	8b000020 	add	x0, x1, x0
  601040ede4:	f9000402 	str	x2, [x0, #8]
    for (int i = 0; i < NR_CPU; i++) {
  601040ede8:	b9401fe0 	ldr	w0, [sp, #28]
  601040edec:	11000400 	add	w0, w0, #0x1
  601040edf0:	b9001fe0 	str	w0, [sp, #28]
  601040edf4:	b9401fe0 	ldr	w0, [sp, #28]
  601040edf8:	7100001f 	cmp	w0, #0x0
  601040edfc:	54fffdcd 	b.le	601040edb4 <gic_init+0x24>
    }

    gicdinit();
  601040ee00:	97ffff94 	bl	601040ec50 <gicdinit>
}
  601040ee04:	d503201f 	nop
  601040ee08:	a8c27bfd 	ldp	x29, x30, [sp], #32
  601040ee0c:	d65f03c0 	ret

000000601040ee10 <gicv3inithart>:

void gicv3inithart(uint32_t cpu_id)
{
  601040ee10:	a9be7bfd 	stp	x29, x30, [sp, #-32]!
  601040ee14:	910003fd 	mov	x29, sp
  601040ee18:	b9001fe0 	str	w0, [sp, #28]
    giccinit();
  601040ee1c:	97ffff84 	bl	601040ec2c <giccinit>
    gicrinit(cpu_id);
  601040ee20:	b9401fe0 	ldr	w0, [sp, #28]
  601040ee24:	97ffffa8 	bl	601040ecc4 <gicrinit>

    gic_enable();
  601040ee28:	97ffffd0 	bl	601040ed68 <gic_enable>
}
  601040ee2c:	d503201f 	nop
  601040ee30:	a8c27bfd 	ldp	x29, x30, [sp], #32
  601040ee34:	d65f03c0 	ret

000000601040ee38 <gic_enable_int>:

static void
gic_enable_int(uint32_t intid)
{
  601040ee38:	a9bd7bfd 	stp	x29, x30, [sp, #-48]!
  601040ee3c:	910003fd 	mov	x29, sp
  601040ee40:	b9001fe0 	str	w0, [sp, #28]
    uint32_t is = gicd_read(D_ISENABLER(intid / 32));
  601040ee44:	b9401fe0 	ldr	w0, [sp, #28]
  601040ee48:	53057c00 	lsr	w0, w0, #5
  601040ee4c:	11010000 	add	w0, w0, #0x40
  601040ee50:	531e7400 	lsl	w0, w0, #2
  601040ee54:	97ffff4d 	bl	601040eb88 <gicd_read>
  601040ee58:	b9002fe0 	str	w0, [sp, #44]
    is |= 1 << (intid % 32);
  601040ee5c:	b9401fe0 	ldr	w0, [sp, #28]
  601040ee60:	12001000 	and	w0, w0, #0x1f
  601040ee64:	52800021 	mov	w1, #0x1                   	// #1
  601040ee68:	1ac02020 	lsl	w0, w1, w0
  601040ee6c:	2a0003e1 	mov	w1, w0
  601040ee70:	b9402fe0 	ldr	w0, [sp, #44]
  601040ee74:	2a010000 	orr	w0, w0, w1
  601040ee78:	b9002fe0 	str	w0, [sp, #44]
    gicd_write(D_ISENABLER(intid / 32), is);
  601040ee7c:	b9401fe0 	ldr	w0, [sp, #28]
  601040ee80:	53057c00 	lsr	w0, w0, #5
  601040ee84:	11010000 	add	w0, w0, #0x40
  601040ee88:	531e7400 	lsl	w0, w0, #2
  601040ee8c:	b9402fe1 	ldr	w1, [sp, #44]
  601040ee90:	97ffff31 	bl	601040eb54 <gicd_write>
}
  601040ee94:	d503201f 	nop
  601040ee98:	a8c37bfd 	ldp	x29, x30, [sp], #48
  601040ee9c:	d65f03c0 	ret

000000601040eea0 <gic_int_enabled>:

int gic_int_enabled(uint32_t intid)
{
  601040eea0:	a9bd7bfd 	stp	x29, x30, [sp, #-48]!
  601040eea4:	910003fd 	mov	x29, sp
  601040eea8:	b9001fe0 	str	w0, [sp, #28]
    uint32_t is = gicd_read(D_ISENABLER(intid / 32));
  601040eeac:	b9401fe0 	ldr	w0, [sp, #28]
  601040eeb0:	53057c00 	lsr	w0, w0, #5
  601040eeb4:	11010000 	add	w0, w0, #0x40
  601040eeb8:	531e7400 	lsl	w0, w0, #2
  601040eebc:	97ffff33 	bl	601040eb88 <gicd_read>
  601040eec0:	b9002fe0 	str	w0, [sp, #44]
    return is & (1 << (intid % 32));
  601040eec4:	b9401fe0 	ldr	w0, [sp, #28]
  601040eec8:	12001000 	and	w0, w0, #0x1f
  601040eecc:	52800021 	mov	w1, #0x1                   	// #1
  601040eed0:	1ac02020 	lsl	w0, w1, w0
  601040eed4:	2a0003e1 	mov	w1, w0
  601040eed8:	b9402fe0 	ldr	w0, [sp, #44]
  601040eedc:	0a000020 	and	w0, w1, w0
}
  601040eee0:	a8c37bfd 	ldp	x29, x30, [sp], #48
  601040eee4:	d65f03c0 	ret

000000601040eee8 <gic_clear_pending>:

static void
gic_clear_pending(uint32_t intid)
{
  601040eee8:	a9bd7bfd 	stp	x29, x30, [sp, #-48]!
  601040eeec:	910003fd 	mov	x29, sp
  601040eef0:	b9001fe0 	str	w0, [sp, #28]
    uint32_t ic = gicd_read(D_ICPENDR(intid / 32));
  601040eef4:	b9401fe0 	ldr	w0, [sp, #28]
  601040eef8:	53057c00 	lsr	w0, w0, #5
  601040eefc:	11028000 	add	w0, w0, #0xa0
  601040ef00:	531e7400 	lsl	w0, w0, #2
  601040ef04:	97ffff21 	bl	601040eb88 <gicd_read>
  601040ef08:	b9002fe0 	str	w0, [sp, #44]
    ic |= 1 << (intid % 32);
  601040ef0c:	b9401fe0 	ldr	w0, [sp, #28]
  601040ef10:	12001000 	and	w0, w0, #0x1f
  601040ef14:	52800021 	mov	w1, #0x1                   	// #1
  601040ef18:	1ac02020 	lsl	w0, w1, w0
  601040ef1c:	2a0003e1 	mov	w1, w0
  601040ef20:	b9402fe0 	ldr	w0, [sp, #44]
  601040ef24:	2a010000 	orr	w0, w0, w1
  601040ef28:	b9002fe0 	str	w0, [sp, #44]
    gicd_write(D_ICPENDR(intid / 32), ic);
  601040ef2c:	b9401fe0 	ldr	w0, [sp, #28]
  601040ef30:	53057c00 	lsr	w0, w0, #5
  601040ef34:	11028000 	add	w0, w0, #0xa0
  601040ef38:	531e7400 	lsl	w0, w0, #2
  601040ef3c:	b9402fe1 	ldr	w1, [sp, #44]
  601040ef40:	97ffff05 	bl	601040eb54 <gicd_write>
}
  601040ef44:	d503201f 	nop
  601040ef48:	a8c37bfd 	ldp	x29, x30, [sp], #48
  601040ef4c:	d65f03c0 	ret

000000601040ef50 <gic_set_prio0>:

static void
gic_set_prio0(uint32_t intid)
{
  601040ef50:	a9bd7bfd 	stp	x29, x30, [sp, #-48]!
  601040ef54:	910003fd 	mov	x29, sp
  601040ef58:	b9001fe0 	str	w0, [sp, #28]
    // set priority to 0
    uint32_t p = gicd_read(D_IPRIORITYR(intid / 4));
  601040ef5c:	b9401fe0 	ldr	w0, [sp, #28]
  601040ef60:	53027c00 	lsr	w0, w0, #2
  601040ef64:	11040000 	add	w0, w0, #0x100
  601040ef68:	531e7400 	lsl	w0, w0, #2
  601040ef6c:	97ffff07 	bl	601040eb88 <gicd_read>
  601040ef70:	b9002fe0 	str	w0, [sp, #44]
    p &= ~((uint32_t)0xff << (intid % 4 * 8)); // set prio 0
  601040ef74:	b9401fe0 	ldr	w0, [sp, #28]
  601040ef78:	12000400 	and	w0, w0, #0x3
  601040ef7c:	531d7000 	lsl	w0, w0, #3
  601040ef80:	52801fe1 	mov	w1, #0xff                  	// #255
  601040ef84:	1ac02020 	lsl	w0, w1, w0
  601040ef88:	2a2003e0 	mvn	w0, w0
  601040ef8c:	b9402fe1 	ldr	w1, [sp, #44]
  601040ef90:	0a000020 	and	w0, w1, w0
  601040ef94:	b9002fe0 	str	w0, [sp, #44]
    gicd_write(D_IPRIORITYR(intid / 4), p);
  601040ef98:	b9401fe0 	ldr	w0, [sp, #28]
  601040ef9c:	53027c00 	lsr	w0, w0, #2
  601040efa0:	11040000 	add	w0, w0, #0x100
  601040efa4:	531e7400 	lsl	w0, w0, #2
  601040efa8:	b9402fe1 	ldr	w1, [sp, #44]
  601040efac:	97fffeea 	bl	601040eb54 <gicd_write>
}
  601040efb0:	d503201f 	nop
  601040efb4:	a8c37bfd 	ldp	x29, x30, [sp], #48
  601040efb8:	d65f03c0 	ret

000000601040efbc <gic_set_target>:

static void gic_set_target(uint32_t intid, uint32_t cpuid)
{
  601040efbc:	a9bd7bfd 	stp	x29, x30, [sp, #-48]!
  601040efc0:	910003fd 	mov	x29, sp
  601040efc4:	b9001fe0 	str	w0, [sp, #28]
  601040efc8:	b9001be1 	str	w1, [sp, #24]
    uint32_t itargetsr = gicd_read(D_ITARGETSR(intid / 4));
  601040efcc:	b9401fe0 	ldr	w0, [sp, #28]
  601040efd0:	53027c00 	lsr	w0, w0, #2
  601040efd4:	11080000 	add	w0, w0, #0x200
  601040efd8:	531e7400 	lsl	w0, w0, #2
  601040efdc:	97fffeeb 	bl	601040eb88 <gicd_read>
  601040efe0:	b9002fe0 	str	w0, [sp, #44]
    itargetsr &= ~((uint32_t)0xff << (intid % 4 * 8));
  601040efe4:	b9401fe0 	ldr	w0, [sp, #28]
  601040efe8:	12000400 	and	w0, w0, #0x3
  601040efec:	531d7000 	lsl	w0, w0, #3
  601040eff0:	52801fe1 	mov	w1, #0xff                  	// #255
  601040eff4:	1ac02020 	lsl	w0, w1, w0
  601040eff8:	2a2003e0 	mvn	w0, w0
  601040effc:	b9402fe1 	ldr	w1, [sp, #44]
  601040f000:	0a000020 	and	w0, w1, w0
  601040f004:	b9002fe0 	str	w0, [sp, #44]
    gicd_write(D_ITARGETSR(intid / 4), itargetsr | ((uint32_t)(1 << cpuid) << (intid % 4 * 8)));
  601040f008:	b9401fe0 	ldr	w0, [sp, #28]
  601040f00c:	53027c00 	lsr	w0, w0, #2
  601040f010:	11080000 	add	w0, w0, #0x200
  601040f014:	531e7402 	lsl	w2, w0, #2
  601040f018:	b9401be0 	ldr	w0, [sp, #24]
  601040f01c:	52800021 	mov	w1, #0x1                   	// #1
  601040f020:	1ac02020 	lsl	w0, w1, w0
  601040f024:	2a0003e1 	mov	w1, w0
  601040f028:	b9401fe0 	ldr	w0, [sp, #28]
  601040f02c:	12000400 	and	w0, w0, #0x3
  601040f030:	531d7000 	lsl	w0, w0, #3
  601040f034:	1ac02021 	lsl	w1, w1, w0
  601040f038:	b9402fe0 	ldr	w0, [sp, #44]
  601040f03c:	2a000020 	orr	w0, w1, w0
  601040f040:	2a0003e1 	mov	w1, w0
  601040f044:	2a0203e0 	mov	w0, w2
  601040f048:	97fffec3 	bl	601040eb54 <gicd_write>
}
  601040f04c:	d503201f 	nop
  601040f050:	a8c37bfd 	ldp	x29, x30, [sp], #48
  601040f054:	d65f03c0 	ret

000000601040f058 <gicr_enable_int>:

static void
gicr_enable_int(uint32_t cpuid, uint32_t intid)
{
  601040f058:	a9bd7bfd 	stp	x29, x30, [sp, #-48]!
  601040f05c:	910003fd 	mov	x29, sp
  601040f060:	b9001fe0 	str	w0, [sp, #28]
  601040f064:	b9001be1 	str	w1, [sp, #24]
    uint32_t is = gicr_read(cpuid, R_ISENABLER0);
  601040f068:	52802001 	mov	w1, #0x100                 	// #256
  601040f06c:	72a00021 	movk	w1, #0x1, lsl #16
  601040f070:	b9401fe0 	ldr	w0, [sp, #28]
  601040f074:	97fffee0 	bl	601040ebf4 <gicr_read>
  601040f078:	b9002fe0 	str	w0, [sp, #44]
    is |= 1 << (intid % 32);
  601040f07c:	b9401be0 	ldr	w0, [sp, #24]
  601040f080:	12001000 	and	w0, w0, #0x1f
  601040f084:	52800021 	mov	w1, #0x1                   	// #1
  601040f088:	1ac02020 	lsl	w0, w1, w0
  601040f08c:	2a0003e1 	mov	w1, w0
  601040f090:	b9402fe0 	ldr	w0, [sp, #44]
  601040f094:	2a010000 	orr	w0, w0, w1
  601040f098:	b9002fe0 	str	w0, [sp, #44]
    gicr_write(cpuid, R_ISENABLER0, is);
  601040f09c:	b9402fe2 	ldr	w2, [sp, #44]
  601040f0a0:	52802001 	mov	w1, #0x100                 	// #256
  601040f0a4:	72a00021 	movk	w1, #0x1, lsl #16
  601040f0a8:	b9401fe0 	ldr	w0, [sp, #28]
  601040f0ac:	97fffec1 	bl	601040ebb0 <gicr_write>
}
  601040f0b0:	d503201f 	nop
  601040f0b4:	a8c37bfd 	ldp	x29, x30, [sp], #48
  601040f0b8:	d65f03c0 	ret

000000601040f0bc <gicr_clear_pending>:

static void
gicr_clear_pending(uint32_t cpuid, uint32_t intid)
{
  601040f0bc:	a9bd7bfd 	stp	x29, x30, [sp, #-48]!
  601040f0c0:	910003fd 	mov	x29, sp
  601040f0c4:	b9001fe0 	str	w0, [sp, #28]
  601040f0c8:	b9001be1 	str	w1, [sp, #24]
    uint32_t ic = gicr_read(cpuid, R_ICPENDR0);
  601040f0cc:	52805001 	mov	w1, #0x280                 	// #640
  601040f0d0:	72a00021 	movk	w1, #0x1, lsl #16
  601040f0d4:	b9401fe0 	ldr	w0, [sp, #28]
  601040f0d8:	97fffec7 	bl	601040ebf4 <gicr_read>
  601040f0dc:	b9002fe0 	str	w0, [sp, #44]
    ic |= 1 << (intid % 32);
  601040f0e0:	b9401be0 	ldr	w0, [sp, #24]
  601040f0e4:	12001000 	and	w0, w0, #0x1f
  601040f0e8:	52800021 	mov	w1, #0x1                   	// #1
  601040f0ec:	1ac02020 	lsl	w0, w1, w0
  601040f0f0:	2a0003e1 	mov	w1, w0
  601040f0f4:	b9402fe0 	ldr	w0, [sp, #44]
  601040f0f8:	2a010000 	orr	w0, w0, w1
  601040f0fc:	b9002fe0 	str	w0, [sp, #44]
    gicr_write(cpuid, R_ICPENDR0, ic);
  601040f100:	b9402fe2 	ldr	w2, [sp, #44]
  601040f104:	52805001 	mov	w1, #0x280                 	// #640
  601040f108:	72a00021 	movk	w1, #0x1, lsl #16
  601040f10c:	b9401fe0 	ldr	w0, [sp, #28]
  601040f110:	97fffea8 	bl	601040ebb0 <gicr_write>
}
  601040f114:	d503201f 	nop
  601040f118:	a8c37bfd 	ldp	x29, x30, [sp], #48
  601040f11c:	d65f03c0 	ret

000000601040f120 <gicr_set_prio0>:

static void
gicr_set_prio0(uint32_t cpuid, uint32_t intid)
{
  601040f120:	a9bd7bfd 	stp	x29, x30, [sp, #-48]!
  601040f124:	910003fd 	mov	x29, sp
  601040f128:	b9001fe0 	str	w0, [sp, #28]
  601040f12c:	b9001be1 	str	w1, [sp, #24]
    uint32_t p = gicr_read(cpuid, R_IPRIORITYR(intid / 4));
  601040f130:	b9401be0 	ldr	w0, [sp, #24]
  601040f134:	121e7401 	and	w1, w0, #0xfffffffc
  601040f138:	52808000 	mov	w0, #0x400                 	// #1024
  601040f13c:	72a00020 	movk	w0, #0x1, lsl #16
  601040f140:	0b000020 	add	w0, w1, w0
  601040f144:	2a0003e1 	mov	w1, w0
  601040f148:	b9401fe0 	ldr	w0, [sp, #28]
  601040f14c:	97fffeaa 	bl	601040ebf4 <gicr_read>
  601040f150:	b9002fe0 	str	w0, [sp, #44]
    p &= ~((uint32_t)0xff << (intid % 4 * 8)); // set prio 0
  601040f154:	b9401be0 	ldr	w0, [sp, #24]
  601040f158:	12000400 	and	w0, w0, #0x3
  601040f15c:	531d7000 	lsl	w0, w0, #3
  601040f160:	52801fe1 	mov	w1, #0xff                  	// #255
  601040f164:	1ac02020 	lsl	w0, w1, w0
  601040f168:	2a2003e0 	mvn	w0, w0
  601040f16c:	b9402fe1 	ldr	w1, [sp, #44]
  601040f170:	0a000020 	and	w0, w1, w0
  601040f174:	b9002fe0 	str	w0, [sp, #44]
    gicr_write(cpuid, R_IPRIORITYR(intid / 4), p);
  601040f178:	b9401be0 	ldr	w0, [sp, #24]
  601040f17c:	121e7401 	and	w1, w0, #0xfffffffc
  601040f180:	52808000 	mov	w0, #0x400                 	// #1024
  601040f184:	72a00020 	movk	w0, #0x1, lsl #16
  601040f188:	0b000020 	add	w0, w1, w0
  601040f18c:	b9402fe2 	ldr	w2, [sp, #44]
  601040f190:	2a0003e1 	mov	w1, w0
  601040f194:	b9401fe0 	ldr	w0, [sp, #28]
  601040f198:	97fffe86 	bl	601040ebb0 <gicr_write>
}
  601040f19c:	d503201f 	nop
  601040f1a0:	a8c37bfd 	ldp	x29, x30, [sp], #48
  601040f1a4:	d65f03c0 	ret

000000601040f1a8 <gic_setup_ppi>:

void gic_setup_ppi(uint32_t cpuid, uint32_t intid)
{
  601040f1a8:	a9be7bfd 	stp	x29, x30, [sp, #-32]!
  601040f1ac:	910003fd 	mov	x29, sp
  601040f1b0:	b9001fe0 	str	w0, [sp, #28]
  601040f1b4:	b9001be1 	str	w1, [sp, #24]
    gicr_set_prio0(cpuid, intid);
  601040f1b8:	b9401be1 	ldr	w1, [sp, #24]
  601040f1bc:	b9401fe0 	ldr	w0, [sp, #28]
  601040f1c0:	97ffffd8 	bl	601040f120 <gicr_set_prio0>
    gicr_clear_pending(cpuid, intid);
  601040f1c4:	b9401be1 	ldr	w1, [sp, #24]
  601040f1c8:	b9401fe0 	ldr	w0, [sp, #28]
  601040f1cc:	97ffffbc 	bl	601040f0bc <gicr_clear_pending>
    gicr_enable_int(cpuid, intid);
  601040f1d0:	b9401be1 	ldr	w1, [sp, #24]
  601040f1d4:	b9401fe0 	ldr	w0, [sp, #28]
  601040f1d8:	97ffffa0 	bl	601040f058 <gicr_enable_int>
}
  601040f1dc:	d503201f 	nop
  601040f1e0:	a8c27bfd 	ldp	x29, x30, [sp], #32
  601040f1e4:	d65f03c0 	ret

000000601040f1e8 <gic_setup_spi>:

void gic_setup_spi(uint32_t cpuid, uint32_t intid)
{
  601040f1e8:	a9be7bfd 	stp	x29, x30, [sp, #-32]!
  601040f1ec:	910003fd 	mov	x29, sp
  601040f1f0:	b9001fe0 	str	w0, [sp, #28]
  601040f1f4:	b9001be1 	str	w1, [sp, #24]
    gic_set_prio0(intid);
  601040f1f8:	b9401be0 	ldr	w0, [sp, #24]
  601040f1fc:	97ffff55 	bl	601040ef50 <gic_set_prio0>
    gic_set_target(intid, cpuid);
  601040f200:	b9401fe1 	ldr	w1, [sp, #28]
  601040f204:	b9401be0 	ldr	w0, [sp, #24]
  601040f208:	97ffff6d 	bl	601040efbc <gic_set_target>
    gic_clear_pending(intid);
  601040f20c:	b9401be0 	ldr	w0, [sp, #24]
  601040f210:	97ffff36 	bl	601040eee8 <gic_clear_pending>
    gic_enable_int(intid);
  601040f214:	b9401be0 	ldr	w0, [sp, #24]
  601040f218:	97ffff08 	bl	601040ee38 <gic_enable_int>
}
  601040f21c:	d503201f 	nop
  601040f220:	a8c27bfd 	ldp	x29, x30, [sp], #32
  601040f224:	d65f03c0 	ret

000000601040f228 <gic_iar_irq>:

// irq from iar
int gic_iar_irq(uint32_t iar)
{
  601040f228:	d10043ff 	sub	sp, sp, #0x10
  601040f22c:	b9000fe0 	str	w0, [sp, #12]
    return iar & 0x3ff;
  601040f230:	b9400fe0 	ldr	w0, [sp, #12]
  601040f234:	12002400 	and	w0, w0, #0x3ff
}
  601040f238:	910043ff 	add	sp, sp, #0x10
  601040f23c:	d65f03c0 	ret

000000601040f240 <gic_iar>:

// interrupt acknowledge register:
// ask GIC what interrupt we should serve.
uint32_t gic_iar()
{
  601040f240:	a9bf7bfd 	stp	x29, x30, [sp, #-16]!
  601040f244:	910003fd 	mov	x29, sp
    return gic_read_irq_ack();
  601040f248:	97fffe29 	bl	601040eaec <gic_read_irq_ack>
}
  601040f24c:	a8c17bfd 	ldp	x29, x30, [sp], #16
  601040f250:	d65f03c0 	ret

000000601040f254 <gic_eoi>:

// tell GIC we've served this IRQ.
void gic_eoi(uint32_t iar)
{
  601040f254:	a9be7bfd 	stp	x29, x30, [sp, #-32]!
  601040f258:	910003fd 	mov	x29, sp
  601040f25c:	b9001fe0 	str	w0, [sp, #28]
    gic_write_end_of_irq(iar);
  601040f260:	b9401fe0 	ldr	w0, [sp, #28]
  601040f264:	97fffe28 	bl	601040eb04 <gic_write_end_of_irq>
}
  601040f268:	d503201f 	nop
  601040f26c:	a8c27bfd 	ldp	x29, x30, [sp], #32
  601040f270:	d65f03c0 	ret

000000601040f274 <w_vbar_el1>:
 * @author AIIT XUOS Lab
 * @date 2024.05.09
 */

static inline void w_vbar_el1(uint64_t x)
{
  601040f274:	d10043ff 	sub	sp, sp, #0x10
  601040f278:	f90007e0 	str	x0, [sp, #8]
    __asm__ volatile("msr vbar_el1, %0" : : "r"(x));
  601040f27c:	f94007e0 	ldr	x0, [sp, #8]
  601040f280:	d518c000 	msr	vbar_el1, x0
}
  601040f284:	d503201f 	nop
  601040f288:	910043ff 	add	sp, sp, #0x10
  601040f28c:	d65f03c0 	ret

000000601040f290 <intr_on>:
}

// enable interrupts(irq)
static inline void intr_on()
{
    __asm__ volatile("msr daifclr, #0xf" ::: "memory");
  601040f290:	d5034fff 	msr	daifclr, #0xf
}
  601040f294:	d503201f 	nop
  601040f298:	d65f03c0 	ret

000000601040f29c <intr_off>:

// disable interrupts(irq)
static inline void intr_off()
{
    __asm__ volatile("msr daifset, #0xf" ::: "memory");
  601040f29c:	d5034fdf 	msr	daifset, #0xf
  601040f2a0:	d503201f 	nop
  601040f2a4:	d65f03c0 	ret

000000601040f2a8 <panic>:
#include "multicores.h"

static struct XiziTrapDriver xizi_trap_driver;

void panic(char* s)
{
  601040f2a8:	a9be7bfd 	stp	x29, x30, [sp, #-32]!
  601040f2ac:	910003fd 	mov	x29, sp
  601040f2b0:	f9000fe0 	str	x0, [sp, #24]
    KPrintf("panic: %s\n", s);
  601040f2b4:	f9400fe1 	ldr	x1, [sp, #24]
  601040f2b8:	b0000080 	adrp	x0, 6010420000 <main+0x168>
  601040f2bc:	91238000 	add	x0, x0, #0x8e0
  601040f2c0:	940013ae 	bl	6010414178 <printf_>
    for (;;)
  601040f2c4:	14000000 	b	601040f2c4 <panic+0x1c>

000000601040f2c8 <_sys_irq_init>:
        ;
}

extern void alltraps();
static void _sys_irq_init(int cpu_id)
{
  601040f2c8:	a9be7bfd 	stp	x29, x30, [sp, #-32]!
  601040f2cc:	910003fd 	mov	x29, sp
  601040f2d0:	b9001fe0 	str	w0, [sp, #28]
    // primary core init intr
    xizi_trap_driver.switch_hw_irqtbl((uintptr_t*)alltraps);
  601040f2d4:	b00000a0 	adrp	x0, 6010424000 <impure_data+0x210>
  601040f2d8:	9116c000 	add	x0, x0, #0x5b0
  601040f2dc:	f9445001 	ldr	x1, [x0, #2208]
  601040f2e0:	900089a0 	adrp	x0, 6011543000 <_binary_default_fs_start+0x96000>
  601040f2e4:	f942d000 	ldr	x0, [x0, #1440]
  601040f2e8:	d63f0020 	blr	x1

    if (cpu_id == 0) {
  601040f2ec:	b9401fe0 	ldr	w0, [sp, #28]
  601040f2f0:	7100001f 	cmp	w0, #0x0
  601040f2f4:	54000041 	b.ne	601040f2fc <_sys_irq_init+0x34>  // b.any
        gic_init();
  601040f2f8:	97fffea6 	bl	601040ed90 <gic_init>
    }
    gicv3inithart(cpu_id);
  601040f2fc:	b9401fe0 	ldr	w0, [sp, #28]
  601040f300:	97fffec4 	bl	601040ee10 <gicv3inithart>
}
  601040f304:	d503201f 	nop
  601040f308:	a8c27bfd 	ldp	x29, x30, [sp], #32
  601040f30c:	d65f03c0 	ret

000000601040f310 <_cpu_irq_enable>:

static void _cpu_irq_enable(void)
{
  601040f310:	a9bf7bfd 	stp	x29, x30, [sp, #-16]!
  601040f314:	910003fd 	mov	x29, sp
    intr_on();
  601040f318:	97ffffde 	bl	601040f290 <intr_on>
}
  601040f31c:	d503201f 	nop
  601040f320:	a8c17bfd 	ldp	x29, x30, [sp], #16
  601040f324:	d65f03c0 	ret

000000601040f328 <_cpu_irq_disable>:

static void _cpu_irq_disable(void)
{
  601040f328:	a9bf7bfd 	stp	x29, x30, [sp, #-16]!
  601040f32c:	910003fd 	mov	x29, sp
    intr_off();
  601040f330:	97ffffdb 	bl	601040f29c <intr_off>
}
  601040f334:	d503201f 	nop
  601040f338:	a8c17bfd 	ldp	x29, x30, [sp], #16
  601040f33c:	d65f03c0 	ret

000000601040f340 <_single_irq_enable>:

static void _single_irq_enable(int irq, int cpu, int prio)
{
  601040f340:	a9be7bfd 	stp	x29, x30, [sp, #-32]!
  601040f344:	910003fd 	mov	x29, sp
  601040f348:	b9001fe0 	str	w0, [sp, #28]
  601040f34c:	b9001be1 	str	w1, [sp, #24]
  601040f350:	b90017e2 	str	w2, [sp, #20]
    gic_setup_ppi((uint32_t)cpu, (uint32_t)irq);
  601040f354:	b9401be0 	ldr	w0, [sp, #24]
  601040f358:	b9401fe1 	ldr	w1, [sp, #28]
  601040f35c:	97ffff93 	bl	601040f1a8 <gic_setup_ppi>
}
  601040f360:	d503201f 	nop
  601040f364:	a8c27bfd 	ldp	x29, x30, [sp], #32
  601040f368:	d65f03c0 	ret

000000601040f36c <_single_irq_disable>:

static void _single_irq_disable(int irq, int cpu)
{
  601040f36c:	d10043ff 	sub	sp, sp, #0x10
  601040f370:	b9000fe0 	str	w0, [sp, #12]
  601040f374:	b9000be1 	str	w1, [sp, #8]
    return;
  601040f378:	d503201f 	nop
}
  601040f37c:	910043ff 	add	sp, sp, #0x10
  601040f380:	d65f03c0 	ret

000000601040f384 <_switch_hw_irqtbl>:

static inline uintptr_t* _switch_hw_irqtbl(uintptr_t* new_tbl_base)
{
  601040f384:	a9be7bfd 	stp	x29, x30, [sp, #-32]!
  601040f388:	910003fd 	mov	x29, sp
  601040f38c:	f9000fe0 	str	x0, [sp, #24]
    w_vbar_el1((uint64_t)new_tbl_base);
  601040f390:	f9400fe0 	ldr	x0, [sp, #24]
  601040f394:	97ffffb8 	bl	601040f274 <w_vbar_el1>

    return NULL;
  601040f398:	d2800000 	mov	x0, #0x0                   	// #0
}
  601040f39c:	a8c27bfd 	ldp	x29, x30, [sp], #32
  601040f3a0:	d65f03c0 	ret

000000601040f3a4 <_bind_irq_handler>:

static void _bind_irq_handler(int irq, irq_handler_t handler)
{
  601040f3a4:	d10043ff 	sub	sp, sp, #0x10
  601040f3a8:	b9000fe0 	str	w0, [sp, #12]
  601040f3ac:	f90003e1 	str	x1, [sp]
    xizi_trap_driver.sw_irqtbl[irq].handler = handler;
  601040f3b0:	b00000a0 	adrp	x0, 6010424000 <impure_data+0x210>
  601040f3b4:	9116c000 	add	x0, x0, #0x5b0
  601040f3b8:	b9800fe1 	ldrsw	x1, [sp, #12]
  601040f3bc:	f94003e2 	ldr	x2, [sp]
  601040f3c0:	f8217802 	str	x2, [x0, x1, lsl #3]
}
  601040f3c4:	d503201f 	nop
  601040f3c8:	910043ff 	add	sp, sp, #0x10
  601040f3cc:	d65f03c0 	ret

000000601040f3d0 <_hw_before_irq>:

static uint32_t _hw_before_irq()
{
  601040f3d0:	a9be7bfd 	stp	x29, x30, [sp, #-32]!
  601040f3d4:	910003fd 	mov	x29, sp

    uint32_t iar = gic_read_irq_ack();
  601040f3d8:	97fffdc5 	bl	601040eaec <gic_read_irq_ack>
  601040f3dc:	b9001fe0 	str	w0, [sp, #28]
    return iar;
  601040f3e0:	b9401fe0 	ldr	w0, [sp, #28]
}
  601040f3e4:	a8c27bfd 	ldp	x29, x30, [sp], #32
  601040f3e8:	d65f03c0 	ret

000000601040f3ec <_hw_cur_int_num>:

static uint32_t _hw_cur_int_num(uint32_t int_info)
{
  601040f3ec:	d10043ff 	sub	sp, sp, #0x10
  601040f3f0:	b9000fe0 	str	w0, [sp, #12]
    return int_info & 0x3FF;
  601040f3f4:	b9400fe0 	ldr	w0, [sp, #12]
  601040f3f8:	12002400 	and	w0, w0, #0x3ff
}
  601040f3fc:	910043ff 	add	sp, sp, #0x10
  601040f400:	d65f03c0 	ret

000000601040f404 <_hw_after_irq>:

static void _hw_after_irq(uint32_t int_info)
{
  601040f404:	a9be7bfd 	stp	x29, x30, [sp, #-32]!
  601040f408:	910003fd 	mov	x29, sp
  601040f40c:	b9001fe0 	str	w0, [sp, #28]
    gic_write_end_of_irq(int_info);
  601040f410:	b9401fe0 	ldr	w0, [sp, #28]
  601040f414:	97fffdbc 	bl	601040eb04 <gic_write_end_of_irq>
}
  601040f418:	d503201f 	nop
  601040f41c:	a8c27bfd 	ldp	x29, x30, [sp], #32
  601040f420:	d65f03c0 	ret

000000601040f424 <_cur_cpu_id>:

int _cur_cpu_id()
{
  601040f424:	a9bf7bfd 	stp	x29, x30, [sp, #-16]!
  601040f428:	910003fd 	mov	x29, sp
    return cpu_get_current();
  601040f42c:	97fffc9b 	bl	601040e698 <cpu_get_current>
}
  601040f430:	a8c17bfd 	ldp	x29, x30, [sp], #16
  601040f434:	d65f03c0 	ret

000000601040f438 <hardkernel_intr_init>:
    .hw_cur_int_num = _hw_cur_int_num,
    .hw_after_irq = _hw_after_irq,
};

struct XiziTrapDriver* hardkernel_intr_init(struct TraceTag* hardkernel_tag)
{
  601040f438:	a9be7bfd 	stp	x29, x30, [sp, #-32]!
  601040f43c:	910003fd 	mov	x29, sp
  601040f440:	f9000fe0 	str	x0, [sp, #24]
    xizi_trap_driver.sys_irq_init(0);
  601040f444:	b00000a0 	adrp	x0, 6010424000 <impure_data+0x210>
  601040f448:	9116c000 	add	x0, x0, #0x5b0
  601040f44c:	f9443801 	ldr	x1, [x0, #2160]
  601040f450:	52800000 	mov	w0, #0x0                   	// #0
  601040f454:	d63f0020 	blr	x1
    xizi_trap_driver.cpu_irq_disable();
  601040f458:	b00000a0 	adrp	x0, 6010424000 <impure_data+0x210>
  601040f45c:	9116c000 	add	x0, x0, #0x5b0
  601040f460:	f9444400 	ldr	x0, [x0, #2184]
  601040f464:	d63f0000 	blr	x0
    return &xizi_trap_driver;
  601040f468:	b00000a0 	adrp	x0, 6010424000 <impure_data+0x210>
  601040f46c:	9116c000 	add	x0, x0, #0x5b0
  601040f470:	a8c27bfd 	ldp	x29, x30, [sp], #32
  601040f474:	d65f03c0 	ret

000000601040f478 <r_esr_el1>:
{
  601040f478:	d10043ff 	sub	sp, sp, #0x10
    __asm__ volatile("mrs %0, esr_el1" : "=r"(x));
  601040f47c:	d5385200 	mrs	x0, esr_el1
  601040f480:	f90007e0 	str	x0, [sp, #8]
    return x;
  601040f484:	f94007e0 	ldr	x0, [sp, #8]
}
  601040f488:	910043ff 	add	sp, sp, #0x10
  601040f48c:	d65f03c0 	ret

000000601040f490 <w_esr_el1>:
{
  601040f490:	d10043ff 	sub	sp, sp, #0x10
  601040f494:	f90007e0 	str	x0, [sp, #8]
    __asm__ volatile("msr esr_el1, %0" : : "r"(x));
  601040f498:	f94007e0 	ldr	x0, [sp, #8]
  601040f49c:	d5185200 	msr	esr_el1, x0
}
  601040f4a0:	d503201f 	nop
  601040f4a4:	910043ff 	add	sp, sp, #0x10
  601040f4a8:	d65f03c0 	ret

000000601040f4ac <r_elr_el1>:
{
  601040f4ac:	d10043ff 	sub	sp, sp, #0x10
    __asm__ volatile("mrs %0, elr_el1" : "=r"(x));
  601040f4b0:	d5384020 	mrs	x0, elr_el1
  601040f4b4:	f90007e0 	str	x0, [sp, #8]
    return x;
  601040f4b8:	f94007e0 	ldr	x0, [sp, #8]
}
  601040f4bc:	910043ff 	add	sp, sp, #0x10
  601040f4c0:	d65f03c0 	ret

000000601040f4c4 <r_far_el1>:
{
  601040f4c4:	d10043ff 	sub	sp, sp, #0x10
    __asm__ volatile("mrs %0, far_el1" : "=r"(x));
  601040f4c8:	d5386000 	mrs	x0, far_el1
  601040f4cc:	f90007e0 	str	x0, [sp, #8]
    return x;
  601040f4d0:	f94007e0 	ldr	x0, [sp, #8]
}
  601040f4d4:	910043ff 	add	sp, sp, #0x10
  601040f4d8:	d65f03c0 	ret

000000601040f4dc <cur_cpuid>:
};

struct XiziTrapDriver* hardkernel_intr_init(struct TraceTag* hardkernel_tag);

static inline int cur_cpuid(void)
{
  601040f4dc:	a9bf7bfd 	stp	x29, x30, [sp, #-16]!
  601040f4e0:	910003fd 	mov	x29, sp
    return cpu_get_current();
  601040f4e4:	97fffc6d 	bl	601040e698 <cpu_get_current>
}
  601040f4e8:	a8c17bfd 	ldp	x29, x30, [sp], #16
  601040f4ec:	d65f03c0 	ret

000000601040f4f0 <cur_cpu>:
};

extern struct CPU global_cpus[NR_CPU];

static inline struct CPU* cur_cpu(void)
{
  601040f4f0:	a9bf7bfd 	stp	x29, x30, [sp, #-16]!
  601040f4f4:	910003fd 	mov	x29, sp
    return &global_cpus[cur_cpuid()];
  601040f4f8:	97fffff9 	bl	601040f4dc <cur_cpuid>
  601040f4fc:	93407c01 	sxtw	x1, w0
  601040f500:	d2800300 	mov	x0, #0x18                  	// #24
  601040f504:	9b007c21 	mul	x1, x1, x0
  601040f508:	900089a0 	adrp	x0, 6011543000 <_binary_default_fs_start+0x96000>
  601040f50c:	f942f400 	ldr	x0, [x0, #1512]
  601040f510:	8b000020 	add	x0, x1, x0
}
  601040f514:	a8c17bfd 	ldp	x29, x30, [sp], #16
  601040f518:	d65f03c0 	ret

000000601040f51c <kernel_abort_handler>:

extern void dabort_handler(struct trapframe* r);
extern void iabort_handler(struct trapframe* r);

void kernel_abort_handler(struct trapframe* tf)
{
  601040f51c:	a9bb7bfd 	stp	x29, x30, [sp, #-80]!
  601040f520:	910003fd 	mov	x29, sp
  601040f524:	f9000bf3 	str	x19, [sp, #16]
  601040f528:	f90017e0 	str	x0, [sp, #40]
    uint64_t esr = r_esr_el1();
  601040f52c:	97ffffd3 	bl	601040f478 <r_esr_el1>
  601040f530:	f90027e0 	str	x0, [sp, #72]
    switch ((esr >> 0x1A) & 0x3F) {
  601040f534:	f94027e0 	ldr	x0, [sp, #72]
  601040f538:	d35afc00 	lsr	x0, x0, #26
  601040f53c:	92401400 	and	x0, x0, #0x3f
  601040f540:	f100841f 	cmp	x0, #0x21
  601040f544:	54000088 	b.hi	601040f554 <kernel_abort_handler+0x38>  // b.pmore
  601040f548:	f100801f 	cmp	x0, #0x20
  601040f54c:	54000102 	b.cs	601040f56c <kernel_abort_handler+0x50>  // b.hs, b.nlast
  601040f550:	1400000a 	b	601040f578 <kernel_abort_handler+0x5c>
  601040f554:	d1009000 	sub	x0, x0, #0x24
  601040f558:	f100041f 	cmp	x0, #0x1
  601040f55c:	540000e8 	b.hi	601040f578 <kernel_abort_handler+0x5c>  // b.pmore
    case 0b100100:
    case 0b100101:
        dabort_handler(tf);
  601040f560:	f94017e0 	ldr	x0, [sp, #40]
  601040f564:	94002b83 	bl	601041a370 <dabort_handler>
        break;
  601040f568:	14000034 	b	601040f638 <kernel_abort_handler+0x11c>
    case 0b100000:
    case 0b100001:
        iabort_handler(tf);
  601040f56c:	f94017e0 	ldr	x0, [sp, #40]
  601040f570:	94002bf1 	bl	601041a534 <iabort_handler>
        break;
  601040f574:	14000031 	b	601040f638 <kernel_abort_handler+0x11c>
    default: {
        uint64_t ec = (esr >> 26) & 0x3f;
  601040f578:	f94027e0 	ldr	x0, [sp, #72]
  601040f57c:	d35afc00 	lsr	x0, x0, #26
  601040f580:	92401400 	and	x0, x0, #0x3f
  601040f584:	f90023e0 	str	x0, [sp, #64]
        uint64_t iss = esr & 0x1ffffff;
  601040f588:	f94027e0 	ldr	x0, [sp, #72]
  601040f58c:	92406000 	and	x0, x0, #0x1ffffff
  601040f590:	f9001fe0 	str	x0, [sp, #56]
        ERROR("esr:  %016lx %016lx %016lx\n", esr, ec, iss);
  601040f594:	52800762 	mov	w2, #0x3b                  	// #59
  601040f598:	b0000080 	adrp	x0, 6010420000 <main+0x168>
  601040f59c:	912b8001 	add	x1, x0, #0xae0
  601040f5a0:	b0000080 	adrp	x0, 6010420000 <main+0x168>
  601040f5a4:	9123c000 	add	x0, x0, #0x8f0
  601040f5a8:	940012f4 	bl	6010414178 <printf_>
  601040f5ac:	f9401fe3 	ldr	x3, [sp, #56]
  601040f5b0:	f94023e2 	ldr	x2, [sp, #64]
  601040f5b4:	f94027e1 	ldr	x1, [sp, #72]
  601040f5b8:	b0000080 	adrp	x0, 6010420000 <main+0x168>
  601040f5bc:	91240000 	add	x0, x0, #0x900
  601040f5c0:	940012ee 	bl	6010414178 <printf_>
        ERROR("elr = %016lx far = %016lx\n", r_elr_el1(), r_far_el1());
  601040f5c4:	52800782 	mov	w2, #0x3c                  	// #60
  601040f5c8:	b0000080 	adrp	x0, 6010420000 <main+0x168>
  601040f5cc:	912b8001 	add	x1, x0, #0xae0
  601040f5d0:	b0000080 	adrp	x0, 6010420000 <main+0x168>
  601040f5d4:	9123c000 	add	x0, x0, #0x8f0
  601040f5d8:	940012e8 	bl	6010414178 <printf_>
  601040f5dc:	97ffffb4 	bl	601040f4ac <r_elr_el1>
  601040f5e0:	aa0003f3 	mov	x19, x0
  601040f5e4:	97ffffb8 	bl	601040f4c4 <r_far_el1>
  601040f5e8:	aa0003e2 	mov	x2, x0
  601040f5ec:	aa1303e1 	mov	x1, x19
  601040f5f0:	b0000080 	adrp	x0, 6010420000 <main+0x168>
  601040f5f4:	91248000 	add	x0, x0, #0x920
  601040f5f8:	940012e0 	bl	6010414178 <printf_>
        ERROR("Current Task: %s.\n", cur_cpu()->task->name);
  601040f5fc:	528007a2 	mov	w2, #0x3d                  	// #61
  601040f600:	b0000080 	adrp	x0, 6010420000 <main+0x168>
  601040f604:	912b8001 	add	x1, x0, #0xae0
  601040f608:	b0000080 	adrp	x0, 6010420000 <main+0x168>
  601040f60c:	9123c000 	add	x0, x0, #0x8f0
  601040f610:	940012da 	bl	6010414178 <printf_>
  601040f614:	97ffffb7 	bl	601040f4f0 <cur_cpu>
  601040f618:	f9400400 	ldr	x0, [x0, #8]
  601040f61c:	aa0003e1 	mov	x1, x0
  601040f620:	b0000080 	adrp	x0, 6010420000 <main+0x168>
  601040f624:	91250000 	add	x0, x0, #0x940
  601040f628:	940012d4 	bl	6010414178 <printf_>
        panic("Unimplemented Error Occured.\n");
  601040f62c:	b0000080 	adrp	x0, 6010420000 <main+0x168>
  601040f630:	91256000 	add	x0, x0, #0x958
  601040f634:	97ffff1d 	bl	601040f2a8 <panic>
    }
    }
    panic("Return from abort handler.\n");
  601040f638:	b0000080 	adrp	x0, 6010420000 <main+0x168>
  601040f63c:	9125e000 	add	x0, x0, #0x978
  601040f640:	97ffff1a 	bl	601040f2a8 <panic>
}
  601040f644:	d503201f 	nop
  601040f648:	f9400bf3 	ldr	x19, [sp, #16]
  601040f64c:	a8c57bfd 	ldp	x29, x30, [sp], #80
  601040f650:	d65f03c0 	ret

000000601040f654 <kernel_intr_handler>:

void kernel_intr_handler(struct trapframe* tf)
{
  601040f654:	a9be7bfd 	stp	x29, x30, [sp, #-32]!
  601040f658:	910003fd 	mov	x29, sp
  601040f65c:	f9000fe0 	str	x0, [sp, #24]
    panic("Intr at kernel mode should never happen by design.\n");
  601040f660:	b0000080 	adrp	x0, 6010420000 <main+0x168>
  601040f664:	91266000 	add	x0, x0, #0x998
  601040f668:	97ffff10 	bl	601040f2a8 <panic>
}
  601040f66c:	d503201f 	nop
  601040f670:	a8c27bfd 	ldp	x29, x30, [sp], #32
  601040f674:	d65f03c0 	ret

000000601040f678 <syscall_arch_handler>:

extern void context_switch(struct context**, struct context*);
void syscall_arch_handler(struct trapframe* tf)
{
  601040f678:	a9ba7bfd 	stp	x29, x30, [sp, #-96]!
  601040f67c:	910003fd 	mov	x29, sp
  601040f680:	f9000bf3 	str	x19, [sp, #16]
  601040f684:	f90017e0 	str	x0, [sp, #40]

    uint64_t esr = r_esr_el1();
  601040f688:	97ffff7c 	bl	601040f478 <r_esr_el1>
  601040f68c:	f9002fe0 	str	x0, [sp, #88]
    uint64_t ec = (esr >> 0x1A) & 0x3F;
  601040f690:	f9402fe0 	ldr	x0, [sp, #88]
  601040f694:	d35afc00 	lsr	x0, x0, #26
  601040f698:	92401400 	and	x0, x0, #0x3f
  601040f69c:	f9002be0 	str	x0, [sp, #80]
    switch (ec) {
  601040f6a0:	f9402be0 	ldr	x0, [sp, #80]
  601040f6a4:	f100941f 	cmp	x0, #0x25
  601040f6a8:	54000308 	b.hi	601040f708 <syscall_arch_handler+0x90>  // b.pmore
  601040f6ac:	f9402be0 	ldr	x0, [sp, #80]
  601040f6b0:	f100901f 	cmp	x0, #0x24
  601040f6b4:	540001e2 	b.cs	601040f6f0 <syscall_arch_handler+0x78>  // b.hs, b.nlast
  601040f6b8:	f9402be0 	ldr	x0, [sp, #80]
  601040f6bc:	f100541f 	cmp	x0, #0x15
  601040f6c0:	54000120 	b.eq	601040f6e4 <syscall_arch_handler+0x6c>  // b.none
  601040f6c4:	f9402be0 	ldr	x0, [sp, #80]
  601040f6c8:	f100541f 	cmp	x0, #0x15
  601040f6cc:	540001e3 	b.cc	601040f708 <syscall_arch_handler+0x90>  // b.lo, b.ul, b.last
  601040f6d0:	f9402be0 	ldr	x0, [sp, #80]
  601040f6d4:	d1008000 	sub	x0, x0, #0x20
  601040f6d8:	f100041f 	cmp	x0, #0x1
  601040f6dc:	54000168 	b.hi	601040f708 <syscall_arch_handler+0x90>  // b.pmore
  601040f6e0:	14000007 	b	601040f6fc <syscall_arch_handler+0x84>
    case 0B010101:
        software_irq_dispatch(tf);
  601040f6e4:	f94017e0 	ldr	x0, [sp, #40]
  601040f6e8:	94002a99 	bl	601041a14c <software_irq_dispatch>
        break;
  601040f6ec:	1400008a 	b	601040f914 <syscall_arch_handler+0x29c>
    case 0b100100:
    case 0b100101:
        dabort_handler(tf);
  601040f6f0:	f94017e0 	ldr	x0, [sp, #40]
  601040f6f4:	94002b1f 	bl	601041a370 <dabort_handler>
        break;
  601040f6f8:	14000087 	b	601040f914 <syscall_arch_handler+0x29c>
    case 0b100000:
    case 0b100001:
        iabort_handler(tf);
  601040f6fc:	f94017e0 	ldr	x0, [sp, #40]
  601040f700:	94002b8d 	bl	601041a534 <iabort_handler>
        break;
  601040f704:	14000084 	b	601040f914 <syscall_arch_handler+0x29c>
    default: {
        ERROR("USYSCALL: unexpected\n");
  601040f708:	52800b82 	mov	w2, #0x5c                  	// #92
  601040f70c:	b0000080 	adrp	x0, 6010420000 <main+0x168>
  601040f710:	912be001 	add	x1, x0, #0xaf8
  601040f714:	b0000080 	adrp	x0, 6010420000 <main+0x168>
  601040f718:	9123c000 	add	x0, x0, #0x8f0
  601040f71c:	94001297 	bl	6010414178 <printf_>
  601040f720:	b0000080 	adrp	x0, 6010420000 <main+0x168>
  601040f724:	91274000 	add	x0, x0, #0x9d0
  601040f728:	94001294 	bl	6010414178 <printf_>
        ERROR("          esr: %016lx\n", esr);
  601040f72c:	52800ba2 	mov	w2, #0x5d                  	// #93
  601040f730:	b0000080 	adrp	x0, 6010420000 <main+0x168>
  601040f734:	912be001 	add	x1, x0, #0xaf8
  601040f738:	b0000080 	adrp	x0, 6010420000 <main+0x168>
  601040f73c:	9123c000 	add	x0, x0, #0x8f0
  601040f740:	9400128e 	bl	6010414178 <printf_>
  601040f744:	f9402fe1 	ldr	x1, [sp, #88]
  601040f748:	b0000080 	adrp	x0, 6010420000 <main+0x168>
  601040f74c:	9127a000 	add	x0, x0, #0x9e8
  601040f750:	9400128a 	bl	6010414178 <printf_>
        ERROR("          elr = %016lx far = %016lx\n", r_elr_el1(), r_far_el1());
  601040f754:	52800bc2 	mov	w2, #0x5e                  	// #94
  601040f758:	b0000080 	adrp	x0, 6010420000 <main+0x168>
  601040f75c:	912be001 	add	x1, x0, #0xaf8
  601040f760:	b0000080 	adrp	x0, 6010420000 <main+0x168>
  601040f764:	9123c000 	add	x0, x0, #0x8f0
  601040f768:	94001284 	bl	6010414178 <printf_>
  601040f76c:	97ffff50 	bl	601040f4ac <r_elr_el1>
  601040f770:	aa0003f3 	mov	x19, x0
  601040f774:	97ffff54 	bl	601040f4c4 <r_far_el1>
  601040f778:	aa0003e2 	mov	x2, x0
  601040f77c:	aa1303e1 	mov	x1, x19
  601040f780:	b0000080 	adrp	x0, 6010420000 <main+0x168>
  601040f784:	91280000 	add	x0, x0, #0xa00
  601040f788:	9400127c 	bl	6010414178 <printf_>
        w_esr_el1(0);
  601040f78c:	d2800000 	mov	x0, #0x0                   	// #0
  601040f790:	97ffff40 	bl	601040f490 <w_esr_el1>
        extern void dump_tf(struct trapframe * tf);
        dump_tf(tf);
  601040f794:	f94017e0 	ldr	x0, [sp, #40]
  601040f798:	9400006a 	bl	601040f940 <dump_tf>

        uint32_t sctlr = 0;
  601040f79c:	b9004fff 	str	wzr, [sp, #76]
        SCTLR_R(sctlr);
  601040f7a0:	d5381000 	mrs	x0, sctlr_el1
  601040f7a4:	b9004fe0 	str	w0, [sp, #76]
        DEBUG("SCTLR: %x\n", sctlr);
  601040f7a8:	b0000080 	adrp	x0, 6010420000 <main+0x168>
  601040f7ac:	912be001 	add	x1, x0, #0xaf8
  601040f7b0:	b0000080 	adrp	x0, 6010420000 <main+0x168>
  601040f7b4:	9128a000 	add	x0, x0, #0xa28
  601040f7b8:	94001270 	bl	6010414178 <printf_>
  601040f7bc:	b9404fe1 	ldr	w1, [sp, #76]
  601040f7c0:	b0000080 	adrp	x0, 6010420000 <main+0x168>
  601040f7c4:	9128e000 	add	x0, x0, #0xa38
  601040f7c8:	9400126c 	bl	6010414178 <printf_>
        uint32_t spsr = 0;
  601040f7cc:	b9004bff 	str	wzr, [sp, #72]
        __asm__ volatile("mrs %0, spsr_el1" : "=r"(spsr)::"memory");
  601040f7d0:	d5384000 	mrs	x0, spsr_el1
  601040f7d4:	b9004be0 	str	w0, [sp, #72]
        DEBUG("SPSR: %x\n", spsr);
  601040f7d8:	b0000080 	adrp	x0, 6010420000 <main+0x168>
  601040f7dc:	912be001 	add	x1, x0, #0xaf8
  601040f7e0:	b0000080 	adrp	x0, 6010420000 <main+0x168>
  601040f7e4:	9128a000 	add	x0, x0, #0xa28
  601040f7e8:	94001264 	bl	6010414178 <printf_>
  601040f7ec:	b9404be1 	ldr	w1, [sp, #72]
  601040f7f0:	b0000080 	adrp	x0, 6010420000 <main+0x168>
  601040f7f4:	91292000 	add	x0, x0, #0xa48
  601040f7f8:	94001260 	bl	6010414178 <printf_>
        uint64_t tcr = 0;
  601040f7fc:	f90023ff 	str	xzr, [sp, #64]
        __asm__ volatile("mrs %0, tcr_el1" : "=r"(tcr)::"memory");
  601040f800:	d5382040 	mrs	x0, tcr_el1
  601040f804:	f90023e0 	str	x0, [sp, #64]
        DEBUG("TCR: %x\n", tcr);
  601040f808:	b0000080 	adrp	x0, 6010420000 <main+0x168>
  601040f80c:	912be001 	add	x1, x0, #0xaf8
  601040f810:	b0000080 	adrp	x0, 6010420000 <main+0x168>
  601040f814:	9128a000 	add	x0, x0, #0xa28
  601040f818:	94001258 	bl	6010414178 <printf_>
  601040f81c:	f94023e1 	ldr	x1, [sp, #64]
  601040f820:	b0000080 	adrp	x0, 6010420000 <main+0x168>
  601040f824:	91296000 	add	x0, x0, #0xa58
  601040f828:	94001254 	bl	6010414178 <printf_>
        uint64_t mair = 0;
  601040f82c:	f9001fff 	str	xzr, [sp, #56]
        __asm__ volatile("mrs %0, mair_el1" : "=r"(mair)::"memory");
  601040f830:	d538a200 	mrs	x0, mair_el1
  601040f834:	f9001fe0 	str	x0, [sp, #56]
        DEBUG("MAIR: %x\n", mair);
  601040f838:	b0000080 	adrp	x0, 6010420000 <main+0x168>
  601040f83c:	912be001 	add	x1, x0, #0xaf8
  601040f840:	b0000080 	adrp	x0, 6010420000 <main+0x168>
  601040f844:	9128a000 	add	x0, x0, #0xa28
  601040f848:	9400124c 	bl	6010414178 <printf_>
  601040f84c:	f9401fe1 	ldr	x1, [sp, #56]
  601040f850:	b0000080 	adrp	x0, 6010420000 <main+0x168>
  601040f854:	9129a000 	add	x0, x0, #0xa68
  601040f858:	94001248 	bl	6010414178 <printf_>

        // kill error task
        xizi_enter_kernel();
  601040f85c:	9400299d 	bl	6010419ed0 <xizi_enter_kernel>
        assert(cur_cpu()->task != NULL);
  601040f860:	97ffff24 	bl	601040f4f0 <cur_cpu>
  601040f864:	f9400400 	ldr	x0, [x0, #8]
  601040f868:	f100001f 	cmp	x0, #0x0
  601040f86c:	540001e1 	b.ne	601040f8a8 <syscall_arch_handler+0x230>  // b.any
  601040f870:	52800e42 	mov	w2, #0x72                  	// #114
  601040f874:	b0000080 	adrp	x0, 6010420000 <main+0x168>
  601040f878:	912be001 	add	x1, x0, #0xaf8
  601040f87c:	b0000080 	adrp	x0, 6010420000 <main+0x168>
  601040f880:	9123c000 	add	x0, x0, #0x8f0
  601040f884:	9400123d 	bl	6010414178 <printf_>
  601040f888:	b0000080 	adrp	x0, 6010420000 <main+0x168>
  601040f88c:	9129e001 	add	x1, x0, #0xa78
  601040f890:	b0000080 	adrp	x0, 6010420000 <main+0x168>
  601040f894:	912a4000 	add	x0, x0, #0xa90
  601040f898:	94001238 	bl	6010414178 <printf_>
  601040f89c:	b0000080 	adrp	x0, 6010420000 <main+0x168>
  601040f8a0:	912a8000 	add	x0, x0, #0xaa0
  601040f8a4:	97fffe81 	bl	601040f2a8 <panic>
        ERROR("Error Task: %s\n", cur_cpu()->task->name);
  601040f8a8:	52800e62 	mov	w2, #0x73                  	// #115
  601040f8ac:	b0000080 	adrp	x0, 6010420000 <main+0x168>
  601040f8b0:	912be001 	add	x1, x0, #0xaf8
  601040f8b4:	b0000080 	adrp	x0, 6010420000 <main+0x168>
  601040f8b8:	9123c000 	add	x0, x0, #0x8f0
  601040f8bc:	9400122f 	bl	6010414178 <printf_>
  601040f8c0:	97ffff0c 	bl	601040f4f0 <cur_cpu>
  601040f8c4:	f9400400 	ldr	x0, [x0, #8]
  601040f8c8:	aa0003e1 	mov	x1, x0
  601040f8cc:	b0000080 	adrp	x0, 6010420000 <main+0x168>
  601040f8d0:	912aa000 	add	x0, x0, #0xaa8
  601040f8d4:	94001229 	bl	6010414178 <printf_>
        sys_exit(cur_cpu()->task);
  601040f8d8:	97ffff06 	bl	601040f4f0 <cur_cpu>
  601040f8dc:	f9400400 	ldr	x0, [x0, #8]
  601040f8e0:	94003e0a 	bl	601041f108 <sys_exit>
        context_switch(&cur_cpu()->task->thread_context.context, cur_cpu()->scheduler);
  601040f8e4:	97ffff03 	bl	601040f4f0 <cur_cpu>
  601040f8e8:	f9400400 	ldr	x0, [x0, #8]
  601040f8ec:	91010013 	add	x19, x0, #0x40
  601040f8f0:	97ffff00 	bl	601040f4f0 <cur_cpu>
  601040f8f4:	f9400800 	ldr	x0, [x0, #16]
  601040f8f8:	aa0003e1 	mov	x1, x0
  601040f8fc:	aa1303e0 	mov	x0, x19
  601040f900:	97fffb6b 	bl	601040e6ac <context_switch>
        panic("dabort end should never be reashed.\n");
  601040f904:	b0000080 	adrp	x0, 6010420000 <main+0x168>
  601040f908:	912ae000 	add	x0, x0, #0xab8
  601040f90c:	97fffe67 	bl	601040f2a8 <panic>
    }
    }
  601040f910:	d503201f 	nop
  601040f914:	d503201f 	nop
  601040f918:	f9400bf3 	ldr	x19, [sp, #16]
  601040f91c:	a8c67bfd 	ldp	x29, x30, [sp], #96
  601040f920:	d65f03c0 	ret

000000601040f924 <w_esr_el1>:
{
  601040f924:	d10043ff 	sub	sp, sp, #0x10
  601040f928:	f90007e0 	str	x0, [sp, #8]
    __asm__ volatile("msr esr_el1, %0" : : "r"(x));
  601040f92c:	f94007e0 	ldr	x0, [sp, #8]
  601040f930:	d5185200 	msr	esr_el1, x0
}
  601040f934:	d503201f 	nop
  601040f938:	910043ff 	add	sp, sp, #0x10
  601040f93c:	d65f03c0 	ret

000000601040f940 <dump_tf>:
#include "multicores.h"
#include "task.h"
#include "trap_common.h"

void dump_tf(struct trapframe* tf)
{
  601040f940:	a9be7bfd 	stp	x29, x30, [sp, #-32]!
  601040f944:	910003fd 	mov	x29, sp
  601040f948:	f9000fe0 	str	x0, [sp, #24]
    KPrintf("   sp:   0x%016lx\n", tf->sp);
  601040f94c:	f9400fe0 	ldr	x0, [sp, #24]
  601040f950:	f9408400 	ldr	x0, [x0, #264]
  601040f954:	aa0003e1 	mov	x1, x0
  601040f958:	b0000080 	adrp	x0, 6010420000 <main+0x168>
  601040f95c:	912c4000 	add	x0, x0, #0xb10
  601040f960:	94001206 	bl	6010414178 <printf_>
    KPrintf("   pc:   0x%016lx\n", tf->pc);
  601040f964:	f9400fe0 	ldr	x0, [sp, #24]
  601040f968:	f9407c00 	ldr	x0, [x0, #248]
  601040f96c:	aa0003e1 	mov	x1, x0
  601040f970:	b0000080 	adrp	x0, 6010420000 <main+0x168>
  601040f974:	912ca000 	add	x0, x0, #0xb28
  601040f978:	94001200 	bl	6010414178 <printf_>
    KPrintf("   spsr: 0x%016lx\n", tf->spsr);
  601040f97c:	f9400fe0 	ldr	x0, [sp, #24]
  601040f980:	f9408000 	ldr	x0, [x0, #256]
  601040f984:	aa0003e1 	mov	x1, x0
  601040f988:	b0000080 	adrp	x0, 6010420000 <main+0x168>
  601040f98c:	912d0000 	add	x0, x0, #0xb40
  601040f990:	940011fa 	bl	6010414178 <printf_>
    KPrintf("     x0: 0x%016lx\n", tf->x0);
  601040f994:	f9400fe0 	ldr	x0, [sp, #24]
  601040f998:	f9400000 	ldr	x0, [x0]
  601040f99c:	aa0003e1 	mov	x1, x0
  601040f9a0:	b0000080 	adrp	x0, 6010420000 <main+0x168>
  601040f9a4:	912d6000 	add	x0, x0, #0xb58
  601040f9a8:	940011f4 	bl	6010414178 <printf_>
    KPrintf("     x1: 0x%016lx\n", tf->x1);
  601040f9ac:	f9400fe0 	ldr	x0, [sp, #24]
  601040f9b0:	f9400400 	ldr	x0, [x0, #8]
  601040f9b4:	aa0003e1 	mov	x1, x0
  601040f9b8:	b0000080 	adrp	x0, 6010420000 <main+0x168>
  601040f9bc:	912dc000 	add	x0, x0, #0xb70
  601040f9c0:	940011ee 	bl	6010414178 <printf_>
    KPrintf("     x2: 0x%016lx\n", tf->x2);
  601040f9c4:	f9400fe0 	ldr	x0, [sp, #24]
  601040f9c8:	f9400800 	ldr	x0, [x0, #16]
  601040f9cc:	aa0003e1 	mov	x1, x0
  601040f9d0:	b0000080 	adrp	x0, 6010420000 <main+0x168>
  601040f9d4:	912e2000 	add	x0, x0, #0xb88
  601040f9d8:	940011e8 	bl	6010414178 <printf_>
    KPrintf("     x3: 0x%016lx\n", tf->x3);
  601040f9dc:	f9400fe0 	ldr	x0, [sp, #24]
  601040f9e0:	f9400c00 	ldr	x0, [x0, #24]
  601040f9e4:	aa0003e1 	mov	x1, x0
  601040f9e8:	b0000080 	adrp	x0, 6010420000 <main+0x168>
  601040f9ec:	912e8000 	add	x0, x0, #0xba0
  601040f9f0:	940011e2 	bl	6010414178 <printf_>
    KPrintf("     x4: 0x%016lx\n", tf->x4);
  601040f9f4:	f9400fe0 	ldr	x0, [sp, #24]
  601040f9f8:	f9401000 	ldr	x0, [x0, #32]
  601040f9fc:	aa0003e1 	mov	x1, x0
  601040fa00:	b0000080 	adrp	x0, 6010420000 <main+0x168>
  601040fa04:	912ee000 	add	x0, x0, #0xbb8
  601040fa08:	940011dc 	bl	6010414178 <printf_>
    KPrintf("     x5: 0x%016lx\n", tf->x5);
  601040fa0c:	f9400fe0 	ldr	x0, [sp, #24]
  601040fa10:	f9401400 	ldr	x0, [x0, #40]
  601040fa14:	aa0003e1 	mov	x1, x0
  601040fa18:	b0000080 	adrp	x0, 6010420000 <main+0x168>
  601040fa1c:	912f4000 	add	x0, x0, #0xbd0
  601040fa20:	940011d6 	bl	6010414178 <printf_>
    KPrintf("     x6: 0x%016lx\n", tf->x6);
  601040fa24:	f9400fe0 	ldr	x0, [sp, #24]
  601040fa28:	f9401800 	ldr	x0, [x0, #48]
  601040fa2c:	aa0003e1 	mov	x1, x0
  601040fa30:	b0000080 	adrp	x0, 6010420000 <main+0x168>
  601040fa34:	912fa000 	add	x0, x0, #0xbe8
  601040fa38:	940011d0 	bl	6010414178 <printf_>
    KPrintf("     x7: 0x%016lx\n", tf->x7);
  601040fa3c:	f9400fe0 	ldr	x0, [sp, #24]
  601040fa40:	f9401c00 	ldr	x0, [x0, #56]
  601040fa44:	aa0003e1 	mov	x1, x0
  601040fa48:	b0000080 	adrp	x0, 6010420000 <main+0x168>
  601040fa4c:	91300000 	add	x0, x0, #0xc00
  601040fa50:	940011ca 	bl	6010414178 <printf_>
    KPrintf("     x8: 0x%016lx\n", tf->x8);
  601040fa54:	f9400fe0 	ldr	x0, [sp, #24]
  601040fa58:	f9402000 	ldr	x0, [x0, #64]
  601040fa5c:	aa0003e1 	mov	x1, x0
  601040fa60:	b0000080 	adrp	x0, 6010420000 <main+0x168>
  601040fa64:	91306000 	add	x0, x0, #0xc18
  601040fa68:	940011c4 	bl	6010414178 <printf_>
    KPrintf("     x9: 0x%016lx\n", tf->x9);
  601040fa6c:	f9400fe0 	ldr	x0, [sp, #24]
  601040fa70:	f9402400 	ldr	x0, [x0, #72]
  601040fa74:	aa0003e1 	mov	x1, x0
  601040fa78:	b0000080 	adrp	x0, 6010420000 <main+0x168>
  601040fa7c:	9130c000 	add	x0, x0, #0xc30
  601040fa80:	940011be 	bl	6010414178 <printf_>
    KPrintf("    x10: 0x%016lx\n", tf->x10);
  601040fa84:	f9400fe0 	ldr	x0, [sp, #24]
  601040fa88:	f9402800 	ldr	x0, [x0, #80]
  601040fa8c:	aa0003e1 	mov	x1, x0
  601040fa90:	b0000080 	adrp	x0, 6010420000 <main+0x168>
  601040fa94:	91312000 	add	x0, x0, #0xc48
  601040fa98:	940011b8 	bl	6010414178 <printf_>
    KPrintf("    x11: 0x%016lx\n", tf->x11);
  601040fa9c:	f9400fe0 	ldr	x0, [sp, #24]
  601040faa0:	f9402c00 	ldr	x0, [x0, #88]
  601040faa4:	aa0003e1 	mov	x1, x0
  601040faa8:	b0000080 	adrp	x0, 6010420000 <main+0x168>
  601040faac:	91318000 	add	x0, x0, #0xc60
  601040fab0:	940011b2 	bl	6010414178 <printf_>
    KPrintf("    x12: 0x%016lx\n", tf->x12);
  601040fab4:	f9400fe0 	ldr	x0, [sp, #24]
  601040fab8:	f9403000 	ldr	x0, [x0, #96]
  601040fabc:	aa0003e1 	mov	x1, x0
  601040fac0:	b0000080 	adrp	x0, 6010420000 <main+0x168>
  601040fac4:	9131e000 	add	x0, x0, #0xc78
  601040fac8:	940011ac 	bl	6010414178 <printf_>
    KPrintf("    x13: 0x%016lx\n", tf->x13);
  601040facc:	f9400fe0 	ldr	x0, [sp, #24]
  601040fad0:	f9403400 	ldr	x0, [x0, #104]
  601040fad4:	aa0003e1 	mov	x1, x0
  601040fad8:	b0000080 	adrp	x0, 6010420000 <main+0x168>
  601040fadc:	91324000 	add	x0, x0, #0xc90
  601040fae0:	940011a6 	bl	6010414178 <printf_>
    KPrintf("    x14: 0x%016lx\n", tf->x14);
  601040fae4:	f9400fe0 	ldr	x0, [sp, #24]
  601040fae8:	f9403800 	ldr	x0, [x0, #112]
  601040faec:	aa0003e1 	mov	x1, x0
  601040faf0:	b0000080 	adrp	x0, 6010420000 <main+0x168>
  601040faf4:	9132a000 	add	x0, x0, #0xca8
  601040faf8:	940011a0 	bl	6010414178 <printf_>
    KPrintf("    x15: 0x%016lx\n", tf->x15);
  601040fafc:	f9400fe0 	ldr	x0, [sp, #24]
  601040fb00:	f9403c00 	ldr	x0, [x0, #120]
  601040fb04:	aa0003e1 	mov	x1, x0
  601040fb08:	b0000080 	adrp	x0, 6010420000 <main+0x168>
  601040fb0c:	91330000 	add	x0, x0, #0xcc0
  601040fb10:	9400119a 	bl	6010414178 <printf_>
    KPrintf("    x16: 0x%016lx\n", tf->x16);
  601040fb14:	f9400fe0 	ldr	x0, [sp, #24]
  601040fb18:	f9404000 	ldr	x0, [x0, #128]
  601040fb1c:	aa0003e1 	mov	x1, x0
  601040fb20:	b0000080 	adrp	x0, 6010420000 <main+0x168>
  601040fb24:	91336000 	add	x0, x0, #0xcd8
  601040fb28:	94001194 	bl	6010414178 <printf_>
    KPrintf("    x17: 0x%016lx\n", tf->x17);
  601040fb2c:	f9400fe0 	ldr	x0, [sp, #24]
  601040fb30:	f9404400 	ldr	x0, [x0, #136]
  601040fb34:	aa0003e1 	mov	x1, x0
  601040fb38:	b0000080 	adrp	x0, 6010420000 <main+0x168>
  601040fb3c:	9133c000 	add	x0, x0, #0xcf0
  601040fb40:	9400118e 	bl	6010414178 <printf_>
    KPrintf("    x18: 0x%016lx\n", tf->x18);
  601040fb44:	f9400fe0 	ldr	x0, [sp, #24]
  601040fb48:	f9404800 	ldr	x0, [x0, #144]
  601040fb4c:	aa0003e1 	mov	x1, x0
  601040fb50:	b0000080 	adrp	x0, 6010420000 <main+0x168>
  601040fb54:	91342000 	add	x0, x0, #0xd08
  601040fb58:	94001188 	bl	6010414178 <printf_>
    KPrintf("    x19: 0x%016lx\n", tf->x19);
  601040fb5c:	f9400fe0 	ldr	x0, [sp, #24]
  601040fb60:	f9404c00 	ldr	x0, [x0, #152]
  601040fb64:	aa0003e1 	mov	x1, x0
  601040fb68:	b0000080 	adrp	x0, 6010420000 <main+0x168>
  601040fb6c:	91348000 	add	x0, x0, #0xd20
  601040fb70:	94001182 	bl	6010414178 <printf_>
    KPrintf("    x20: 0x%016lx\n", tf->x20);
  601040fb74:	f9400fe0 	ldr	x0, [sp, #24]
  601040fb78:	f9405000 	ldr	x0, [x0, #160]
  601040fb7c:	aa0003e1 	mov	x1, x0
  601040fb80:	b0000080 	adrp	x0, 6010420000 <main+0x168>
  601040fb84:	9134e000 	add	x0, x0, #0xd38
  601040fb88:	9400117c 	bl	6010414178 <printf_>
    KPrintf("    x21: 0x%016lx\n", tf->x21);
  601040fb8c:	f9400fe0 	ldr	x0, [sp, #24]
  601040fb90:	f9405400 	ldr	x0, [x0, #168]
  601040fb94:	aa0003e1 	mov	x1, x0
  601040fb98:	b0000080 	adrp	x0, 6010420000 <main+0x168>
  601040fb9c:	91354000 	add	x0, x0, #0xd50
  601040fba0:	94001176 	bl	6010414178 <printf_>
    KPrintf("    x22: 0x%016lx\n", tf->x22);
  601040fba4:	f9400fe0 	ldr	x0, [sp, #24]
  601040fba8:	f9405800 	ldr	x0, [x0, #176]
  601040fbac:	aa0003e1 	mov	x1, x0
  601040fbb0:	b0000080 	adrp	x0, 6010420000 <main+0x168>
  601040fbb4:	9135a000 	add	x0, x0, #0xd68
  601040fbb8:	94001170 	bl	6010414178 <printf_>
    KPrintf("    x23: 0x%016lx\n", tf->x23);
  601040fbbc:	f9400fe0 	ldr	x0, [sp, #24]
  601040fbc0:	f9405c00 	ldr	x0, [x0, #184]
  601040fbc4:	aa0003e1 	mov	x1, x0
  601040fbc8:	b0000080 	adrp	x0, 6010420000 <main+0x168>
  601040fbcc:	91360000 	add	x0, x0, #0xd80
  601040fbd0:	9400116a 	bl	6010414178 <printf_>
    KPrintf("    x24: 0x%016lx\n", tf->x24);
  601040fbd4:	f9400fe0 	ldr	x0, [sp, #24]
  601040fbd8:	f9406000 	ldr	x0, [x0, #192]
  601040fbdc:	aa0003e1 	mov	x1, x0
  601040fbe0:	b0000080 	adrp	x0, 6010420000 <main+0x168>
  601040fbe4:	91366000 	add	x0, x0, #0xd98
  601040fbe8:	94001164 	bl	6010414178 <printf_>
    KPrintf("    x25: 0x%016lx\n", tf->x25);
  601040fbec:	f9400fe0 	ldr	x0, [sp, #24]
  601040fbf0:	f9406400 	ldr	x0, [x0, #200]
  601040fbf4:	aa0003e1 	mov	x1, x0
  601040fbf8:	b0000080 	adrp	x0, 6010420000 <main+0x168>
  601040fbfc:	9136c000 	add	x0, x0, #0xdb0
  601040fc00:	9400115e 	bl	6010414178 <printf_>
    KPrintf("    x26: 0x%016lx\n", tf->x26);
  601040fc04:	f9400fe0 	ldr	x0, [sp, #24]
  601040fc08:	f9406800 	ldr	x0, [x0, #208]
  601040fc0c:	aa0003e1 	mov	x1, x0
  601040fc10:	b0000080 	adrp	x0, 6010420000 <main+0x168>
  601040fc14:	91372000 	add	x0, x0, #0xdc8
  601040fc18:	94001158 	bl	6010414178 <printf_>
    KPrintf("    x27: 0x%016lx\n", tf->x27);
  601040fc1c:	f9400fe0 	ldr	x0, [sp, #24]
  601040fc20:	f9406c00 	ldr	x0, [x0, #216]
  601040fc24:	aa0003e1 	mov	x1, x0
  601040fc28:	b0000080 	adrp	x0, 6010420000 <main+0x168>
  601040fc2c:	91378000 	add	x0, x0, #0xde0
  601040fc30:	94001152 	bl	6010414178 <printf_>
    KPrintf("    x28: 0x%016lx\n", tf->x28);
  601040fc34:	f9400fe0 	ldr	x0, [sp, #24]
  601040fc38:	f9407000 	ldr	x0, [x0, #224]
  601040fc3c:	aa0003e1 	mov	x1, x0
  601040fc40:	b0000080 	adrp	x0, 6010420000 <main+0x168>
  601040fc44:	9137e000 	add	x0, x0, #0xdf8
  601040fc48:	9400114c 	bl	6010414178 <printf_>
    KPrintf("    x29: 0x%016lx\n", tf->x29);
  601040fc4c:	f9400fe0 	ldr	x0, [sp, #24]
  601040fc50:	f9407400 	ldr	x0, [x0, #232]
  601040fc54:	aa0003e1 	mov	x1, x0
  601040fc58:	b0000080 	adrp	x0, 6010420000 <main+0x168>
  601040fc5c:	91384000 	add	x0, x0, #0xe10
  601040fc60:	94001146 	bl	6010414178 <printf_>
    KPrintf("    x30: 0x%016lx\n", tf->x30);
  601040fc64:	f9400fe0 	ldr	x0, [sp, #24]
  601040fc68:	f9407800 	ldr	x0, [x0, #240]
  601040fc6c:	aa0003e1 	mov	x1, x0
  601040fc70:	b0000080 	adrp	x0, 6010420000 <main+0x168>
  601040fc74:	9138a000 	add	x0, x0, #0xe28
  601040fc78:	94001140 	bl	6010414178 <printf_>
}
  601040fc7c:	d503201f 	nop
  601040fc80:	a8c27bfd 	ldp	x29, x30, [sp], #32
  601040fc84:	d65f03c0 	ret

000000601040fc88 <dabort_reason>:

void dabort_reason(struct trapframe* r)
{
  601040fc88:	a9bd7bfd 	stp	x29, x30, [sp, #-48]!
  601040fc8c:	910003fd 	mov	x29, sp
  601040fc90:	f9000fe0 	str	x0, [sp, #24]
    uint32_t fault_status, fault_address;
    __asm__ __volatile__("mrs %0, esr_el1" : "=r"(fault_status));
  601040fc94:	d5385200 	mrs	x0, esr_el1
  601040fc98:	b9002fe0 	str	w0, [sp, #44]
    __asm__ __volatile__("mrs %0, far_el1" : "=r"(fault_address));
  601040fc9c:	d5386000 	mrs	x0, far_el1
  601040fca0:	b9002be0 	str	w0, [sp, #40]
    w_esr_el1(0);
  601040fca4:	d2800000 	mov	x0, #0x0                   	// #0
  601040fca8:	97ffff1f 	bl	601040f924 <w_esr_el1>
    LOG("program counter: 0x%016lx caused\n", r->pc);
  601040fcac:	d0000080 	adrp	x0, 6010421000 <__func__.0+0x508>
  601040fcb0:	9102c001 	add	x1, x0, #0xb0
  601040fcb4:	b0000080 	adrp	x0, 6010420000 <main+0x168>
  601040fcb8:	91390000 	add	x0, x0, #0xe40
  601040fcbc:	9400112f 	bl	6010414178 <printf_>
  601040fcc0:	f9400fe0 	ldr	x0, [sp, #24]
  601040fcc4:	f9407c00 	ldr	x0, [x0, #248]
  601040fcc8:	aa0003e1 	mov	x1, x0
  601040fccc:	b0000080 	adrp	x0, 6010420000 <main+0x168>
  601040fcd0:	91394000 	add	x0, x0, #0xe50
  601040fcd4:	94001129 	bl	6010414178 <printf_>
    LOG("data abort at 0x%016lx, status 0x%016lx\n", fault_address, fault_status);
  601040fcd8:	d0000080 	adrp	x0, 6010421000 <__func__.0+0x508>
  601040fcdc:	9102c001 	add	x1, x0, #0xb0
  601040fce0:	b0000080 	adrp	x0, 6010420000 <main+0x168>
  601040fce4:	91390000 	add	x0, x0, #0xe40
  601040fce8:	94001124 	bl	6010414178 <printf_>
  601040fcec:	b9402fe2 	ldr	w2, [sp, #44]
  601040fcf0:	b9402be1 	ldr	w1, [sp, #40]
  601040fcf4:	b0000080 	adrp	x0, 6010420000 <main+0x168>
  601040fcf8:	9139e000 	add	x0, x0, #0xe78
  601040fcfc:	9400111f 	bl	6010414178 <printf_>
    if ((fault_status & 0x3f) == 0x21) // Alignment failure
  601040fd00:	b9402fe0 	ldr	w0, [sp, #44]
  601040fd04:	12001400 	and	w0, w0, #0x3f
  601040fd08:	7100841f 	cmp	w0, #0x21
  601040fd0c:	540000a1 	b.ne	601040fd20 <dabort_reason+0x98>  // b.any
        KPrintf("reason: alignment\n");
  601040fd10:	b0000080 	adrp	x0, 6010420000 <main+0x168>
  601040fd14:	913aa000 	add	x0, x0, #0xea8
  601040fd18:	94001118 	bl	6010414178 <printf_>
  601040fd1c:	14000064 	b	601040feac <dabort_reason+0x224>
    else if ((fault_status & 0x3f) == 0x4) // Translation fault, level 0
  601040fd20:	b9402fe0 	ldr	w0, [sp, #44]
  601040fd24:	12001400 	and	w0, w0, #0x3f
  601040fd28:	7100101f 	cmp	w0, #0x4
  601040fd2c:	540000a1 	b.ne	601040fd40 <dabort_reason+0xb8>  // b.any
        KPrintf("reason: sect. translation level 0\n");
  601040fd30:	b0000080 	adrp	x0, 6010420000 <main+0x168>
  601040fd34:	913b0000 	add	x0, x0, #0xec0
  601040fd38:	94001110 	bl	6010414178 <printf_>
  601040fd3c:	1400005c 	b	601040feac <dabort_reason+0x224>
    else if ((fault_status & 0x3f) == 0x5) // Translation fault, level 1
  601040fd40:	b9402fe0 	ldr	w0, [sp, #44]
  601040fd44:	12001400 	and	w0, w0, #0x3f
  601040fd48:	7100141f 	cmp	w0, #0x5
  601040fd4c:	540000a1 	b.ne	601040fd60 <dabort_reason+0xd8>  // b.any
        KPrintf("reason: sect. translation level 1\n");
  601040fd50:	b0000080 	adrp	x0, 6010420000 <main+0x168>
  601040fd54:	913ba000 	add	x0, x0, #0xee8
  601040fd58:	94001108 	bl	6010414178 <printf_>
  601040fd5c:	14000054 	b	601040feac <dabort_reason+0x224>
    else if ((fault_status & 0x3f) == 0x6) // Translation fault, level 2
  601040fd60:	b9402fe0 	ldr	w0, [sp, #44]
  601040fd64:	12001400 	and	w0, w0, #0x3f
  601040fd68:	7100181f 	cmp	w0, #0x6
  601040fd6c:	540000a1 	b.ne	601040fd80 <dabort_reason+0xf8>  // b.any
        KPrintf("reason: sect. translation level 2\n");
  601040fd70:	b0000080 	adrp	x0, 6010420000 <main+0x168>
  601040fd74:	913c4000 	add	x0, x0, #0xf10
  601040fd78:	94001100 	bl	6010414178 <printf_>
  601040fd7c:	1400004c 	b	601040feac <dabort_reason+0x224>
    else if ((fault_status & 0x3f) == 0x7) // Translation fault, level 3
  601040fd80:	b9402fe0 	ldr	w0, [sp, #44]
  601040fd84:	12001400 	and	w0, w0, #0x3f
  601040fd88:	71001c1f 	cmp	w0, #0x7
  601040fd8c:	540000a1 	b.ne	601040fda0 <dabort_reason+0x118>  // b.any
        KPrintf("reason: sect. translation level 3\n");
  601040fd90:	b0000080 	adrp	x0, 6010420000 <main+0x168>
  601040fd94:	913ce000 	add	x0, x0, #0xf38
  601040fd98:	940010f8 	bl	6010414178 <printf_>
  601040fd9c:	14000044 	b	601040feac <dabort_reason+0x224>
    else if ((fault_status & 0x3f) == 0x3d) // Section Domain fault
  601040fda0:	b9402fe0 	ldr	w0, [sp, #44]
  601040fda4:	12001400 	and	w0, w0, #0x3f
  601040fda8:	7100f41f 	cmp	w0, #0x3d
  601040fdac:	540000a1 	b.ne	601040fdc0 <dabort_reason+0x138>  // b.any
        KPrintf("reason: sect. domain\n");
  601040fdb0:	b0000080 	adrp	x0, 6010420000 <main+0x168>
  601040fdb4:	913d8000 	add	x0, x0, #0xf60
  601040fdb8:	940010f0 	bl	6010414178 <printf_>
  601040fdbc:	1400003c 	b	601040feac <dabort_reason+0x224>
    else if ((fault_status & 0x3f) == 0xd) // Permission level 1
  601040fdc0:	b9402fe0 	ldr	w0, [sp, #44]
  601040fdc4:	12001400 	and	w0, w0, #0x3f
  601040fdc8:	7100341f 	cmp	w0, #0xd
  601040fdcc:	540000a1 	b.ne	601040fde0 <dabort_reason+0x158>  // b.any
        KPrintf("reason: sect. permission level 1\n");
  601040fdd0:	b0000080 	adrp	x0, 6010420000 <main+0x168>
  601040fdd4:	913de000 	add	x0, x0, #0xf78
  601040fdd8:	940010e8 	bl	6010414178 <printf_>
  601040fddc:	14000034 	b	601040feac <dabort_reason+0x224>
    else if ((fault_status & 0x3f) == 0xe) // Permission level 2
  601040fde0:	b9402fe0 	ldr	w0, [sp, #44]
  601040fde4:	12001400 	and	w0, w0, #0x3f
  601040fde8:	7100381f 	cmp	w0, #0xe
  601040fdec:	540000a1 	b.ne	601040fe00 <dabort_reason+0x178>  // b.any
        KPrintf("reason: sect. permission level 2\n");
  601040fdf0:	b0000080 	adrp	x0, 6010420000 <main+0x168>
  601040fdf4:	913e8000 	add	x0, x0, #0xfa0
  601040fdf8:	940010e0 	bl	6010414178 <printf_>
  601040fdfc:	1400002c 	b	601040feac <dabort_reason+0x224>
    else if ((fault_status & 0x3f) == 0xf) // Permission level 3
  601040fe00:	b9402fe0 	ldr	w0, [sp, #44]
  601040fe04:	12001400 	and	w0, w0, #0x3f
  601040fe08:	71003c1f 	cmp	w0, #0xf
  601040fe0c:	540000a1 	b.ne	601040fe20 <dabort_reason+0x198>  // b.any
        KPrintf("reason: sect. permission level 3\n");
  601040fe10:	b0000080 	adrp	x0, 6010420000 <main+0x168>
  601040fe14:	913f2000 	add	x0, x0, #0xfc8
  601040fe18:	940010d8 	bl	6010414178 <printf_>
  601040fe1c:	14000024 	b	601040feac <dabort_reason+0x224>
    else if ((fault_status & 0x3f) == 0x14) // External abort
  601040fe20:	b9402fe0 	ldr	w0, [sp, #44]
  601040fe24:	12001400 	and	w0, w0, #0x3f
  601040fe28:	7100501f 	cmp	w0, #0x14
  601040fe2c:	540000a1 	b.ne	601040fe40 <dabort_reason+0x1b8>  // b.any
        KPrintf("reason: ext. abort\n");
  601040fe30:	b0000080 	adrp	x0, 6010420000 <main+0x168>
  601040fe34:	913fc000 	add	x0, x0, #0xff0
  601040fe38:	940010d0 	bl	6010414178 <printf_>
  601040fe3c:	1400001c 	b	601040feac <dabort_reason+0x224>
    else if ((fault_status & 0x3f) == 0x9) // Access flag fault, level 1
  601040fe40:	b9402fe0 	ldr	w0, [sp, #44]
  601040fe44:	12001400 	and	w0, w0, #0x3f
  601040fe48:	7100241f 	cmp	w0, #0x9
  601040fe4c:	540000a1 	b.ne	601040fe60 <dabort_reason+0x1d8>  // b.any
        KPrintf("reason: sect. Access flag fault level 1\n");
  601040fe50:	d0000080 	adrp	x0, 6010421000 <__func__.0+0x508>
  601040fe54:	91002000 	add	x0, x0, #0x8
  601040fe58:	940010c8 	bl	6010414178 <printf_>
  601040fe5c:	14000014 	b	601040feac <dabort_reason+0x224>
    else if ((fault_status & 0x3f) == 0xa) // Access flag fault, level 2
  601040fe60:	b9402fe0 	ldr	w0, [sp, #44]
  601040fe64:	12001400 	and	w0, w0, #0x3f
  601040fe68:	7100281f 	cmp	w0, #0xa
  601040fe6c:	540000a1 	b.ne	601040fe80 <dabort_reason+0x1f8>  // b.any
        KPrintf("reason: sect. Access flag fault level 2\n");
  601040fe70:	d0000080 	adrp	x0, 6010421000 <__func__.0+0x508>
  601040fe74:	9100e000 	add	x0, x0, #0x38
  601040fe78:	940010c0 	bl	6010414178 <printf_>
  601040fe7c:	1400000c 	b	601040feac <dabort_reason+0x224>
    else if ((fault_status & 0x3f) == 0xb) // Access flag fault, level 3
  601040fe80:	b9402fe0 	ldr	w0, [sp, #44]
  601040fe84:	12001400 	and	w0, w0, #0x3f
  601040fe88:	71002c1f 	cmp	w0, #0xb
  601040fe8c:	540000a1 	b.ne	601040fea0 <dabort_reason+0x218>  // b.any
        KPrintf("reason: sect. Access flag fault level 3\n");
  601040fe90:	d0000080 	adrp	x0, 6010421000 <__func__.0+0x508>
  601040fe94:	9101a000 	add	x0, x0, #0x68
  601040fe98:	940010b8 	bl	6010414178 <printf_>
  601040fe9c:	14000004 	b	601040feac <dabort_reason+0x224>
    else
        KPrintf("reason: unknown???\n");
  601040fea0:	d0000080 	adrp	x0, 6010421000 <__func__.0+0x508>
  601040fea4:	91026000 	add	x0, x0, #0x98
  601040fea8:	940010b4 	bl	6010414178 <printf_>

    dump_tf(r);
  601040feac:	f9400fe0 	ldr	x0, [sp, #24]
  601040feb0:	97fffea4 	bl	601040f940 <dump_tf>
    return;
  601040feb4:	d503201f 	nop
}
  601040feb8:	a8c37bfd 	ldp	x29, x30, [sp], #48
  601040febc:	d65f03c0 	ret

000000601040fec0 <iabort_reason>:

void iabort_reason(struct trapframe* r)
{
  601040fec0:	a9bd7bfd 	stp	x29, x30, [sp, #-48]!
  601040fec4:	910003fd 	mov	x29, sp
  601040fec8:	f9000fe0 	str	x0, [sp, #24]
    uint32_t fault_status, fault_address;
    __asm__ __volatile__("mrs %0, esr_el1" : "=r"(fault_status));
  601040fecc:	d5385200 	mrs	x0, esr_el1
  601040fed0:	b9002fe0 	str	w0, [sp, #44]
    __asm__ __volatile__("mrs %0, far_el1" : "=r"(fault_address));
  601040fed4:	d5386000 	mrs	x0, far_el1
  601040fed8:	b9002be0 	str	w0, [sp, #40]
    LOG("program counter: 0x%016lx caused\n", r->pc);
  601040fedc:	d0000080 	adrp	x0, 6010421000 <__func__.0+0x508>
  601040fee0:	91030001 	add	x1, x0, #0xc0
  601040fee4:	b0000080 	adrp	x0, 6010420000 <main+0x168>
  601040fee8:	91390000 	add	x0, x0, #0xe40
  601040feec:	940010a3 	bl	6010414178 <printf_>
  601040fef0:	f9400fe0 	ldr	x0, [sp, #24]
  601040fef4:	f9407c00 	ldr	x0, [x0, #248]
  601040fef8:	aa0003e1 	mov	x1, x0
  601040fefc:	b0000080 	adrp	x0, 6010420000 <main+0x168>
  601040ff00:	91394000 	add	x0, x0, #0xe50
  601040ff04:	9400109d 	bl	6010414178 <printf_>
    LOG("data abort at 0x%016lx, status 0x%016lx\n", fault_address, fault_status);
  601040ff08:	d0000080 	adrp	x0, 6010421000 <__func__.0+0x508>
  601040ff0c:	91030001 	add	x1, x0, #0xc0
  601040ff10:	b0000080 	adrp	x0, 6010420000 <main+0x168>
  601040ff14:	91390000 	add	x0, x0, #0xe40
  601040ff18:	94001098 	bl	6010414178 <printf_>
  601040ff1c:	b9402fe2 	ldr	w2, [sp, #44]
  601040ff20:	b9402be1 	ldr	w1, [sp, #40]
  601040ff24:	b0000080 	adrp	x0, 6010420000 <main+0x168>
  601040ff28:	9139e000 	add	x0, x0, #0xe78
  601040ff2c:	94001093 	bl	6010414178 <printf_>
    w_esr_el1(0);
  601040ff30:	d2800000 	mov	x0, #0x0                   	// #0
  601040ff34:	97fffe7c 	bl	601040f924 <w_esr_el1>
    if ((fault_status & 0x3f) == 0x21) // Alignment failure
  601040ff38:	b9402fe0 	ldr	w0, [sp, #44]
  601040ff3c:	12001400 	and	w0, w0, #0x3f
  601040ff40:	7100841f 	cmp	w0, #0x21
  601040ff44:	540000a1 	b.ne	601040ff58 <iabort_reason+0x98>  // b.any
        KPrintf("reason: alignment\n");
  601040ff48:	b0000080 	adrp	x0, 6010420000 <main+0x168>
  601040ff4c:	913aa000 	add	x0, x0, #0xea8
  601040ff50:	9400108a 	bl	6010414178 <printf_>
  601040ff54:	14000064 	b	60104100e4 <iabort_reason+0x224>
    else if ((fault_status & 0x3f) == 0x4) // Translation fault, level 0
  601040ff58:	b9402fe0 	ldr	w0, [sp, #44]
  601040ff5c:	12001400 	and	w0, w0, #0x3f
  601040ff60:	7100101f 	cmp	w0, #0x4
  601040ff64:	540000a1 	b.ne	601040ff78 <iabort_reason+0xb8>  // b.any
        KPrintf("reason: sect. translation level 0\n");
  601040ff68:	b0000080 	adrp	x0, 6010420000 <main+0x168>
  601040ff6c:	913b0000 	add	x0, x0, #0xec0
  601040ff70:	94001082 	bl	6010414178 <printf_>
  601040ff74:	1400005c 	b	60104100e4 <iabort_reason+0x224>
    else if ((fault_status & 0x3f) == 0x5) // Translation fault, level 1
  601040ff78:	b9402fe0 	ldr	w0, [sp, #44]
  601040ff7c:	12001400 	and	w0, w0, #0x3f
  601040ff80:	7100141f 	cmp	w0, #0x5
  601040ff84:	540000a1 	b.ne	601040ff98 <iabort_reason+0xd8>  // b.any
        KPrintf("reason: sect. translation level 1\n");
  601040ff88:	b0000080 	adrp	x0, 6010420000 <main+0x168>
  601040ff8c:	913ba000 	add	x0, x0, #0xee8
  601040ff90:	9400107a 	bl	6010414178 <printf_>
  601040ff94:	14000054 	b	60104100e4 <iabort_reason+0x224>
    else if ((fault_status & 0x3f) == 0x6) // Translation fault, level 2
  601040ff98:	b9402fe0 	ldr	w0, [sp, #44]
  601040ff9c:	12001400 	and	w0, w0, #0x3f
  601040ffa0:	7100181f 	cmp	w0, #0x6
  601040ffa4:	540000a1 	b.ne	601040ffb8 <iabort_reason+0xf8>  // b.any
        KPrintf("reason: sect. translation level 2\n");
  601040ffa8:	b0000080 	adrp	x0, 6010420000 <main+0x168>
  601040ffac:	913c4000 	add	x0, x0, #0xf10
  601040ffb0:	94001072 	bl	6010414178 <printf_>
  601040ffb4:	1400004c 	b	60104100e4 <iabort_reason+0x224>
    else if ((fault_status & 0x3f) == 0x7) // Translation fault, level 3
  601040ffb8:	b9402fe0 	ldr	w0, [sp, #44]
  601040ffbc:	12001400 	and	w0, w0, #0x3f
  601040ffc0:	71001c1f 	cmp	w0, #0x7
  601040ffc4:	540000a1 	b.ne	601040ffd8 <iabort_reason+0x118>  // b.any
        KPrintf("reason: sect. translation level 3\n");
  601040ffc8:	b0000080 	adrp	x0, 6010420000 <main+0x168>
  601040ffcc:	913ce000 	add	x0, x0, #0xf38
  601040ffd0:	9400106a 	bl	6010414178 <printf_>
  601040ffd4:	14000044 	b	60104100e4 <iabort_reason+0x224>
    else if ((fault_status & 0x3f) == 0x3d) // Section Domain fault
  601040ffd8:	b9402fe0 	ldr	w0, [sp, #44]
  601040ffdc:	12001400 	and	w0, w0, #0x3f
  601040ffe0:	7100f41f 	cmp	w0, #0x3d
  601040ffe4:	540000a1 	b.ne	601040fff8 <iabort_reason+0x138>  // b.any
        KPrintf("reason: sect. domain\n");
  601040ffe8:	b0000080 	adrp	x0, 6010420000 <main+0x168>
  601040ffec:	913d8000 	add	x0, x0, #0xf60
  601040fff0:	94001062 	bl	6010414178 <printf_>
  601040fff4:	1400003c 	b	60104100e4 <iabort_reason+0x224>
    else if ((fault_status & 0x3f) == 0xd) // Permission level 1
  601040fff8:	b9402fe0 	ldr	w0, [sp, #44]
  601040fffc:	12001400 	and	w0, w0, #0x3f
  6010410000:	7100341f 	cmp	w0, #0xd
  6010410004:	540000a1 	b.ne	6010410018 <iabort_reason+0x158>  // b.any
        KPrintf("reason: sect. permission level 1\n");
  6010410008:	90000080 	adrp	x0, 6010420000 <main+0x168>
  601041000c:	913de000 	add	x0, x0, #0xf78
  6010410010:	9400105a 	bl	6010414178 <printf_>
  6010410014:	14000034 	b	60104100e4 <iabort_reason+0x224>
    else if ((fault_status & 0x3f) == 0xe) // Permission level 2
  6010410018:	b9402fe0 	ldr	w0, [sp, #44]
  601041001c:	12001400 	and	w0, w0, #0x3f
  6010410020:	7100381f 	cmp	w0, #0xe
  6010410024:	540000a1 	b.ne	6010410038 <iabort_reason+0x178>  // b.any
        KPrintf("reason: sect. permission level 2\n");
  6010410028:	90000080 	adrp	x0, 6010420000 <main+0x168>
  601041002c:	913e8000 	add	x0, x0, #0xfa0
  6010410030:	94001052 	bl	6010414178 <printf_>
  6010410034:	1400002c 	b	60104100e4 <iabort_reason+0x224>
    else if ((fault_status & 0x3f) == 0xf) // Permission level 3
  6010410038:	b9402fe0 	ldr	w0, [sp, #44]
  601041003c:	12001400 	and	w0, w0, #0x3f
  6010410040:	71003c1f 	cmp	w0, #0xf
  6010410044:	540000a1 	b.ne	6010410058 <iabort_reason+0x198>  // b.any
        KPrintf("reason: sect. permission level 3\n");
  6010410048:	90000080 	adrp	x0, 6010420000 <main+0x168>
  601041004c:	913f2000 	add	x0, x0, #0xfc8
  6010410050:	9400104a 	bl	6010414178 <printf_>
  6010410054:	14000024 	b	60104100e4 <iabort_reason+0x224>
    else if ((fault_status & 0x3f) == 0x14) // External abort
  6010410058:	b9402fe0 	ldr	w0, [sp, #44]
  601041005c:	12001400 	and	w0, w0, #0x3f
  6010410060:	7100501f 	cmp	w0, #0x14
  6010410064:	540000a1 	b.ne	6010410078 <iabort_reason+0x1b8>  // b.any
        KPrintf("reason: ext. abort\n");
  6010410068:	90000080 	adrp	x0, 6010420000 <main+0x168>
  601041006c:	913fc000 	add	x0, x0, #0xff0
  6010410070:	94001042 	bl	6010414178 <printf_>
  6010410074:	1400001c 	b	60104100e4 <iabort_reason+0x224>
    else if ((fault_status & 0x3f) == 0x9) // Access flag fault, level 1
  6010410078:	b9402fe0 	ldr	w0, [sp, #44]
  601041007c:	12001400 	and	w0, w0, #0x3f
  6010410080:	7100241f 	cmp	w0, #0x9
  6010410084:	540000a1 	b.ne	6010410098 <iabort_reason+0x1d8>  // b.any
        KPrintf("reason: sect. Access flag fault level 1\n");
  6010410088:	b0000080 	adrp	x0, 6010421000 <__func__.0+0x508>
  601041008c:	91002000 	add	x0, x0, #0x8
  6010410090:	9400103a 	bl	6010414178 <printf_>
  6010410094:	14000014 	b	60104100e4 <iabort_reason+0x224>
    else if ((fault_status & 0x3f) == 0xa) // Access flag fault, level 2
  6010410098:	b9402fe0 	ldr	w0, [sp, #44]
  601041009c:	12001400 	and	w0, w0, #0x3f
  60104100a0:	7100281f 	cmp	w0, #0xa
  60104100a4:	540000a1 	b.ne	60104100b8 <iabort_reason+0x1f8>  // b.any
        KPrintf("reason: sect. Access flag fault level 2\n");
  60104100a8:	b0000080 	adrp	x0, 6010421000 <__func__.0+0x508>
  60104100ac:	9100e000 	add	x0, x0, #0x38
  60104100b0:	94001032 	bl	6010414178 <printf_>
  60104100b4:	1400000c 	b	60104100e4 <iabort_reason+0x224>
    else if ((fault_status & 0x3f) == 0xb) // Access flag fault, level 3
  60104100b8:	b9402fe0 	ldr	w0, [sp, #44]
  60104100bc:	12001400 	and	w0, w0, #0x3f
  60104100c0:	71002c1f 	cmp	w0, #0xb
  60104100c4:	540000a1 	b.ne	60104100d8 <iabort_reason+0x218>  // b.any
        KPrintf("reason: sect. Access flag fault level 3\n");
  60104100c8:	b0000080 	adrp	x0, 6010421000 <__func__.0+0x508>
  60104100cc:	9101a000 	add	x0, x0, #0x68
  60104100d0:	9400102a 	bl	6010414178 <printf_>
  60104100d4:	14000004 	b	60104100e4 <iabort_reason+0x224>
    else
        KPrintf("reason: unknown???\n");
  60104100d8:	b0000080 	adrp	x0, 6010421000 <__func__.0+0x508>
  60104100dc:	91026000 	add	x0, x0, #0x98
  60104100e0:	94001026 	bl	6010414178 <printf_>

    dump_tf(r);
  60104100e4:	f9400fe0 	ldr	x0, [sp, #24]
  60104100e8:	97fffe16 	bl	601040f940 <dump_tf>
    return;
  60104100ec:	d503201f 	nop
  60104100f0:	a8c37bfd 	ldp	x29, x30, [sp], #48
  60104100f4:	d65f03c0 	ret
	...

0000006010410800 <alltraps>:
  6010410800:	140001e1 	b	6010410f84 <badtrap>
  6010410804:	d503201f 	nop
  6010410808:	d503201f 	nop
  601041080c:	d503201f 	nop
  6010410810:	d503201f 	nop
  6010410814:	d503201f 	nop
  6010410818:	d503201f 	nop
  601041081c:	d503201f 	nop
  6010410820:	d503201f 	nop
  6010410824:	d503201f 	nop
  6010410828:	d503201f 	nop
  601041082c:	d503201f 	nop
  6010410830:	d503201f 	nop
  6010410834:	d503201f 	nop
  6010410838:	d503201f 	nop
  601041083c:	d503201f 	nop
  6010410840:	d503201f 	nop
  6010410844:	d503201f 	nop
  6010410848:	d503201f 	nop
  601041084c:	d503201f 	nop
  6010410850:	d503201f 	nop
  6010410854:	d503201f 	nop
  6010410858:	d503201f 	nop
  601041085c:	d503201f 	nop
  6010410860:	d503201f 	nop
  6010410864:	d503201f 	nop
  6010410868:	d503201f 	nop
  601041086c:	d503201f 	nop
  6010410870:	d503201f 	nop
  6010410874:	d503201f 	nop
  6010410878:	d503201f 	nop
  601041087c:	d503201f 	nop
  6010410880:	140001c1 	b	6010410f84 <badtrap>
  6010410884:	d503201f 	nop
  6010410888:	d503201f 	nop
  601041088c:	d503201f 	nop
  6010410890:	d503201f 	nop
  6010410894:	d503201f 	nop
  6010410898:	d503201f 	nop
  601041089c:	d503201f 	nop
  60104108a0:	d503201f 	nop
  60104108a4:	d503201f 	nop
  60104108a8:	d503201f 	nop
  60104108ac:	d503201f 	nop
  60104108b0:	d503201f 	nop
  60104108b4:	d503201f 	nop
  60104108b8:	d503201f 	nop
  60104108bc:	d503201f 	nop
  60104108c0:	d503201f 	nop
  60104108c4:	d503201f 	nop
  60104108c8:	d503201f 	nop
  60104108cc:	d503201f 	nop
  60104108d0:	d503201f 	nop
  60104108d4:	d503201f 	nop
  60104108d8:	d503201f 	nop
  60104108dc:	d503201f 	nop
  60104108e0:	d503201f 	nop
  60104108e4:	d503201f 	nop
  60104108e8:	d503201f 	nop
  60104108ec:	d503201f 	nop
  60104108f0:	d503201f 	nop
  60104108f4:	d503201f 	nop
  60104108f8:	d503201f 	nop
  60104108fc:	d503201f 	nop
  6010410900:	140001a1 	b	6010410f84 <badtrap>
  6010410904:	d503201f 	nop
  6010410908:	d503201f 	nop
  601041090c:	d503201f 	nop
  6010410910:	d503201f 	nop
  6010410914:	d503201f 	nop
  6010410918:	d503201f 	nop
  601041091c:	d503201f 	nop
  6010410920:	d503201f 	nop
  6010410924:	d503201f 	nop
  6010410928:	d503201f 	nop
  601041092c:	d503201f 	nop
  6010410930:	d503201f 	nop
  6010410934:	d503201f 	nop
  6010410938:	d503201f 	nop
  601041093c:	d503201f 	nop
  6010410940:	d503201f 	nop
  6010410944:	d503201f 	nop
  6010410948:	d503201f 	nop
  601041094c:	d503201f 	nop
  6010410950:	d503201f 	nop
  6010410954:	d503201f 	nop
  6010410958:	d503201f 	nop
  601041095c:	d503201f 	nop
  6010410960:	d503201f 	nop
  6010410964:	d503201f 	nop
  6010410968:	d503201f 	nop
  601041096c:	d503201f 	nop
  6010410970:	d503201f 	nop
  6010410974:	d503201f 	nop
  6010410978:	d503201f 	nop
  601041097c:	d503201f 	nop
  6010410980:	14000181 	b	6010410f84 <badtrap>
  6010410984:	d503201f 	nop
  6010410988:	d503201f 	nop
  601041098c:	d503201f 	nop
  6010410990:	d503201f 	nop
  6010410994:	d503201f 	nop
  6010410998:	d503201f 	nop
  601041099c:	d503201f 	nop
  60104109a0:	d503201f 	nop
  60104109a4:	d503201f 	nop
  60104109a8:	d503201f 	nop
  60104109ac:	d503201f 	nop
  60104109b0:	d503201f 	nop
  60104109b4:	d503201f 	nop
  60104109b8:	d503201f 	nop
  60104109bc:	d503201f 	nop
  60104109c0:	d503201f 	nop
  60104109c4:	d503201f 	nop
  60104109c8:	d503201f 	nop
  60104109cc:	d503201f 	nop
  60104109d0:	d503201f 	nop
  60104109d4:	d503201f 	nop
  60104109d8:	d503201f 	nop
  60104109dc:	d503201f 	nop
  60104109e0:	d503201f 	nop
  60104109e4:	d503201f 	nop
  60104109e8:	d503201f 	nop
  60104109ec:	d503201f 	nop
  60104109f0:	d503201f 	nop
  60104109f4:	d503201f 	nop
  60104109f8:	d503201f 	nop
  60104109fc:	d503201f 	nop
  6010410a00:	1400017a 	b	6010410fe8 <el1sync>
  6010410a04:	d503201f 	nop
  6010410a08:	d503201f 	nop
  6010410a0c:	d503201f 	nop
  6010410a10:	d503201f 	nop
  6010410a14:	d503201f 	nop
  6010410a18:	d503201f 	nop
  6010410a1c:	d503201f 	nop
  6010410a20:	d503201f 	nop
  6010410a24:	d503201f 	nop
  6010410a28:	d503201f 	nop
  6010410a2c:	d503201f 	nop
  6010410a30:	d503201f 	nop
  6010410a34:	d503201f 	nop
  6010410a38:	d503201f 	nop
  6010410a3c:	d503201f 	nop
  6010410a40:	d503201f 	nop
  6010410a44:	d503201f 	nop
  6010410a48:	d503201f 	nop
  6010410a4c:	d503201f 	nop
  6010410a50:	d503201f 	nop
  6010410a54:	d503201f 	nop
  6010410a58:	d503201f 	nop
  6010410a5c:	d503201f 	nop
  6010410a60:	d503201f 	nop
  6010410a64:	d503201f 	nop
  6010410a68:	d503201f 	nop
  6010410a6c:	d503201f 	nop
  6010410a70:	d503201f 	nop
  6010410a74:	d503201f 	nop
  6010410a78:	d503201f 	nop
  6010410a7c:	d503201f 	nop
  6010410a80:	14000173 	b	601041104c <el1irq>
  6010410a84:	d503201f 	nop
  6010410a88:	d503201f 	nop
  6010410a8c:	d503201f 	nop
  6010410a90:	d503201f 	nop
  6010410a94:	d503201f 	nop
  6010410a98:	d503201f 	nop
  6010410a9c:	d503201f 	nop
  6010410aa0:	d503201f 	nop
  6010410aa4:	d503201f 	nop
  6010410aa8:	d503201f 	nop
  6010410aac:	d503201f 	nop
  6010410ab0:	d503201f 	nop
  6010410ab4:	d503201f 	nop
  6010410ab8:	d503201f 	nop
  6010410abc:	d503201f 	nop
  6010410ac0:	d503201f 	nop
  6010410ac4:	d503201f 	nop
  6010410ac8:	d503201f 	nop
  6010410acc:	d503201f 	nop
  6010410ad0:	d503201f 	nop
  6010410ad4:	d503201f 	nop
  6010410ad8:	d503201f 	nop
  6010410adc:	d503201f 	nop
  6010410ae0:	d503201f 	nop
  6010410ae4:	d503201f 	nop
  6010410ae8:	d503201f 	nop
  6010410aec:	d503201f 	nop
  6010410af0:	d503201f 	nop
  6010410af4:	d503201f 	nop
  6010410af8:	d503201f 	nop
  6010410afc:	d503201f 	nop
  6010410b00:	14000121 	b	6010410f84 <badtrap>
  6010410b04:	d503201f 	nop
  6010410b08:	d503201f 	nop
  6010410b0c:	d503201f 	nop
  6010410b10:	d503201f 	nop
  6010410b14:	d503201f 	nop
  6010410b18:	d503201f 	nop
  6010410b1c:	d503201f 	nop
  6010410b20:	d503201f 	nop
  6010410b24:	d503201f 	nop
  6010410b28:	d503201f 	nop
  6010410b2c:	d503201f 	nop
  6010410b30:	d503201f 	nop
  6010410b34:	d503201f 	nop
  6010410b38:	d503201f 	nop
  6010410b3c:	d503201f 	nop
  6010410b40:	d503201f 	nop
  6010410b44:	d503201f 	nop
  6010410b48:	d503201f 	nop
  6010410b4c:	d503201f 	nop
  6010410b50:	d503201f 	nop
  6010410b54:	d503201f 	nop
  6010410b58:	d503201f 	nop
  6010410b5c:	d503201f 	nop
  6010410b60:	d503201f 	nop
  6010410b64:	d503201f 	nop
  6010410b68:	d503201f 	nop
  6010410b6c:	d503201f 	nop
  6010410b70:	d503201f 	nop
  6010410b74:	d503201f 	nop
  6010410b78:	d503201f 	nop
  6010410b7c:	d503201f 	nop
  6010410b80:	14000101 	b	6010410f84 <badtrap>
  6010410b84:	d503201f 	nop
  6010410b88:	d503201f 	nop
  6010410b8c:	d503201f 	nop
  6010410b90:	d503201f 	nop
  6010410b94:	d503201f 	nop
  6010410b98:	d503201f 	nop
  6010410b9c:	d503201f 	nop
  6010410ba0:	d503201f 	nop
  6010410ba4:	d503201f 	nop
  6010410ba8:	d503201f 	nop
  6010410bac:	d503201f 	nop
  6010410bb0:	d503201f 	nop
  6010410bb4:	d503201f 	nop
  6010410bb8:	d503201f 	nop
  6010410bbc:	d503201f 	nop
  6010410bc0:	d503201f 	nop
  6010410bc4:	d503201f 	nop
  6010410bc8:	d503201f 	nop
  6010410bcc:	d503201f 	nop
  6010410bd0:	d503201f 	nop
  6010410bd4:	d503201f 	nop
  6010410bd8:	d503201f 	nop
  6010410bdc:	d503201f 	nop
  6010410be0:	d503201f 	nop
  6010410be4:	d503201f 	nop
  6010410be8:	d503201f 	nop
  6010410bec:	d503201f 	nop
  6010410bf0:	d503201f 	nop
  6010410bf4:	d503201f 	nop
  6010410bf8:	d503201f 	nop
  6010410bfc:	d503201f 	nop
  6010410c00:	14000141 	b	6010411104 <el0sync>
  6010410c04:	d503201f 	nop
  6010410c08:	d503201f 	nop
  6010410c0c:	d503201f 	nop
  6010410c10:	d503201f 	nop
  6010410c14:	d503201f 	nop
  6010410c18:	d503201f 	nop
  6010410c1c:	d503201f 	nop
  6010410c20:	d503201f 	nop
  6010410c24:	d503201f 	nop
  6010410c28:	d503201f 	nop
  6010410c2c:	d503201f 	nop
  6010410c30:	d503201f 	nop
  6010410c34:	d503201f 	nop
  6010410c38:	d503201f 	nop
  6010410c3c:	d503201f 	nop
  6010410c40:	d503201f 	nop
  6010410c44:	d503201f 	nop
  6010410c48:	d503201f 	nop
  6010410c4c:	d503201f 	nop
  6010410c50:	d503201f 	nop
  6010410c54:	d503201f 	nop
  6010410c58:	d503201f 	nop
  6010410c5c:	d503201f 	nop
  6010410c60:	d503201f 	nop
  6010410c64:	d503201f 	nop
  6010410c68:	d503201f 	nop
  6010410c6c:	d503201f 	nop
  6010410c70:	d503201f 	nop
  6010410c74:	d503201f 	nop
  6010410c78:	d503201f 	nop
  6010410c7c:	d503201f 	nop
  6010410c80:	1400014f 	b	60104111bc <el0irq>
  6010410c84:	d503201f 	nop
  6010410c88:	d503201f 	nop
  6010410c8c:	d503201f 	nop
  6010410c90:	d503201f 	nop
  6010410c94:	d503201f 	nop
  6010410c98:	d503201f 	nop
  6010410c9c:	d503201f 	nop
  6010410ca0:	d503201f 	nop
  6010410ca4:	d503201f 	nop
  6010410ca8:	d503201f 	nop
  6010410cac:	d503201f 	nop
  6010410cb0:	d503201f 	nop
  6010410cb4:	d503201f 	nop
  6010410cb8:	d503201f 	nop
  6010410cbc:	d503201f 	nop
  6010410cc0:	d503201f 	nop
  6010410cc4:	d503201f 	nop
  6010410cc8:	d503201f 	nop
  6010410ccc:	d503201f 	nop
  6010410cd0:	d503201f 	nop
  6010410cd4:	d503201f 	nop
  6010410cd8:	d503201f 	nop
  6010410cdc:	d503201f 	nop
  6010410ce0:	d503201f 	nop
  6010410ce4:	d503201f 	nop
  6010410ce8:	d503201f 	nop
  6010410cec:	d503201f 	nop
  6010410cf0:	d503201f 	nop
  6010410cf4:	d503201f 	nop
  6010410cf8:	d503201f 	nop
  6010410cfc:	d503201f 	nop
  6010410d00:	140000a1 	b	6010410f84 <badtrap>
  6010410d04:	d503201f 	nop
  6010410d08:	d503201f 	nop
  6010410d0c:	d503201f 	nop
  6010410d10:	d503201f 	nop
  6010410d14:	d503201f 	nop
  6010410d18:	d503201f 	nop
  6010410d1c:	d503201f 	nop
  6010410d20:	d503201f 	nop
  6010410d24:	d503201f 	nop
  6010410d28:	d503201f 	nop
  6010410d2c:	d503201f 	nop
  6010410d30:	d503201f 	nop
  6010410d34:	d503201f 	nop
  6010410d38:	d503201f 	nop
  6010410d3c:	d503201f 	nop
  6010410d40:	d503201f 	nop
  6010410d44:	d503201f 	nop
  6010410d48:	d503201f 	nop
  6010410d4c:	d503201f 	nop
  6010410d50:	d503201f 	nop
  6010410d54:	d503201f 	nop
  6010410d58:	d503201f 	nop
  6010410d5c:	d503201f 	nop
  6010410d60:	d503201f 	nop
  6010410d64:	d503201f 	nop
  6010410d68:	d503201f 	nop
  6010410d6c:	d503201f 	nop
  6010410d70:	d503201f 	nop
  6010410d74:	d503201f 	nop
  6010410d78:	d503201f 	nop
  6010410d7c:	d503201f 	nop
  6010410d80:	14000081 	b	6010410f84 <badtrap>
  6010410d84:	d503201f 	nop
  6010410d88:	d503201f 	nop
  6010410d8c:	d503201f 	nop
  6010410d90:	d503201f 	nop
  6010410d94:	d503201f 	nop
  6010410d98:	d503201f 	nop
  6010410d9c:	d503201f 	nop
  6010410da0:	d503201f 	nop
  6010410da4:	d503201f 	nop
  6010410da8:	d503201f 	nop
  6010410dac:	d503201f 	nop
  6010410db0:	d503201f 	nop
  6010410db4:	d503201f 	nop
  6010410db8:	d503201f 	nop
  6010410dbc:	d503201f 	nop
  6010410dc0:	d503201f 	nop
  6010410dc4:	d503201f 	nop
  6010410dc8:	d503201f 	nop
  6010410dcc:	d503201f 	nop
  6010410dd0:	d503201f 	nop
  6010410dd4:	d503201f 	nop
  6010410dd8:	d503201f 	nop
  6010410ddc:	d503201f 	nop
  6010410de0:	d503201f 	nop
  6010410de4:	d503201f 	nop
  6010410de8:	d503201f 	nop
  6010410dec:	d503201f 	nop
  6010410df0:	d503201f 	nop
  6010410df4:	d503201f 	nop
  6010410df8:	d503201f 	nop
  6010410dfc:	d503201f 	nop
  6010410e00:	14000061 	b	6010410f84 <badtrap>
  6010410e04:	d503201f 	nop
  6010410e08:	d503201f 	nop
  6010410e0c:	d503201f 	nop
  6010410e10:	d503201f 	nop
  6010410e14:	d503201f 	nop
  6010410e18:	d503201f 	nop
  6010410e1c:	d503201f 	nop
  6010410e20:	d503201f 	nop
  6010410e24:	d503201f 	nop
  6010410e28:	d503201f 	nop
  6010410e2c:	d503201f 	nop
  6010410e30:	d503201f 	nop
  6010410e34:	d503201f 	nop
  6010410e38:	d503201f 	nop
  6010410e3c:	d503201f 	nop
  6010410e40:	d503201f 	nop
  6010410e44:	d503201f 	nop
  6010410e48:	d503201f 	nop
  6010410e4c:	d503201f 	nop
  6010410e50:	d503201f 	nop
  6010410e54:	d503201f 	nop
  6010410e58:	d503201f 	nop
  6010410e5c:	d503201f 	nop
  6010410e60:	d503201f 	nop
  6010410e64:	d503201f 	nop
  6010410e68:	d503201f 	nop
  6010410e6c:	d503201f 	nop
  6010410e70:	d503201f 	nop
  6010410e74:	d503201f 	nop
  6010410e78:	d503201f 	nop
  6010410e7c:	d503201f 	nop
  6010410e80:	14000041 	b	6010410f84 <badtrap>
  6010410e84:	d503201f 	nop
  6010410e88:	d503201f 	nop
  6010410e8c:	d503201f 	nop
  6010410e90:	d503201f 	nop
  6010410e94:	d503201f 	nop
  6010410e98:	d503201f 	nop
  6010410e9c:	d503201f 	nop
  6010410ea0:	d503201f 	nop
  6010410ea4:	d503201f 	nop
  6010410ea8:	d503201f 	nop
  6010410eac:	d503201f 	nop
  6010410eb0:	d503201f 	nop
  6010410eb4:	d503201f 	nop
  6010410eb8:	d503201f 	nop
  6010410ebc:	d503201f 	nop
  6010410ec0:	d503201f 	nop
  6010410ec4:	d503201f 	nop
  6010410ec8:	d503201f 	nop
  6010410ecc:	d503201f 	nop
  6010410ed0:	d503201f 	nop
  6010410ed4:	d503201f 	nop
  6010410ed8:	d503201f 	nop
  6010410edc:	d503201f 	nop
  6010410ee0:	d503201f 	nop
  6010410ee4:	d503201f 	nop
  6010410ee8:	d503201f 	nop
  6010410eec:	d503201f 	nop
  6010410ef0:	d503201f 	nop
  6010410ef4:	d503201f 	nop
  6010410ef8:	d503201f 	nop
  6010410efc:	d503201f 	nop
  6010410f00:	14000021 	b	6010410f84 <badtrap>
  6010410f04:	d503201f 	nop
  6010410f08:	d503201f 	nop
  6010410f0c:	d503201f 	nop
  6010410f10:	d503201f 	nop
  6010410f14:	d503201f 	nop
  6010410f18:	d503201f 	nop
  6010410f1c:	d503201f 	nop
  6010410f20:	d503201f 	nop
  6010410f24:	d503201f 	nop
  6010410f28:	d503201f 	nop
  6010410f2c:	d503201f 	nop
  6010410f30:	d503201f 	nop
  6010410f34:	d503201f 	nop
  6010410f38:	d503201f 	nop
  6010410f3c:	d503201f 	nop
  6010410f40:	d503201f 	nop
  6010410f44:	d503201f 	nop
  6010410f48:	d503201f 	nop
  6010410f4c:	d503201f 	nop
  6010410f50:	d503201f 	nop
  6010410f54:	d503201f 	nop
  6010410f58:	d503201f 	nop
  6010410f5c:	d503201f 	nop
  6010410f60:	d503201f 	nop
  6010410f64:	d503201f 	nop
  6010410f68:	d503201f 	nop
  6010410f6c:	d503201f 	nop
  6010410f70:	d503201f 	nop
  6010410f74:	d503201f 	nop
  6010410f78:	d503201f 	nop
  6010410f7c:	d503201f 	nop
  6010410f80:	14000001 	b	6010410f84 <badtrap>

0000006010410f84 <badtrap>:
  6010410f84:	d5034fdf 	msr	daifset, #0xf
  6010410f88:	d10443ff 	sub	sp, sp, #0x110
  6010410f8c:	a90007e0 	stp	x0, x1, [sp]
  6010410f90:	a9010fe2 	stp	x2, x3, [sp, #16]
  6010410f94:	a90217e4 	stp	x4, x5, [sp, #32]
  6010410f98:	a9031fe6 	stp	x6, x7, [sp, #48]
  6010410f9c:	a90427e8 	stp	x8, x9, [sp, #64]
  6010410fa0:	a9052fea 	stp	x10, x11, [sp, #80]
  6010410fa4:	a90637ec 	stp	x12, x13, [sp, #96]
  6010410fa8:	a9073fee 	stp	x14, x15, [sp, #112]
  6010410fac:	a90847f0 	stp	x16, x17, [sp, #128]
  6010410fb0:	a9094ff2 	stp	x18, x19, [sp, #144]
  6010410fb4:	a90a57f4 	stp	x20, x21, [sp, #160]
  6010410fb8:	a90b5ff6 	stp	x22, x23, [sp, #176]
  6010410fbc:	a90c67f8 	stp	x24, x25, [sp, #192]
  6010410fc0:	a90d6ffa 	stp	x26, x27, [sp, #208]
  6010410fc4:	a90e77fc 	stp	x28, x29, [sp, #224]
  6010410fc8:	d5384029 	mrs	x9, elr_el1
  6010410fcc:	d538400a 	mrs	x10, spsr_el1
  6010410fd0:	910443eb 	add	x11, sp, #0x110
  6010410fd4:	a90f27fe 	stp	x30, x9, [sp, #240]
  6010410fd8:	a9102fea 	stp	x10, x11, [sp, #256]
  6010410fdc:	910003e0 	mov	x0, sp
  6010410fe0:	97fff99d 	bl	601040f654 <kernel_intr_handler>
  6010410fe4:	14000000 	b	6010410fe4 <badtrap+0x60>

0000006010410fe8 <el1sync>:
  6010410fe8:	d5034fdf 	msr	daifset, #0xf
  6010410fec:	d10443ff 	sub	sp, sp, #0x110
  6010410ff0:	a90007e0 	stp	x0, x1, [sp]
  6010410ff4:	a9010fe2 	stp	x2, x3, [sp, #16]
  6010410ff8:	a90217e4 	stp	x4, x5, [sp, #32]
  6010410ffc:	a9031fe6 	stp	x6, x7, [sp, #48]
  6010411000:	a90427e8 	stp	x8, x9, [sp, #64]
  6010411004:	a9052fea 	stp	x10, x11, [sp, #80]
  6010411008:	a90637ec 	stp	x12, x13, [sp, #96]
  601041100c:	a9073fee 	stp	x14, x15, [sp, #112]
  6010411010:	a90847f0 	stp	x16, x17, [sp, #128]
  6010411014:	a9094ff2 	stp	x18, x19, [sp, #144]
  6010411018:	a90a57f4 	stp	x20, x21, [sp, #160]
  601041101c:	a90b5ff6 	stp	x22, x23, [sp, #176]
  6010411020:	a90c67f8 	stp	x24, x25, [sp, #192]
  6010411024:	a90d6ffa 	stp	x26, x27, [sp, #208]
  6010411028:	a90e77fc 	stp	x28, x29, [sp, #224]
  601041102c:	d5384029 	mrs	x9, elr_el1
  6010411030:	d538400a 	mrs	x10, spsr_el1
  6010411034:	910443eb 	add	x11, sp, #0x110
  6010411038:	a90f27fe 	stp	x30, x9, [sp, #240]
  601041103c:	a9102fea 	stp	x10, x11, [sp, #256]
  6010411040:	910003e0 	mov	x0, sp
  6010411044:	97fff936 	bl	601040f51c <kernel_abort_handler>
  6010411048:	14000000 	b	6010411048 <el1sync+0x60>

000000601041104c <el1irq>:
  601041104c:	d5034fdf 	msr	daifset, #0xf
  6010411050:	d10443ff 	sub	sp, sp, #0x110
  6010411054:	a90007e0 	stp	x0, x1, [sp]
  6010411058:	a9010fe2 	stp	x2, x3, [sp, #16]
  601041105c:	a90217e4 	stp	x4, x5, [sp, #32]
  6010411060:	a9031fe6 	stp	x6, x7, [sp, #48]
  6010411064:	a90427e8 	stp	x8, x9, [sp, #64]
  6010411068:	a9052fea 	stp	x10, x11, [sp, #80]
  601041106c:	a90637ec 	stp	x12, x13, [sp, #96]
  6010411070:	a9073fee 	stp	x14, x15, [sp, #112]
  6010411074:	a90847f0 	stp	x16, x17, [sp, #128]
  6010411078:	a9094ff2 	stp	x18, x19, [sp, #144]
  601041107c:	a90a57f4 	stp	x20, x21, [sp, #160]
  6010411080:	a90b5ff6 	stp	x22, x23, [sp, #176]
  6010411084:	a90c67f8 	stp	x24, x25, [sp, #192]
  6010411088:	a90d6ffa 	stp	x26, x27, [sp, #208]
  601041108c:	a90e77fc 	stp	x28, x29, [sp, #224]
  6010411090:	d5384029 	mrs	x9, elr_el1
  6010411094:	d538400a 	mrs	x10, spsr_el1
  6010411098:	d538410b 	mrs	x11, sp_el0
  601041109c:	a90f27fe 	stp	x30, x9, [sp, #240]
  60104110a0:	a9102fea 	stp	x10, x11, [sp, #256]
  60104110a4:	910003e0 	mov	x0, sp
  60104110a8:	940022e9 	bl	6010419c4c <intr_irq_dispatch>
  60104110ac:	a94f27fe 	ldp	x30, x9, [sp, #240]
  60104110b0:	a9502fea 	ldp	x10, x11, [sp, #256]
  60104110b4:	d5184029 	msr	elr_el1, x9
  60104110b8:	d518400a 	msr	spsr_el1, x10
  60104110bc:	d518410b 	msr	sp_el0, x11
  60104110c0:	a94007e0 	ldp	x0, x1, [sp]
  60104110c4:	a9410fe2 	ldp	x2, x3, [sp, #16]
  60104110c8:	a94217e4 	ldp	x4, x5, [sp, #32]
  60104110cc:	a9431fe6 	ldp	x6, x7, [sp, #48]
  60104110d0:	a94427e8 	ldp	x8, x9, [sp, #64]
  60104110d4:	a9452fea 	ldp	x10, x11, [sp, #80]
  60104110d8:	a94637ec 	ldp	x12, x13, [sp, #96]
  60104110dc:	a9473fee 	ldp	x14, x15, [sp, #112]
  60104110e0:	a94847f0 	ldp	x16, x17, [sp, #128]
  60104110e4:	a9494ff2 	ldp	x18, x19, [sp, #144]
  60104110e8:	a94a57f4 	ldp	x20, x21, [sp, #160]
  60104110ec:	a94b5ff6 	ldp	x22, x23, [sp, #176]
  60104110f0:	a94c67f8 	ldp	x24, x25, [sp, #192]
  60104110f4:	a94d6ffa 	ldp	x26, x27, [sp, #208]
  60104110f8:	a94e77fc 	ldp	x28, x29, [sp, #224]
  60104110fc:	910443ff 	add	sp, sp, #0x110
  6010411100:	d69f03e0 	eret

0000006010411104 <el0sync>:
  6010411104:	d5034fdf 	msr	daifset, #0xf
  6010411108:	d10443ff 	sub	sp, sp, #0x110
  601041110c:	a90007e0 	stp	x0, x1, [sp]
  6010411110:	a9010fe2 	stp	x2, x3, [sp, #16]
  6010411114:	a90217e4 	stp	x4, x5, [sp, #32]
  6010411118:	a9031fe6 	stp	x6, x7, [sp, #48]
  601041111c:	a90427e8 	stp	x8, x9, [sp, #64]
  6010411120:	a9052fea 	stp	x10, x11, [sp, #80]
  6010411124:	a90637ec 	stp	x12, x13, [sp, #96]
  6010411128:	a9073fee 	stp	x14, x15, [sp, #112]
  601041112c:	a90847f0 	stp	x16, x17, [sp, #128]
  6010411130:	a9094ff2 	stp	x18, x19, [sp, #144]
  6010411134:	a90a57f4 	stp	x20, x21, [sp, #160]
  6010411138:	a90b5ff6 	stp	x22, x23, [sp, #176]
  601041113c:	a90c67f8 	stp	x24, x25, [sp, #192]
  6010411140:	a90d6ffa 	stp	x26, x27, [sp, #208]
  6010411144:	a90e77fc 	stp	x28, x29, [sp, #224]
  6010411148:	d5384029 	mrs	x9, elr_el1
  601041114c:	d538400a 	mrs	x10, spsr_el1
  6010411150:	d538410b 	mrs	x11, sp_el0
  6010411154:	a90f27fe 	stp	x30, x9, [sp, #240]
  6010411158:	a9102fea 	stp	x10, x11, [sp, #256]
  601041115c:	910003e0 	mov	x0, sp
  6010411160:	97fff946 	bl	601040f678 <syscall_arch_handler>
  6010411164:	a94f27fe 	ldp	x30, x9, [sp, #240]
  6010411168:	a9502fea 	ldp	x10, x11, [sp, #256]
  601041116c:	d5184029 	msr	elr_el1, x9
  6010411170:	d518400a 	msr	spsr_el1, x10
  6010411174:	d518410b 	msr	sp_el0, x11
  6010411178:	a94007e0 	ldp	x0, x1, [sp]
  601041117c:	a9410fe2 	ldp	x2, x3, [sp, #16]
  6010411180:	a94217e4 	ldp	x4, x5, [sp, #32]
  6010411184:	a9431fe6 	ldp	x6, x7, [sp, #48]
  6010411188:	a94427e8 	ldp	x8, x9, [sp, #64]
  601041118c:	a9452fea 	ldp	x10, x11, [sp, #80]
  6010411190:	a94637ec 	ldp	x12, x13, [sp, #96]
  6010411194:	a9473fee 	ldp	x14, x15, [sp, #112]
  6010411198:	a94847f0 	ldp	x16, x17, [sp, #128]
  601041119c:	a9494ff2 	ldp	x18, x19, [sp, #144]
  60104111a0:	a94a57f4 	ldp	x20, x21, [sp, #160]
  60104111a4:	a94b5ff6 	ldp	x22, x23, [sp, #176]
  60104111a8:	a94c67f8 	ldp	x24, x25, [sp, #192]
  60104111ac:	a94d6ffa 	ldp	x26, x27, [sp, #208]
  60104111b0:	a94e77fc 	ldp	x28, x29, [sp, #224]
  60104111b4:	910443ff 	add	sp, sp, #0x110
  60104111b8:	d69f03e0 	eret

00000060104111bc <el0irq>:
  60104111bc:	d5034fdf 	msr	daifset, #0xf
  60104111c0:	d10443ff 	sub	sp, sp, #0x110
  60104111c4:	a90007e0 	stp	x0, x1, [sp]
  60104111c8:	a9010fe2 	stp	x2, x3, [sp, #16]
  60104111cc:	a90217e4 	stp	x4, x5, [sp, #32]
  60104111d0:	a9031fe6 	stp	x6, x7, [sp, #48]
  60104111d4:	a90427e8 	stp	x8, x9, [sp, #64]
  60104111d8:	a9052fea 	stp	x10, x11, [sp, #80]
  60104111dc:	a90637ec 	stp	x12, x13, [sp, #96]
  60104111e0:	a9073fee 	stp	x14, x15, [sp, #112]
  60104111e4:	a90847f0 	stp	x16, x17, [sp, #128]
  60104111e8:	a9094ff2 	stp	x18, x19, [sp, #144]
  60104111ec:	a90a57f4 	stp	x20, x21, [sp, #160]
  60104111f0:	a90b5ff6 	stp	x22, x23, [sp, #176]
  60104111f4:	a90c67f8 	stp	x24, x25, [sp, #192]
  60104111f8:	a90d6ffa 	stp	x26, x27, [sp, #208]
  60104111fc:	a90e77fc 	stp	x28, x29, [sp, #224]
  6010411200:	d5384029 	mrs	x9, elr_el1
  6010411204:	d538400a 	mrs	x10, spsr_el1
  6010411208:	d538410b 	mrs	x11, sp_el0
  601041120c:	a90f27fe 	stp	x30, x9, [sp, #240]
  6010411210:	a9102fea 	stp	x10, x11, [sp, #256]
  6010411214:	910003e0 	mov	x0, sp
  6010411218:	9400228d 	bl	6010419c4c <intr_irq_dispatch>

000000601041121c <trap_return>:
  601041121c:	a94f27fe 	ldp	x30, x9, [sp, #240]
  6010411220:	a9502fea 	ldp	x10, x11, [sp, #256]
  6010411224:	d5184029 	msr	elr_el1, x9
  6010411228:	d518400a 	msr	spsr_el1, x10
  601041122c:	d518410b 	msr	sp_el0, x11
  6010411230:	a94007e0 	ldp	x0, x1, [sp]
  6010411234:	a9410fe2 	ldp	x2, x3, [sp, #16]
  6010411238:	a94217e4 	ldp	x4, x5, [sp, #32]
  601041123c:	a9431fe6 	ldp	x6, x7, [sp, #48]
  6010411240:	a94427e8 	ldp	x8, x9, [sp, #64]
  6010411244:	a9452fea 	ldp	x10, x11, [sp, #80]
  6010411248:	a94637ec 	ldp	x12, x13, [sp, #96]
  601041124c:	a9473fee 	ldp	x14, x15, [sp, #112]
  6010411250:	a94847f0 	ldp	x16, x17, [sp, #128]
  6010411254:	a9494ff2 	ldp	x18, x19, [sp, #144]
  6010411258:	a94a57f4 	ldp	x20, x21, [sp, #160]
  601041125c:	a94b5ff6 	ldp	x22, x23, [sp, #176]
  6010411260:	a94c67f8 	ldp	x24, x25, [sp, #192]
  6010411264:	a94d6ffa 	ldp	x26, x27, [sp, #208]
  6010411268:	a94e77fc 	ldp	x28, x29, [sp, #224]
  601041126c:	910443ff 	add	sp, sp, #0x110
  6010411270:	d69f03e0 	eret

0000006010411274 <_spinlock_lock>:
  6010411274:	52800022 	mov	w2, #0x1                   	// #1
  6010411278:	d50320bf 	sevl
  601041127c:	d503205f 	wfe
  6010411280:	085ffc01 	ldaxrb	w1, [x0]
  6010411284:	7103fc3f 	cmp	w1, #0xff
  6010411288:	54ffff61 	b.ne	6010411274 <_spinlock_lock>  // b.any
  601041128c:	d53800a1 	mrs	x1, mpidr_el1
  6010411290:	92400421 	and	x1, x1, #0x3
  6010411294:	08027c01 	stxrb	w2, w1, [x0]
  6010411298:	f100005f 	cmp	x2, #0x0
  601041129c:	54fffec1 	b.ne	6010411274 <_spinlock_lock>  // b.any
  60104112a0:	d5033bbf 	dmb	ish
  60104112a4:	d2800000 	mov	x0, #0x0                   	// #0
  60104112a8:	d65f03c0 	ret

00000060104112ac <_spinlock_unlock>:
  60104112ac:	d53800a1 	mrs	x1, mpidr_el1
  60104112b0:	92400421 	and	x1, x1, #0x3
  60104112b4:	b9400002 	ldr	w2, [x0]
  60104112b8:	6b02003f 	cmp	w1, w2
  60104112bc:	54000101 	b.ne	60104112dc <_spinlock_unlock+0x30>  // b.any
  60104112c0:	d5033bbf 	dmb	ish
  60104112c4:	52801fe1 	mov	w1, #0xff                  	// #255
  60104112c8:	b9000001 	str	w1, [x0]
  60104112cc:	d5033b9f 	dsb	ish
  60104112d0:	d50320bf 	sevl
  60104112d4:	d2800000 	mov	x0, #0x0                   	// #0
  60104112d8:	d65f03c0 	ret
  60104112dc:	d2800020 	mov	x0, #0x1                   	// #1
  60104112e0:	d65f03c0 	ret

00000060104112e4 <cur_cpuid>:
{
  60104112e4:	a9bf7bfd 	stp	x29, x30, [sp, #-16]!
  60104112e8:	910003fd 	mov	x29, sp
    return cpu_get_current();
  60104112ec:	97fff4eb 	bl	601040e698 <cpu_get_current>
}
  60104112f0:	a8c17bfd 	ldp	x29, x30, [sp], #16
  60104112f4:	d65f03c0 	ret

00000060104112f8 <module_spinlock_use_intr_init>:

static struct double_list_node lock_request_guard;
static struct lock_node core_lock_request[NR_CPU];
static struct spinlock request_lock;
bool module_spinlock_use_intr_init(void)
{
  60104112f8:	a9bd7bfd 	stp	x29, x30, [sp, #-48]!
  60104112fc:	910003fd 	mov	x29, sp
    for (int i = 0; i < NR_CPU; i++) {
  6010411300:	b9002fff 	str	wzr, [sp, #44]
  6010411304:	1400001a 	b	601041136c <module_spinlock_use_intr_init+0x74>
        core_lock_request[i].cpu_id = i;
  6010411308:	d0008980 	adrp	x0, 6011543000 <_binary_default_fs_start+0x96000>
  601041130c:	911a4001 	add	x1, x0, #0x690
  6010411310:	b9802fe2 	ldrsw	x2, [sp, #44]
  6010411314:	d2800300 	mov	x0, #0x18                  	// #24
  6010411318:	9b007c40 	mul	x0, x2, x0
  601041131c:	8b000020 	add	x0, x1, x0
  6010411320:	b9402fe1 	ldr	w1, [sp, #44]
  6010411324:	b9001001 	str	w1, [x0, #16]
        doubleListNodeInit(&core_lock_request[i].node);
  6010411328:	b9802fe1 	ldrsw	x1, [sp, #44]
  601041132c:	d2800300 	mov	x0, #0x18                  	// #24
  6010411330:	9b007c21 	mul	x1, x1, x0
  6010411334:	d0008980 	adrp	x0, 6011543000 <_binary_default_fs_start+0x96000>
  6010411338:	911a4000 	add	x0, x0, #0x690
  601041133c:	8b000020 	add	x0, x1, x0
  6010411340:	f90013e0 	str	x0, [sp, #32]
         item = DOUBLE_LIST_ENTRY(item->member.prev, __typeof__(*item), member))

__attribute__((always_inline))
static void inline doubleListNodeInit(struct double_list_node *list)
{
    list->next = list;
  6010411344:	f94013e0 	ldr	x0, [sp, #32]
  6010411348:	f94013e1 	ldr	x1, [sp, #32]
  601041134c:	f9000001 	str	x1, [x0]
    list->prev = list;
  6010411350:	f94013e0 	ldr	x0, [sp, #32]
  6010411354:	f94013e1 	ldr	x1, [sp, #32]
  6010411358:	f9000401 	str	x1, [x0, #8]
}
  601041135c:	d503201f 	nop
    for (int i = 0; i < NR_CPU; i++) {
  6010411360:	b9402fe0 	ldr	w0, [sp, #44]
  6010411364:	11000400 	add	w0, w0, #0x1
  6010411368:	b9002fe0 	str	w0, [sp, #44]
  601041136c:	b9402fe0 	ldr	w0, [sp, #44]
  6010411370:	7100001f 	cmp	w0, #0x0
  6010411374:	54fffcad 	b.le	6010411308 <module_spinlock_use_intr_init+0x10>
  6010411378:	d0008980 	adrp	x0, 6011543000 <_binary_default_fs_start+0x96000>
  601041137c:	911a0000 	add	x0, x0, #0x680
  6010411380:	f9000fe0 	str	x0, [sp, #24]
    list->next = list;
  6010411384:	f9400fe0 	ldr	x0, [sp, #24]
  6010411388:	f9400fe1 	ldr	x1, [sp, #24]
  601041138c:	f9000001 	str	x1, [x0]
    list->prev = list;
  6010411390:	f9400fe0 	ldr	x0, [sp, #24]
  6010411394:	f9400fe1 	ldr	x1, [sp, #24]
  6010411398:	f9000401 	str	x1, [x0, #8]
}
  601041139c:	d503201f 	nop
    }
    doubleListNodeInit(&lock_request_guard);
    spinlock_init(&request_lock, "requestlock");
  60104113a0:	90000080 	adrp	x0, 6010421000 <__func__.0+0x508>
  60104113a4:	91034001 	add	x1, x0, #0xd0
  60104113a8:	d0008980 	adrp	x0, 6011543000 <_binary_default_fs_start+0x96000>
  60104113ac:	911b0000 	add	x0, x0, #0x6c0
  60104113b0:	94000004 	bl	60104113c0 <spinlock_init>
    return true;
  60104113b4:	52800020 	mov	w0, #0x1                   	// #1
}
  60104113b8:	a8c37bfd 	ldp	x29, x30, [sp], #48
  60104113bc:	d65f03c0 	ret

00000060104113c0 <spinlock_init>:
    SPINLOCK_LOCK_NOWAIT = 0,
    SPINLOCK_LOCK_WAITFOREVER = 0xFFFFFFFF,
};

__attribute__((optimize("O0"))) void spinlock_init(struct spinlock* lock, char* name)
{
  60104113c0:	a9be7bfd 	stp	x29, x30, [sp, #-32]!
  60104113c4:	910003fd 	mov	x29, sp
  60104113c8:	f9000fe0 	str	x0, [sp, #24]
  60104113cc:	f9000be1 	str	x1, [sp, #16]
    lock->owner_cpu = SPINLOCK_STATE_UNLOCK;
  60104113d0:	f9400fe0 	ldr	x0, [sp, #24]
  60104113d4:	52801fe1 	mov	w1, #0xff                  	// #255
  60104113d8:	b9000001 	str	w1, [x0]
    strncpy(lock->name, name, 24);
  60104113dc:	f9400fe0 	ldr	x0, [sp, #24]
  60104113e0:	91001000 	add	x0, x0, #0x4
  60104113e4:	d2800302 	mov	x2, #0x18                  	// #24
  60104113e8:	f9400be1 	ldr	x1, [sp, #16]
  60104113ec:	94003ce5 	bl	6010420780 <strncpy>
}
  60104113f0:	d503201f 	nop
  60104113f4:	a8c27bfd 	ldp	x29, x30, [sp], #32
  60104113f8:	d65f03c0 	ret

00000060104113fc <spinlock_lock>:

extern int _spinlock_lock(struct spinlock* lock, uint32_t timeout);
extern void _spinlock_unlock(struct spinlock* lock);

__attribute__((optimize("O0"))) void spinlock_lock(struct spinlock* lock)
{
  60104113fc:	a9ba7bfd 	stp	x29, x30, [sp, #-96]!
  6010411400:	910003fd 	mov	x29, sp
  6010411404:	f9000fe0 	str	x0, [sp, #24]
    int cur_cpu_id = cur_cpuid();
  6010411408:	97ffffb7 	bl	60104112e4 <cur_cpuid>
  601041140c:	b9005fe0 	str	w0, [sp, #92]
    if (lock->owner_cpu != SPINLOCK_STATE_UNLOCK && lock->owner_cpu == cur_cpu_id) {
  6010411410:	f9400fe0 	ldr	x0, [sp, #24]
  6010411414:	b9400000 	ldr	w0, [x0]
  6010411418:	7103fc1f 	cmp	w0, #0xff
  601041141c:	540002e0 	b.eq	6010411478 <spinlock_lock+0x7c>  // b.none
  6010411420:	f9400fe0 	ldr	x0, [sp, #24]
  6010411424:	b9400001 	ldr	w1, [x0]
  6010411428:	b9405fe0 	ldr	w0, [sp, #92]
  601041142c:	6b00003f 	cmp	w1, w0
  6010411430:	54000241 	b.ne	6010411478 <spinlock_lock+0x7c>  // b.any
        ERROR("spinlock %s lock double locked by core %d\n", lock->name, lock->owner_cpu);
  6010411434:	52800882 	mov	w2, #0x44                  	// #68
  6010411438:	90000080 	adrp	x0, 6010421000 <__func__.0+0x508>
  601041143c:	9105a001 	add	x1, x0, #0x168
  6010411440:	90000080 	adrp	x0, 6010421000 <__func__.0+0x508>
  6010411444:	91038000 	add	x0, x0, #0xe0
  6010411448:	94000b4c 	bl	6010414178 <printf_>
  601041144c:	f9400fe0 	ldr	x0, [sp, #24]
  6010411450:	91001001 	add	x1, x0, #0x4
  6010411454:	f9400fe0 	ldr	x0, [sp, #24]
  6010411458:	b9400000 	ldr	w0, [x0]
  601041145c:	2a0003e2 	mov	w2, w0
  6010411460:	90000080 	adrp	x0, 6010421000 <__func__.0+0x508>
  6010411464:	9103c000 	add	x0, x0, #0xf0
  6010411468:	94000b44 	bl	6010414178 <printf_>
        panic("");
  601041146c:	90000080 	adrp	x0, 6010421000 <__func__.0+0x508>
  6010411470:	91048000 	add	x0, x0, #0x120
  6010411474:	97fff78d 	bl	601040f2a8 <panic>
    }

    struct double_list_node* p_lock_node = &core_lock_request[cur_cpu_id].node;
  6010411478:	b9805fe1 	ldrsw	x1, [sp, #92]
  601041147c:	d2800300 	mov	x0, #0x18                  	// #24
  6010411480:	9b007c21 	mul	x1, x1, x0
  6010411484:	d0008980 	adrp	x0, 6011543000 <_binary_default_fs_start+0x96000>
  6010411488:	911a4000 	add	x0, x0, #0x690
  601041148c:	8b000020 	add	x0, x1, x0
  6010411490:	f9002be0 	str	x0, [sp, #80]
    _spinlock_lock(&request_lock, SPINLOCK_LOCK_WAITFOREVER);
  6010411494:	12800001 	mov	w1, #0xffffffff            	// #-1
  6010411498:	d0008980 	adrp	x0, 6011543000 <_binary_default_fs_start+0x96000>
  601041149c:	911b0000 	add	x0, x0, #0x6c0
  60104114a0:	97ffff75 	bl	6010411274 <_spinlock_lock>
  60104114a4:	f9402be0 	ldr	x0, [sp, #80]
  60104114a8:	f90027e0 	str	x0, [sp, #72]
  60104114ac:	d0008980 	adrp	x0, 6011543000 <_binary_default_fs_start+0x96000>
  60104114b0:	911a0000 	add	x0, x0, #0x680
  60104114b4:	f90023e0 	str	x0, [sp, #64]
    _double_list_add(new_node, head, head->next);
}

__attribute__((always_inline)) static void inline doubleListAddOnBack(struct double_list_node* new_node, struct double_list_node* head)
{
    _double_list_add(new_node, head->prev, head);
  60104114b8:	f94023e0 	ldr	x0, [sp, #64]
  60104114bc:	f9400400 	ldr	x0, [x0, #8]
  60104114c0:	f94027e1 	ldr	x1, [sp, #72]
  60104114c4:	f9001fe1 	str	x1, [sp, #56]
  60104114c8:	f9001be0 	str	x0, [sp, #48]
  60104114cc:	f94023e0 	ldr	x0, [sp, #64]
  60104114d0:	f90017e0 	str	x0, [sp, #40]
    next->prev = new_node;
  60104114d4:	f94017e0 	ldr	x0, [sp, #40]
  60104114d8:	f9401fe1 	ldr	x1, [sp, #56]
  60104114dc:	f9000401 	str	x1, [x0, #8]
    new_node->next = next;
  60104114e0:	f9401fe0 	ldr	x0, [sp, #56]
  60104114e4:	f94017e1 	ldr	x1, [sp, #40]
  60104114e8:	f9000001 	str	x1, [x0]
    new_node->prev = prev;
  60104114ec:	f9401fe0 	ldr	x0, [sp, #56]
  60104114f0:	f9401be1 	ldr	x1, [sp, #48]
  60104114f4:	f9000401 	str	x1, [x0, #8]
    prev->next = new_node;
  60104114f8:	f9401be0 	ldr	x0, [sp, #48]
  60104114fc:	f9401fe1 	ldr	x1, [sp, #56]
  6010411500:	f9000001 	str	x1, [x0]
}
  6010411504:	d503201f 	nop
}
  6010411508:	d503201f 	nop
    doubleListAddOnBack(p_lock_node, &lock_request_guard);
    _spinlock_unlock(&request_lock);
  601041150c:	d0008980 	adrp	x0, 6011543000 <_binary_default_fs_start+0x96000>
  6010411510:	911b0000 	add	x0, x0, #0x6c0
  6010411514:	97ffff66 	bl	60104112ac <_spinlock_unlock>

    while (lock_request_guard.next != p_lock_node)
  6010411518:	d503201f 	nop
  601041151c:	d0008980 	adrp	x0, 6011543000 <_binary_default_fs_start+0x96000>
  6010411520:	911a0000 	add	x0, x0, #0x680
  6010411524:	f9400000 	ldr	x0, [x0]
  6010411528:	f9402be1 	ldr	x1, [sp, #80]
  601041152c:	eb00003f 	cmp	x1, x0
  6010411530:	54ffff61 	b.ne	601041151c <spinlock_lock+0x120>  // b.any
        ;

    _spinlock_lock(lock, SPINLOCK_LOCK_WAITFOREVER);
  6010411534:	12800001 	mov	w1, #0xffffffff            	// #-1
  6010411538:	f9400fe0 	ldr	x0, [sp, #24]
  601041153c:	97ffff4e 	bl	6010411274 <_spinlock_lock>
}
  6010411540:	d503201f 	nop
  6010411544:	a8c67bfd 	ldp	x29, x30, [sp], #96
  6010411548:	d65f03c0 	ret

000000601041154c <spinlock_unlock>:

__attribute__((optimize("O0"))) void spinlock_unlock(struct spinlock* lock)
{
  601041154c:	a9bc7bfd 	stp	x29, x30, [sp, #-64]!
  6010411550:	910003fd 	mov	x29, sp
  6010411554:	f9000fe0 	str	x0, [sp, #24]
    struct double_list_node* p_lock_node = &core_lock_request[cur_cpuid()].node;
  6010411558:	97ffff63 	bl	60104112e4 <cur_cpuid>
  601041155c:	93407c01 	sxtw	x1, w0
  6010411560:	d2800300 	mov	x0, #0x18                  	// #24
  6010411564:	9b007c21 	mul	x1, x1, x0
  6010411568:	d0008980 	adrp	x0, 6011543000 <_binary_default_fs_start+0x96000>
  601041156c:	911a4000 	add	x0, x0, #0x690
  6010411570:	8b000020 	add	x0, x1, x0
  6010411574:	f9001fe0 	str	x0, [sp, #56]
    assert(lock_request_guard.next == p_lock_node);
  6010411578:	d0008980 	adrp	x0, 6011543000 <_binary_default_fs_start+0x96000>
  601041157c:	911a0000 	add	x0, x0, #0x680
  6010411580:	f9400000 	ldr	x0, [x0]
  6010411584:	f9401fe1 	ldr	x1, [sp, #56]
  6010411588:	eb00003f 	cmp	x1, x0
  601041158c:	540001e0 	b.eq	60104115c8 <spinlock_unlock+0x7c>  // b.none
  6010411590:	52800ac2 	mov	w2, #0x56                  	// #86
  6010411594:	90000080 	adrp	x0, 6010421000 <__func__.0+0x508>
  6010411598:	9105e001 	add	x1, x0, #0x178
  601041159c:	90000080 	adrp	x0, 6010421000 <__func__.0+0x508>
  60104115a0:	91038000 	add	x0, x0, #0xe0
  60104115a4:	94000af5 	bl	6010414178 <printf_>
  60104115a8:	90000080 	adrp	x0, 6010421000 <__func__.0+0x508>
  60104115ac:	9104a001 	add	x1, x0, #0x128
  60104115b0:	90000080 	adrp	x0, 6010421000 <__func__.0+0x508>
  60104115b4:	91054000 	add	x0, x0, #0x150
  60104115b8:	94000af0 	bl	6010414178 <printf_>
  60104115bc:	90000080 	adrp	x0, 6010421000 <__func__.0+0x508>
  60104115c0:	91058000 	add	x0, x0, #0x160
  60104115c4:	97fff739 	bl	601040f2a8 <panic>
    _spinlock_lock(&request_lock, SPINLOCK_LOCK_WAITFOREVER);
  60104115c8:	12800001 	mov	w1, #0xffffffff            	// #-1
  60104115cc:	d0008980 	adrp	x0, 6011543000 <_binary_default_fs_start+0x96000>
  60104115d0:	911b0000 	add	x0, x0, #0x6c0
  60104115d4:	97ffff28 	bl	6010411274 <_spinlock_lock>
    _double_list_del(p_lock_node->prev, p_lock_node->next);
  60104115d8:	f9401fe0 	ldr	x0, [sp, #56]
  60104115dc:	f9400401 	ldr	x1, [x0, #8]
  60104115e0:	f9401fe0 	ldr	x0, [sp, #56]
  60104115e4:	f9400000 	ldr	x0, [x0]
  60104115e8:	f9001be1 	str	x1, [sp, #48]
  60104115ec:	f90017e0 	str	x0, [sp, #40]
    next->prev = prev;
  60104115f0:	f94017e0 	ldr	x0, [sp, #40]
  60104115f4:	f9401be1 	ldr	x1, [sp, #48]
  60104115f8:	f9000401 	str	x1, [x0, #8]
    prev->next = next;
  60104115fc:	f9401be0 	ldr	x0, [sp, #48]
  6010411600:	f94017e1 	ldr	x1, [sp, #40]
  6010411604:	f9000001 	str	x1, [x0]
}
  6010411608:	d503201f 	nop
    _spinlock_unlock(&request_lock);
  601041160c:	d0008980 	adrp	x0, 6011543000 <_binary_default_fs_start+0x96000>
  6010411610:	911b0000 	add	x0, x0, #0x6c0
  6010411614:	97ffff26 	bl	60104112ac <_spinlock_unlock>

    _spinlock_unlock(lock);
  6010411618:	f9400fe0 	ldr	x0, [sp, #24]
  601041161c:	97ffff24 	bl	60104112ac <_spinlock_unlock>
}
  6010411620:	d503201f 	nop
  6010411624:	a8c47bfd 	ldp	x29, x30, [sp], #64
  6010411628:	d65f03c0 	ret

000000601041162c <spinlock_try_lock>:

__attribute__((optimize("O0"))) bool spinlock_try_lock(struct spinlock* lock)
{
  601041162c:	a9b97bfd 	stp	x29, x30, [sp, #-112]!
  6010411630:	910003fd 	mov	x29, sp
  6010411634:	f9000fe0 	str	x0, [sp, #24]
    int cur_cpu_id = cur_cpuid();
  6010411638:	97ffff2b 	bl	60104112e4 <cur_cpuid>
  601041163c:	b9006fe0 	str	w0, [sp, #108]
    if (lock->owner_cpu != SPINLOCK_STATE_UNLOCK && lock->owner_cpu == cur_cpu_id) {
  6010411640:	f9400fe0 	ldr	x0, [sp, #24]
  6010411644:	b9400000 	ldr	w0, [x0]
  6010411648:	7103fc1f 	cmp	w0, #0xff
  601041164c:	540002e0 	b.eq	60104116a8 <spinlock_try_lock+0x7c>  // b.none
  6010411650:	f9400fe0 	ldr	x0, [sp, #24]
  6010411654:	b9400001 	ldr	w1, [x0]
  6010411658:	b9406fe0 	ldr	w0, [sp, #108]
  601041165c:	6b00003f 	cmp	w1, w0
  6010411660:	54000241 	b.ne	60104116a8 <spinlock_try_lock+0x7c>  // b.any
        ERROR("spinlock %s lock double locked by core %d\n", lock->name, lock->owner_cpu);
  6010411664:	52800c42 	mov	w2, #0x62                  	// #98
  6010411668:	90000080 	adrp	x0, 6010421000 <__func__.0+0x508>
  601041166c:	91062001 	add	x1, x0, #0x188
  6010411670:	90000080 	adrp	x0, 6010421000 <__func__.0+0x508>
  6010411674:	91038000 	add	x0, x0, #0xe0
  6010411678:	94000ac0 	bl	6010414178 <printf_>
  601041167c:	f9400fe0 	ldr	x0, [sp, #24]
  6010411680:	91001001 	add	x1, x0, #0x4
  6010411684:	f9400fe0 	ldr	x0, [sp, #24]
  6010411688:	b9400000 	ldr	w0, [x0]
  601041168c:	2a0003e2 	mov	w2, w0
  6010411690:	90000080 	adrp	x0, 6010421000 <__func__.0+0x508>
  6010411694:	9103c000 	add	x0, x0, #0xf0
  6010411698:	94000ab8 	bl	6010414178 <printf_>
        panic("");
  601041169c:	90000080 	adrp	x0, 6010421000 <__func__.0+0x508>
  60104116a0:	91048000 	add	x0, x0, #0x120
  60104116a4:	97fff701 	bl	601040f2a8 <panic>
    }

    struct double_list_node* p_lock_node = &core_lock_request[cur_cpu_id].node;
  60104116a8:	b9806fe1 	ldrsw	x1, [sp, #108]
  60104116ac:	d2800300 	mov	x0, #0x18                  	// #24
  60104116b0:	9b007c21 	mul	x1, x1, x0
  60104116b4:	d0008980 	adrp	x0, 6011543000 <_binary_default_fs_start+0x96000>
  60104116b8:	911a4000 	add	x0, x0, #0x690
  60104116bc:	8b000020 	add	x0, x1, x0
  60104116c0:	f90033e0 	str	x0, [sp, #96]
    _spinlock_lock(&request_lock, SPINLOCK_LOCK_WAITFOREVER);
  60104116c4:	12800001 	mov	w1, #0xffffffff            	// #-1
  60104116c8:	d0008980 	adrp	x0, 6011543000 <_binary_default_fs_start+0x96000>
  60104116cc:	911b0000 	add	x0, x0, #0x6c0
  60104116d0:	97fffee9 	bl	6010411274 <_spinlock_lock>
  60104116d4:	f94033e0 	ldr	x0, [sp, #96]
  60104116d8:	f9002fe0 	str	x0, [sp, #88]
  60104116dc:	d0008980 	adrp	x0, 6011543000 <_binary_default_fs_start+0x96000>
  60104116e0:	911a0000 	add	x0, x0, #0x680
  60104116e4:	f9002be0 	str	x0, [sp, #80]
    _double_list_add(new_node, head->prev, head);
  60104116e8:	f9402be0 	ldr	x0, [sp, #80]
  60104116ec:	f9400400 	ldr	x0, [x0, #8]
  60104116f0:	f9402fe1 	ldr	x1, [sp, #88]
  60104116f4:	f90027e1 	str	x1, [sp, #72]
  60104116f8:	f90023e0 	str	x0, [sp, #64]
  60104116fc:	f9402be0 	ldr	x0, [sp, #80]
  6010411700:	f9001fe0 	str	x0, [sp, #56]
    next->prev = new_node;
  6010411704:	f9401fe0 	ldr	x0, [sp, #56]
  6010411708:	f94027e1 	ldr	x1, [sp, #72]
  601041170c:	f9000401 	str	x1, [x0, #8]
    new_node->next = next;
  6010411710:	f94027e0 	ldr	x0, [sp, #72]
  6010411714:	f9401fe1 	ldr	x1, [sp, #56]
  6010411718:	f9000001 	str	x1, [x0]
    new_node->prev = prev;
  601041171c:	f94027e0 	ldr	x0, [sp, #72]
  6010411720:	f94023e1 	ldr	x1, [sp, #64]
  6010411724:	f9000401 	str	x1, [x0, #8]
    prev->next = new_node;
  6010411728:	f94023e0 	ldr	x0, [sp, #64]
  601041172c:	f94027e1 	ldr	x1, [sp, #72]
  6010411730:	f9000001 	str	x1, [x0]
}
  6010411734:	d503201f 	nop
}
  6010411738:	d503201f 	nop
    doubleListAddOnBack(p_lock_node, &lock_request_guard);
    if (lock_request_guard.next != p_lock_node) {
  601041173c:	d0008980 	adrp	x0, 6011543000 <_binary_default_fs_start+0x96000>
  6010411740:	911a0000 	add	x0, x0, #0x680
  6010411744:	f9400000 	ldr	x0, [x0]
  6010411748:	f94033e1 	ldr	x1, [sp, #96]
  601041174c:	eb00003f 	cmp	x1, x0
  6010411750:	54000260 	b.eq	601041179c <spinlock_try_lock+0x170>  // b.none
        _double_list_del(p_lock_node->prev, p_lock_node->next);
  6010411754:	f94033e0 	ldr	x0, [sp, #96]
  6010411758:	f9400401 	ldr	x1, [x0, #8]
  601041175c:	f94033e0 	ldr	x0, [sp, #96]
  6010411760:	f9400000 	ldr	x0, [x0]
  6010411764:	f9001be1 	str	x1, [sp, #48]
  6010411768:	f90017e0 	str	x0, [sp, #40]
    next->prev = prev;
  601041176c:	f94017e0 	ldr	x0, [sp, #40]
  6010411770:	f9401be1 	ldr	x1, [sp, #48]
  6010411774:	f9000401 	str	x1, [x0, #8]
    prev->next = next;
  6010411778:	f9401be0 	ldr	x0, [sp, #48]
  601041177c:	f94017e1 	ldr	x1, [sp, #40]
  6010411780:	f9000001 	str	x1, [x0]
}
  6010411784:	d503201f 	nop
        _spinlock_unlock(&request_lock);
  6010411788:	d0008980 	adrp	x0, 6011543000 <_binary_default_fs_start+0x96000>
  601041178c:	911b0000 	add	x0, x0, #0x6c0
  6010411790:	97fffec7 	bl	60104112ac <_spinlock_unlock>
        return false;
  6010411794:	52800000 	mov	w0, #0x0                   	// #0
  6010411798:	14000008 	b	60104117b8 <spinlock_try_lock+0x18c>
    }
    _spinlock_unlock(&request_lock);
  601041179c:	d0008980 	adrp	x0, 6011543000 <_binary_default_fs_start+0x96000>
  60104117a0:	911b0000 	add	x0, x0, #0x6c0
  60104117a4:	97fffec2 	bl	60104112ac <_spinlock_unlock>
    _spinlock_lock(lock, SPINLOCK_LOCK_WAITFOREVER);
  60104117a8:	12800001 	mov	w1, #0xffffffff            	// #-1
  60104117ac:	f9400fe0 	ldr	x0, [sp, #24]
  60104117b0:	97fffeb1 	bl	6010411274 <_spinlock_lock>

    return true;
  60104117b4:	52800020 	mov	w0, #0x1                   	// #1
}
  60104117b8:	a8c77bfd 	ldp	x29, x30, [sp], #112
  60104117bc:	d65f03c0 	ret

00000060104117c0 <is_spinlock_hold_by_current_cpu>:

bool is_spinlock_hold_by_current_cpu(struct spinlock* lock)
{
  60104117c0:	a9bd7bfd 	stp	x29, x30, [sp, #-48]!
  60104117c4:	910003fd 	mov	x29, sp
  60104117c8:	f9000bf3 	str	x19, [sp, #16]
  60104117cc:	f90017e0 	str	x0, [sp, #40]
    return lock->owner_cpu == cur_cpuid();
  60104117d0:	f94017e0 	ldr	x0, [sp, #40]
  60104117d4:	b9400013 	ldr	w19, [x0]
  60104117d8:	97fffec3 	bl	60104112e4 <cur_cpuid>
  60104117dc:	6b00027f 	cmp	w19, w0
  60104117e0:	1a9f17e0 	cset	w0, eq  // eq = none
  60104117e4:	12001c00 	and	w0, w0, #0xff
  60104117e8:	f9400bf3 	ldr	x19, [sp, #16]
  60104117ec:	a8c37bfd 	ldp	x29, x30, [sp], #48
  60104117f0:	d65f03c0 	ret

00000060104117f4 <uartinit>:
// static char uart_tx_buf[UART_TX_BUF_SIZE];
uint64_t uart_tx_w; // write next to uart_tx_buf[uart_tx_w % UART_TX_BUF_SIZE]
uint64_t uart_tx_r; // read next from uart_tx_buf[uart_tx_r % UART_TX_BUF_SIZE]

void uartinit(void)
{
  60104117f4:	a9bf7bfd 	stp	x29, x30, [sp, #-16]!
  60104117f8:	910003fd 	mov	x29, sp
    // UART_WRITE_REG(CR, 0x301);

    // // enable transmit and receive interrupts.
    // UART_WRITE_REG(IMSC, INT_RX_ENABLE | INT_TX_ENABLE);

    _debug_uart_init();
  60104117fc:	94000042 	bl	6010411904 <_debug_uart_init>
}
  6010411800:	d503201f 	nop
  6010411804:	a8c17bfd 	ldp	x29, x30, [sp], #16
  6010411808:	d65f03c0 	ret

000000601041180c <uartstart>:

    //     // maybe uartputc() is waiting for space in the buffer.

    //     UART_WRITE_REG(DR, c);
    // }
}
  601041180c:	d503201f 	nop
  6010411810:	d65f03c0 	ret

0000006010411814 <uartputc>:

void uartputc(uint8_t c)
{
  6010411814:	a9be7bfd 	stp	x29, x30, [sp, #-32]!
  6010411818:	910003fd 	mov	x29, sp
  601041181c:	39007fe0 	strb	w0, [sp, #31]
    //     ;
    // uart_tx_buf[uart_tx_w % UART_TX_BUF_SIZE] = c;
    // uart_tx_w += 1;
    // uartstart();
    // return;
    _debug_uart_putc((int)c);
  6010411820:	39407fe0 	ldrb	w0, [sp, #31]
  6010411824:	9400006f 	bl	60104119e0 <_debug_uart_putc>
}
  6010411828:	d503201f 	nop
  601041182c:	a8c27bfd 	ldp	x29, x30, [sp], #32
  6010411830:	d65f03c0 	ret

0000006010411834 <uartgetc>:
{
    // if (UART_READ_REG(FR) & FR_RXFE)
    //     return 0xFF;
    // else
    //     return UART_READ_REG(DR);
    return 0xFF;
  6010411834:	52801fe0 	mov	w0, #0xff                  	// #255
}
  6010411838:	d65f03c0 	ret

000000601041183c <UartGetIrqnum>:

static uint32_t UartGetIrqnum()
{
    return 0;
  601041183c:	52800000 	mov	w0, #0x0                   	// #0
}
  6010411840:	d65f03c0 	ret

0000006010411844 <hardkernel_uart_init>:
    .putc = uartputc,
    .getc = uartgetc,
};

struct XiziSerialDriver* hardkernel_uart_init(struct TraceTag* hardkernel_tag)
{
  6010411844:	a9be7bfd 	stp	x29, x30, [sp, #-32]!
  6010411848:	910003fd 	mov	x29, sp
  601041184c:	f9000fe0 	str	x0, [sp, #24]
    hardkernel_serial_driver.sys_serial_init();
  6010411850:	f0000080 	adrp	x0, 6010424000 <impure_data+0x210>
  6010411854:	9139e000 	add	x0, x0, #0xe78
  6010411858:	f9400000 	ldr	x0, [x0]
  601041185c:	d63f0000 	blr	x0
    return &hardkernel_serial_driver;
  6010411860:	f0000080 	adrp	x0, 6010424000 <impure_data+0x210>
  6010411864:	9139e000 	add	x0, x0, #0xe78
  6010411868:	a8c27bfd 	ldp	x29, x30, [sp], #32
  601041186c:	d65f03c0 	ret

0000006010411870 <serial_out_shift>:
#define serial_din(reg)                                                          \
    serial_in_shift((char*)com_port + ((char*)reg - (char*)com_port) * (1 << 2), \
        2)

static inline void serial_out_shift(void* addr, int shift, int value)
{
  6010411870:	d10043ff 	sub	sp, sp, #0x10
  6010411874:	f90007e0 	str	x0, [sp, #8]
  6010411878:	b90007e1 	str	w1, [sp, #4]
  601041187c:	b90003e2 	str	w2, [sp]
    out_le32(addr, value);
  6010411880:	b94003e1 	ldr	w1, [sp]
  6010411884:	f94007e0 	ldr	x0, [sp, #8]
  6010411888:	b9000001 	str	w1, [x0]
}
  601041188c:	d503201f 	nop
  6010411890:	910043ff 	add	sp, sp, #0x10
  6010411894:	d65f03c0 	ret

0000006010411898 <serial_in_shift>:

static inline int serial_in_shift(void* addr, int shift)
{
  6010411898:	d10043ff 	sub	sp, sp, #0x10
  601041189c:	f90007e0 	str	x0, [sp, #8]
  60104118a0:	b90007e1 	str	w1, [sp, #4]
    return in_le32(addr);
  60104118a4:	f94007e0 	ldr	x0, [sp, #8]
  60104118a8:	b9400000 	ldr	w0, [x0]
}
  60104118ac:	910043ff 	add	sp, sp, #0x10
  60104118b0:	d65f03c0 	ret

00000060104118b4 <ns16550_calc_divisor>:
        typeof(divisor) __d = divisor;                                                                                                       \
        (((typeof(x))-1) > 0 || ((typeof(divisor))-1) > 0 || (__x) > 0) ? (((__x) + ((__d) / 2)) / (__d)) : (((__x) - ((__d) / 2)) / (__d)); \
    })

int ns16550_calc_divisor(NS16550_t port, int clock, int baudrate)
{
  60104118b4:	d10083ff 	sub	sp, sp, #0x20
  60104118b8:	f90007e0 	str	x0, [sp, #8]
  60104118bc:	b90007e1 	str	w1, [sp, #4]
  60104118c0:	b90003e2 	str	w2, [sp]
    const unsigned int mode_x_div = 16;
  60104118c4:	52800200 	mov	w0, #0x10                  	// #16
  60104118c8:	b9001fe0 	str	w0, [sp, #28]

    return DIV_ROUND_CLOSEST(clock, mode_x_div * baudrate);
  60104118cc:	b94007e0 	ldr	w0, [sp, #4]
  60104118d0:	b9001be0 	str	w0, [sp, #24]
  60104118d4:	b94003e0 	ldr	w0, [sp]
  60104118d8:	b9401fe1 	ldr	w1, [sp, #28]
  60104118dc:	1b007c20 	mul	w0, w1, w0
  60104118e0:	b90017e0 	str	w0, [sp, #20]
  60104118e4:	b94017e0 	ldr	w0, [sp, #20]
  60104118e8:	53017c01 	lsr	w1, w0, #1
  60104118ec:	b9401be0 	ldr	w0, [sp, #24]
  60104118f0:	0b000021 	add	w1, w1, w0
  60104118f4:	b94017e0 	ldr	w0, [sp, #20]
  60104118f8:	1ac00820 	udiv	w0, w1, w0
}
  60104118fc:	910083ff 	add	sp, sp, #0x20
  6010411900:	d65f03c0 	ret

0000006010411904 <_debug_uart_init>:

void _debug_uart_init(void)
{
  6010411904:	a9be7bfd 	stp	x29, x30, [sp, #-32]!
  6010411908:	910003fd 	mov	x29, sp
    struct NS16550* com_port = (struct NS16550*)UART_ADDR;
  601041190c:	d2bfccc0 	mov	x0, #0xfe660000            	// #4268097536
  6010411910:	f2c00800 	movk	x0, #0x40, lsl #32
  6010411914:	f9000fe0 	str	x0, [sp, #24]
     * We copy the code from above because it is already horribly messy.
     * Trying to refactor to nicely remove the duplication doesn't seem
     * feasible. The better fix is to move all users of this driver to
     * driver model.
     */
    int baud_divisor = ns16550_calc_divisor(com_port, 24000000,
  6010411918:	529c6c02 	mov	w2, #0xe360                	// #58208
  601041191c:	72a002c2 	movk	w2, #0x16, lsl #16
  6010411920:	5286c001 	mov	w1, #0x3600                	// #13824
  6010411924:	72a02dc1 	movk	w1, #0x16e, lsl #16
  6010411928:	f9400fe0 	ldr	x0, [sp, #24]
  601041192c:	97ffffe2 	bl	60104118b4 <ns16550_calc_divisor>
  6010411930:	b90017e0 	str	w0, [sp, #20]
        1500000);
    serial_dout(&com_port->ier, CONFIG_SYS_NS16550_IER);
  6010411934:	f9400fe0 	ldr	x0, [sp, #24]
  6010411938:	91001000 	add	x0, x0, #0x4
  601041193c:	52800002 	mov	w2, #0x0                   	// #0
  6010411940:	52800041 	mov	w1, #0x2                   	// #2
  6010411944:	97ffffcb 	bl	6010411870 <serial_out_shift>
    serial_dout(&com_port->mcr, UART_MCRVAL);
  6010411948:	f9400fe0 	ldr	x0, [sp, #24]
  601041194c:	91004000 	add	x0, x0, #0x10
  6010411950:	52800062 	mov	w2, #0x3                   	// #3
  6010411954:	52800041 	mov	w1, #0x2                   	// #2
  6010411958:	97ffffc6 	bl	6010411870 <serial_out_shift>
    serial_dout(&com_port->fcr, UART_FCR_DEFVAL);
  601041195c:	f9400fe0 	ldr	x0, [sp, #24]
  6010411960:	91002000 	add	x0, x0, #0x8
  6010411964:	528000e2 	mov	w2, #0x7                   	// #7
  6010411968:	52800041 	mov	w1, #0x2                   	// #2
  601041196c:	97ffffc1 	bl	6010411870 <serial_out_shift>

    serial_dout(&com_port->lcr, UART_LCR_BKSE | UART_LCRVAL);
  6010411970:	f9400fe0 	ldr	x0, [sp, #24]
  6010411974:	91003000 	add	x0, x0, #0xc
  6010411978:	52801062 	mov	w2, #0x83                  	// #131
  601041197c:	52800041 	mov	w1, #0x2                   	// #2
  6010411980:	97ffffbc 	bl	6010411870 <serial_out_shift>
    serial_dout(&com_port->dll, baud_divisor & 0xff);
  6010411984:	b94017e0 	ldr	w0, [sp, #20]
  6010411988:	12001c00 	and	w0, w0, #0xff
  601041198c:	2a0003e2 	mov	w2, w0
  6010411990:	52800041 	mov	w1, #0x2                   	// #2
  6010411994:	f9400fe0 	ldr	x0, [sp, #24]
  6010411998:	97ffffb6 	bl	6010411870 <serial_out_shift>
    serial_dout(&com_port->dlm, (baud_divisor >> 8) & 0xff);
  601041199c:	f9400fe0 	ldr	x0, [sp, #24]
  60104119a0:	91001003 	add	x3, x0, #0x4
  60104119a4:	b94017e0 	ldr	w0, [sp, #20]
  60104119a8:	13087c00 	asr	w0, w0, #8
  60104119ac:	12001c00 	and	w0, w0, #0xff
  60104119b0:	2a0003e2 	mov	w2, w0
  60104119b4:	52800041 	mov	w1, #0x2                   	// #2
  60104119b8:	aa0303e0 	mov	x0, x3
  60104119bc:	97ffffad 	bl	6010411870 <serial_out_shift>
    serial_dout(&com_port->lcr, UART_LCRVAL);
  60104119c0:	f9400fe0 	ldr	x0, [sp, #24]
  60104119c4:	91003000 	add	x0, x0, #0xc
  60104119c8:	52800062 	mov	w2, #0x3                   	// #3
  60104119cc:	52800041 	mov	w1, #0x2                   	// #2
  60104119d0:	97ffffa8 	bl	6010411870 <serial_out_shift>
}
  60104119d4:	d503201f 	nop
  60104119d8:	a8c27bfd 	ldp	x29, x30, [sp], #32
  60104119dc:	d65f03c0 	ret

00000060104119e0 <_debug_uart_putc>:

void _debug_uart_putc(int ch)
{
  60104119e0:	a9be7bfd 	stp	x29, x30, [sp, #-32]!
  60104119e4:	910003fd 	mov	x29, sp
  60104119e8:	b9001fe0 	str	w0, [sp, #28]
    static struct NS16550* com_port = (struct NS16550*)UART_ADDR;

    if (ch == '\n') {
  60104119ec:	b9401fe0 	ldr	w0, [sp, #28]
  60104119f0:	7100281f 	cmp	w0, #0xa
  60104119f4:	54000061 	b.ne	6010411a00 <_debug_uart_putc+0x20>  // b.any
        _debug_uart_putc('\r');
  60104119f8:	528001a0 	mov	w0, #0xd                   	// #13
  60104119fc:	97fffff9 	bl	60104119e0 <_debug_uart_putc>
    }

    while (!(serial_din(&com_port->lsr) & UART_LSR_THRE))
  6010411a00:	d503201f 	nop
  6010411a04:	f0000080 	adrp	x0, 6010424000 <impure_data+0x210>
  6010411a08:	913a6000 	add	x0, x0, #0xe98
  6010411a0c:	f9400000 	ldr	x0, [x0]
  6010411a10:	91005000 	add	x0, x0, #0x14
  6010411a14:	52800041 	mov	w1, #0x2                   	// #2
  6010411a18:	97ffffa0 	bl	6010411898 <serial_in_shift>
  6010411a1c:	121b0000 	and	w0, w0, #0x20
  6010411a20:	7100001f 	cmp	w0, #0x0
  6010411a24:	54ffff00 	b.eq	6010411a04 <_debug_uart_putc+0x24>  // b.none
        ;
    serial_dout(&com_port->thr, ch);
  6010411a28:	f0000080 	adrp	x0, 6010424000 <impure_data+0x210>
  6010411a2c:	913a6000 	add	x0, x0, #0xe98
  6010411a30:	f9400000 	ldr	x0, [x0]
  6010411a34:	b9401fe2 	ldr	w2, [sp, #28]
  6010411a38:	52800041 	mov	w1, #0x2                   	// #2
  6010411a3c:	97ffff8d 	bl	6010411870 <serial_out_shift>
}
  6010411a40:	d503201f 	nop
  6010411a44:	a8c27bfd 	ldp	x29, x30, [sp], #32
  6010411a48:	d65f03c0 	ret

0000006010411a4c <_debug_uart_getc>:

int _debug_uart_getc(void)
{
  6010411a4c:	a9bf7bfd 	stp	x29, x30, [sp, #-16]!
  6010411a50:	910003fd 	mov	x29, sp
    static struct NS16550* com_port = (struct NS16550*)UART_ADDR;

    while (!(serial_din(&com_port->lsr) & UART_LSR_DR))
  6010411a54:	d503201f 	nop
  6010411a58:	f0000080 	adrp	x0, 6010424000 <impure_data+0x210>
  6010411a5c:	913a8000 	add	x0, x0, #0xea0
  6010411a60:	f9400000 	ldr	x0, [x0]
  6010411a64:	91005000 	add	x0, x0, #0x14
  6010411a68:	52800041 	mov	w1, #0x2                   	// #2
  6010411a6c:	97ffff8b 	bl	6010411898 <serial_in_shift>
  6010411a70:	12000000 	and	w0, w0, #0x1
  6010411a74:	7100001f 	cmp	w0, #0x0
  6010411a78:	54ffff00 	b.eq	6010411a58 <_debug_uart_getc+0xc>  // b.none
        ;

    return serial_din(&com_port->rbr);
  6010411a7c:	f0000080 	adrp	x0, 6010424000 <impure_data+0x210>
  6010411a80:	913a8000 	add	x0, x0, #0xea0
  6010411a84:	f9400000 	ldr	x0, [x0]
  6010411a88:	52800041 	mov	w1, #0x2                   	// #2
  6010411a8c:	97ffff83 	bl	6010411898 <serial_in_shift>
  6010411a90:	a8c17bfd 	ldp	x29, x30, [sp], #16
  6010411a94:	d65f03c0 	ret

0000006010411a98 <proxy>:
};

static struct PrintProxy* const proxy()
{
    static struct PrintProxy serial_proxy;
    return &serial_proxy;
  6010411a98:	d0008980 	adrp	x0, 6011543000 <_binary_default_fs_start+0x96000>
  6010411a9c:	911bc000 	add	x0, x0, #0x6f0
}
  6010411aa0:	d65f03c0 	ret

0000006010411aa4 <serial_init>:

int serial_init(struct TraceTag* uart_driver_tag)
{
  6010411aa4:	a9bd7bfd 	stp	x29, x30, [sp, #-48]!
  6010411aa8:	910003fd 	mov	x29, sp
  6010411aac:	a90153f3 	stp	x19, x20, [sp, #16]
  6010411ab0:	f90017e0 	str	x0, [sp, #40]
    proxy()->uart_driver_tag = *uart_driver_tag;
  6010411ab4:	97fffff9 	bl	6010411a98 <proxy>
  6010411ab8:	aa0003e1 	mov	x1, x0
  6010411abc:	f94017e0 	ldr	x0, [sp, #40]
  6010411ac0:	f9400000 	ldr	x0, [x0]
  6010411ac4:	f9000020 	str	x0, [x1]
    proxy()->serial = AchieveResource(&proxy()->uart_driver_tag);
  6010411ac8:	97fffff4 	bl	6010411a98 <proxy>
  6010411acc:	aa0003f4 	mov	x20, x0
  6010411ad0:	97fffff2 	bl	6010411a98 <proxy>
  6010411ad4:	aa0003f3 	mov	x19, x0
  6010411ad8:	aa1403e0 	mov	x0, x20
  6010411adc:	9400112d 	bl	6010415f90 <AchieveResource>
  6010411ae0:	f9000660 	str	x0, [x19, #8]
    return 0;
  6010411ae4:	52800000 	mov	w0, #0x0                   	// #0
}
  6010411ae8:	a94153f3 	ldp	x19, x20, [sp, #16]
  6010411aec:	a8c37bfd 	ldp	x29, x30, [sp], #48
  6010411af0:	d65f03c0 	ret

0000006010411af4 <_out_buffer>:
    void* arg;
} out_fct_wrap_type;

// internal buffer output
static inline void _out_buffer(char character, void* buffer, size_t idx, size_t maxlen)
{
  6010411af4:	d10083ff 	sub	sp, sp, #0x20
  6010411af8:	39007fe0 	strb	w0, [sp, #31]
  6010411afc:	f9000be1 	str	x1, [sp, #16]
  6010411b00:	f90007e2 	str	x2, [sp, #8]
  6010411b04:	f90003e3 	str	x3, [sp]
    if (idx < maxlen) {
  6010411b08:	f94007e1 	ldr	x1, [sp, #8]
  6010411b0c:	f94003e0 	ldr	x0, [sp]
  6010411b10:	eb00003f 	cmp	x1, x0
  6010411b14:	540000c2 	b.cs	6010411b2c <_out_buffer+0x38>  // b.hs, b.nlast
        ((char*)buffer)[idx] = character;
  6010411b18:	f9400be1 	ldr	x1, [sp, #16]
  6010411b1c:	f94007e0 	ldr	x0, [sp, #8]
  6010411b20:	8b000020 	add	x0, x1, x0
  6010411b24:	39407fe1 	ldrb	w1, [sp, #31]
  6010411b28:	39000001 	strb	w1, [x0]
    }
}
  6010411b2c:	d503201f 	nop
  6010411b30:	910083ff 	add	sp, sp, #0x20
  6010411b34:	d65f03c0 	ret

0000006010411b38 <_out_null>:

// internal null output
static inline void _out_null(char character, void* buffer, size_t idx, size_t maxlen)
{
  6010411b38:	d10083ff 	sub	sp, sp, #0x20
  6010411b3c:	39007fe0 	strb	w0, [sp, #31]
  6010411b40:	f9000be1 	str	x1, [sp, #16]
  6010411b44:	f90007e2 	str	x2, [sp, #8]
  6010411b48:	f90003e3 	str	x3, [sp]
    (void)character;
    (void)buffer;
    (void)idx;
    (void)maxlen;
}
  6010411b4c:	d503201f 	nop
  6010411b50:	910083ff 	add	sp, sp, #0x20
  6010411b54:	d65f03c0 	ret

0000006010411b58 <_out_char>:

// internal _putchar wrapper
static inline void _out_char(char character, void* buffer, size_t idx, size_t maxlen)
{
  6010411b58:	a9bd7bfd 	stp	x29, x30, [sp, #-48]!
  6010411b5c:	910003fd 	mov	x29, sp
  6010411b60:	3900bfe0 	strb	w0, [sp, #47]
  6010411b64:	f90013e1 	str	x1, [sp, #32]
  6010411b68:	f9000fe2 	str	x2, [sp, #24]
  6010411b6c:	f9000be3 	str	x3, [sp, #16]
    (void)buffer;
    (void)idx;
    (void)maxlen;
    if (character) {
  6010411b70:	3940bfe0 	ldrb	w0, [sp, #47]
  6010411b74:	7100001f 	cmp	w0, #0x0
  6010411b78:	540000c0 	b.eq	6010411b90 <_out_char+0x38>  // b.none
        _putchar(character);
  6010411b7c:	97ffffc7 	bl	6010411a98 <proxy>
  6010411b80:	f9400400 	ldr	x0, [x0, #8]
  6010411b84:	f9400c01 	ldr	x1, [x0, #24]
  6010411b88:	3940bfe0 	ldrb	w0, [sp, #47]
  6010411b8c:	d63f0020 	blr	x1
    }
}
  6010411b90:	d503201f 	nop
  6010411b94:	a8c37bfd 	ldp	x29, x30, [sp], #48
  6010411b98:	d65f03c0 	ret

0000006010411b9c <_out_fct>:

// internal output function wrapper
static inline void _out_fct(char character, void* buffer, size_t idx, size_t maxlen)
{
  6010411b9c:	a9bd7bfd 	stp	x29, x30, [sp, #-48]!
  6010411ba0:	910003fd 	mov	x29, sp
  6010411ba4:	3900bfe0 	strb	w0, [sp, #47]
  6010411ba8:	f90013e1 	str	x1, [sp, #32]
  6010411bac:	f9000fe2 	str	x2, [sp, #24]
  6010411bb0:	f9000be3 	str	x3, [sp, #16]
    (void)idx;
    (void)maxlen;
    if (character) {
  6010411bb4:	3940bfe0 	ldrb	w0, [sp, #47]
  6010411bb8:	7100001f 	cmp	w0, #0x0
  6010411bbc:	54000100 	b.eq	6010411bdc <_out_fct+0x40>  // b.none
        // buffer is the output fct pointer
        ((out_fct_wrap_type*)buffer)->fct(character, ((out_fct_wrap_type*)buffer)->arg);
  6010411bc0:	f94013e0 	ldr	x0, [sp, #32]
  6010411bc4:	f9400002 	ldr	x2, [x0]
  6010411bc8:	f94013e0 	ldr	x0, [sp, #32]
  6010411bcc:	f9400400 	ldr	x0, [x0, #8]
  6010411bd0:	aa0003e1 	mov	x1, x0
  6010411bd4:	3940bfe0 	ldrb	w0, [sp, #47]
  6010411bd8:	d63f0040 	blr	x2
    }
}
  6010411bdc:	d503201f 	nop
  6010411be0:	a8c37bfd 	ldp	x29, x30, [sp], #48
  6010411be4:	d65f03c0 	ret

0000006010411be8 <_strnlen_s>:

// internal secure strlen
// \return The length of the string (excluding the terminating 0) limited by 'maxsize'
static inline unsigned int _strnlen_s(const char* str, size_t maxsize)
{
  6010411be8:	d10083ff 	sub	sp, sp, #0x20
  6010411bec:	f90007e0 	str	x0, [sp, #8]
  6010411bf0:	f90003e1 	str	x1, [sp]
    const char* s;
    for (s = str; *s && maxsize--; ++s)
  6010411bf4:	f94007e0 	ldr	x0, [sp, #8]
  6010411bf8:	f9000fe0 	str	x0, [sp, #24]
  6010411bfc:	14000004 	b	6010411c0c <_strnlen_s+0x24>
  6010411c00:	f9400fe0 	ldr	x0, [sp, #24]
  6010411c04:	91000400 	add	x0, x0, #0x1
  6010411c08:	f9000fe0 	str	x0, [sp, #24]
  6010411c0c:	f9400fe0 	ldr	x0, [sp, #24]
  6010411c10:	39400000 	ldrb	w0, [x0]
  6010411c14:	7100001f 	cmp	w0, #0x0
  6010411c18:	540000c0 	b.eq	6010411c30 <_strnlen_s+0x48>  // b.none
  6010411c1c:	f94003e0 	ldr	x0, [sp]
  6010411c20:	d1000401 	sub	x1, x0, #0x1
  6010411c24:	f90003e1 	str	x1, [sp]
  6010411c28:	f100001f 	cmp	x0, #0x0
  6010411c2c:	54fffea1 	b.ne	6010411c00 <_strnlen_s+0x18>  // b.any
        ;
    return (unsigned int)(s - str);
  6010411c30:	f9400fe1 	ldr	x1, [sp, #24]
  6010411c34:	f94007e0 	ldr	x0, [sp, #8]
  6010411c38:	cb000020 	sub	x0, x1, x0
}
  6010411c3c:	910083ff 	add	sp, sp, #0x20
  6010411c40:	d65f03c0 	ret

0000006010411c44 <_is_digit>:

// internal test if char is a digit (0-9)
// \return true if char is a digit
static inline bool _is_digit(char ch)
{
  6010411c44:	d10043ff 	sub	sp, sp, #0x10
  6010411c48:	39003fe0 	strb	w0, [sp, #15]
    return (ch >= '0') && (ch <= '9');
  6010411c4c:	39403fe0 	ldrb	w0, [sp, #15]
  6010411c50:	7100bc1f 	cmp	w0, #0x2f
  6010411c54:	540000c9 	b.ls	6010411c6c <_is_digit+0x28>  // b.plast
  6010411c58:	39403fe0 	ldrb	w0, [sp, #15]
  6010411c5c:	7100e41f 	cmp	w0, #0x39
  6010411c60:	54000068 	b.hi	6010411c6c <_is_digit+0x28>  // b.pmore
  6010411c64:	52800020 	mov	w0, #0x1                   	// #1
  6010411c68:	14000002 	b	6010411c70 <_is_digit+0x2c>
  6010411c6c:	52800000 	mov	w0, #0x0                   	// #0
  6010411c70:	12000000 	and	w0, w0, #0x1
  6010411c74:	12001c00 	and	w0, w0, #0xff
}
  6010411c78:	910043ff 	add	sp, sp, #0x10
  6010411c7c:	d65f03c0 	ret

0000006010411c80 <_atoi>:

// internal ASCII string to unsigned int conversion
static unsigned int _atoi(const char** str)
{
  6010411c80:	a9bd7bfd 	stp	x29, x30, [sp, #-48]!
  6010411c84:	910003fd 	mov	x29, sp
  6010411c88:	f9000fe0 	str	x0, [sp, #24]
    unsigned int i = 0U;
  6010411c8c:	b9002fff 	str	wzr, [sp, #44]
    while (_is_digit(**str)) {
  6010411c90:	1400000d 	b	6010411cc4 <_atoi+0x44>
        i = i * 10U + (unsigned int)(*((*str)++) - '0');
  6010411c94:	b9402fe1 	ldr	w1, [sp, #44]
  6010411c98:	52800140 	mov	w0, #0xa                   	// #10
  6010411c9c:	1b007c21 	mul	w1, w1, w0
  6010411ca0:	f9400fe0 	ldr	x0, [sp, #24]
  6010411ca4:	f9400000 	ldr	x0, [x0]
  6010411ca8:	91000403 	add	x3, x0, #0x1
  6010411cac:	f9400fe2 	ldr	x2, [sp, #24]
  6010411cb0:	f9000043 	str	x3, [x2]
  6010411cb4:	39400000 	ldrb	w0, [x0]
  6010411cb8:	0b000020 	add	w0, w1, w0
  6010411cbc:	5100c000 	sub	w0, w0, #0x30
  6010411cc0:	b9002fe0 	str	w0, [sp, #44]
    while (_is_digit(**str)) {
  6010411cc4:	f9400fe0 	ldr	x0, [sp, #24]
  6010411cc8:	f9400000 	ldr	x0, [x0]
  6010411ccc:	39400000 	ldrb	w0, [x0]
  6010411cd0:	97ffffdd 	bl	6010411c44 <_is_digit>
  6010411cd4:	12001c00 	and	w0, w0, #0xff
  6010411cd8:	7100001f 	cmp	w0, #0x0
  6010411cdc:	54fffdc1 	b.ne	6010411c94 <_atoi+0x14>  // b.any
    }
    return i;
  6010411ce0:	b9402fe0 	ldr	w0, [sp, #44]
}
  6010411ce4:	a8c37bfd 	ldp	x29, x30, [sp], #48
  6010411ce8:	d65f03c0 	ret

0000006010411cec <_out_rev>:

// output the specified string in reverse, taking care of any zero-padding
static size_t _out_rev(out_fct_type out, char* buffer, size_t idx, size_t maxlen, const char* buf, size_t len, unsigned int width, unsigned int flags)
{
  6010411cec:	a9ba7bfd 	stp	x29, x30, [sp, #-96]!
  6010411cf0:	910003fd 	mov	x29, sp
  6010411cf4:	f90027e0 	str	x0, [sp, #72]
  6010411cf8:	f90023e1 	str	x1, [sp, #64]
  6010411cfc:	f9001fe2 	str	x2, [sp, #56]
  6010411d00:	f9001be3 	str	x3, [sp, #48]
  6010411d04:	f90017e4 	str	x4, [sp, #40]
  6010411d08:	f90013e5 	str	x5, [sp, #32]
  6010411d0c:	b9001fe6 	str	w6, [sp, #28]
  6010411d10:	b9001be7 	str	w7, [sp, #24]
    const size_t start_idx = idx;
  6010411d14:	f9401fe0 	ldr	x0, [sp, #56]
  6010411d18:	f9002be0 	str	x0, [sp, #80]

    // pad spaces up to given width
    if (!(flags & FLAGS_LEFT) && !(flags & FLAGS_ZEROPAD)) {
  6010411d1c:	b9401be0 	ldr	w0, [sp, #24]
  6010411d20:	121f0000 	and	w0, w0, #0x2
  6010411d24:	7100001f 	cmp	w0, #0x0
  6010411d28:	54000521 	b.ne	6010411dcc <_out_rev+0xe0>  // b.any
  6010411d2c:	b9401be0 	ldr	w0, [sp, #24]
  6010411d30:	12000000 	and	w0, w0, #0x1
  6010411d34:	7100001f 	cmp	w0, #0x0
  6010411d38:	540004a1 	b.ne	6010411dcc <_out_rev+0xe0>  // b.any
        for (size_t i = len; i < width; i++) {
  6010411d3c:	f94013e0 	ldr	x0, [sp, #32]
  6010411d40:	f9002fe0 	str	x0, [sp, #88]
  6010411d44:	1400000d 	b	6010411d78 <_out_rev+0x8c>
            out(' ', buffer, idx++, maxlen);
  6010411d48:	f9401fe0 	ldr	x0, [sp, #56]
  6010411d4c:	91000401 	add	x1, x0, #0x1
  6010411d50:	f9001fe1 	str	x1, [sp, #56]
  6010411d54:	f94027e4 	ldr	x4, [sp, #72]
  6010411d58:	f9401be3 	ldr	x3, [sp, #48]
  6010411d5c:	aa0003e2 	mov	x2, x0
  6010411d60:	f94023e1 	ldr	x1, [sp, #64]
  6010411d64:	52800400 	mov	w0, #0x20                  	// #32
  6010411d68:	d63f0080 	blr	x4
        for (size_t i = len; i < width; i++) {
  6010411d6c:	f9402fe0 	ldr	x0, [sp, #88]
  6010411d70:	91000400 	add	x0, x0, #0x1
  6010411d74:	f9002fe0 	str	x0, [sp, #88]
  6010411d78:	b9401fe0 	ldr	w0, [sp, #28]
  6010411d7c:	f9402fe1 	ldr	x1, [sp, #88]
  6010411d80:	eb00003f 	cmp	x1, x0
  6010411d84:	54fffe23 	b.cc	6010411d48 <_out_rev+0x5c>  // b.lo, b.ul, b.last
        }
    }

    // reverse string
    while (len) {
  6010411d88:	14000011 	b	6010411dcc <_out_rev+0xe0>
        out(buf[--len], buffer, idx++, maxlen);
  6010411d8c:	f94013e0 	ldr	x0, [sp, #32]
  6010411d90:	d1000400 	sub	x0, x0, #0x1
  6010411d94:	f90013e0 	str	x0, [sp, #32]
  6010411d98:	f94017e1 	ldr	x1, [sp, #40]
  6010411d9c:	f94013e0 	ldr	x0, [sp, #32]
  6010411da0:	8b000020 	add	x0, x1, x0
  6010411da4:	39400005 	ldrb	w5, [x0]
  6010411da8:	f9401fe0 	ldr	x0, [sp, #56]
  6010411dac:	91000401 	add	x1, x0, #0x1
  6010411db0:	f9001fe1 	str	x1, [sp, #56]
  6010411db4:	f94027e4 	ldr	x4, [sp, #72]
  6010411db8:	f9401be3 	ldr	x3, [sp, #48]
  6010411dbc:	aa0003e2 	mov	x2, x0
  6010411dc0:	f94023e1 	ldr	x1, [sp, #64]
  6010411dc4:	2a0503e0 	mov	w0, w5
  6010411dc8:	d63f0080 	blr	x4
    while (len) {
  6010411dcc:	f94013e0 	ldr	x0, [sp, #32]
  6010411dd0:	f100001f 	cmp	x0, #0x0
  6010411dd4:	54fffdc1 	b.ne	6010411d8c <_out_rev+0xa0>  // b.any
    }

    // append pad spaces up to given width
    if (flags & FLAGS_LEFT) {
  6010411dd8:	b9401be0 	ldr	w0, [sp, #24]
  6010411ddc:	121f0000 	and	w0, w0, #0x2
  6010411de0:	7100001f 	cmp	w0, #0x0
  6010411de4:	54000220 	b.eq	6010411e28 <_out_rev+0x13c>  // b.none
        while (idx - start_idx < width) {
  6010411de8:	1400000a 	b	6010411e10 <_out_rev+0x124>
            out(' ', buffer, idx++, maxlen);
  6010411dec:	f9401fe0 	ldr	x0, [sp, #56]
  6010411df0:	91000401 	add	x1, x0, #0x1
  6010411df4:	f9001fe1 	str	x1, [sp, #56]
  6010411df8:	f94027e4 	ldr	x4, [sp, #72]
  6010411dfc:	f9401be3 	ldr	x3, [sp, #48]
  6010411e00:	aa0003e2 	mov	x2, x0
  6010411e04:	f94023e1 	ldr	x1, [sp, #64]
  6010411e08:	52800400 	mov	w0, #0x20                  	// #32
  6010411e0c:	d63f0080 	blr	x4
        while (idx - start_idx < width) {
  6010411e10:	f9401fe1 	ldr	x1, [sp, #56]
  6010411e14:	f9402be0 	ldr	x0, [sp, #80]
  6010411e18:	cb000021 	sub	x1, x1, x0
  6010411e1c:	b9401fe0 	ldr	w0, [sp, #28]
  6010411e20:	eb00003f 	cmp	x1, x0
  6010411e24:	54fffe43 	b.cc	6010411dec <_out_rev+0x100>  // b.lo, b.ul, b.last
        }
    }

    return idx;
  6010411e28:	f9401fe0 	ldr	x0, [sp, #56]
}
  6010411e2c:	a8c67bfd 	ldp	x29, x30, [sp], #96
  6010411e30:	d65f03c0 	ret

0000006010411e34 <_ntoa_format>:

// internal itoa format
static size_t _ntoa_format(out_fct_type out, char* buffer, size_t idx, size_t maxlen, char* buf, size_t len, bool negative, unsigned int base, unsigned int prec, unsigned int width, unsigned int flags)
{
  6010411e34:	a9bb7bfd 	stp	x29, x30, [sp, #-80]!
  6010411e38:	910003fd 	mov	x29, sp
  6010411e3c:	f90027e0 	str	x0, [sp, #72]
  6010411e40:	f90023e1 	str	x1, [sp, #64]
  6010411e44:	f9001fe2 	str	x2, [sp, #56]
  6010411e48:	f9001be3 	str	x3, [sp, #48]
  6010411e4c:	f90017e4 	str	x4, [sp, #40]
  6010411e50:	f90013e5 	str	x5, [sp, #32]
  6010411e54:	39007fe6 	strb	w6, [sp, #31]
  6010411e58:	b9001be7 	str	w7, [sp, #24]
    // pad leading zeros
    if (!(flags & FLAGS_LEFT)) {
  6010411e5c:	b94063e0 	ldr	w0, [sp, #96]
  6010411e60:	121f0000 	and	w0, w0, #0x2
  6010411e64:	7100001f 	cmp	w0, #0x0
  6010411e68:	54000681 	b.ne	6010411f38 <_ntoa_format+0x104>  // b.any
        if (width && (flags & FLAGS_ZEROPAD) && (negative || (flags & (FLAGS_PLUS | FLAGS_SPACE)))) {
  6010411e6c:	b9405be0 	ldr	w0, [sp, #88]
  6010411e70:	7100001f 	cmp	w0, #0x0
  6010411e74:	540002e0 	b.eq	6010411ed0 <_ntoa_format+0x9c>  // b.none
  6010411e78:	b94063e0 	ldr	w0, [sp, #96]
  6010411e7c:	12000000 	and	w0, w0, #0x1
  6010411e80:	7100001f 	cmp	w0, #0x0
  6010411e84:	54000260 	b.eq	6010411ed0 <_ntoa_format+0x9c>  // b.none
  6010411e88:	39407fe0 	ldrb	w0, [sp, #31]
  6010411e8c:	7100001f 	cmp	w0, #0x0
  6010411e90:	540000a1 	b.ne	6010411ea4 <_ntoa_format+0x70>  // b.any
  6010411e94:	b94063e0 	ldr	w0, [sp, #96]
  6010411e98:	121e0400 	and	w0, w0, #0xc
  6010411e9c:	7100001f 	cmp	w0, #0x0
  6010411ea0:	54000180 	b.eq	6010411ed0 <_ntoa_format+0x9c>  // b.none
            width--;
  6010411ea4:	b9405be0 	ldr	w0, [sp, #88]
  6010411ea8:	51000400 	sub	w0, w0, #0x1
  6010411eac:	b9005be0 	str	w0, [sp, #88]
        }
        while ((len < prec) && (len < PRINTF_NTOA_BUFFER_SIZE)) {
  6010411eb0:	14000008 	b	6010411ed0 <_ntoa_format+0x9c>
            buf[len++] = '0';
  6010411eb4:	f94013e0 	ldr	x0, [sp, #32]
  6010411eb8:	91000401 	add	x1, x0, #0x1
  6010411ebc:	f90013e1 	str	x1, [sp, #32]
  6010411ec0:	f94017e1 	ldr	x1, [sp, #40]
  6010411ec4:	8b000020 	add	x0, x1, x0
  6010411ec8:	52800601 	mov	w1, #0x30                  	// #48
  6010411ecc:	39000001 	strb	w1, [x0]
        while ((len < prec) && (len < PRINTF_NTOA_BUFFER_SIZE)) {
  6010411ed0:	b94053e0 	ldr	w0, [sp, #80]
  6010411ed4:	f94013e1 	ldr	x1, [sp, #32]
  6010411ed8:	eb00003f 	cmp	x1, x0
  6010411edc:	54000182 	b.cs	6010411f0c <_ntoa_format+0xd8>  // b.hs, b.nlast
  6010411ee0:	f94013e0 	ldr	x0, [sp, #32]
  6010411ee4:	f1007c1f 	cmp	x0, #0x1f
  6010411ee8:	54fffe69 	b.ls	6010411eb4 <_ntoa_format+0x80>  // b.plast
        }
        while ((flags & FLAGS_ZEROPAD) && (len < width) && (len < PRINTF_NTOA_BUFFER_SIZE)) {
  6010411eec:	14000008 	b	6010411f0c <_ntoa_format+0xd8>
            buf[len++] = '0';
  6010411ef0:	f94013e0 	ldr	x0, [sp, #32]
  6010411ef4:	91000401 	add	x1, x0, #0x1
  6010411ef8:	f90013e1 	str	x1, [sp, #32]
  6010411efc:	f94017e1 	ldr	x1, [sp, #40]
  6010411f00:	8b000020 	add	x0, x1, x0
  6010411f04:	52800601 	mov	w1, #0x30                  	// #48
  6010411f08:	39000001 	strb	w1, [x0]
        while ((flags & FLAGS_ZEROPAD) && (len < width) && (len < PRINTF_NTOA_BUFFER_SIZE)) {
  6010411f0c:	b94063e0 	ldr	w0, [sp, #96]
  6010411f10:	12000000 	and	w0, w0, #0x1
  6010411f14:	7100001f 	cmp	w0, #0x0
  6010411f18:	54000100 	b.eq	6010411f38 <_ntoa_format+0x104>  // b.none
  6010411f1c:	b9405be0 	ldr	w0, [sp, #88]
  6010411f20:	f94013e1 	ldr	x1, [sp, #32]
  6010411f24:	eb00003f 	cmp	x1, x0
  6010411f28:	54000082 	b.cs	6010411f38 <_ntoa_format+0x104>  // b.hs, b.nlast
  6010411f2c:	f94013e0 	ldr	x0, [sp, #32]
  6010411f30:	f1007c1f 	cmp	x0, #0x1f
  6010411f34:	54fffde9 	b.ls	6010411ef0 <_ntoa_format+0xbc>  // b.plast
        }
    }

    // handle hash
    if (flags & FLAGS_HASH) {
  6010411f38:	b94063e0 	ldr	w0, [sp, #96]
  6010411f3c:	121c0000 	and	w0, w0, #0x10
  6010411f40:	7100001f 	cmp	w0, #0x0
  6010411f44:	54000ae0 	b.eq	60104120a0 <_ntoa_format+0x26c>  // b.none
        if (!(flags & FLAGS_PRECISION) && len && ((len == prec) || (len == width))) {
  6010411f48:	b94063e0 	ldr	w0, [sp, #96]
  6010411f4c:	12160000 	and	w0, w0, #0x400
  6010411f50:	7100001f 	cmp	w0, #0x0
  6010411f54:	54000301 	b.ne	6010411fb4 <_ntoa_format+0x180>  // b.any
  6010411f58:	f94013e0 	ldr	x0, [sp, #32]
  6010411f5c:	f100001f 	cmp	x0, #0x0
  6010411f60:	540002a0 	b.eq	6010411fb4 <_ntoa_format+0x180>  // b.none
  6010411f64:	b94053e0 	ldr	w0, [sp, #80]
  6010411f68:	f94013e1 	ldr	x1, [sp, #32]
  6010411f6c:	eb00003f 	cmp	x1, x0
  6010411f70:	540000a0 	b.eq	6010411f84 <_ntoa_format+0x150>  // b.none
  6010411f74:	b9405be0 	ldr	w0, [sp, #88]
  6010411f78:	f94013e1 	ldr	x1, [sp, #32]
  6010411f7c:	eb00003f 	cmp	x1, x0
  6010411f80:	540001a1 	b.ne	6010411fb4 <_ntoa_format+0x180>  // b.any
            len--;
  6010411f84:	f94013e0 	ldr	x0, [sp, #32]
  6010411f88:	d1000400 	sub	x0, x0, #0x1
  6010411f8c:	f90013e0 	str	x0, [sp, #32]
            if (len && (base == 16U)) {
  6010411f90:	f94013e0 	ldr	x0, [sp, #32]
  6010411f94:	f100001f 	cmp	x0, #0x0
  6010411f98:	540000e0 	b.eq	6010411fb4 <_ntoa_format+0x180>  // b.none
  6010411f9c:	b9401be0 	ldr	w0, [sp, #24]
  6010411fa0:	7100401f 	cmp	w0, #0x10
  6010411fa4:	54000081 	b.ne	6010411fb4 <_ntoa_format+0x180>  // b.any
                len--;
  6010411fa8:	f94013e0 	ldr	x0, [sp, #32]
  6010411fac:	d1000400 	sub	x0, x0, #0x1
  6010411fb0:	f90013e0 	str	x0, [sp, #32]
            }
        }
        if ((base == 16U) && !(flags & FLAGS_UPPERCASE) && (len < PRINTF_NTOA_BUFFER_SIZE)) {
  6010411fb4:	b9401be0 	ldr	w0, [sp, #24]
  6010411fb8:	7100401f 	cmp	w0, #0x10
  6010411fbc:	54000201 	b.ne	6010411ffc <_ntoa_format+0x1c8>  // b.any
  6010411fc0:	b94063e0 	ldr	w0, [sp, #96]
  6010411fc4:	121b0000 	and	w0, w0, #0x20
  6010411fc8:	7100001f 	cmp	w0, #0x0
  6010411fcc:	54000181 	b.ne	6010411ffc <_ntoa_format+0x1c8>  // b.any
  6010411fd0:	f94013e0 	ldr	x0, [sp, #32]
  6010411fd4:	f1007c1f 	cmp	x0, #0x1f
  6010411fd8:	54000128 	b.hi	6010411ffc <_ntoa_format+0x1c8>  // b.pmore
            buf[len++] = 'x';
  6010411fdc:	f94013e0 	ldr	x0, [sp, #32]
  6010411fe0:	91000401 	add	x1, x0, #0x1
  6010411fe4:	f90013e1 	str	x1, [sp, #32]
  6010411fe8:	f94017e1 	ldr	x1, [sp, #40]
  6010411fec:	8b000020 	add	x0, x1, x0
  6010411ff0:	52800f01 	mov	w1, #0x78                  	// #120
  6010411ff4:	39000001 	strb	w1, [x0]
  6010411ff8:	14000020 	b	6010412078 <_ntoa_format+0x244>
        } else if ((base == 16U) && (flags & FLAGS_UPPERCASE) && (len < PRINTF_NTOA_BUFFER_SIZE)) {
  6010411ffc:	b9401be0 	ldr	w0, [sp, #24]
  6010412000:	7100401f 	cmp	w0, #0x10
  6010412004:	54000201 	b.ne	6010412044 <_ntoa_format+0x210>  // b.any
  6010412008:	b94063e0 	ldr	w0, [sp, #96]
  601041200c:	121b0000 	and	w0, w0, #0x20
  6010412010:	7100001f 	cmp	w0, #0x0
  6010412014:	54000180 	b.eq	6010412044 <_ntoa_format+0x210>  // b.none
  6010412018:	f94013e0 	ldr	x0, [sp, #32]
  601041201c:	f1007c1f 	cmp	x0, #0x1f
  6010412020:	54000128 	b.hi	6010412044 <_ntoa_format+0x210>  // b.pmore
            buf[len++] = 'X';
  6010412024:	f94013e0 	ldr	x0, [sp, #32]
  6010412028:	91000401 	add	x1, x0, #0x1
  601041202c:	f90013e1 	str	x1, [sp, #32]
  6010412030:	f94017e1 	ldr	x1, [sp, #40]
  6010412034:	8b000020 	add	x0, x1, x0
  6010412038:	52800b01 	mov	w1, #0x58                  	// #88
  601041203c:	39000001 	strb	w1, [x0]
  6010412040:	1400000e 	b	6010412078 <_ntoa_format+0x244>
        } else if ((base == 2U) && (len < PRINTF_NTOA_BUFFER_SIZE)) {
  6010412044:	b9401be0 	ldr	w0, [sp, #24]
  6010412048:	7100081f 	cmp	w0, #0x2
  601041204c:	54000161 	b.ne	6010412078 <_ntoa_format+0x244>  // b.any
  6010412050:	f94013e0 	ldr	x0, [sp, #32]
  6010412054:	f1007c1f 	cmp	x0, #0x1f
  6010412058:	54000108 	b.hi	6010412078 <_ntoa_format+0x244>  // b.pmore
            buf[len++] = 'b';
  601041205c:	f94013e0 	ldr	x0, [sp, #32]
  6010412060:	91000401 	add	x1, x0, #0x1
  6010412064:	f90013e1 	str	x1, [sp, #32]
  6010412068:	f94017e1 	ldr	x1, [sp, #40]
  601041206c:	8b000020 	add	x0, x1, x0
  6010412070:	52800c41 	mov	w1, #0x62                  	// #98
  6010412074:	39000001 	strb	w1, [x0]
        }
        if (len < PRINTF_NTOA_BUFFER_SIZE) {
  6010412078:	f94013e0 	ldr	x0, [sp, #32]
  601041207c:	f1007c1f 	cmp	x0, #0x1f
  6010412080:	54000108 	b.hi	60104120a0 <_ntoa_format+0x26c>  // b.pmore
            buf[len++] = '0';
  6010412084:	f94013e0 	ldr	x0, [sp, #32]
  6010412088:	91000401 	add	x1, x0, #0x1
  601041208c:	f90013e1 	str	x1, [sp, #32]
  6010412090:	f94017e1 	ldr	x1, [sp, #40]
  6010412094:	8b000020 	add	x0, x1, x0
  6010412098:	52800601 	mov	w1, #0x30                  	// #48
  601041209c:	39000001 	strb	w1, [x0]
        }
    }

    if (len < PRINTF_NTOA_BUFFER_SIZE) {
  60104120a0:	f94013e0 	ldr	x0, [sp, #32]
  60104120a4:	f1007c1f 	cmp	x0, #0x1f
  60104120a8:	54000468 	b.hi	6010412134 <_ntoa_format+0x300>  // b.pmore
        if (negative) {
  60104120ac:	39407fe0 	ldrb	w0, [sp, #31]
  60104120b0:	7100001f 	cmp	w0, #0x0
  60104120b4:	54000120 	b.eq	60104120d8 <_ntoa_format+0x2a4>  // b.none
            buf[len++] = '-';
  60104120b8:	f94013e0 	ldr	x0, [sp, #32]
  60104120bc:	91000401 	add	x1, x0, #0x1
  60104120c0:	f90013e1 	str	x1, [sp, #32]
  60104120c4:	f94017e1 	ldr	x1, [sp, #40]
  60104120c8:	8b000020 	add	x0, x1, x0
  60104120cc:	528005a1 	mov	w1, #0x2d                  	// #45
  60104120d0:	39000001 	strb	w1, [x0]
  60104120d4:	14000018 	b	6010412134 <_ntoa_format+0x300>
        } else if (flags & FLAGS_PLUS) {
  60104120d8:	b94063e0 	ldr	w0, [sp, #96]
  60104120dc:	121e0000 	and	w0, w0, #0x4
  60104120e0:	7100001f 	cmp	w0, #0x0
  60104120e4:	54000120 	b.eq	6010412108 <_ntoa_format+0x2d4>  // b.none
            buf[len++] = '+'; // ignore the space if the '+' exists
  60104120e8:	f94013e0 	ldr	x0, [sp, #32]
  60104120ec:	91000401 	add	x1, x0, #0x1
  60104120f0:	f90013e1 	str	x1, [sp, #32]
  60104120f4:	f94017e1 	ldr	x1, [sp, #40]
  60104120f8:	8b000020 	add	x0, x1, x0
  60104120fc:	52800561 	mov	w1, #0x2b                  	// #43
  6010412100:	39000001 	strb	w1, [x0]
  6010412104:	1400000c 	b	6010412134 <_ntoa_format+0x300>
        } else if (flags & FLAGS_SPACE) {
  6010412108:	b94063e0 	ldr	w0, [sp, #96]
  601041210c:	121d0000 	and	w0, w0, #0x8
  6010412110:	7100001f 	cmp	w0, #0x0
  6010412114:	54000100 	b.eq	6010412134 <_ntoa_format+0x300>  // b.none
            buf[len++] = ' ';
  6010412118:	f94013e0 	ldr	x0, [sp, #32]
  601041211c:	91000401 	add	x1, x0, #0x1
  6010412120:	f90013e1 	str	x1, [sp, #32]
  6010412124:	f94017e1 	ldr	x1, [sp, #40]
  6010412128:	8b000020 	add	x0, x1, x0
  601041212c:	52800401 	mov	w1, #0x20                  	// #32
  6010412130:	39000001 	strb	w1, [x0]
        }
    }

    return _out_rev(out, buffer, idx, maxlen, buf, len, width, flags);
  6010412134:	b94063e7 	ldr	w7, [sp, #96]
  6010412138:	b9405be6 	ldr	w6, [sp, #88]
  601041213c:	f94013e5 	ldr	x5, [sp, #32]
  6010412140:	f94017e4 	ldr	x4, [sp, #40]
  6010412144:	f9401be3 	ldr	x3, [sp, #48]
  6010412148:	f9401fe2 	ldr	x2, [sp, #56]
  601041214c:	f94023e1 	ldr	x1, [sp, #64]
  6010412150:	f94027e0 	ldr	x0, [sp, #72]
  6010412154:	97fffee6 	bl	6010411cec <_out_rev>
}
  6010412158:	a8c57bfd 	ldp	x29, x30, [sp], #80
  601041215c:	d65f03c0 	ret

0000006010412160 <_ntoa_long>:

// internal itoa for 'long' type
static size_t _ntoa_long(out_fct_type out, char* buffer, size_t idx, size_t maxlen, unsigned long value, bool negative, unsigned long base, unsigned int prec, unsigned int width, unsigned int flags)
{
  6010412160:	d10283ff 	sub	sp, sp, #0xa0
  6010412164:	a9027bfd 	stp	x29, x30, [sp, #32]
  6010412168:	910083fd 	add	x29, sp, #0x20
  601041216c:	f90037e0 	str	x0, [sp, #104]
  6010412170:	f90033e1 	str	x1, [sp, #96]
  6010412174:	f9002fe2 	str	x2, [sp, #88]
  6010412178:	f9002be3 	str	x3, [sp, #80]
  601041217c:	f90027e4 	str	x4, [sp, #72]
  6010412180:	39011fe5 	strb	w5, [sp, #71]
  6010412184:	f9001fe6 	str	x6, [sp, #56]
  6010412188:	b90043e7 	str	w7, [sp, #64]
    char buf[PRINTF_NTOA_BUFFER_SIZE];
    size_t len = 0U;
  601041218c:	f9004fff 	str	xzr, [sp, #152]

    // no hash for 0 values
    if (!value) {
  6010412190:	f94027e0 	ldr	x0, [sp, #72]
  6010412194:	f100001f 	cmp	x0, #0x0
  6010412198:	54000081 	b.ne	60104121a8 <_ntoa_long+0x48>  // b.any
        flags &= ~FLAGS_HASH;
  601041219c:	b940abe0 	ldr	w0, [sp, #168]
  60104121a0:	121b7800 	and	w0, w0, #0xffffffef
  60104121a4:	b900abe0 	str	w0, [sp, #168]
    }

    // write if precision != 0 and value is != 0
    if (!(flags & FLAGS_PRECISION) || value) {
  60104121a8:	b940abe0 	ldr	w0, [sp, #168]
  60104121ac:	12160000 	and	w0, w0, #0x400
  60104121b0:	7100001f 	cmp	w0, #0x0
  60104121b4:	54000080 	b.eq	60104121c4 <_ntoa_long+0x64>  // b.none
  60104121b8:	f94027e0 	ldr	x0, [sp, #72]
  60104121bc:	f100001f 	cmp	x0, #0x0
  60104121c0:	54000540 	b.eq	6010412268 <_ntoa_long+0x108>  // b.none
        do {
            const char digit = (char)(value % base);
  60104121c4:	f94027e0 	ldr	x0, [sp, #72]
  60104121c8:	f9401fe1 	ldr	x1, [sp, #56]
  60104121cc:	9ac10802 	udiv	x2, x0, x1
  60104121d0:	f9401fe1 	ldr	x1, [sp, #56]
  60104121d4:	9b017c41 	mul	x1, x2, x1
  60104121d8:	cb010000 	sub	x0, x0, x1
  60104121dc:	39025fe0 	strb	w0, [sp, #151]
            buf[len++] = digit < 10 ? '0' + digit : (flags & FLAGS_UPPERCASE ? 'A' : 'a') + digit - 10;
  60104121e0:	39425fe0 	ldrb	w0, [sp, #151]
  60104121e4:	7100241f 	cmp	w0, #0x9
  60104121e8:	540000a8 	b.hi	60104121fc <_ntoa_long+0x9c>  // b.pmore
  60104121ec:	39425fe0 	ldrb	w0, [sp, #151]
  60104121f0:	1100c000 	add	w0, w0, #0x30
  60104121f4:	12001c01 	and	w1, w0, #0xff
  60104121f8:	1400000d 	b	601041222c <_ntoa_long+0xcc>
  60104121fc:	b940abe0 	ldr	w0, [sp, #168]
  6010412200:	121b0000 	and	w0, w0, #0x20
  6010412204:	7100001f 	cmp	w0, #0x0
  6010412208:	54000060 	b.eq	6010412214 <_ntoa_long+0xb4>  // b.none
  601041220c:	52800820 	mov	w0, #0x41                  	// #65
  6010412210:	14000002 	b	6010412218 <_ntoa_long+0xb8>
  6010412214:	52800c20 	mov	w0, #0x61                  	// #97
  6010412218:	39425fe1 	ldrb	w1, [sp, #151]
  601041221c:	0b010000 	add	w0, w0, w1
  6010412220:	12001c00 	and	w0, w0, #0xff
  6010412224:	51002800 	sub	w0, w0, #0xa
  6010412228:	12001c01 	and	w1, w0, #0xff
  601041222c:	f9404fe0 	ldr	x0, [sp, #152]
  6010412230:	91000402 	add	x2, x0, #0x1
  6010412234:	f9004fe2 	str	x2, [sp, #152]
  6010412238:	9101c3e2 	add	x2, sp, #0x70
  601041223c:	38206841 	strb	w1, [x2, x0]
            value /= base;
  6010412240:	f94027e1 	ldr	x1, [sp, #72]
  6010412244:	f9401fe0 	ldr	x0, [sp, #56]
  6010412248:	9ac00820 	udiv	x0, x1, x0
  601041224c:	f90027e0 	str	x0, [sp, #72]
        } while (value && (len < PRINTF_NTOA_BUFFER_SIZE));
  6010412250:	f94027e0 	ldr	x0, [sp, #72]
  6010412254:	f100001f 	cmp	x0, #0x0
  6010412258:	54000080 	b.eq	6010412268 <_ntoa_long+0x108>  // b.none
  601041225c:	f9404fe0 	ldr	x0, [sp, #152]
  6010412260:	f1007c1f 	cmp	x0, #0x1f
  6010412264:	54fffb09 	b.ls	60104121c4 <_ntoa_long+0x64>  // b.plast
    }

    return _ntoa_format(out, buffer, idx, maxlen, buf, len, negative, (unsigned int)base, prec, width, flags);
  6010412268:	f9401fe0 	ldr	x0, [sp, #56]
  601041226c:	2a0003e2 	mov	w2, w0
  6010412270:	9101c3e1 	add	x1, sp, #0x70
  6010412274:	b940abe0 	ldr	w0, [sp, #168]
  6010412278:	b90013e0 	str	w0, [sp, #16]
  601041227c:	b940a3e0 	ldr	w0, [sp, #160]
  6010412280:	b9000be0 	str	w0, [sp, #8]
  6010412284:	b94043e0 	ldr	w0, [sp, #64]
  6010412288:	b90003e0 	str	w0, [sp]
  601041228c:	2a0203e7 	mov	w7, w2
  6010412290:	39411fe6 	ldrb	w6, [sp, #71]
  6010412294:	f9404fe5 	ldr	x5, [sp, #152]
  6010412298:	aa0103e4 	mov	x4, x1
  601041229c:	f9402be3 	ldr	x3, [sp, #80]
  60104122a0:	f9402fe2 	ldr	x2, [sp, #88]
  60104122a4:	f94033e1 	ldr	x1, [sp, #96]
  60104122a8:	f94037e0 	ldr	x0, [sp, #104]
  60104122ac:	97fffee2 	bl	6010411e34 <_ntoa_format>
}
  60104122b0:	a9427bfd 	ldp	x29, x30, [sp, #32]
  60104122b4:	910283ff 	add	sp, sp, #0xa0
  60104122b8:	d65f03c0 	ret

00000060104122bc <_ntoa_long_long>:

// internal itoa for 'long long' type
#if defined(PRINTF_SUPPORT_LONG_LONG)
static size_t _ntoa_long_long(out_fct_type out, char* buffer, size_t idx, size_t maxlen, unsigned long long value, bool negative, unsigned long long base, unsigned int prec, unsigned int width, unsigned int flags)
{
  60104122bc:	d10283ff 	sub	sp, sp, #0xa0
  60104122c0:	a9027bfd 	stp	x29, x30, [sp, #32]
  60104122c4:	910083fd 	add	x29, sp, #0x20
  60104122c8:	f90037e0 	str	x0, [sp, #104]
  60104122cc:	f90033e1 	str	x1, [sp, #96]
  60104122d0:	f9002fe2 	str	x2, [sp, #88]
  60104122d4:	f9002be3 	str	x3, [sp, #80]
  60104122d8:	f90027e4 	str	x4, [sp, #72]
  60104122dc:	39011fe5 	strb	w5, [sp, #71]
  60104122e0:	f9001fe6 	str	x6, [sp, #56]
  60104122e4:	b90043e7 	str	w7, [sp, #64]
    char buf[PRINTF_NTOA_BUFFER_SIZE];
    size_t len = 0U;
  60104122e8:	f9004fff 	str	xzr, [sp, #152]

    // no hash for 0 values
    if (!value) {
  60104122ec:	f94027e0 	ldr	x0, [sp, #72]
  60104122f0:	f100001f 	cmp	x0, #0x0
  60104122f4:	54000081 	b.ne	6010412304 <_ntoa_long_long+0x48>  // b.any
        flags &= ~FLAGS_HASH;
  60104122f8:	b940abe0 	ldr	w0, [sp, #168]
  60104122fc:	121b7800 	and	w0, w0, #0xffffffef
  6010412300:	b900abe0 	str	w0, [sp, #168]
    }

    // write if precision != 0 and value is != 0
    if (!(flags & FLAGS_PRECISION) || value) {
  6010412304:	b940abe0 	ldr	w0, [sp, #168]
  6010412308:	12160000 	and	w0, w0, #0x400
  601041230c:	7100001f 	cmp	w0, #0x0
  6010412310:	54000080 	b.eq	6010412320 <_ntoa_long_long+0x64>  // b.none
  6010412314:	f94027e0 	ldr	x0, [sp, #72]
  6010412318:	f100001f 	cmp	x0, #0x0
  601041231c:	54000540 	b.eq	60104123c4 <_ntoa_long_long+0x108>  // b.none
        do {
            const char digit = (char)(value % base);
  6010412320:	f94027e0 	ldr	x0, [sp, #72]
  6010412324:	f9401fe1 	ldr	x1, [sp, #56]
  6010412328:	9ac10802 	udiv	x2, x0, x1
  601041232c:	f9401fe1 	ldr	x1, [sp, #56]
  6010412330:	9b017c41 	mul	x1, x2, x1
  6010412334:	cb010000 	sub	x0, x0, x1
  6010412338:	39025fe0 	strb	w0, [sp, #151]
            buf[len++] = digit < 10 ? '0' + digit : (flags & FLAGS_UPPERCASE ? 'A' : 'a') + digit - 10;
  601041233c:	39425fe0 	ldrb	w0, [sp, #151]
  6010412340:	7100241f 	cmp	w0, #0x9
  6010412344:	540000a8 	b.hi	6010412358 <_ntoa_long_long+0x9c>  // b.pmore
  6010412348:	39425fe0 	ldrb	w0, [sp, #151]
  601041234c:	1100c000 	add	w0, w0, #0x30
  6010412350:	12001c01 	and	w1, w0, #0xff
  6010412354:	1400000d 	b	6010412388 <_ntoa_long_long+0xcc>
  6010412358:	b940abe0 	ldr	w0, [sp, #168]
  601041235c:	121b0000 	and	w0, w0, #0x20
  6010412360:	7100001f 	cmp	w0, #0x0
  6010412364:	54000060 	b.eq	6010412370 <_ntoa_long_long+0xb4>  // b.none
  6010412368:	52800820 	mov	w0, #0x41                  	// #65
  601041236c:	14000002 	b	6010412374 <_ntoa_long_long+0xb8>
  6010412370:	52800c20 	mov	w0, #0x61                  	// #97
  6010412374:	39425fe1 	ldrb	w1, [sp, #151]
  6010412378:	0b010000 	add	w0, w0, w1
  601041237c:	12001c00 	and	w0, w0, #0xff
  6010412380:	51002800 	sub	w0, w0, #0xa
  6010412384:	12001c01 	and	w1, w0, #0xff
  6010412388:	f9404fe0 	ldr	x0, [sp, #152]
  601041238c:	91000402 	add	x2, x0, #0x1
  6010412390:	f9004fe2 	str	x2, [sp, #152]
  6010412394:	9101c3e2 	add	x2, sp, #0x70
  6010412398:	38206841 	strb	w1, [x2, x0]
            value /= base;
  601041239c:	f94027e1 	ldr	x1, [sp, #72]
  60104123a0:	f9401fe0 	ldr	x0, [sp, #56]
  60104123a4:	9ac00820 	udiv	x0, x1, x0
  60104123a8:	f90027e0 	str	x0, [sp, #72]
        } while (value && (len < PRINTF_NTOA_BUFFER_SIZE));
  60104123ac:	f94027e0 	ldr	x0, [sp, #72]
  60104123b0:	f100001f 	cmp	x0, #0x0
  60104123b4:	54000080 	b.eq	60104123c4 <_ntoa_long_long+0x108>  // b.none
  60104123b8:	f9404fe0 	ldr	x0, [sp, #152]
  60104123bc:	f1007c1f 	cmp	x0, #0x1f
  60104123c0:	54fffb09 	b.ls	6010412320 <_ntoa_long_long+0x64>  // b.plast
    }

    return _ntoa_format(out, buffer, idx, maxlen, buf, len, negative, (unsigned int)base, prec, width, flags);
  60104123c4:	f9401fe0 	ldr	x0, [sp, #56]
  60104123c8:	2a0003e2 	mov	w2, w0
  60104123cc:	9101c3e1 	add	x1, sp, #0x70
  60104123d0:	b940abe0 	ldr	w0, [sp, #168]
  60104123d4:	b90013e0 	str	w0, [sp, #16]
  60104123d8:	b940a3e0 	ldr	w0, [sp, #160]
  60104123dc:	b9000be0 	str	w0, [sp, #8]
  60104123e0:	b94043e0 	ldr	w0, [sp, #64]
  60104123e4:	b90003e0 	str	w0, [sp]
  60104123e8:	2a0203e7 	mov	w7, w2
  60104123ec:	39411fe6 	ldrb	w6, [sp, #71]
  60104123f0:	f9404fe5 	ldr	x5, [sp, #152]
  60104123f4:	aa0103e4 	mov	x4, x1
  60104123f8:	f9402be3 	ldr	x3, [sp, #80]
  60104123fc:	f9402fe2 	ldr	x2, [sp, #88]
  6010412400:	f94033e1 	ldr	x1, [sp, #96]
  6010412404:	f94037e0 	ldr	x0, [sp, #104]
  6010412408:	97fffe8b 	bl	6010411e34 <_ntoa_format>
}
  601041240c:	a9427bfd 	ldp	x29, x30, [sp, #32]
  6010412410:	910283ff 	add	sp, sp, #0xa0
  6010412414:	d65f03c0 	ret

0000006010412418 <_ftoa>:
static size_t _etoa(out_fct_type out, char* buffer, size_t idx, size_t maxlen, double value, unsigned int prec, unsigned int width, unsigned int flags);
#endif

// internal ftoa for fixed decimal floating point
static size_t _ftoa(out_fct_type out, char* buffer, size_t idx, size_t maxlen, double value, unsigned int prec, unsigned int width, unsigned int flags)
{
  6010412418:	a9b67bfd 	stp	x29, x30, [sp, #-160]!
  601041241c:	910003fd 	mov	x29, sp
  6010412420:	f90027e0 	str	x0, [sp, #72]
  6010412424:	f90023e1 	str	x1, [sp, #64]
  6010412428:	f9001fe2 	str	x2, [sp, #56]
  601041242c:	f9001be3 	str	x3, [sp, #48]
  6010412430:	fd0017e0 	str	d0, [sp, #40]
  6010412434:	b90027e4 	str	w4, [sp, #36]
  6010412438:	b90023e5 	str	w5, [sp, #32]
  601041243c:	b9001fe6 	str	w6, [sp, #28]
    char buf[PRINTF_FTOA_BUFFER_SIZE];
    size_t len = 0U;
  6010412440:	f9004fff 	str	xzr, [sp, #152]
    double diff = 0.0;
  6010412444:	f9003fff 	str	xzr, [sp, #120]

    // powers of 10
    static const double pow10[] = { 1, 10, 100, 1000, 10000, 100000, 1000000, 10000000, 100000000, 1000000000 };

    // test for special values
    if (value != value)
  6010412448:	fd4017e1 	ldr	d1, [sp, #40]
  601041244c:	fd4017e0 	ldr	d0, [sp, #40]
  6010412450:	1e602020 	fcmp	d1, d0
  6010412454:	54000180 	b.eq	6010412484 <_ftoa+0x6c>  // b.none
        return _out_rev(out, buffer, idx, maxlen, "nan", 3, width, flags);
  6010412458:	b9401fe7 	ldr	w7, [sp, #28]
  601041245c:	b94023e6 	ldr	w6, [sp, #32]
  6010412460:	d2800065 	mov	x5, #0x3                   	// #3
  6010412464:	f0000060 	adrp	x0, 6010421000 <__func__.0+0x508>
  6010412468:	91068004 	add	x4, x0, #0x1a0
  601041246c:	f9401be3 	ldr	x3, [sp, #48]
  6010412470:	f9401fe2 	ldr	x2, [sp, #56]
  6010412474:	f94023e1 	ldr	x1, [sp, #64]
  6010412478:	f94027e0 	ldr	x0, [sp, #72]
  601041247c:	97fffe1c 	bl	6010411cec <_out_rev>
  6010412480:	14000173 	b	6010412a4c <_ftoa+0x634>
    if (value < -DBL_MAX)
  6010412484:	fd4017e0 	ldr	d0, [sp, #40]
  6010412488:	92e00200 	mov	x0, #0xffefffffffffffff    	// #-4503599627370497
  601041248c:	9e670001 	fmov	d1, x0
  6010412490:	1e612010 	fcmpe	d0, d1
  6010412494:	54000044 	b.mi	601041249c <_ftoa+0x84>  // b.first
  6010412498:	1400000c 	b	60104124c8 <_ftoa+0xb0>
        return _out_rev(out, buffer, idx, maxlen, "fni-", 4, width, flags);
  601041249c:	b9401fe7 	ldr	w7, [sp, #28]
  60104124a0:	b94023e6 	ldr	w6, [sp, #32]
  60104124a4:	d2800085 	mov	x5, #0x4                   	// #4
  60104124a8:	f0000060 	adrp	x0, 6010421000 <__func__.0+0x508>
  60104124ac:	9106a004 	add	x4, x0, #0x1a8
  60104124b0:	f9401be3 	ldr	x3, [sp, #48]
  60104124b4:	f9401fe2 	ldr	x2, [sp, #56]
  60104124b8:	f94023e1 	ldr	x1, [sp, #64]
  60104124bc:	f94027e0 	ldr	x0, [sp, #72]
  60104124c0:	97fffe0b 	bl	6010411cec <_out_rev>
  60104124c4:	14000162 	b	6010412a4c <_ftoa+0x634>
    if (value > DBL_MAX)
  60104124c8:	fd4017e0 	ldr	d0, [sp, #40]
  60104124cc:	92f00200 	mov	x0, #0x7fefffffffffffff    	// #9218868437227405311
  60104124d0:	9e670001 	fmov	d1, x0
  60104124d4:	1e612010 	fcmpe	d0, d1
  60104124d8:	5400004c 	b.gt	60104124e0 <_ftoa+0xc8>
  60104124dc:	1400001b 	b	6010412548 <_ftoa+0x130>
        return _out_rev(out, buffer, idx, maxlen, (flags & FLAGS_PLUS) ? "fni+" : "fni", (flags & FLAGS_PLUS) ? 4U : 3U, width, flags);
  60104124e0:	b9401fe0 	ldr	w0, [sp, #28]
  60104124e4:	121e0000 	and	w0, w0, #0x4
  60104124e8:	7100001f 	cmp	w0, #0x0
  60104124ec:	54000080 	b.eq	60104124fc <_ftoa+0xe4>  // b.none
  60104124f0:	f0000060 	adrp	x0, 6010421000 <__func__.0+0x508>
  60104124f4:	9106c000 	add	x0, x0, #0x1b0
  60104124f8:	14000003 	b	6010412504 <_ftoa+0xec>
  60104124fc:	f0000060 	adrp	x0, 6010421000 <__func__.0+0x508>
  6010412500:	9106e000 	add	x0, x0, #0x1b8
  6010412504:	b9401fe1 	ldr	w1, [sp, #28]
  6010412508:	121e0021 	and	w1, w1, #0x4
  601041250c:	7100003f 	cmp	w1, #0x0
  6010412510:	54000060 	b.eq	601041251c <_ftoa+0x104>  // b.none
  6010412514:	d2800081 	mov	x1, #0x4                   	// #4
  6010412518:	14000002 	b	6010412520 <_ftoa+0x108>
  601041251c:	d2800061 	mov	x1, #0x3                   	// #3
  6010412520:	b9401fe7 	ldr	w7, [sp, #28]
  6010412524:	b94023e6 	ldr	w6, [sp, #32]
  6010412528:	aa0103e5 	mov	x5, x1
  601041252c:	aa0003e4 	mov	x4, x0
  6010412530:	f9401be3 	ldr	x3, [sp, #48]
  6010412534:	f9401fe2 	ldr	x2, [sp, #56]
  6010412538:	f94023e1 	ldr	x1, [sp, #64]
  601041253c:	f94027e0 	ldr	x0, [sp, #72]
  6010412540:	97fffdeb 	bl	6010411cec <_out_rev>
  6010412544:	14000142 	b	6010412a4c <_ftoa+0x634>

    // test for very large values
    // standard printf behavior is to print EVERY whole number digit -- which could be 100s of characters overflowing your buffers == bad
    if ((value > PRINTF_MAX_FLOAT) || (value < -PRINTF_MAX_FLOAT)) {
  6010412548:	fd4017e0 	ldr	d0, [sp, #40]
  601041254c:	d2d9aca0 	mov	x0, #0xcd6500000000        	// #225833675390976
  6010412550:	f2e839a0 	movk	x0, #0x41cd, lsl #48
  6010412554:	9e670001 	fmov	d1, x0
  6010412558:	1e612010 	fcmpe	d0, d1
  601041255c:	5400010c 	b.gt	601041257c <_ftoa+0x164>
  6010412560:	fd4017e0 	ldr	d0, [sp, #40]
  6010412564:	d2d9aca0 	mov	x0, #0xcd6500000000        	// #225833675390976
  6010412568:	f2f839a0 	movk	x0, #0xc1cd, lsl #48
  601041256c:	9e670001 	fmov	d1, x0
  6010412570:	1e612010 	fcmpe	d0, d1
  6010412574:	54000044 	b.mi	601041257c <_ftoa+0x164>  // b.first
  6010412578:	1400000b 	b	60104125a4 <_ftoa+0x18c>
#if defined(PRINTF_SUPPORT_EXPONENTIAL)
        return _etoa(out, buffer, idx, maxlen, value, prec, width, flags);
  601041257c:	b9401fe6 	ldr	w6, [sp, #28]
  6010412580:	b94023e5 	ldr	w5, [sp, #32]
  6010412584:	b94027e4 	ldr	w4, [sp, #36]
  6010412588:	fd4017e0 	ldr	d0, [sp, #40]
  601041258c:	f9401be3 	ldr	x3, [sp, #48]
  6010412590:	f9401fe2 	ldr	x2, [sp, #56]
  6010412594:	f94023e1 	ldr	x1, [sp, #64]
  6010412598:	f94027e0 	ldr	x0, [sp, #72]
  601041259c:	9400012e 	bl	6010412a54 <_etoa>
  60104125a0:	1400012b 	b	6010412a4c <_ftoa+0x634>
        return 0U;
#endif
    }

    // test for negative
    bool negative = false;
  60104125a4:	39025fff 	strb	wzr, [sp, #151]
    if (value < 0) {
  60104125a8:	fd4017e0 	ldr	d0, [sp, #40]
  60104125ac:	1e602018 	fcmpe	d0, #0.0
  60104125b0:	54000044 	b.mi	60104125b8 <_ftoa+0x1a0>  // b.first
  60104125b4:	14000007 	b	60104125d0 <_ftoa+0x1b8>
        negative = true;
  60104125b8:	52800020 	mov	w0, #0x1                   	// #1
  60104125bc:	39025fe0 	strb	w0, [sp, #151]
        value = 0 - value;
  60104125c0:	2f00e401 	movi	d1, #0x0
  60104125c4:	fd4017e0 	ldr	d0, [sp, #40]
  60104125c8:	1e603820 	fsub	d0, d1, d0
  60104125cc:	fd0017e0 	str	d0, [sp, #40]
    }

    // set default precision, if not set explicitly
    if (!(flags & FLAGS_PRECISION)) {
  60104125d0:	b9401fe0 	ldr	w0, [sp, #28]
  60104125d4:	12160000 	and	w0, w0, #0x400
  60104125d8:	7100001f 	cmp	w0, #0x0
  60104125dc:	540001a1 	b.ne	6010412610 <_ftoa+0x1f8>  // b.any
        prec = PRINTF_DEFAULT_FLOAT_PRECISION;
  60104125e0:	528000c0 	mov	w0, #0x6                   	// #6
  60104125e4:	b90027e0 	str	w0, [sp, #36]
    }
    // limit precision to 9, cause a prec >= 10 can lead to overflow errors
    while ((len < PRINTF_FTOA_BUFFER_SIZE) && (prec > 9U)) {
  60104125e8:	1400000a 	b	6010412610 <_ftoa+0x1f8>
        buf[len++] = '0';
  60104125ec:	f9404fe0 	ldr	x0, [sp, #152]
  60104125f0:	91000401 	add	x1, x0, #0x1
  60104125f4:	f9004fe1 	str	x1, [sp, #152]
  60104125f8:	910143e1 	add	x1, sp, #0x50
  60104125fc:	52800602 	mov	w2, #0x30                  	// #48
  6010412600:	38206822 	strb	w2, [x1, x0]
        prec--;
  6010412604:	b94027e0 	ldr	w0, [sp, #36]
  6010412608:	51000400 	sub	w0, w0, #0x1
  601041260c:	b90027e0 	str	w0, [sp, #36]
    while ((len < PRINTF_FTOA_BUFFER_SIZE) && (prec > 9U)) {
  6010412610:	f9404fe0 	ldr	x0, [sp, #152]
  6010412614:	f1007c1f 	cmp	x0, #0x1f
  6010412618:	54000088 	b.hi	6010412628 <_ftoa+0x210>  // b.pmore
  601041261c:	b94027e0 	ldr	w0, [sp, #36]
  6010412620:	7100241f 	cmp	w0, #0x9
  6010412624:	54fffe48 	b.hi	60104125ec <_ftoa+0x1d4>  // b.pmore
    }

    int whole = (int)value;
  6010412628:	fd4017e0 	ldr	d0, [sp, #40]
  601041262c:	1e780000 	fcvtzs	w0, d0
  6010412630:	b90093e0 	str	w0, [sp, #144]
    double tmp = (value - whole) * pow10[prec];
  6010412634:	b94093e0 	ldr	w0, [sp, #144]
  6010412638:	1e620000 	scvtf	d0, w0
  601041263c:	fd4017e1 	ldr	d1, [sp, #40]
  6010412640:	1e603821 	fsub	d1, d1, d0
  6010412644:	f0000060 	adrp	x0, 6010421000 <__func__.0+0x508>
  6010412648:	910c4000 	add	x0, x0, #0x310
  601041264c:	b94027e1 	ldr	w1, [sp, #36]
  6010412650:	fc617800 	ldr	d0, [x0, x1, lsl #3]
  6010412654:	1e600820 	fmul	d0, d1, d0
  6010412658:	fd003be0 	str	d0, [sp, #112]
    unsigned long frac = (unsigned long)tmp;
  601041265c:	fd403be0 	ldr	d0, [sp, #112]
  6010412660:	7ee1b800 	fcvtzu	d0, d0
  6010412664:	fd0047e0 	str	d0, [sp, #136]
    diff = tmp - frac;
  6010412668:	fd4047e0 	ldr	d0, [sp, #136]
  601041266c:	7e61d800 	ucvtf	d0, d0
  6010412670:	fd403be1 	ldr	d1, [sp, #112]
  6010412674:	1e603820 	fsub	d0, d1, d0
  6010412678:	fd003fe0 	str	d0, [sp, #120]

    if (diff > 0.5) {
  601041267c:	fd403fe1 	ldr	d1, [sp, #120]
  6010412680:	1e6c1000 	fmov	d0, #5.000000000000000000e-01
  6010412684:	1e602030 	fcmpe	d1, d0
  6010412688:	5400004c 	b.gt	6010412690 <_ftoa+0x278>
  601041268c:	14000012 	b	60104126d4 <_ftoa+0x2bc>
        ++frac;
  6010412690:	f94047e0 	ldr	x0, [sp, #136]
  6010412694:	91000400 	add	x0, x0, #0x1
  6010412698:	f90047e0 	str	x0, [sp, #136]
        // handle rollover, e.g. case 0.99 with prec 1 is 1.0
        if (frac >= pow10[prec]) {
  601041269c:	fd4047e0 	ldr	d0, [sp, #136]
  60104126a0:	7e61d801 	ucvtf	d1, d0
  60104126a4:	f0000060 	adrp	x0, 6010421000 <__func__.0+0x508>
  60104126a8:	910c4000 	add	x0, x0, #0x310
  60104126ac:	b94027e1 	ldr	w1, [sp, #36]
  60104126b0:	fc617800 	ldr	d0, [x0, x1, lsl #3]
  60104126b4:	1e602030 	fcmpe	d1, d0
  60104126b8:	5400004a 	b.ge	60104126c0 <_ftoa+0x2a8>  // b.tcont
  60104126bc:	14000014 	b	601041270c <_ftoa+0x2f4>
            frac = 0;
  60104126c0:	f90047ff 	str	xzr, [sp, #136]
            ++whole;
  60104126c4:	b94093e0 	ldr	w0, [sp, #144]
  60104126c8:	11000400 	add	w0, w0, #0x1
  60104126cc:	b90093e0 	str	w0, [sp, #144]
  60104126d0:	1400000f 	b	601041270c <_ftoa+0x2f4>
        }
    } else if (diff < 0.5) {
  60104126d4:	fd403fe1 	ldr	d1, [sp, #120]
  60104126d8:	1e6c1000 	fmov	d0, #5.000000000000000000e-01
  60104126dc:	1e602030 	fcmpe	d1, d0
  60104126e0:	54000164 	b.mi	601041270c <_ftoa+0x2f4>  // b.first
    } else if ((frac == 0U) || (frac & 1U)) {
  60104126e4:	f94047e0 	ldr	x0, [sp, #136]
  60104126e8:	f100001f 	cmp	x0, #0x0
  60104126ec:	540000a0 	b.eq	6010412700 <_ftoa+0x2e8>  // b.none
  60104126f0:	f94047e0 	ldr	x0, [sp, #136]
  60104126f4:	92400000 	and	x0, x0, #0x1
  60104126f8:	f100001f 	cmp	x0, #0x0
  60104126fc:	54000080 	b.eq	601041270c <_ftoa+0x2f4>  // b.none
        // if halfway, round up if odd OR if last digit is 0
        ++frac;
  6010412700:	f94047e0 	ldr	x0, [sp, #136]
  6010412704:	91000400 	add	x0, x0, #0x1
  6010412708:	f90047e0 	str	x0, [sp, #136]
    }

    if (prec == 0U) {
  601041270c:	b94027e0 	ldr	w0, [sp, #36]
  6010412710:	7100001f 	cmp	w0, #0x0
  6010412714:	54000381 	b.ne	6010412784 <_ftoa+0x36c>  // b.any
        diff = value - (double)whole;
  6010412718:	b94093e0 	ldr	w0, [sp, #144]
  601041271c:	1e620000 	scvtf	d0, w0
  6010412720:	fd4017e1 	ldr	d1, [sp, #40]
  6010412724:	1e603820 	fsub	d0, d1, d0
  6010412728:	fd003fe0 	str	d0, [sp, #120]
        if ((!(diff < 0.5) || (diff > 0.5)) && (whole & 1)) {
  601041272c:	fd403fe1 	ldr	d1, [sp, #120]
  6010412730:	1e6c1000 	fmov	d0, #5.000000000000000000e-01
  6010412734:	1e602030 	fcmpe	d1, d0
  6010412738:	1a9f57e0 	cset	w0, mi  // mi = first
  601041273c:	12001c00 	and	w0, w0, #0xff
  6010412740:	52000000 	eor	w0, w0, #0x1
  6010412744:	12001c00 	and	w0, w0, #0xff
  6010412748:	7100001f 	cmp	w0, #0x0
  601041274c:	540000c1 	b.ne	6010412764 <_ftoa+0x34c>  // b.any
  6010412750:	fd403fe1 	ldr	d1, [sp, #120]
  6010412754:	1e6c1000 	fmov	d0, #5.000000000000000000e-01
  6010412758:	1e602030 	fcmpe	d1, d0
  601041275c:	5400004c 	b.gt	6010412764 <_ftoa+0x34c>
  6010412760:	14000047 	b	601041287c <_ftoa+0x464>
  6010412764:	b94093e0 	ldr	w0, [sp, #144]
  6010412768:	12000000 	and	w0, w0, #0x1
  601041276c:	7100001f 	cmp	w0, #0x0
  6010412770:	54000c60 	b.eq	60104128fc <_ftoa+0x4e4>  // b.none
            // exactly 0.5 and ODD, then round up
            // 1.5 -> 2, but 2.5 -> 2
            ++whole;
  6010412774:	b94093e0 	ldr	w0, [sp, #144]
  6010412778:	11000400 	add	w0, w0, #0x1
  601041277c:	b90093e0 	str	w0, [sp, #144]
  6010412780:	1400005f 	b	60104128fc <_ftoa+0x4e4>
        }
    } else {
        unsigned int count = prec;
  6010412784:	b94027e0 	ldr	w0, [sp, #36]
  6010412788:	b90087e0 	str	w0, [sp, #132]
        // now do fractional part, as an unsigned number
        while (len < PRINTF_FTOA_BUFFER_SIZE) {
  601041278c:	1400001f 	b	6010412808 <_ftoa+0x3f0>
            --count;
  6010412790:	b94087e0 	ldr	w0, [sp, #132]
  6010412794:	51000400 	sub	w0, w0, #0x1
  6010412798:	b90087e0 	str	w0, [sp, #132]
            buf[len++] = (char)(48U + (frac % 10U));
  601041279c:	f94047e2 	ldr	x2, [sp, #136]
  60104127a0:	b202e7e0 	mov	x0, #0xcccccccccccccccc    	// #-3689348814741910324
  60104127a4:	f29999a0 	movk	x0, #0xcccd
  60104127a8:	9bc07c40 	umulh	x0, x2, x0
  60104127ac:	d343fc01 	lsr	x1, x0, #3
  60104127b0:	aa0103e0 	mov	x0, x1
  60104127b4:	d37ef400 	lsl	x0, x0, #2
  60104127b8:	8b010000 	add	x0, x0, x1
  60104127bc:	8b000000 	add	x0, x0, x0
  60104127c0:	cb000041 	sub	x1, x2, x0
  60104127c4:	12001c21 	and	w1, w1, #0xff
  60104127c8:	f9404fe0 	ldr	x0, [sp, #152]
  60104127cc:	91000402 	add	x2, x0, #0x1
  60104127d0:	f9004fe2 	str	x2, [sp, #152]
  60104127d4:	1100c021 	add	w1, w1, #0x30
  60104127d8:	12001c22 	and	w2, w1, #0xff
  60104127dc:	910143e1 	add	x1, sp, #0x50
  60104127e0:	38206822 	strb	w2, [x1, x0]
            if (!(frac /= 10U)) {
  60104127e4:	f94047e1 	ldr	x1, [sp, #136]
  60104127e8:	b202e7e0 	mov	x0, #0xcccccccccccccccc    	// #-3689348814741910324
  60104127ec:	f29999a0 	movk	x0, #0xcccd
  60104127f0:	9bc07c20 	umulh	x0, x1, x0
  60104127f4:	d343fc00 	lsr	x0, x0, #3
  60104127f8:	f90047e0 	str	x0, [sp, #136]
  60104127fc:	f94047e0 	ldr	x0, [sp, #136]
  6010412800:	f100001f 	cmp	x0, #0x0
  6010412804:	540000a0 	b.eq	6010412818 <_ftoa+0x400>  // b.none
        while (len < PRINTF_FTOA_BUFFER_SIZE) {
  6010412808:	f9404fe0 	ldr	x0, [sp, #152]
  601041280c:	f1007c1f 	cmp	x0, #0x1f
  6010412810:	54fffc09 	b.ls	6010412790 <_ftoa+0x378>  // b.plast
  6010412814:	14000009 	b	6010412838 <_ftoa+0x420>
                break;
  6010412818:	d503201f 	nop
            }
        }
        // add extra 0s
        while ((len < PRINTF_FTOA_BUFFER_SIZE) && (count-- > 0U)) {
  601041281c:	14000007 	b	6010412838 <_ftoa+0x420>
            buf[len++] = '0';
  6010412820:	f9404fe0 	ldr	x0, [sp, #152]
  6010412824:	91000401 	add	x1, x0, #0x1
  6010412828:	f9004fe1 	str	x1, [sp, #152]
  601041282c:	910143e1 	add	x1, sp, #0x50
  6010412830:	52800602 	mov	w2, #0x30                  	// #48
  6010412834:	38206822 	strb	w2, [x1, x0]
        while ((len < PRINTF_FTOA_BUFFER_SIZE) && (count-- > 0U)) {
  6010412838:	f9404fe0 	ldr	x0, [sp, #152]
  601041283c:	f1007c1f 	cmp	x0, #0x1f
  6010412840:	540000c8 	b.hi	6010412858 <_ftoa+0x440>  // b.pmore
  6010412844:	b94087e0 	ldr	w0, [sp, #132]
  6010412848:	51000401 	sub	w1, w0, #0x1
  601041284c:	b90087e1 	str	w1, [sp, #132]
  6010412850:	7100001f 	cmp	w0, #0x0
  6010412854:	54fffe61 	b.ne	6010412820 <_ftoa+0x408>  // b.any
        }
        if (len < PRINTF_FTOA_BUFFER_SIZE) {
  6010412858:	f9404fe0 	ldr	x0, [sp, #152]
  601041285c:	f1007c1f 	cmp	x0, #0x1f
  6010412860:	540004e8 	b.hi	60104128fc <_ftoa+0x4e4>  // b.pmore
            // add decimal
            buf[len++] = '.';
  6010412864:	f9404fe0 	ldr	x0, [sp, #152]
  6010412868:	91000401 	add	x1, x0, #0x1
  601041286c:	f9004fe1 	str	x1, [sp, #152]
  6010412870:	910143e1 	add	x1, sp, #0x50
  6010412874:	528005c2 	mov	w2, #0x2e                  	// #46
  6010412878:	38206822 	strb	w2, [x1, x0]
        }
    }

    // do whole part, number is reversed
    while (len < PRINTF_FTOA_BUFFER_SIZE) {
  601041287c:	14000020 	b	60104128fc <_ftoa+0x4e4>
        buf[len++] = (char)(48 + (whole % 10));
  6010412880:	b94093e0 	ldr	w0, [sp, #144]
  6010412884:	528ccce1 	mov	w1, #0x6667                	// #26215
  6010412888:	72acccc1 	movk	w1, #0x6666, lsl #16
  601041288c:	9b217c01 	smull	x1, w0, w1
  6010412890:	d360fc21 	lsr	x1, x1, #32
  6010412894:	13027c22 	asr	w2, w1, #2
  6010412898:	131f7c01 	asr	w1, w0, #31
  601041289c:	4b010041 	sub	w1, w2, w1
  60104128a0:	52800142 	mov	w2, #0xa                   	// #10
  60104128a4:	1b027c21 	mul	w1, w1, w2
  60104128a8:	4b010001 	sub	w1, w0, w1
  60104128ac:	12001c21 	and	w1, w1, #0xff
  60104128b0:	f9404fe0 	ldr	x0, [sp, #152]
  60104128b4:	91000402 	add	x2, x0, #0x1
  60104128b8:	f9004fe2 	str	x2, [sp, #152]
  60104128bc:	1100c021 	add	w1, w1, #0x30
  60104128c0:	12001c22 	and	w2, w1, #0xff
  60104128c4:	910143e1 	add	x1, sp, #0x50
  60104128c8:	38206822 	strb	w2, [x1, x0]
        if (!(whole /= 10)) {
  60104128cc:	b94093e0 	ldr	w0, [sp, #144]
  60104128d0:	528ccce1 	mov	w1, #0x6667                	// #26215
  60104128d4:	72acccc1 	movk	w1, #0x6666, lsl #16
  60104128d8:	9b217c01 	smull	x1, w0, w1
  60104128dc:	d360fc21 	lsr	x1, x1, #32
  60104128e0:	13027c21 	asr	w1, w1, #2
  60104128e4:	131f7c00 	asr	w0, w0, #31
  60104128e8:	4b000020 	sub	w0, w1, w0
  60104128ec:	b90093e0 	str	w0, [sp, #144]
  60104128f0:	b94093e0 	ldr	w0, [sp, #144]
  60104128f4:	7100001f 	cmp	w0, #0x0
  60104128f8:	540000a0 	b.eq	601041290c <_ftoa+0x4f4>  // b.none
    while (len < PRINTF_FTOA_BUFFER_SIZE) {
  60104128fc:	f9404fe0 	ldr	x0, [sp, #152]
  6010412900:	f1007c1f 	cmp	x0, #0x1f
  6010412904:	54fffbe9 	b.ls	6010412880 <_ftoa+0x468>  // b.plast
  6010412908:	14000002 	b	6010412910 <_ftoa+0x4f8>
            break;
  601041290c:	d503201f 	nop
        }
    }

    // pad leading zeros
    if (!(flags & FLAGS_LEFT) && (flags & FLAGS_ZEROPAD)) {
  6010412910:	b9401fe0 	ldr	w0, [sp, #28]
  6010412914:	121f0000 	and	w0, w0, #0x2
  6010412918:	7100001f 	cmp	w0, #0x0
  601041291c:	54000401 	b.ne	601041299c <_ftoa+0x584>  // b.any
  6010412920:	b9401fe0 	ldr	w0, [sp, #28]
  6010412924:	12000000 	and	w0, w0, #0x1
  6010412928:	7100001f 	cmp	w0, #0x0
  601041292c:	54000380 	b.eq	601041299c <_ftoa+0x584>  // b.none
        if (width && (negative || (flags & (FLAGS_PLUS | FLAGS_SPACE)))) {
  6010412930:	b94023e0 	ldr	w0, [sp, #32]
  6010412934:	7100001f 	cmp	w0, #0x0
  6010412938:	54000240 	b.eq	6010412980 <_ftoa+0x568>  // b.none
  601041293c:	39425fe0 	ldrb	w0, [sp, #151]
  6010412940:	7100001f 	cmp	w0, #0x0
  6010412944:	540000a1 	b.ne	6010412958 <_ftoa+0x540>  // b.any
  6010412948:	b9401fe0 	ldr	w0, [sp, #28]
  601041294c:	121e0400 	and	w0, w0, #0xc
  6010412950:	7100001f 	cmp	w0, #0x0
  6010412954:	54000160 	b.eq	6010412980 <_ftoa+0x568>  // b.none
            width--;
  6010412958:	b94023e0 	ldr	w0, [sp, #32]
  601041295c:	51000400 	sub	w0, w0, #0x1
  6010412960:	b90023e0 	str	w0, [sp, #32]
        }
        while ((len < width) && (len < PRINTF_FTOA_BUFFER_SIZE)) {
  6010412964:	14000007 	b	6010412980 <_ftoa+0x568>
            buf[len++] = '0';
  6010412968:	f9404fe0 	ldr	x0, [sp, #152]
  601041296c:	91000401 	add	x1, x0, #0x1
  6010412970:	f9004fe1 	str	x1, [sp, #152]
  6010412974:	910143e1 	add	x1, sp, #0x50
  6010412978:	52800602 	mov	w2, #0x30                  	// #48
  601041297c:	38206822 	strb	w2, [x1, x0]
        while ((len < width) && (len < PRINTF_FTOA_BUFFER_SIZE)) {
  6010412980:	b94023e0 	ldr	w0, [sp, #32]
  6010412984:	f9404fe1 	ldr	x1, [sp, #152]
  6010412988:	eb00003f 	cmp	x1, x0
  601041298c:	54000082 	b.cs	601041299c <_ftoa+0x584>  // b.hs, b.nlast
  6010412990:	f9404fe0 	ldr	x0, [sp, #152]
  6010412994:	f1007c1f 	cmp	x0, #0x1f
  6010412998:	54fffe89 	b.ls	6010412968 <_ftoa+0x550>  // b.plast
        }
    }

    if (len < PRINTF_FTOA_BUFFER_SIZE) {
  601041299c:	f9404fe0 	ldr	x0, [sp, #152]
  60104129a0:	f1007c1f 	cmp	x0, #0x1f
  60104129a4:	54000408 	b.hi	6010412a24 <_ftoa+0x60c>  // b.pmore
        if (negative) {
  60104129a8:	39425fe0 	ldrb	w0, [sp, #151]
  60104129ac:	7100001f 	cmp	w0, #0x0
  60104129b0:	54000100 	b.eq	60104129d0 <_ftoa+0x5b8>  // b.none
            buf[len++] = '-';
  60104129b4:	f9404fe0 	ldr	x0, [sp, #152]
  60104129b8:	91000401 	add	x1, x0, #0x1
  60104129bc:	f9004fe1 	str	x1, [sp, #152]
  60104129c0:	910143e1 	add	x1, sp, #0x50
  60104129c4:	528005a2 	mov	w2, #0x2d                  	// #45
  60104129c8:	38206822 	strb	w2, [x1, x0]
  60104129cc:	14000016 	b	6010412a24 <_ftoa+0x60c>
        } else if (flags & FLAGS_PLUS) {
  60104129d0:	b9401fe0 	ldr	w0, [sp, #28]
  60104129d4:	121e0000 	and	w0, w0, #0x4
  60104129d8:	7100001f 	cmp	w0, #0x0
  60104129dc:	54000100 	b.eq	60104129fc <_ftoa+0x5e4>  // b.none
            buf[len++] = '+'; // ignore the space if the '+' exists
  60104129e0:	f9404fe0 	ldr	x0, [sp, #152]
  60104129e4:	91000401 	add	x1, x0, #0x1
  60104129e8:	f9004fe1 	str	x1, [sp, #152]
  60104129ec:	910143e1 	add	x1, sp, #0x50
  60104129f0:	52800562 	mov	w2, #0x2b                  	// #43
  60104129f4:	38206822 	strb	w2, [x1, x0]
  60104129f8:	1400000b 	b	6010412a24 <_ftoa+0x60c>
        } else if (flags & FLAGS_SPACE) {
  60104129fc:	b9401fe0 	ldr	w0, [sp, #28]
  6010412a00:	121d0000 	and	w0, w0, #0x8
  6010412a04:	7100001f 	cmp	w0, #0x0
  6010412a08:	540000e0 	b.eq	6010412a24 <_ftoa+0x60c>  // b.none
            buf[len++] = ' ';
  6010412a0c:	f9404fe0 	ldr	x0, [sp, #152]
  6010412a10:	91000401 	add	x1, x0, #0x1
  6010412a14:	f9004fe1 	str	x1, [sp, #152]
  6010412a18:	910143e1 	add	x1, sp, #0x50
  6010412a1c:	52800402 	mov	w2, #0x20                  	// #32
  6010412a20:	38206822 	strb	w2, [x1, x0]
        }
    }

    return _out_rev(out, buffer, idx, maxlen, buf, len, width, flags);
  6010412a24:	910143e0 	add	x0, sp, #0x50
  6010412a28:	b9401fe7 	ldr	w7, [sp, #28]
  6010412a2c:	b94023e6 	ldr	w6, [sp, #32]
  6010412a30:	f9404fe5 	ldr	x5, [sp, #152]
  6010412a34:	aa0003e4 	mov	x4, x0
  6010412a38:	f9401be3 	ldr	x3, [sp, #48]
  6010412a3c:	f9401fe2 	ldr	x2, [sp, #56]
  6010412a40:	f94023e1 	ldr	x1, [sp, #64]
  6010412a44:	f94027e0 	ldr	x0, [sp, #72]
  6010412a48:	97fffca9 	bl	6010411cec <_out_rev>
}
  6010412a4c:	a8ca7bfd 	ldp	x29, x30, [sp], #160
  6010412a50:	d65f03c0 	ret

0000006010412a54 <_etoa>:

#if defined(PRINTF_SUPPORT_EXPONENTIAL)
// internal ftoa variant for exponential floating-point type, contributed by Martijn Jasperse <m.jasperse@gmail.com>
static size_t _etoa(out_fct_type out, char* buffer, size_t idx, size_t maxlen, double value, unsigned int prec, unsigned int width, unsigned int flags)
{
  6010412a54:	d10283ff 	sub	sp, sp, #0xa0
  6010412a58:	a9017bfd 	stp	x29, x30, [sp, #16]
  6010412a5c:	910043fd 	add	x29, sp, #0x10
  6010412a60:	f9002fe0 	str	x0, [sp, #88]
  6010412a64:	f9002be1 	str	x1, [sp, #80]
  6010412a68:	f90027e2 	str	x2, [sp, #72]
  6010412a6c:	f90023e3 	str	x3, [sp, #64]
  6010412a70:	fd001fe0 	str	d0, [sp, #56]
  6010412a74:	b90037e4 	str	w4, [sp, #52]
  6010412a78:	b90033e5 	str	w5, [sp, #48]
  6010412a7c:	b9002fe6 	str	w6, [sp, #44]
    // check for NaN and special values
    if ((value != value) || (value > DBL_MAX) || (value < -DBL_MAX)) {
  6010412a80:	fd401fe1 	ldr	d1, [sp, #56]
  6010412a84:	fd401fe0 	ldr	d0, [sp, #56]
  6010412a88:	1e602020 	fcmp	d1, d0
  6010412a8c:	54000181 	b.ne	6010412abc <_etoa+0x68>  // b.any
  6010412a90:	fd401fe0 	ldr	d0, [sp, #56]
  6010412a94:	92f00200 	mov	x0, #0x7fefffffffffffff    	// #9218868437227405311
  6010412a98:	9e670001 	fmov	d1, x0
  6010412a9c:	1e612010 	fcmpe	d0, d1
  6010412aa0:	540000ec 	b.gt	6010412abc <_etoa+0x68>
  6010412aa4:	fd401fe0 	ldr	d0, [sp, #56]
  6010412aa8:	92e00200 	mov	x0, #0xffefffffffffffff    	// #-4503599627370497
  6010412aac:	9e670001 	fmov	d1, x0
  6010412ab0:	1e612010 	fcmpe	d0, d1
  6010412ab4:	54000044 	b.mi	6010412abc <_etoa+0x68>  // b.first
  6010412ab8:	1400000b 	b	6010412ae4 <_etoa+0x90>
        return _ftoa(out, buffer, idx, maxlen, value, prec, width, flags);
  6010412abc:	b9402fe6 	ldr	w6, [sp, #44]
  6010412ac0:	b94033e5 	ldr	w5, [sp, #48]
  6010412ac4:	b94037e4 	ldr	w4, [sp, #52]
  6010412ac8:	fd401fe0 	ldr	d0, [sp, #56]
  6010412acc:	f94023e3 	ldr	x3, [sp, #64]
  6010412ad0:	f94027e2 	ldr	x2, [sp, #72]
  6010412ad4:	f9402be1 	ldr	x1, [sp, #80]
  6010412ad8:	f9402fe0 	ldr	x0, [sp, #88]
  6010412adc:	97fffe4f 	bl	6010412418 <_ftoa>
  6010412ae0:	14000110 	b	6010412f20 <_etoa+0x4cc>
    }

    // determine the sign
    const bool negative = value < 0;
  6010412ae4:	fd401fe0 	ldr	d0, [sp, #56]
  6010412ae8:	1e602018 	fcmpe	d0, #0.0
  6010412aec:	1a9f57e0 	cset	w0, mi  // mi = first
  6010412af0:	39024fe0 	strb	w0, [sp, #147]
    if (negative) {
  6010412af4:	39424fe0 	ldrb	w0, [sp, #147]
  6010412af8:	7100001f 	cmp	w0, #0x0
