
fs_server:     file format elf32-littlearm


Disassembly of section .init:

00008000 <_init>:
    8000:	e1a0c00d 	mov	ip, sp
    8004:	e92ddff8 	push	{r3, r4, r5, r6, r7, r8, r9, sl, fp, ip, lr, pc}
    8008:	e24cb004 	sub	fp, ip, #4
    800c:	e24bd028 	sub	sp, fp, #40	; 0x28
    8010:	e89d6ff0 	ldm	sp, {r4, r5, r6, r7, r8, r9, sl, fp, sp, lr}
    8014:	e12fff1e 	bx	lr

Disassembly of section .text:

00008018 <__do_global_dtors_aux>:
    8018:	e92d4010 	push	{r4, lr}
    801c:	e59f4028 	ldr	r4, [pc, #40]	; 804c <__do_global_dtors_aux+0x34>
    8020:	e5d43000 	ldrb	r3, [r4]
    8024:	e3530000 	cmp	r3, #0
    8028:	1a000005 	bne	8044 <__do_global_dtors_aux+0x2c>
    802c:	e59f301c 	ldr	r3, [pc, #28]	; 8050 <__do_global_dtors_aux+0x38>
    8030:	e3530000 	cmp	r3, #0
    8034:	159f0018 	ldrne	r0, [pc, #24]	; 8054 <__do_global_dtors_aux+0x3c>
    8038:	1320f000 	nopne	{0}
    803c:	e3a03001 	mov	r3, #1
    8040:	e5c43000 	strb	r3, [r4]
    8044:	e8bd4010 	pop	{r4, lr}
    8048:	e12fff1e 	bx	lr
    804c:	00013f14 	.word	0x00013f14
    8050:	00000000 	.word	0x00000000
    8054:	00013140 	.word	0x00013140

00008058 <frame_dummy>:
    8058:	e59f3060 	ldr	r3, [pc, #96]	; 80c0 <frame_dummy+0x68>
    805c:	e3530000 	cmp	r3, #0
    8060:	0a000009 	beq	808c <frame_dummy+0x34>
    8064:	e59f0058 	ldr	r0, [pc, #88]	; 80c4 <frame_dummy+0x6c>
    8068:	e92d4010 	push	{r4, lr}
    806c:	e59f1054 	ldr	r1, [pc, #84]	; 80c8 <frame_dummy+0x70>
    8070:	e320f000 	nop	{0}
    8074:	e59f0050 	ldr	r0, [pc, #80]	; 80cc <frame_dummy+0x74>
    8078:	e5903000 	ldr	r3, [r0]
    807c:	e3530000 	cmp	r3, #0
    8080:	1a000009 	bne	80ac <frame_dummy+0x54>
    8084:	e8bd4010 	pop	{r4, lr}
    8088:	e12fff1e 	bx	lr
    808c:	e59f0038 	ldr	r0, [pc, #56]	; 80cc <frame_dummy+0x74>
    8090:	e5903000 	ldr	r3, [r0]
    8094:	e3530000 	cmp	r3, #0
    8098:	012fff1e 	bxeq	lr
    809c:	e59f302c 	ldr	r3, [pc, #44]	; 80d0 <frame_dummy+0x78>
    80a0:	e3530000 	cmp	r3, #0
    80a4:	012fff1e 	bxeq	lr
    80a8:	e12fff13 	bx	r3
    80ac:	e59f301c 	ldr	r3, [pc, #28]	; 80d0 <frame_dummy+0x78>
    80b0:	e3530000 	cmp	r3, #0
    80b4:	0afffff2 	beq	8084 <frame_dummy+0x2c>
    80b8:	e8bd4010 	pop	{r4, lr}
    80bc:	e12fff13 	bx	r3
    80c0:	00000000 	.word	0x00000000
    80c4:	00013140 	.word	0x00013140
    80c8:	00013f18 	.word	0x00013f18
    80cc:	0001314c 	.word	0x0001314c
    80d0:	00000000 	.word	0x00000000

000080d4 <_mainCRTStartup>:
    80d4:	e59f30f0 	ldr	r3, [pc, #240]	; 81cc <_mainCRTStartup+0xf8>
    80d8:	e3530000 	cmp	r3, #0
    80dc:	059f30e4 	ldreq	r3, [pc, #228]	; 81c8 <_mainCRTStartup+0xf4>
    80e0:	e1a0d003 	mov	sp, r3
    80e4:	e10f2000 	mrs	r2, CPSR
    80e8:	e312000f 	tst	r2, #15
    80ec:	0a000015 	beq	8148 <_mainCRTStartup+0x74>
    80f0:	e321f0d1 	msr	CPSR_c, #209	; 0xd1
    80f4:	e1a0d003 	mov	sp, r3
    80f8:	e24daa01 	sub	sl, sp, #4096	; 0x1000
    80fc:	e1a0300a 	mov	r3, sl
    8100:	e321f0d7 	msr	CPSR_c, #215	; 0xd7
    8104:	e1a0d003 	mov	sp, r3
    8108:	e2433a01 	sub	r3, r3, #4096	; 0x1000
    810c:	e321f0db 	msr	CPSR_c, #219	; 0xdb
    8110:	e1a0d003 	mov	sp, r3
    8114:	e2433a01 	sub	r3, r3, #4096	; 0x1000
    8118:	e321f0d2 	msr	CPSR_c, #210	; 0xd2
    811c:	e1a0d003 	mov	sp, r3
    8120:	e2433a02 	sub	r3, r3, #8192	; 0x2000
    8124:	e321f0d3 	msr	CPSR_c, #211	; 0xd3
    8128:	e1a0d003 	mov	sp, r3
    812c:	e2433902 	sub	r3, r3, #32768	; 0x8000
    8130:	e3c330ff 	bic	r3, r3, #255	; 0xff
    8134:	e3c33cff 	bic	r3, r3, #65280	; 0xff00
    8138:	e5033004 	str	r3, [r3, #-4]
    813c:	e9532000 	ldmdb	r3, {sp}^
    8140:	e38220c0 	orr	r2, r2, #192	; 0xc0
    8144:	e121f002 	msr	CPSR_c, r2
    8148:	e243a801 	sub	sl, r3, #65536	; 0x10000
    814c:	e3b01000 	movs	r1, #0
    8150:	e1a0b001 	mov	fp, r1
    8154:	e1a07001 	mov	r7, r1
    8158:	e59f0078 	ldr	r0, [pc, #120]	; 81d8 <_mainCRTStartup+0x104>
    815c:	e59f2078 	ldr	r2, [pc, #120]	; 81dc <_mainCRTStartup+0x108>
    8160:	e0522000 	subs	r2, r2, r0
    8164:	eb00163c 	bl	da5c <memset>
    8168:	e59f3060 	ldr	r3, [pc, #96]	; 81d0 <_mainCRTStartup+0xfc>
    816c:	e3530000 	cmp	r3, #0
    8170:	0a000001 	beq	817c <_mainCRTStartup+0xa8>
    8174:	e1a0e00f 	mov	lr, pc
    8178:	e1a0f003 	mov	pc, r3
    817c:	e59f3050 	ldr	r3, [pc, #80]	; 81d4 <_mainCRTStartup+0x100>
    8180:	e3530000 	cmp	r3, #0
    8184:	0a000001 	beq	8190 <_mainCRTStartup+0xbc>
    8188:	e1a0e00f 	mov	lr, pc
    818c:	e1a0f003 	mov	pc, r3
    8190:	e3b00000 	movs	r0, #0
    8194:	e3b01000 	movs	r1, #0
    8198:	e1b04000 	movs	r4, r0
    819c:	e1b05001 	movs	r5, r1
    81a0:	e59f0038 	ldr	r0, [pc, #56]	; 81e0 <_mainCRTStartup+0x10c>
    81a4:	e3500000 	cmp	r0, #0
    81a8:	0a000001 	beq	81b4 <_mainCRTStartup+0xe0>
    81ac:	e59f0030 	ldr	r0, [pc, #48]	; 81e4 <_mainCRTStartup+0x110>
    81b0:	e320f000 	nop	{0}
    81b4:	eb001571 	bl	d780 <__libc_init_array>
    81b8:	e1b00004 	movs	r0, r4
    81bc:	e1b01005 	movs	r1, r5
    81c0:	eb0004eb 	bl	9574 <main>
    81c4:	eb0013cd 	bl	d100 <exit>
    81c8:	00080000 	.word	0x00080000
	...
    81d8:	00013f14 	.word	0x00013f14
    81dc:	0003c1a8 	.word	0x0003c1a8
	...

000081e8 <get_session_cwd>:

#define MAX_SUPPORT_SESSION 1024
static struct CwdPair session_cwd[MAX_SUPPORT_SESSION];

static struct CwdPair* get_session_cwd(void)
{
    81e8:	e92d4810 	push	{r4, fp, lr}
    81ec:	e28db008 	add	fp, sp, #8
    81f0:	e24dd00c 	sub	sp, sp, #12
    int free_idx = -1;
    81f4:	e3e03000 	mvn	r3, #0
    81f8:	e50b3010 	str	r3, [fp, #-16]
    for (int i = 0; i < MAX_SUPPORT_SESSION; i++) {
    81fc:	e3a03000 	mov	r3, #0
    8200:	e50b3014 	str	r3, [fp, #-20]	; 0xffffffec
    8204:	ea00001b 	b	8278 <get_session_cwd+0x90>
        // found session cwd
        if (session_cwd[i].session_id == cur_session_id()) {
    8208:	e3033f30 	movw	r3, #16176	; 0x3f30
    820c:	e3403001 	movt	r3, #1
    8210:	e51b2014 	ldr	r2, [fp, #-20]	; 0xffffffec
    8214:	e7934182 	ldr	r4, [r3, r2, lsl #3]
    8218:	eb0010ba 	bl	c508 <cur_session_id>
    821c:	e1a03000 	mov	r3, r0
    8220:	e1540003 	cmp	r4, r3
    8224:	1a000005 	bne	8240 <get_session_cwd+0x58>
            return &session_cwd[i];
    8228:	e51b3014 	ldr	r3, [fp, #-20]	; 0xffffffec
    822c:	e1a02183 	lsl	r2, r3, #3
    8230:	e3033f30 	movw	r3, #16176	; 0x3f30
    8234:	e3403001 	movt	r3, #1
    8238:	e0823003 	add	r3, r2, r3
    823c:	ea00002c 	b	82f4 <get_session_cwd+0x10c>
        }
        if (free_idx == -1 && session_cwd[i].session_id == 0) {
    8240:	e51b3010 	ldr	r3, [fp, #-16]
    8244:	e3730001 	cmn	r3, #1
    8248:	1a000007 	bne	826c <get_session_cwd+0x84>
    824c:	e3033f30 	movw	r3, #16176	; 0x3f30
    8250:	e3403001 	movt	r3, #1
    8254:	e51b2014 	ldr	r2, [fp, #-20]	; 0xffffffec
    8258:	e7933182 	ldr	r3, [r3, r2, lsl #3]
    825c:	e3530000 	cmp	r3, #0
    8260:	1a000001 	bne	826c <get_session_cwd+0x84>
            free_idx = i;
    8264:	e51b3014 	ldr	r3, [fp, #-20]	; 0xffffffec
    8268:	e50b3010 	str	r3, [fp, #-16]
    for (int i = 0; i < MAX_SUPPORT_SESSION; i++) {
    826c:	e51b3014 	ldr	r3, [fp, #-20]	; 0xffffffec
    8270:	e2833001 	add	r3, r3, #1
    8274:	e50b3014 	str	r3, [fp, #-20]	; 0xffffffec
    8278:	e51b3014 	ldr	r3, [fp, #-20]	; 0xffffffec
    827c:	e3530b01 	cmp	r3, #1024	; 0x400
    8280:	baffffe0 	blt	8208 <get_session_cwd+0x20>
        }
    }
    // new a cwd pair for session
    if (free_idx == -1) {
    8284:	e51b3010 	ldr	r3, [fp, #-16]
    8288:	e3730001 	cmn	r3, #1
    828c:	1a000004 	bne	82a4 <get_session_cwd+0xbc>
        printf("Connect Session reaches max value.\n");
    8290:	e3020774 	movw	r0, #10100	; 0x2774
    8294:	e3400001 	movt	r0, #1
    8298:	eb000eb8 	bl	bd80 <printf>
        return NULL;
    829c:	e3a03000 	mov	r3, #0
    82a0:	ea000013 	b	82f4 <get_session_cwd+0x10c>
    }
    session_cwd[free_idx].session_id = cur_session_id();
    82a4:	eb001097 	bl	c508 <cur_session_id>
    82a8:	e1a01000 	mov	r1, r0
    82ac:	e3033f30 	movw	r3, #16176	; 0x3f30
    82b0:	e3403001 	movt	r3, #1
    82b4:	e51b2010 	ldr	r2, [fp, #-16]
    82b8:	e7831182 	str	r1, [r3, r2, lsl #3]
    session_cwd[free_idx].Inode = InodeGet(ROOT_INUM);
    82bc:	e3a00001 	mov	r0, #1
    82c0:	eb000a26 	bl	ab60 <InodeGet>
    82c4:	e1a01000 	mov	r1, r0
    82c8:	e3032f30 	movw	r2, #16176	; 0x3f30
    82cc:	e3402001 	movt	r2, #1
    82d0:	e51b3010 	ldr	r3, [fp, #-16]
    82d4:	e1a03183 	lsl	r3, r3, #3
    82d8:	e0823003 	add	r3, r2, r3
    82dc:	e5831004 	str	r1, [r3, #4]
    return &session_cwd[free_idx];
    82e0:	e51b3010 	ldr	r3, [fp, #-16]
    82e4:	e1a02183 	lsl	r2, r3, #3
    82e8:	e3033f30 	movw	r3, #16176	; 0x3f30
    82ec:	e3403001 	movt	r3, #1
    82f0:	e0823003 	add	r3, r2, r3
}
    82f4:	e1a00003 	mov	r0, r3
    82f8:	e24bd008 	sub	sp, fp, #8
    82fc:	e8bd8810 	pop	{r4, fp, pc}

00008300 <ipc_do_serve_Ipc_ls>:

int IPC_DO_SERVE_FUNC(Ipc_ls)(char* path)
{
    8300:	e92d4800 	push	{fp, lr}
    8304:	e28db004 	add	fp, sp, #4
    8308:	e24dd028 	sub	sp, sp, #40	; 0x28
    830c:	e50b0028 	str	r0, [fp, #-40]	; 0xffffffd8
    struct Inode *dp, *ip;
    if (*path == '/') {
    8310:	e51b3028 	ldr	r3, [fp, #-40]	; 0xffffffd8
    8314:	e5d33000 	ldrb	r3, [r3]
    8318:	e353002f 	cmp	r3, #47	; 0x2f
    831c:	1a000003 	bne	8330 <ipc_do_serve_Ipc_ls+0x30>
        dp = InodeGet(ROOT_INUM);
    8320:	e3a00001 	mov	r0, #1
    8324:	eb000a0d 	bl	ab60 <InodeGet>
    8328:	e50b0008 	str	r0, [fp, #-8]
    832c:	ea00000c 	b	8364 <ipc_do_serve_Ipc_ls+0x64>
    } else {
        struct CwdPair* cwd = get_session_cwd();
    8330:	ebffffac 	bl	81e8 <get_session_cwd>
    8334:	e50b0010 	str	r0, [fp, #-16]
        if (!cwd) {
    8338:	e51b3010 	ldr	r3, [fp, #-16]
    833c:	e3530000 	cmp	r3, #0
    8340:	1a000004 	bne	8358 <ipc_do_serve_Ipc_ls+0x58>
            printf("ls:find current work dir failed\n");
    8344:	e3020798 	movw	r0, #10136	; 0x2798
    8348:	e3400001 	movt	r0, #1
    834c:	eb000e8b 	bl	bd80 <printf>
            return -1;
    8350:	e3e03000 	mvn	r3, #0
    8354:	ea00003b 	b	8448 <ipc_do_serve_Ipc_ls+0x148>
        }
        dp = cwd->Inode;
    8358:	e51b3010 	ldr	r3, [fp, #-16]
    835c:	e5933004 	ldr	r3, [r3, #4]
    8360:	e50b3008 	str	r3, [fp, #-8]
    }

    if (!(ip = InodeSeek(dp, path))) {
    8364:	e51b1028 	ldr	r1, [fp, #-40]	; 0xffffffd8
    8368:	e51b0008 	ldr	r0, [fp, #-8]
    836c:	eb000c61 	bl	b4f8 <InodeSeek>
    8370:	e50b0014 	str	r0, [fp, #-20]	; 0xffffffec
    8374:	e51b3014 	ldr	r3, [fp, #-20]	; 0xffffffec
    8378:	e3530000 	cmp	r3, #0
    837c:	1a000004 	bne	8394 <ipc_do_serve_Ipc_ls+0x94>
        printf("ls:find target Inode failed\n");
    8380:	e30207bc 	movw	r0, #10172	; 0x27bc
    8384:	e3400001 	movt	r0, #1
    8388:	eb000e7c 	bl	bd80 <printf>
        return -1;
    838c:	e3e03000 	mvn	r3, #0
    8390:	ea00002c 	b	8448 <ipc_do_serve_Ipc_ls+0x148>
    }
    if (ip->type != T_DIR) {
    8394:	e51b3014 	ldr	r3, [fp, #-20]	; 0xffffffec
    8398:	e1d330f4 	ldrsh	r3, [r3, #4]
    839c:	e3530001 	cmp	r3, #1
    83a0:	0a000004 	beq	83b8 <ipc_do_serve_Ipc_ls+0xb8>
        printf("ls:not a dir\n");
    83a4:	e30207dc 	movw	r0, #10204	; 0x27dc
    83a8:	e3400001 	movt	r0, #1
    83ac:	eb000e73 	bl	bd80 <printf>
        return -1;
    83b0:	e3e03000 	mvn	r3, #0
    83b4:	ea000023 	b	8448 <ipc_do_serve_Ipc_ls+0x148>
    }

    uint32_t off;
    struct DirectEntry de;
    for (off = 0; off < ip->size; off += sizeof(de)) {
    83b8:	e3a03000 	mov	r3, #0
    83bc:	e50b300c 	str	r3, [fp, #-12]
    83c0:	ea00001a 	b	8430 <ipc_do_serve_Ipc_ls+0x130>
        if (InodeRead(ip, (char*)&de, off, sizeof(de)) != sizeof(de)) {
    83c4:	e51b200c 	ldr	r2, [fp, #-12]
    83c8:	e24b1024 	sub	r1, fp, #36	; 0x24
    83cc:	e3a03010 	mov	r3, #16
    83d0:	e51b0014 	ldr	r0, [fp, #-20]	; 0xffffffec
    83d4:	eb000c6a 	bl	b584 <InodeRead>
    83d8:	e1a03000 	mov	r3, r0
    83dc:	e3530010 	cmp	r3, #16
    83e0:	0a000004 	beq	83f8 <ipc_do_serve_Ipc_ls+0xf8>
            printf("ls:read dir entry failed\n");
    83e4:	e30207ec 	movw	r0, #10220	; 0x27ec
    83e8:	e3400001 	movt	r0, #1
    83ec:	eb000e63 	bl	bd80 <printf>
            return -1;
    83f0:	e3e03000 	mvn	r3, #0
    83f4:	ea000013 	b	8448 <ipc_do_serve_Ipc_ls+0x148>
        }
        if (de.inum == 0) {
    83f8:	e15b32b4 	ldrh	r3, [fp, #-36]	; 0xffffffdc
    83fc:	e3530000 	cmp	r3, #0
    8400:	0a000006 	beq	8420 <ipc_do_serve_Ipc_ls+0x120>
            continue;
        }
        printf("%s\n", de.name);
    8404:	e24b3024 	sub	r3, fp, #36	; 0x24
    8408:	e2833002 	add	r3, r3, #2
    840c:	e1a01003 	mov	r1, r3
    8410:	e3020808 	movw	r0, #10248	; 0x2808
    8414:	e3400001 	movt	r0, #1
    8418:	eb000e58 	bl	bd80 <printf>
    841c:	ea000000 	b	8424 <ipc_do_serve_Ipc_ls+0x124>
            continue;
    8420:	e320f000 	nop	{0}
    for (off = 0; off < ip->size; off += sizeof(de)) {
    8424:	e51b300c 	ldr	r3, [fp, #-12]
    8428:	e2833010 	add	r3, r3, #16
    842c:	e50b300c 	str	r3, [fp, #-12]
    8430:	e51b3014 	ldr	r3, [fp, #-20]	; 0xffffffec
    8434:	e5932008 	ldr	r2, [r3, #8]
    8438:	e51b300c 	ldr	r3, [fp, #-12]
    843c:	e1520003 	cmp	r2, r3
    8440:	8affffdf 	bhi	83c4 <ipc_do_serve_Ipc_ls+0xc4>
    }

    return 0;
    8444:	e3a03000 	mov	r3, #0
}
    8448:	e1a00003 	mov	r0, r3
    844c:	e24bd004 	sub	sp, fp, #4
    8450:	e8bd8800 	pop	{fp, pc}

00008454 <ipc_do_serve_Ipc_cd>:

int IPC_DO_SERVE_FUNC(Ipc_cd)(char* path)
{
    8454:	e92d4800 	push	{fp, lr}
    8458:	e28db004 	add	fp, sp, #4
    845c:	e24dd018 	sub	sp, sp, #24
    8460:	e50b0018 	str	r0, [fp, #-24]	; 0xffffffe8
    struct CwdPair* cwd;
    struct Inode *dp, *ip;

    cwd = get_session_cwd();
    8464:	ebffff5f 	bl	81e8 <get_session_cwd>
    8468:	e50b000c 	str	r0, [fp, #-12]
    if (!cwd) {
    846c:	e51b300c 	ldr	r3, [fp, #-12]
    8470:	e3530000 	cmp	r3, #0
    8474:	1a000004 	bne	848c <ipc_do_serve_Ipc_cd+0x38>
        printf("cd:find current work dir failed\n");
    8478:	e302080c 	movw	r0, #10252	; 0x280c
    847c:	e3400001 	movt	r0, #1
    8480:	eb000e3e 	bl	bd80 <printf>
        return -1;
    8484:	e3e03000 	mvn	r3, #0
    8488:	ea000023 	b	851c <ipc_do_serve_Ipc_cd+0xc8>
    }

    if (*path == '/') {
    848c:	e51b3018 	ldr	r3, [fp, #-24]	; 0xffffffe8
    8490:	e5d33000 	ldrb	r3, [r3]
    8494:	e353002f 	cmp	r3, #47	; 0x2f
    8498:	1a000003 	bne	84ac <ipc_do_serve_Ipc_cd+0x58>
        dp = InodeGet(ROOT_INUM);
    849c:	e3a00001 	mov	r0, #1
    84a0:	eb0009ae 	bl	ab60 <InodeGet>
    84a4:	e50b0008 	str	r0, [fp, #-8]
    84a8:	ea000002 	b	84b8 <ipc_do_serve_Ipc_cd+0x64>
    } else {
        dp = cwd->Inode;
    84ac:	e51b300c 	ldr	r3, [fp, #-12]
    84b0:	e5933004 	ldr	r3, [r3, #4]
    84b4:	e50b3008 	str	r3, [fp, #-8]
    }

    if (!(ip = InodeSeek(dp, path))) {
    84b8:	e51b1018 	ldr	r1, [fp, #-24]	; 0xffffffe8
    84bc:	e51b0008 	ldr	r0, [fp, #-8]
    84c0:	eb000c0c 	bl	b4f8 <InodeSeek>
    84c4:	e50b0010 	str	r0, [fp, #-16]
    84c8:	e51b3010 	ldr	r3, [fp, #-16]
    84cc:	e3530000 	cmp	r3, #0
    84d0:	1a000004 	bne	84e8 <ipc_do_serve_Ipc_cd+0x94>
        /// @todo Is need to create the Inode when the dir is node existed?
        printf("cd:find target Inode failed\n");
    84d4:	e3020830 	movw	r0, #10288	; 0x2830
    84d8:	e3400001 	movt	r0, #1
    84dc:	eb000e27 	bl	bd80 <printf>
        return -1;
    84e0:	e3e03000 	mvn	r3, #0
    84e4:	ea00000c 	b	851c <ipc_do_serve_Ipc_cd+0xc8>
    }

    if (ip->type != T_DIR) {
    84e8:	e51b3010 	ldr	r3, [fp, #-16]
    84ec:	e1d330f4 	ldrsh	r3, [r3, #4]
    84f0:	e3530001 	cmp	r3, #1
    84f4:	0a000004 	beq	850c <ipc_do_serve_Ipc_cd+0xb8>
        printf("cd:not a dir\n");
    84f8:	e3020850 	movw	r0, #10320	; 0x2850
    84fc:	e3400001 	movt	r0, #1
    8500:	eb000e1e 	bl	bd80 <printf>
        return -1;
    8504:	e3e03000 	mvn	r3, #0
    8508:	ea000003 	b	851c <ipc_do_serve_Ipc_cd+0xc8>
    }

    cwd->Inode = ip;
    850c:	e51b300c 	ldr	r3, [fp, #-12]
    8510:	e51b2010 	ldr	r2, [fp, #-16]
    8514:	e5832004 	str	r2, [r3, #4]

    return 0;
    8518:	e3a03000 	mov	r3, #0
}
    851c:	e1a00003 	mov	r0, r3
    8520:	e24bd004 	sub	sp, fp, #4
    8524:	e8bd8800 	pop	{fp, pc}

00008528 <ipc_do_serve_Ipc_mkdir>:

int IPC_DO_SERVE_FUNC(Ipc_mkdir)(char* path)
{
    8528:	e92d4800 	push	{fp, lr}
    852c:	e28db004 	add	fp, sp, #4
    8530:	e24dd030 	sub	sp, sp, #48	; 0x30
    8534:	e50b0028 	str	r0, [fp, #-40]	; 0xffffffd8
    // printf("Create a new directory: %s\n", path);
    struct Inode *dp, *ip;
    if (*path == '/') {
    8538:	e51b3028 	ldr	r3, [fp, #-40]	; 0xffffffd8
    853c:	e5d33000 	ldrb	r3, [r3]
    8540:	e353002f 	cmp	r3, #47	; 0x2f
    8544:	1a000003 	bne	8558 <ipc_do_serve_Ipc_mkdir+0x30>
        dp = InodeGet(ROOT_INUM);
    8548:	e3a00001 	mov	r0, #1
    854c:	eb000983 	bl	ab60 <InodeGet>
    8550:	e50b0008 	str	r0, [fp, #-8]
    8554:	ea00000c 	b	858c <ipc_do_serve_Ipc_mkdir+0x64>
    } else {
        struct CwdPair* cwd = get_session_cwd();
    8558:	ebffff22 	bl	81e8 <get_session_cwd>
    855c:	e50b000c 	str	r0, [fp, #-12]
        if (!cwd) {
    8560:	e51b300c 	ldr	r3, [fp, #-12]
    8564:	e3530000 	cmp	r3, #0
    8568:	1a000004 	bne	8580 <ipc_do_serve_Ipc_mkdir+0x58>
            printf("find current work dir failed\n");
    856c:	e3020860 	movw	r0, #10336	; 0x2860
    8570:	e3400001 	movt	r0, #1
    8574:	eb000e01 	bl	bd80 <printf>
            return -1;
    8578:	e3e03000 	mvn	r3, #0
    857c:	ea000033 	b	8650 <ipc_do_serve_Ipc_mkdir+0x128>
        }
        dp = cwd->Inode;
    8580:	e51b300c 	ldr	r3, [fp, #-12]
    8584:	e5933004 	ldr	r3, [r3, #4]
    8588:	e50b3008 	str	r3, [fp, #-8]
    }

    if ((ip = InodeSeek(dp, path)) != NULL) {
    858c:	e51b1028 	ldr	r1, [fp, #-40]	; 0xffffffd8
    8590:	e51b0008 	ldr	r0, [fp, #-8]
    8594:	eb000bd7 	bl	b4f8 <InodeSeek>
    8598:	e50b0010 	str	r0, [fp, #-16]
    859c:	e51b3010 	ldr	r3, [fp, #-16]
    85a0:	e3530000 	cmp	r3, #0
    85a4:	0a000004 	beq	85bc <ipc_do_serve_Ipc_mkdir+0x94>
        /// @todo Is need to return target Inode?
        printf("target Inode existed\n");
    85a8:	e3020880 	movw	r0, #10368	; 0x2880
    85ac:	e3400001 	movt	r0, #1
    85b0:	eb000df2 	bl	bd80 <printf>
        return -1;
    85b4:	e3e03000 	mvn	r3, #0
    85b8:	ea000024 	b	8650 <ipc_do_serve_Ipc_mkdir+0x128>
    }

    char name[DIR_NAME_SIZE] = { 0 };
    85bc:	e24b3020 	sub	r3, fp, #32
    85c0:	e3a02000 	mov	r2, #0
    85c4:	e5832000 	str	r2, [r3]
    85c8:	e5832004 	str	r2, [r3, #4]
    85cc:	e5832008 	str	r2, [r3, #8]
    85d0:	e1c320bc 	strh	r2, [r3, #12]
    if (!(ip = InodeParentSeek(dp, path, name))) {
    85d4:	e24b3020 	sub	r3, fp, #32
    85d8:	e1a02003 	mov	r2, r3
    85dc:	e51b1028 	ldr	r1, [fp, #-40]	; 0xffffffd8
    85e0:	e51b0008 	ldr	r0, [fp, #-8]
    85e4:	eb000bd7 	bl	b548 <InodeParentSeek>
    85e8:	e50b0010 	str	r0, [fp, #-16]
    85ec:	e51b3010 	ldr	r3, [fp, #-16]
    85f0:	e3530000 	cmp	r3, #0
    85f4:	1a000004 	bne	860c <ipc_do_serve_Ipc_mkdir+0xe4>
        /// @todo Is need to return target Inode?
        printf("target parent Inode is not existed\n");
    85f8:	e3020898 	movw	r0, #10392	; 0x2898
    85fc:	e3400001 	movt	r0, #1
    8600:	eb000dde 	bl	bd80 <printf>
        return -1;
    8604:	e3e03000 	mvn	r3, #0
    8608:	ea000010 	b	8650 <ipc_do_serve_Ipc_mkdir+0x128>
    }

    if (InodeCreate(ip, name, T_DIR, 0, 0) == 0) {
    860c:	e24b1020 	sub	r1, fp, #32
    8610:	e3a03000 	mov	r3, #0
    8614:	e58d3000 	str	r3, [sp]
    8618:	e3a03000 	mov	r3, #0
    861c:	e3a02001 	mov	r2, #1
    8620:	e51b0010 	ldr	r0, [fp, #-16]
    8624:	eb000a40 	bl	af2c <InodeCreate>
    8628:	e1a03000 	mov	r3, r0
    862c:	e3530000 	cmp	r3, #0
    8630:	1a000005 	bne	864c <ipc_do_serve_Ipc_mkdir+0x124>
        printf("create target Inode %s failed\n", path);
    8634:	e51b1028 	ldr	r1, [fp, #-40]	; 0xffffffd8
    8638:	e30208bc 	movw	r0, #10428	; 0x28bc
    863c:	e3400001 	movt	r0, #1
    8640:	eb000dce 	bl	bd80 <printf>
        return -1;
    8644:	e3e03000 	mvn	r3, #0
    8648:	ea000000 	b	8650 <ipc_do_serve_Ipc_mkdir+0x128>
    }

    return 0;
    864c:	e3a03000 	mov	r3, #0
}
    8650:	e1a00003 	mov	r0, r3
    8654:	e24bd004 	sub	sp, fp, #4
    8658:	e8bd8800 	pop	{fp, pc}

0000865c <ipc_do_serve_Ipc_delete>:

int IPC_DO_SERVE_FUNC(Ipc_delete)(char* path)
{
    865c:	e92d4800 	push	{fp, lr}
    8660:	e28db004 	add	fp, sp, #4
    8664:	e24dd028 	sub	sp, sp, #40	; 0x28
    8668:	e50b0028 	str	r0, [fp, #-40]	; 0xffffffd8
    struct Inode *dp, *ip;
    if (*path == '/') {
    866c:	e51b3028 	ldr	r3, [fp, #-40]	; 0xffffffd8
    8670:	e5d33000 	ldrb	r3, [r3]
    8674:	e353002f 	cmp	r3, #47	; 0x2f
    8678:	1a000003 	bne	868c <ipc_do_serve_Ipc_delete+0x30>
        dp = InodeGet(ROOT_INUM);
    867c:	e3a00001 	mov	r0, #1
    8680:	eb000936 	bl	ab60 <InodeGet>
    8684:	e50b0008 	str	r0, [fp, #-8]
    8688:	ea00000c 	b	86c0 <ipc_do_serve_Ipc_delete+0x64>
    } else {
        struct CwdPair* cwd = get_session_cwd();
    868c:	ebfffed5 	bl	81e8 <get_session_cwd>
    8690:	e50b000c 	str	r0, [fp, #-12]
        if (!cwd) {
    8694:	e51b300c 	ldr	r3, [fp, #-12]
    8698:	e3530000 	cmp	r3, #0
    869c:	1a000004 	bne	86b4 <ipc_do_serve_Ipc_delete+0x58>
            printf("delete:find current work dir failed\n");
    86a0:	e30208dc 	movw	r0, #10460	; 0x28dc
    86a4:	e3400001 	movt	r0, #1
    86a8:	eb000db4 	bl	bd80 <printf>
            return -1;
    86ac:	e3e03000 	mvn	r3, #0
    86b0:	ea000023 	b	8744 <ipc_do_serve_Ipc_delete+0xe8>
        }
        dp = cwd->Inode;
    86b4:	e51b300c 	ldr	r3, [fp, #-12]
    86b8:	e5933004 	ldr	r3, [r3, #4]
    86bc:	e50b3008 	str	r3, [fp, #-8]
    }

    char name[DIR_NAME_SIZE] = { 0 };
    86c0:	e24b3020 	sub	r3, fp, #32
    86c4:	e3a02000 	mov	r2, #0
    86c8:	e5832000 	str	r2, [r3]
    86cc:	e5832004 	str	r2, [r3, #4]
    86d0:	e5832008 	str	r2, [r3, #8]
    86d4:	e1c320bc 	strh	r2, [r3, #12]
    if (!(ip = InodeParentSeek(dp, path, name))) {
    86d8:	e24b3020 	sub	r3, fp, #32
    86dc:	e1a02003 	mov	r2, r3
    86e0:	e51b1028 	ldr	r1, [fp, #-40]	; 0xffffffd8
    86e4:	e51b0008 	ldr	r0, [fp, #-8]
    86e8:	eb000b96 	bl	b548 <InodeParentSeek>
    86ec:	e50b0010 	str	r0, [fp, #-16]
    86f0:	e51b3010 	ldr	r3, [fp, #-16]
    86f4:	e3530000 	cmp	r3, #0
    86f8:	1a000004 	bne	8710 <ipc_do_serve_Ipc_delete+0xb4>
        printf("delete:target file parent not existed\n");
    86fc:	e3020904 	movw	r0, #10500	; 0x2904
    8700:	e3400001 	movt	r0, #1
    8704:	eb000d9d 	bl	bd80 <printf>
        return -1;
    8708:	e3e03000 	mvn	r3, #0
    870c:	ea00000c 	b	8744 <ipc_do_serve_Ipc_delete+0xe8>
    }

    if (InodeDelete(ip, name) < 0) {
    8710:	e24b3020 	sub	r3, fp, #32
    8714:	e1a01003 	mov	r1, r3
    8718:	e51b0010 	ldr	r0, [fp, #-16]
    871c:	eb0009cf 	bl	ae60 <InodeDelete>
    8720:	e1a03000 	mov	r3, r0
    8724:	e3530000 	cmp	r3, #0
    8728:	aa000004 	bge	8740 <ipc_do_serve_Ipc_delete+0xe4>
        printf("delete:target file not existed\n");
    872c:	e302092c 	movw	r0, #10540	; 0x292c
    8730:	e3400001 	movt	r0, #1
    8734:	eb000d91 	bl	bd80 <printf>
        return -1;
    8738:	e3e03000 	mvn	r3, #0
    873c:	ea000000 	b	8744 <ipc_do_serve_Ipc_delete+0xe8>
    }

    return 0;
    8740:	e3a03000 	mov	r3, #0
}
    8744:	e1a00003 	mov	r0, r3
    8748:	e24bd004 	sub	sp, fp, #4
    874c:	e8bd8800 	pop	{fp, pc}

00008750 <ipc_do_serve_Ipc_cat>:

/// @todo Support malloc for user
int IPC_DO_SERVE_FUNC(Ipc_cat)(char* path)
{
    8750:	e92d4800 	push	{fp, lr}
    8754:	e28db004 	add	fp, sp, #4
    8758:	e24dd018 	sub	sp, sp, #24
    875c:	e50b0018 	str	r0, [fp, #-24]	; 0xffffffe8
    static char buffer[BLOCK_SIZE + 1] = { 0 };
    buffer[BLOCK_SIZE] = '\0';
    8760:	e3053f30 	movw	r3, #24368	; 0x5f30
    8764:	e3403001 	movt	r3, #1
    8768:	e3a02000 	mov	r2, #0
    876c:	e5c32200 	strb	r2, [r3, #512]	; 0x200

    struct Inode *dp, *ip;
    if (*path == '/') {
    8770:	e51b3018 	ldr	r3, [fp, #-24]	; 0xffffffe8
    8774:	e5d33000 	ldrb	r3, [r3]
    8778:	e353002f 	cmp	r3, #47	; 0x2f
    877c:	1a000003 	bne	8790 <ipc_do_serve_Ipc_cat+0x40>
        dp = InodeGet(ROOT_INUM);
    8780:	e3a00001 	mov	r0, #1
    8784:	eb0008f5 	bl	ab60 <InodeGet>
    8788:	e50b0008 	str	r0, [fp, #-8]
    878c:	ea00000c 	b	87c4 <ipc_do_serve_Ipc_cat+0x74>
    } else {
        struct CwdPair* cwd = get_session_cwd();
    8790:	ebfffe94 	bl	81e8 <get_session_cwd>
    8794:	e50b0010 	str	r0, [fp, #-16]
        if (!cwd) {
    8798:	e51b3010 	ldr	r3, [fp, #-16]
    879c:	e3530000 	cmp	r3, #0
    87a0:	1a000004 	bne	87b8 <ipc_do_serve_Ipc_cat+0x68>
            printf("delete:find current work dir failed\n");
    87a4:	e30208dc 	movw	r0, #10460	; 0x28dc
    87a8:	e3400001 	movt	r0, #1
    87ac:	eb000d73 	bl	bd80 <printf>
            return -1;
    87b0:	e3e03000 	mvn	r3, #0
    87b4:	ea000036 	b	8894 <ipc_do_serve_Ipc_cat+0x144>
        }
        dp = cwd->Inode;
    87b8:	e51b3010 	ldr	r3, [fp, #-16]
    87bc:	e5933004 	ldr	r3, [r3, #4]
    87c0:	e50b3008 	str	r3, [fp, #-8]
    }

    if (!(ip = InodeSeek(dp, path))) {
    87c4:	e51b1018 	ldr	r1, [fp, #-24]	; 0xffffffe8
    87c8:	e51b0008 	ldr	r0, [fp, #-8]
    87cc:	eb000b49 	bl	b4f8 <InodeSeek>
    87d0:	e50b0014 	str	r0, [fp, #-20]	; 0xffffffec
    87d4:	e51b3014 	ldr	r3, [fp, #-20]	; 0xffffffec
    87d8:	e3530000 	cmp	r3, #0
    87dc:	1a000004 	bne	87f4 <ipc_do_serve_Ipc_cat+0xa4>
        printf("delete:target file not existed\n");
    87e0:	e302092c 	movw	r0, #10540	; 0x292c
    87e4:	e3400001 	movt	r0, #1
    87e8:	eb000d64 	bl	bd80 <printf>
        return -1;
    87ec:	e3e03000 	mvn	r3, #0
    87f0:	ea000027 	b	8894 <ipc_do_serve_Ipc_cat+0x144>
    }

    if (ip->type != T_FILE) {
    87f4:	e51b3014 	ldr	r3, [fp, #-20]	; 0xffffffec
    87f8:	e1d330f4 	ldrsh	r3, [r3, #4]
    87fc:	e3530002 	cmp	r3, #2
    8800:	0a000005 	beq	881c <ipc_do_serve_Ipc_cat+0xcc>
        printf("cat: %s Is not a file\n", path);
    8804:	e51b1018 	ldr	r1, [fp, #-24]	; 0xffffffe8
    8808:	e302094c 	movw	r0, #10572	; 0x294c
    880c:	e3400001 	movt	r0, #1
    8810:	eb000d5a 	bl	bd80 <printf>
        return -1;
    8814:	e3e03000 	mvn	r3, #0
    8818:	ea00001d 	b	8894 <ipc_do_serve_Ipc_cat+0x144>
    }

    uint32_t off;
    for (off = 0; off < ip->size; off += BLOCK_SIZE) {
    881c:	e3a03000 	mov	r3, #0
    8820:	e50b300c 	str	r3, [fp, #-12]
    8824:	ea000014 	b	887c <ipc_do_serve_Ipc_cat+0x12c>
        if (InodeRead(ip, buffer, off, BLOCK_SIZE) < 0) {
    8828:	e51b200c 	ldr	r2, [fp, #-12]
    882c:	e3a03c02 	mov	r3, #512	; 0x200
    8830:	e3051f30 	movw	r1, #24368	; 0x5f30
    8834:	e3401001 	movt	r1, #1
    8838:	e51b0014 	ldr	r0, [fp, #-20]	; 0xffffffec
    883c:	eb000b50 	bl	b584 <InodeRead>
    8840:	e1a03000 	mov	r3, r0
    8844:	e3530000 	cmp	r3, #0
    8848:	aa000003 	bge	885c <ipc_do_serve_Ipc_cat+0x10c>
            printf("cat: read file data failed\n");
    884c:	e3020964 	movw	r0, #10596	; 0x2964
    8850:	e3400001 	movt	r0, #1
    8854:	eb000d49 	bl	bd80 <printf>
            break;
    8858:	ea00000c 	b	8890 <ipc_do_serve_Ipc_cat+0x140>
        }
        printf("%s", buffer);
    885c:	e3051f30 	movw	r1, #24368	; 0x5f30
    8860:	e3401001 	movt	r1, #1
    8864:	e3020980 	movw	r0, #10624	; 0x2980
    8868:	e3400001 	movt	r0, #1
    886c:	eb000d43 	bl	bd80 <printf>
    for (off = 0; off < ip->size; off += BLOCK_SIZE) {
    8870:	e51b300c 	ldr	r3, [fp, #-12]
    8874:	e2833c02 	add	r3, r3, #512	; 0x200
    8878:	e50b300c 	str	r3, [fp, #-12]
    887c:	e51b3014 	ldr	r3, [fp, #-20]	; 0xffffffec
    8880:	e5932008 	ldr	r2, [r3, #8]
    8884:	e51b300c 	ldr	r3, [fp, #-12]
    8888:	e1520003 	cmp	r2, r3
    888c:	8affffe5 	bhi	8828 <ipc_do_serve_Ipc_cat+0xd8>
    }

    return 0;
    8890:	e3a03000 	mov	r3, #0
}
    8894:	e1a00003 	mov	r0, r3
    8898:	e24bd004 	sub	sp, fp, #4
    889c:	e8bd8800 	pop	{fp, pc}

000088a0 <ipc_do_serve_Ipc_open>:

int IPC_DO_SERVE_FUNC(Ipc_open)(char* path)
{
    88a0:	e92d4810 	push	{r4, fp, lr}
    88a4:	e28db008 	add	fp, sp, #8
    88a8:	e24dd024 	sub	sp, sp, #36	; 0x24
    88ac:	e50b0028 	str	r0, [fp, #-40]	; 0xffffffd8
    // printf("Ipc_open: %s\n", path);
    int fd;
    struct FileDescriptor* fdp;
    fd = AllocFileDescriptor();
    88b0:	eb000c5f 	bl	ba34 <AllocFileDescriptor>
    88b4:	e50b0014 	str	r0, [fp, #-20]	; 0xffffffec
    if (fd < 0) {
    88b8:	e51b3014 	ldr	r3, [fp, #-20]	; 0xffffffec
    88bc:	e3530000 	cmp	r3, #0
    88c0:	aa000004 	bge	88d8 <ipc_do_serve_Ipc_open+0x38>
        printf("open: alloc a new fd failed\n");
    88c4:	e3020984 	movw	r0, #10628	; 0x2984
    88c8:	e3400001 	movt	r0, #1
    88cc:	eb000d2b 	bl	bd80 <printf>
        return -1;
    88d0:	e3e03000 	mvn	r3, #0
    88d4:	ea000039 	b	89c0 <ipc_do_serve_Ipc_open+0x120>
    }
    fdp = GetFileDescriptor(fd);
    88d8:	e51b0014 	ldr	r0, [fp, #-20]	; 0xffffffec
    88dc:	eb000c22 	bl	b96c <GetFileDescriptor>
    88e0:	e50b0018 	str	r0, [fp, #-24]	; 0xffffffe8

    struct Inode *dp, *ip;
    if (*path == '/') {
    88e4:	e51b3028 	ldr	r3, [fp, #-40]	; 0xffffffd8
    88e8:	e5d33000 	ldrb	r3, [r3]
    88ec:	e353002f 	cmp	r3, #47	; 0x2f
    88f0:	1a000003 	bne	8904 <ipc_do_serve_Ipc_open+0x64>
        dp = InodeGet(ROOT_INUM);
    88f4:	e3a00001 	mov	r0, #1
    88f8:	eb000898 	bl	ab60 <InodeGet>
    88fc:	e50b0010 	str	r0, [fp, #-16]
    8900:	ea00000c 	b	8938 <ipc_do_serve_Ipc_open+0x98>
    } else {
        struct CwdPair* cwd = get_session_cwd();
    8904:	ebfffe37 	bl	81e8 <get_session_cwd>
    8908:	e50b001c 	str	r0, [fp, #-28]	; 0xffffffe4
        if (!cwd) {
    890c:	e51b301c 	ldr	r3, [fp, #-28]	; 0xffffffe4
    8910:	e3530000 	cmp	r3, #0
    8914:	1a000004 	bne	892c <ipc_do_serve_Ipc_open+0x8c>
            printf("ls:find current work dir failed\n");
    8918:	e3020798 	movw	r0, #10136	; 0x2798
    891c:	e3400001 	movt	r0, #1
    8920:	eb000d16 	bl	bd80 <printf>
            return -1;
    8924:	e3e03000 	mvn	r3, #0
    8928:	ea000024 	b	89c0 <ipc_do_serve_Ipc_open+0x120>
        }
        dp = cwd->Inode;
    892c:	e51b301c 	ldr	r3, [fp, #-28]	; 0xffffffe4
    8930:	e5933004 	ldr	r3, [r3, #4]
    8934:	e50b3010 	str	r3, [fp, #-16]
    }
    if ((ip = InodeSeek(dp, path)) == NULL) {
    8938:	e51b1028 	ldr	r1, [fp, #-40]	; 0xffffffd8
    893c:	e51b0010 	ldr	r0, [fp, #-16]
    8940:	eb000aec 	bl	b4f8 <InodeSeek>
    8944:	e50b0020 	str	r0, [fp, #-32]	; 0xffffffe0
    8948:	e51b3020 	ldr	r3, [fp, #-32]	; 0xffffffe0
    894c:	e3530000 	cmp	r3, #0
    8950:	1a000005 	bne	896c <ipc_do_serve_Ipc_open+0xcc>
        printf("open: find target Inode failed, path is %s\n", path);
    8954:	e51b1028 	ldr	r1, [fp, #-40]	; 0xffffffd8
    8958:	e30209a4 	movw	r0, #10660	; 0x29a4
    895c:	e3400001 	movt	r0, #1
    8960:	eb000d06 	bl	bd80 <printf>
        return -1;
    8964:	e3e03000 	mvn	r3, #0
    8968:	ea000014 	b	89c0 <ipc_do_serve_Ipc_open+0x120>
    }

    /// @todo record absolute path
    strncpy(fdp->path, path, strlen(path) + 1);
    896c:	e51b4018 	ldr	r4, [fp, #-24]	; 0xffffffe8
    8970:	e51b0028 	ldr	r0, [fp, #-40]	; 0xffffffd8
    8974:	eb001506 	bl	dd94 <strlen>
    8978:	e1a03000 	mov	r3, r0
    897c:	e2833001 	add	r3, r3, #1
    8980:	e1a02003 	mov	r2, r3
    8984:	e51b1028 	ldr	r1, [fp, #-40]	; 0xffffffd8
    8988:	e1a00004 	mov	r0, r4
    898c:	eb00155c 	bl	df04 <strncpy>
    ip->nlink++;
    8990:	e51b3020 	ldr	r3, [fp, #-32]	; 0xffffffe0
    8994:	e1d330f6 	ldrsh	r3, [r3, #6]
    8998:	e6ff3073 	uxth	r3, r3
    899c:	e2833001 	add	r3, r3, #1
    89a0:	e6ff3073 	uxth	r3, r3
    89a4:	e6bf2073 	sxth	r2, r3
    89a8:	e51b3020 	ldr	r3, [fp, #-32]	; 0xffffffe0
    89ac:	e1c320b6 	strh	r2, [r3, #6]
    fdp->data = ip;
    89b0:	e51b3018 	ldr	r3, [fp, #-24]	; 0xffffffe8
    89b4:	e51b2020 	ldr	r2, [fp, #-32]	; 0xffffffe0
    89b8:	e5832080 	str	r2, [r3, #128]	; 0x80

    return fd;
    89bc:	e51b3014 	ldr	r3, [fp, #-20]	; 0xffffffec
}
    89c0:	e1a00003 	mov	r0, r3
    89c4:	e24bd008 	sub	sp, fp, #8
    89c8:	e8bd8810 	pop	{r4, fp, pc}

000089cc <ipc_do_serve_Ipc_close>:

int IPC_DO_SERVE_FUNC(Ipc_close)(int* fd)
{
    89cc:	e92d4800 	push	{fp, lr}
    89d0:	e28db004 	add	fp, sp, #4
    89d4:	e24dd010 	sub	sp, sp, #16
    89d8:	e50b0010 	str	r0, [fp, #-16]
    struct FileDescriptor* fdp = GetFileDescriptor(*fd);
    89dc:	e51b3010 	ldr	r3, [fp, #-16]
    89e0:	e5933000 	ldr	r3, [r3]
    89e4:	e1a00003 	mov	r0, r3
    89e8:	eb000bdf 	bl	b96c <GetFileDescriptor>
    89ec:	e50b0008 	str	r0, [fp, #-8]
    if (!fdp) {
    89f0:	e51b3008 	ldr	r3, [fp, #-8]
    89f4:	e3530000 	cmp	r3, #0
    89f8:	1a000004 	bne	8a10 <ipc_do_serve_Ipc_close+0x44>
        printf("read: fd invalid\n");
    89fc:	e30209d0 	movw	r0, #10704	; 0x29d0
    8a00:	e3400001 	movt	r0, #1
    8a04:	eb000cdd 	bl	bd80 <printf>
        return -1;
    8a08:	e3e03000 	mvn	r3, #0
    8a0c:	ea00000f 	b	8a50 <ipc_do_serve_Ipc_close+0x84>
    }

    struct Inode* ip = fdp->data;
    8a10:	e51b3008 	ldr	r3, [fp, #-8]
    8a14:	e5933080 	ldr	r3, [r3, #128]	; 0x80
    8a18:	e50b300c 	str	r3, [fp, #-12]
    ip->nlink--;
    8a1c:	e51b300c 	ldr	r3, [fp, #-12]
    8a20:	e1d330f6 	ldrsh	r3, [r3, #6]
    8a24:	e6ff3073 	uxth	r3, r3
    8a28:	e2433001 	sub	r3, r3, #1
    8a2c:	e6ff3073 	uxth	r3, r3
    8a30:	e6bf2073 	sxth	r2, r3
    8a34:	e51b300c 	ldr	r3, [fp, #-12]
    8a38:	e1c320b6 	strh	r2, [r3, #6]

    FreeFileDescriptor(*fd);
    8a3c:	e51b3010 	ldr	r3, [fp, #-16]
    8a40:	e5933000 	ldr	r3, [r3]
    8a44:	e1a00003 	mov	r0, r3
    8a48:	eb000bdf 	bl	b9cc <FreeFileDescriptor>
    return 0;
    8a4c:	e3a03000 	mov	r3, #0
}
    8a50:	e1a00003 	mov	r0, r3
    8a54:	e24bd004 	sub	sp, fp, #4
    8a58:	e8bd8800 	pop	{fp, pc}

00008a5c <ipc_do_serve_Ipc_read>:

int IPC_DO_SERVE_FUNC(Ipc_read)(int* fd, char* dst, int* offset, int* len)
{
    8a5c:	e92d4800 	push	{fp, lr}
    8a60:	e28db004 	add	fp, sp, #4
    8a64:	e24dd020 	sub	sp, sp, #32
    8a68:	e50b0018 	str	r0, [fp, #-24]	; 0xffffffe8
    8a6c:	e50b101c 	str	r1, [fp, #-28]	; 0xffffffe4
    8a70:	e50b2020 	str	r2, [fp, #-32]	; 0xffffffe0
    8a74:	e50b3024 	str	r3, [fp, #-36]	; 0xffffffdc
    // printf("Ipc_read, fd is %d, dst: %x, offset: %d, len: %d\n", *fd, dst, *offset, *len);
    struct FileDescriptor* fdp = GetFileDescriptor(*fd);
    8a78:	e51b3018 	ldr	r3, [fp, #-24]	; 0xffffffe8
    8a7c:	e5933000 	ldr	r3, [r3]
    8a80:	e1a00003 	mov	r0, r3
    8a84:	eb000bb8 	bl	b96c <GetFileDescriptor>
    8a88:	e50b0008 	str	r0, [fp, #-8]
    if (!fdp) {
    8a8c:	e51b3008 	ldr	r3, [fp, #-8]
    8a90:	e3530000 	cmp	r3, #0
    8a94:	1a000004 	bne	8aac <ipc_do_serve_Ipc_read+0x50>
        printf("read: fd invalid\n");
    8a98:	e30209d0 	movw	r0, #10704	; 0x29d0
    8a9c:	e3400001 	movt	r0, #1
    8aa0:	eb000cb6 	bl	bd80 <printf>
        return -1;
    8aa4:	e3e03000 	mvn	r3, #0
    8aa8:	ea000017 	b	8b0c <ipc_do_serve_Ipc_read+0xb0>
    }

    struct Inode* ip = fdp->data;
    8aac:	e51b3008 	ldr	r3, [fp, #-8]
    8ab0:	e5933080 	ldr	r3, [r3, #128]	; 0x80
    8ab4:	e50b300c 	str	r3, [fp, #-12]
    if (ip->type != T_FILE) {
    8ab8:	e51b300c 	ldr	r3, [fp, #-12]
    8abc:	e1d330f4 	ldrsh	r3, [r3, #4]
    8ac0:	e3530002 	cmp	r3, #2
    8ac4:	0a000006 	beq	8ae4 <ipc_do_serve_Ipc_read+0x88>
        printf("read: %s Is not a file\n", fdp->path);
    8ac8:	e51b3008 	ldr	r3, [fp, #-8]
    8acc:	e1a01003 	mov	r1, r3
    8ad0:	e30209e4 	movw	r0, #10724	; 0x29e4
    8ad4:	e3400001 	movt	r0, #1
    8ad8:	eb000ca8 	bl	bd80 <printf>
        return -1;
    8adc:	e3e03000 	mvn	r3, #0
    8ae0:	ea000009 	b	8b0c <ipc_do_serve_Ipc_read+0xb0>
    }

    int cur_read_len = InodeRead(ip, dst, *offset, *len);
    8ae4:	e51b3020 	ldr	r3, [fp, #-32]	; 0xffffffe0
    8ae8:	e5932000 	ldr	r2, [r3]
    8aec:	e51b3024 	ldr	r3, [fp, #-36]	; 0xffffffdc
    8af0:	e5933000 	ldr	r3, [r3]
    8af4:	e51b101c 	ldr	r1, [fp, #-28]	; 0xffffffe4
    8af8:	e51b000c 	ldr	r0, [fp, #-12]
    8afc:	eb000aa0 	bl	b584 <InodeRead>
    8b00:	e50b0010 	str	r0, [fp, #-16]

    return *len;
    8b04:	e51b3024 	ldr	r3, [fp, #-36]	; 0xffffffdc
    8b08:	e5933000 	ldr	r3, [r3]
}
    8b0c:	e1a00003 	mov	r0, r3
    8b10:	e24bd004 	sub	sp, fp, #4
    8b14:	e8bd8800 	pop	{fp, pc}

00008b18 <ipc_do_serve_Ipc_write>:

int IPC_DO_SERVE_FUNC(Ipc_write)(int* fd, char* src, int* offset, int* len)
{
    8b18:	e92d4800 	push	{fp, lr}
    8b1c:	e28db004 	add	fp, sp, #4
    8b20:	e24dd020 	sub	sp, sp, #32
    8b24:	e50b0018 	str	r0, [fp, #-24]	; 0xffffffe8
    8b28:	e50b101c 	str	r1, [fp, #-28]	; 0xffffffe4
    8b2c:	e50b2020 	str	r2, [fp, #-32]	; 0xffffffe0
    8b30:	e50b3024 	str	r3, [fp, #-36]	; 0xffffffdc
    // printf("Ipc_write, fd is %d\n", *fd);
    struct FileDescriptor* fdp = GetFileDescriptor(*fd);
    8b34:	e51b3018 	ldr	r3, [fp, #-24]	; 0xffffffe8
    8b38:	e5933000 	ldr	r3, [r3]
    8b3c:	e1a00003 	mov	r0, r3
    8b40:	eb000b89 	bl	b96c <GetFileDescriptor>
    8b44:	e50b0008 	str	r0, [fp, #-8]
    if (!fdp) {
    8b48:	e51b3008 	ldr	r3, [fp, #-8]
    8b4c:	e3530000 	cmp	r3, #0
    8b50:	1a000004 	bne	8b68 <ipc_do_serve_Ipc_write+0x50>
        printf("read: fd invalid\n");
    8b54:	e30209d0 	movw	r0, #10704	; 0x29d0
    8b58:	e3400001 	movt	r0, #1
    8b5c:	eb000c87 	bl	bd80 <printf>
        return -1;
    8b60:	e3e03000 	mvn	r3, #0
    8b64:	ea000017 	b	8bc8 <ipc_do_serve_Ipc_write+0xb0>
    }

    struct Inode* ip = fdp->data;
    8b68:	e51b3008 	ldr	r3, [fp, #-8]
    8b6c:	e5933080 	ldr	r3, [r3, #128]	; 0x80
    8b70:	e50b300c 	str	r3, [fp, #-12]
    if (ip->type != T_FILE) {
    8b74:	e51b300c 	ldr	r3, [fp, #-12]
    8b78:	e1d330f4 	ldrsh	r3, [r3, #4]
    8b7c:	e3530002 	cmp	r3, #2
    8b80:	0a000006 	beq	8ba0 <ipc_do_serve_Ipc_write+0x88>
        printf("read: %s Is not a file\n", fdp->path);
    8b84:	e51b3008 	ldr	r3, [fp, #-8]
    8b88:	e1a01003 	mov	r1, r3
    8b8c:	e30209e4 	movw	r0, #10724	; 0x29e4
    8b90:	e3400001 	movt	r0, #1
    8b94:	eb000c79 	bl	bd80 <printf>
        return -1;
    8b98:	e3e03000 	mvn	r3, #0
    8b9c:	ea000009 	b	8bc8 <ipc_do_serve_Ipc_write+0xb0>
    }

    int cur_write_len = InodeWrite(ip, src, *offset, *len);
    8ba0:	e51b3020 	ldr	r3, [fp, #-32]	; 0xffffffe0
    8ba4:	e5933000 	ldr	r3, [r3]
    8ba8:	e1a02003 	mov	r2, r3
    8bac:	e51b3024 	ldr	r3, [fp, #-36]	; 0xffffffdc
    8bb0:	e5933000 	ldr	r3, [r3]
    8bb4:	e51b101c 	ldr	r1, [fp, #-28]	; 0xffffffe4
    8bb8:	e51b000c 	ldr	r0, [fp, #-12]
    8bbc:	eb000ad0 	bl	b704 <InodeWrite>
    8bc0:	e50b0010 	str	r0, [fp, #-16]

    return cur_write_len;
    8bc4:	e51b3010 	ldr	r3, [fp, #-16]
}
    8bc8:	e1a00003 	mov	r0, r3
    8bcc:	e24bd004 	sub	sp, fp, #4
    8bd0:	e8bd8800 	pop	{fp, pc}

00008bd4 <ipc_serve_Ipc_ls>:

IPC_SERVER_INTERFACE(Ipc_ls, 1);
    8bd4:	e92d4800 	push	{fp, lr}
    8bd8:	e28db004 	add	fp, sp, #4
    8bdc:	e24dd028 	sub	sp, sp, #40	; 0x28
    8be0:	e50b0028 	str	r0, [fp, #-40]	; 0xffffffd8
    8be4:	e3a03000 	mov	r3, #0
    8be8:	e50b3008 	str	r3, [fp, #-8]
    8bec:	ea000014 	b	8c44 <ipc_serve_Ipc_ls+0x70>
    8bf0:	e51b3028 	ldr	r3, [fp, #-40]	; 0xffffffd8
    8bf4:	e50b300c 	str	r3, [fp, #-12]
    8bf8:	e51b3008 	ldr	r3, [fp, #-8]
    8bfc:	e50b3010 	str	r3, [fp, #-16]
/// @param msg
/// @param arg_num start with 0 for first arg
/// @return
__attribute__((__always_inline__)) static inline void* ipc_msg_get_nth_arg_buf(struct IpcMsg* msg, int arg_num)
{
    return (void*)((char*)msg + IPCMSG_ARG_INFO(msg, arg_num)->offset);
    8c00:	e51b3010 	ldr	r3, [fp, #-16]
    8c04:	e2833003 	add	r3, r3, #3
    8c08:	e1a03103 	lsl	r3, r3, #2
    8c0c:	e51b200c 	ldr	r2, [fp, #-12]
    8c10:	e0823003 	add	r3, r2, r3
    8c14:	e1d330b0 	ldrh	r3, [r3]
    8c18:	e1a02003 	mov	r2, r3
    8c1c:	e51b300c 	ldr	r3, [fp, #-12]
    8c20:	e0832002 	add	r2, r3, r2
    8c24:	e51b3008 	ldr	r3, [fp, #-8]
    8c28:	e1a03103 	lsl	r3, r3, #2
    8c2c:	e24b1004 	sub	r1, fp, #4
    8c30:	e0813003 	add	r3, r1, r3
    8c34:	e5032018 	str	r2, [r3, #-24]	; 0xffffffe8
    8c38:	e51b3008 	ldr	r3, [fp, #-8]
    8c3c:	e2833001 	add	r3, r3, #1
    8c40:	e50b3008 	str	r3, [fp, #-8]
    8c44:	e51b3008 	ldr	r3, [fp, #-8]
    8c48:	e3530000 	cmp	r3, #0
    8c4c:	daffffe7 	ble	8bf0 <ipc_serve_Ipc_ls+0x1c>
    8c50:	e51b301c 	ldr	r3, [fp, #-28]	; 0xffffffe4
    8c54:	e1a00003 	mov	r0, r3
    8c58:	ebfffda8 	bl	8300 <ipc_do_serve_Ipc_ls>
    8c5c:	e1a03000 	mov	r3, r0
    8c60:	e50b3020 	str	r3, [fp, #-32]	; 0xffffffe0
    8c64:	e51b3028 	ldr	r3, [fp, #-40]	; 0xffffffd8
    8c68:	e50b3014 	str	r3, [fp, #-20]	; 0xffffffec
    8c6c:	e24b3020 	sub	r3, fp, #32
    8c70:	e50b3018 	str	r3, [fp, #-24]	; 0xffffffe8
/// @brief set return val of ipc call after serve, used by server
/// @param msg
/// @param ret_val
__attribute__((__always_inline__)) static inline void ipc_msg_set_return(struct IpcMsg* msg, int32_t* ret_val)
{
    assert(msg->header.valid == 1);
    8c74:	e51b3014 	ldr	r3, [fp, #-20]	; 0xffffffec
    8c78:	e5d33000 	ldrb	r3, [r3]
    8c7c:	e2033001 	and	r3, r3, #1
    8c80:	e6ef3073 	uxtb	r3, r3
    8c84:	e3530000 	cmp	r3, #0
    8c88:	1a000007 	bne	8cac <ipc_serve_Ipc_ls+0xd8>
    8c8c:	e30239fc 	movw	r3, #10748	; 0x29fc
    8c90:	e3403001 	movt	r3, #1
    8c94:	e3022aa0 	movw	r2, #10912	; 0x2aa0
    8c98:	e3402001 	movt	r2, #1
    8c9c:	e3a0107e 	mov	r1, #126	; 0x7e
    8ca0:	e3020a14 	movw	r0, #10772	; 0x2a14
    8ca4:	e3400001 	movt	r0, #1
    8ca8:	eb001280 	bl	d6b0 <__assert_func>
    memcpy(&msg->header.ret_val, ret_val, sizeof(msg->header.ret_val));
    8cac:	e51b3014 	ldr	r3, [fp, #-20]	; 0xffffffec
    8cb0:	e2833008 	add	r3, r3, #8
    8cb4:	e3a02004 	mov	r2, #4
    8cb8:	e51b1018 	ldr	r1, [fp, #-24]	; 0xffffffe8
    8cbc:	e1a00003 	mov	r0, r3
    8cc0:	eb0012ce 	bl	d800 <memcpy>
    8cc4:	e51b2028 	ldr	r2, [fp, #-40]	; 0xffffffd8
    8cc8:	e5d23000 	ldrb	r3, [r2]
    8ccc:	e3833002 	orr	r3, r3, #2
    8cd0:	e5c23000 	strb	r3, [r2]
    8cd4:	e3a03000 	mov	r3, #0
    8cd8:	e1a00003 	mov	r0, r3
    8cdc:	e24bd004 	sub	sp, fp, #4
    8ce0:	e8bd8800 	pop	{fp, pc}

00008ce4 <ipc_serve_Ipc_cd>:
IPC_SERVER_INTERFACE(Ipc_cd, 1);
    8ce4:	e92d4800 	push	{fp, lr}
    8ce8:	e28db004 	add	fp, sp, #4
    8cec:	e24dd028 	sub	sp, sp, #40	; 0x28
    8cf0:	e50b0028 	str	r0, [fp, #-40]	; 0xffffffd8
    8cf4:	e3a03000 	mov	r3, #0
    8cf8:	e50b3008 	str	r3, [fp, #-8]
    8cfc:	ea000014 	b	8d54 <ipc_serve_Ipc_cd+0x70>
    8d00:	e51b3028 	ldr	r3, [fp, #-40]	; 0xffffffd8
    8d04:	e50b300c 	str	r3, [fp, #-12]
    8d08:	e51b3008 	ldr	r3, [fp, #-8]
    8d0c:	e50b3010 	str	r3, [fp, #-16]
    return (void*)((char*)msg + IPCMSG_ARG_INFO(msg, arg_num)->offset);
    8d10:	e51b3010 	ldr	r3, [fp, #-16]
    8d14:	e2833003 	add	r3, r3, #3
    8d18:	e1a03103 	lsl	r3, r3, #2
    8d1c:	e51b200c 	ldr	r2, [fp, #-12]
    8d20:	e0823003 	add	r3, r2, r3
    8d24:	e1d330b0 	ldrh	r3, [r3]
    8d28:	e1a02003 	mov	r2, r3
    8d2c:	e51b300c 	ldr	r3, [fp, #-12]
    8d30:	e0832002 	add	r2, r3, r2
    8d34:	e51b3008 	ldr	r3, [fp, #-8]
    8d38:	e1a03103 	lsl	r3, r3, #2
    8d3c:	e24b1004 	sub	r1, fp, #4
    8d40:	e0813003 	add	r3, r1, r3
    8d44:	e5032018 	str	r2, [r3, #-24]	; 0xffffffe8
    8d48:	e51b3008 	ldr	r3, [fp, #-8]
    8d4c:	e2833001 	add	r3, r3, #1
    8d50:	e50b3008 	str	r3, [fp, #-8]
    8d54:	e51b3008 	ldr	r3, [fp, #-8]
    8d58:	e3530000 	cmp	r3, #0
    8d5c:	daffffe7 	ble	8d00 <ipc_serve_Ipc_cd+0x1c>
    8d60:	e51b301c 	ldr	r3, [fp, #-28]	; 0xffffffe4
    8d64:	e1a00003 	mov	r0, r3
    8d68:	ebfffdb9 	bl	8454 <ipc_do_serve_Ipc_cd>
    8d6c:	e1a03000 	mov	r3, r0
    8d70:	e50b3020 	str	r3, [fp, #-32]	; 0xffffffe0
    8d74:	e51b3028 	ldr	r3, [fp, #-40]	; 0xffffffd8
    8d78:	e50b3014 	str	r3, [fp, #-20]	; 0xffffffec
    8d7c:	e24b3020 	sub	r3, fp, #32
    8d80:	e50b3018 	str	r3, [fp, #-24]	; 0xffffffe8
    assert(msg->header.valid == 1);
    8d84:	e51b3014 	ldr	r3, [fp, #-20]	; 0xffffffec
    8d88:	e5d33000 	ldrb	r3, [r3]
    8d8c:	e2033001 	and	r3, r3, #1
    8d90:	e6ef3073 	uxtb	r3, r3
    8d94:	e3530000 	cmp	r3, #0
    8d98:	1a000007 	bne	8dbc <ipc_serve_Ipc_cd+0xd8>
    8d9c:	e30239fc 	movw	r3, #10748	; 0x29fc
    8da0:	e3403001 	movt	r3, #1
    8da4:	e3022aa0 	movw	r2, #10912	; 0x2aa0
    8da8:	e3402001 	movt	r2, #1
    8dac:	e3a0107e 	mov	r1, #126	; 0x7e
    8db0:	e3020a14 	movw	r0, #10772	; 0x2a14
    8db4:	e3400001 	movt	r0, #1
    8db8:	eb00123c 	bl	d6b0 <__assert_func>
    memcpy(&msg->header.ret_val, ret_val, sizeof(msg->header.ret_val));
    8dbc:	e51b3014 	ldr	r3, [fp, #-20]	; 0xffffffec
    8dc0:	e2833008 	add	r3, r3, #8
    8dc4:	e3a02004 	mov	r2, #4
    8dc8:	e51b1018 	ldr	r1, [fp, #-24]	; 0xffffffe8
    8dcc:	e1a00003 	mov	r0, r3
    8dd0:	eb00128a 	bl	d800 <memcpy>
    8dd4:	e51b2028 	ldr	r2, [fp, #-40]	; 0xffffffd8
    8dd8:	e5d23000 	ldrb	r3, [r2]
    8ddc:	e3833002 	orr	r3, r3, #2
    8de0:	e5c23000 	strb	r3, [r2]
    8de4:	e3a03000 	mov	r3, #0
    8de8:	e1a00003 	mov	r0, r3
    8dec:	e24bd004 	sub	sp, fp, #4
    8df0:	e8bd8800 	pop	{fp, pc}

00008df4 <ipc_serve_Ipc_mkdir>:
IPC_SERVER_INTERFACE(Ipc_mkdir, 1);
    8df4:	e92d4800 	push	{fp, lr}
    8df8:	e28db004 	add	fp, sp, #4
    8dfc:	e24dd028 	sub	sp, sp, #40	; 0x28
    8e00:	e50b0028 	str	r0, [fp, #-40]	; 0xffffffd8
    8e04:	e3a03000 	mov	r3, #0
    8e08:	e50b3008 	str	r3, [fp, #-8]
    8e0c:	ea000014 	b	8e64 <ipc_serve_Ipc_mkdir+0x70>
    8e10:	e51b3028 	ldr	r3, [fp, #-40]	; 0xffffffd8
    8e14:	e50b300c 	str	r3, [fp, #-12]
    8e18:	e51b3008 	ldr	r3, [fp, #-8]
    8e1c:	e50b3010 	str	r3, [fp, #-16]
    return (void*)((char*)msg + IPCMSG_ARG_INFO(msg, arg_num)->offset);
    8e20:	e51b3010 	ldr	r3, [fp, #-16]
    8e24:	e2833003 	add	r3, r3, #3
    8e28:	e1a03103 	lsl	r3, r3, #2
    8e2c:	e51b200c 	ldr	r2, [fp, #-12]
    8e30:	e0823003 	add	r3, r2, r3
    8e34:	e1d330b0 	ldrh	r3, [r3]
    8e38:	e1a02003 	mov	r2, r3
    8e3c:	e51b300c 	ldr	r3, [fp, #-12]
    8e40:	e0832002 	add	r2, r3, r2
    8e44:	e51b3008 	ldr	r3, [fp, #-8]
    8e48:	e1a03103 	lsl	r3, r3, #2
    8e4c:	e24b1004 	sub	r1, fp, #4
    8e50:	e0813003 	add	r3, r1, r3
    8e54:	e5032018 	str	r2, [r3, #-24]	; 0xffffffe8
    8e58:	e51b3008 	ldr	r3, [fp, #-8]
    8e5c:	e2833001 	add	r3, r3, #1
    8e60:	e50b3008 	str	r3, [fp, #-8]
    8e64:	e51b3008 	ldr	r3, [fp, #-8]
    8e68:	e3530000 	cmp	r3, #0
    8e6c:	daffffe7 	ble	8e10 <ipc_serve_Ipc_mkdir+0x1c>
    8e70:	e51b301c 	ldr	r3, [fp, #-28]	; 0xffffffe4
    8e74:	e1a00003 	mov	r0, r3
    8e78:	ebfffdaa 	bl	8528 <ipc_do_serve_Ipc_mkdir>
    8e7c:	e1a03000 	mov	r3, r0
    8e80:	e50b3020 	str	r3, [fp, #-32]	; 0xffffffe0
    8e84:	e51b3028 	ldr	r3, [fp, #-40]	; 0xffffffd8
    8e88:	e50b3014 	str	r3, [fp, #-20]	; 0xffffffec
    8e8c:	e24b3020 	sub	r3, fp, #32
    8e90:	e50b3018 	str	r3, [fp, #-24]	; 0xffffffe8
    assert(msg->header.valid == 1);
    8e94:	e51b3014 	ldr	r3, [fp, #-20]	; 0xffffffec
    8e98:	e5d33000 	ldrb	r3, [r3]
    8e9c:	e2033001 	and	r3, r3, #1
    8ea0:	e6ef3073 	uxtb	r3, r3
    8ea4:	e3530000 	cmp	r3, #0
    8ea8:	1a000007 	bne	8ecc <ipc_serve_Ipc_mkdir+0xd8>
    8eac:	e30239fc 	movw	r3, #10748	; 0x29fc
    8eb0:	e3403001 	movt	r3, #1
    8eb4:	e3022aa0 	movw	r2, #10912	; 0x2aa0
    8eb8:	e3402001 	movt	r2, #1
    8ebc:	e3a0107e 	mov	r1, #126	; 0x7e
    8ec0:	e3020a14 	movw	r0, #10772	; 0x2a14
    8ec4:	e3400001 	movt	r0, #1
    8ec8:	eb0011f8 	bl	d6b0 <__assert_func>
    memcpy(&msg->header.ret_val, ret_val, sizeof(msg->header.ret_val));
    8ecc:	e51b3014 	ldr	r3, [fp, #-20]	; 0xffffffec
    8ed0:	e2833008 	add	r3, r3, #8
    8ed4:	e3a02004 	mov	r2, #4
    8ed8:	e51b1018 	ldr	r1, [fp, #-24]	; 0xffffffe8
    8edc:	e1a00003 	mov	r0, r3
    8ee0:	eb001246 	bl	d800 <memcpy>
    8ee4:	e51b2028 	ldr	r2, [fp, #-40]	; 0xffffffd8
    8ee8:	e5d23000 	ldrb	r3, [r2]
    8eec:	e3833002 	orr	r3, r3, #2
    8ef0:	e5c23000 	strb	r3, [r2]
    8ef4:	e3a03000 	mov	r3, #0
    8ef8:	e1a00003 	mov	r0, r3
    8efc:	e24bd004 	sub	sp, fp, #4
    8f00:	e8bd8800 	pop	{fp, pc}

00008f04 <ipc_serve_Ipc_delete>:
IPC_SERVER_INTERFACE(Ipc_delete, 1);
    8f04:	e92d4800 	push	{fp, lr}
    8f08:	e28db004 	add	fp, sp, #4
    8f0c:	e24dd028 	sub	sp, sp, #40	; 0x28
    8f10:	e50b0028 	str	r0, [fp, #-40]	; 0xffffffd8
    8f14:	e3a03000 	mov	r3, #0
    8f18:	e50b3008 	str	r3, [fp, #-8]
    8f1c:	ea000014 	b	8f74 <ipc_serve_Ipc_delete+0x70>
    8f20:	e51b3028 	ldr	r3, [fp, #-40]	; 0xffffffd8
    8f24:	e50b300c 	str	r3, [fp, #-12]
    8f28:	e51b3008 	ldr	r3, [fp, #-8]
    8f2c:	e50b3010 	str	r3, [fp, #-16]
    return (void*)((char*)msg + IPCMSG_ARG_INFO(msg, arg_num)->offset);
    8f30:	e51b3010 	ldr	r3, [fp, #-16]
    8f34:	e2833003 	add	r3, r3, #3
    8f38:	e1a03103 	lsl	r3, r3, #2
    8f3c:	e51b200c 	ldr	r2, [fp, #-12]
    8f40:	e0823003 	add	r3, r2, r3
    8f44:	e1d330b0 	ldrh	r3, [r3]
    8f48:	e1a02003 	mov	r2, r3
    8f4c:	e51b300c 	ldr	r3, [fp, #-12]
    8f50:	e0832002 	add	r2, r3, r2
    8f54:	e51b3008 	ldr	r3, [fp, #-8]
    8f58:	e1a03103 	lsl	r3, r3, #2
    8f5c:	e24b1004 	sub	r1, fp, #4
    8f60:	e0813003 	add	r3, r1, r3
    8f64:	e5032018 	str	r2, [r3, #-24]	; 0xffffffe8
    8f68:	e51b3008 	ldr	r3, [fp, #-8]
    8f6c:	e2833001 	add	r3, r3, #1
    8f70:	e50b3008 	str	r3, [fp, #-8]
    8f74:	e51b3008 	ldr	r3, [fp, #-8]
    8f78:	e3530000 	cmp	r3, #0
    8f7c:	daffffe7 	ble	8f20 <ipc_serve_Ipc_delete+0x1c>
    8f80:	e51b301c 	ldr	r3, [fp, #-28]	; 0xffffffe4
    8f84:	e1a00003 	mov	r0, r3
    8f88:	ebfffdb3 	bl	865c <ipc_do_serve_Ipc_delete>
    8f8c:	e1a03000 	mov	r3, r0
    8f90:	e50b3020 	str	r3, [fp, #-32]	; 0xffffffe0
    8f94:	e51b3028 	ldr	r3, [fp, #-40]	; 0xffffffd8
    8f98:	e50b3014 	str	r3, [fp, #-20]	; 0xffffffec
    8f9c:	e24b3020 	sub	r3, fp, #32
    8fa0:	e50b3018 	str	r3, [fp, #-24]	; 0xffffffe8
    assert(msg->header.valid == 1);
    8fa4:	e51b3014 	ldr	r3, [fp, #-20]	; 0xffffffec
    8fa8:	e5d33000 	ldrb	r3, [r3]
    8fac:	e2033001 	and	r3, r3, #1
    8fb0:	e6ef3073 	uxtb	r3, r3
    8fb4:	e3530000 	cmp	r3, #0
    8fb8:	1a000007 	bne	8fdc <ipc_serve_Ipc_delete+0xd8>
    8fbc:	e30239fc 	movw	r3, #10748	; 0x29fc
    8fc0:	e3403001 	movt	r3, #1
    8fc4:	e3022aa0 	movw	r2, #10912	; 0x2aa0
    8fc8:	e3402001 	movt	r2, #1
    8fcc:	e3a0107e 	mov	r1, #126	; 0x7e
    8fd0:	e3020a14 	movw	r0, #10772	; 0x2a14
    8fd4:	e3400001 	movt	r0, #1
    8fd8:	eb0011b4 	bl	d6b0 <__assert_func>
    memcpy(&msg->header.ret_val, ret_val, sizeof(msg->header.ret_val));
    8fdc:	e51b3014 	ldr	r3, [fp, #-20]	; 0xffffffec
    8fe0:	e2833008 	add	r3, r3, #8
    8fe4:	e3a02004 	mov	r2, #4
    8fe8:	e51b1018 	ldr	r1, [fp, #-24]	; 0xffffffe8
    8fec:	e1a00003 	mov	r0, r3
    8ff0:	eb001202 	bl	d800 <memcpy>
    8ff4:	e51b2028 	ldr	r2, [fp, #-40]	; 0xffffffd8
    8ff8:	e5d23000 	ldrb	r3, [r2]
    8ffc:	e3833002 	orr	r3, r3, #2
    9000:	e5c23000 	strb	r3, [r2]
    9004:	e3a03000 	mov	r3, #0
    9008:	e1a00003 	mov	r0, r3
    900c:	e24bd004 	sub	sp, fp, #4
    9010:	e8bd8800 	pop	{fp, pc}

00009014 <ipc_serve_Ipc_cat>:
IPC_SERVER_INTERFACE(Ipc_cat, 1);
    9014:	e92d4800 	push	{fp, lr}
    9018:	e28db004 	add	fp, sp, #4
    901c:	e24dd028 	sub	sp, sp, #40	; 0x28
    9020:	e50b0028 	str	r0, [fp, #-40]	; 0xffffffd8
    9024:	e3a03000 	mov	r3, #0
    9028:	e50b3008 	str	r3, [fp, #-8]
    902c:	ea000014 	b	9084 <ipc_serve_Ipc_cat+0x70>
    9030:	e51b3028 	ldr	r3, [fp, #-40]	; 0xffffffd8
    9034:	e50b300c 	str	r3, [fp, #-12]
    9038:	e51b3008 	ldr	r3, [fp, #-8]
    903c:	e50b3010 	str	r3, [fp, #-16]
    return (void*)((char*)msg + IPCMSG_ARG_INFO(msg, arg_num)->offset);
    9040:	e51b3010 	ldr	r3, [fp, #-16]
    9044:	e2833003 	add	r3, r3, #3
    9048:	e1a03103 	lsl	r3, r3, #2
    904c:	e51b200c 	ldr	r2, [fp, #-12]
    9050:	e0823003 	add	r3, r2, r3
    9054:	e1d330b0 	ldrh	r3, [r3]
    9058:	e1a02003 	mov	r2, r3
    905c:	e51b300c 	ldr	r3, [fp, #-12]
    9060:	e0832002 	add	r2, r3, r2
    9064:	e51b3008 	ldr	r3, [fp, #-8]
    9068:	e1a03103 	lsl	r3, r3, #2
    906c:	e24b1004 	sub	r1, fp, #4
    9070:	e0813003 	add	r3, r1, r3
    9074:	e5032018 	str	r2, [r3, #-24]	; 0xffffffe8
    9078:	e51b3008 	ldr	r3, [fp, #-8]
    907c:	e2833001 	add	r3, r3, #1
    9080:	e50b3008 	str	r3, [fp, #-8]
    9084:	e51b3008 	ldr	r3, [fp, #-8]
    9088:	e3530000 	cmp	r3, #0
    908c:	daffffe7 	ble	9030 <ipc_serve_Ipc_cat+0x1c>
    9090:	e51b301c 	ldr	r3, [fp, #-28]	; 0xffffffe4
    9094:	e1a00003 	mov	r0, r3
    9098:	ebfffdac 	bl	8750 <ipc_do_serve_Ipc_cat>
    909c:	e1a03000 	mov	r3, r0
    90a0:	e50b3020 	str	r3, [fp, #-32]	; 0xffffffe0
    90a4:	e51b3028 	ldr	r3, [fp, #-40]	; 0xffffffd8
    90a8:	e50b3014 	str	r3, [fp, #-20]	; 0xffffffec
    90ac:	e24b3020 	sub	r3, fp, #32
    90b0:	e50b3018 	str	r3, [fp, #-24]	; 0xffffffe8
    assert(msg->header.valid == 1);
    90b4:	e51b3014 	ldr	r3, [fp, #-20]	; 0xffffffec
    90b8:	e5d33000 	ldrb	r3, [r3]
    90bc:	e2033001 	and	r3, r3, #1
    90c0:	e6ef3073 	uxtb	r3, r3
    90c4:	e3530000 	cmp	r3, #0
    90c8:	1a000007 	bne	90ec <ipc_serve_Ipc_cat+0xd8>
    90cc:	e30239fc 	movw	r3, #10748	; 0x29fc
    90d0:	e3403001 	movt	r3, #1
    90d4:	e3022aa0 	movw	r2, #10912	; 0x2aa0
    90d8:	e3402001 	movt	r2, #1
    90dc:	e3a0107e 	mov	r1, #126	; 0x7e
    90e0:	e3020a14 	movw	r0, #10772	; 0x2a14
    90e4:	e3400001 	movt	r0, #1
    90e8:	eb001170 	bl	d6b0 <__assert_func>
    memcpy(&msg->header.ret_val, ret_val, sizeof(msg->header.ret_val));
    90ec:	e51b3014 	ldr	r3, [fp, #-20]	; 0xffffffec
    90f0:	e2833008 	add	r3, r3, #8
    90f4:	e3a02004 	mov	r2, #4
    90f8:	e51b1018 	ldr	r1, [fp, #-24]	; 0xffffffe8
    90fc:	e1a00003 	mov	r0, r3
    9100:	eb0011be 	bl	d800 <memcpy>
    9104:	e51b2028 	ldr	r2, [fp, #-40]	; 0xffffffd8
    9108:	e5d23000 	ldrb	r3, [r2]
    910c:	e3833002 	orr	r3, r3, #2
    9110:	e5c23000 	strb	r3, [r2]
    9114:	e3a03000 	mov	r3, #0
    9118:	e1a00003 	mov	r0, r3
    911c:	e24bd004 	sub	sp, fp, #4
    9120:	e8bd8800 	pop	{fp, pc}

00009124 <ipc_serve_Ipc_open>:

IPC_SERVER_INTERFACE(Ipc_open, 1);
    9124:	e92d4800 	push	{fp, lr}
    9128:	e28db004 	add	fp, sp, #4
    912c:	e24dd028 	sub	sp, sp, #40	; 0x28
    9130:	e50b0028 	str	r0, [fp, #-40]	; 0xffffffd8
    9134:	e3a03000 	mov	r3, #0
    9138:	e50b3008 	str	r3, [fp, #-8]
    913c:	ea000014 	b	9194 <ipc_serve_Ipc_open+0x70>
    9140:	e51b3028 	ldr	r3, [fp, #-40]	; 0xffffffd8
    9144:	e50b300c 	str	r3, [fp, #-12]
    9148:	e51b3008 	ldr	r3, [fp, #-8]
    914c:	e50b3010 	str	r3, [fp, #-16]
    return (void*)((char*)msg + IPCMSG_ARG_INFO(msg, arg_num)->offset);
    9150:	e51b3010 	ldr	r3, [fp, #-16]
    9154:	e2833003 	add	r3, r3, #3
    9158:	e1a03103 	lsl	r3, r3, #2
    915c:	e51b200c 	ldr	r2, [fp, #-12]
    9160:	e0823003 	add	r3, r2, r3
    9164:	e1d330b0 	ldrh	r3, [r3]
    9168:	e1a02003 	mov	r2, r3
    916c:	e51b300c 	ldr	r3, [fp, #-12]
    9170:	e0832002 	add	r2, r3, r2
    9174:	e51b3008 	ldr	r3, [fp, #-8]
    9178:	e1a03103 	lsl	r3, r3, #2
    917c:	e24b1004 	sub	r1, fp, #4
    9180:	e0813003 	add	r3, r1, r3
    9184:	e5032018 	str	r2, [r3, #-24]	; 0xffffffe8
    9188:	e51b3008 	ldr	r3, [fp, #-8]
    918c:	e2833001 	add	r3, r3, #1
    9190:	e50b3008 	str	r3, [fp, #-8]
    9194:	e51b3008 	ldr	r3, [fp, #-8]
    9198:	e3530000 	cmp	r3, #0
    919c:	daffffe7 	ble	9140 <ipc_serve_Ipc_open+0x1c>
    91a0:	e51b301c 	ldr	r3, [fp, #-28]	; 0xffffffe4
    91a4:	e1a00003 	mov	r0, r3
    91a8:	ebfffdbc 	bl	88a0 <ipc_do_serve_Ipc_open>
    91ac:	e1a03000 	mov	r3, r0
    91b0:	e50b3020 	str	r3, [fp, #-32]	; 0xffffffe0
    91b4:	e51b3028 	ldr	r3, [fp, #-40]	; 0xffffffd8
    91b8:	e50b3014 	str	r3, [fp, #-20]	; 0xffffffec
    91bc:	e24b3020 	sub	r3, fp, #32
    91c0:	e50b3018 	str	r3, [fp, #-24]	; 0xffffffe8
    assert(msg->header.valid == 1);
    91c4:	e51b3014 	ldr	r3, [fp, #-20]	; 0xffffffec
    91c8:	e5d33000 	ldrb	r3, [r3]
    91cc:	e2033001 	and	r3, r3, #1
    91d0:	e6ef3073 	uxtb	r3, r3
    91d4:	e3530000 	cmp	r3, #0
    91d8:	1a000007 	bne	91fc <ipc_serve_Ipc_open+0xd8>
    91dc:	e30239fc 	movw	r3, #10748	; 0x29fc
    91e0:	e3403001 	movt	r3, #1
    91e4:	e3022aa0 	movw	r2, #10912	; 0x2aa0
    91e8:	e3402001 	movt	r2, #1
    91ec:	e3a0107e 	mov	r1, #126	; 0x7e
    91f0:	e3020a14 	movw	r0, #10772	; 0x2a14
    91f4:	e3400001 	movt	r0, #1
    91f8:	eb00112c 	bl	d6b0 <__assert_func>
    memcpy(&msg->header.ret_val, ret_val, sizeof(msg->header.ret_val));
    91fc:	e51b3014 	ldr	r3, [fp, #-20]	; 0xffffffec
    9200:	e2833008 	add	r3, r3, #8
    9204:	e3a02004 	mov	r2, #4
    9208:	e51b1018 	ldr	r1, [fp, #-24]	; 0xffffffe8
    920c:	e1a00003 	mov	r0, r3
    9210:	eb00117a 	bl	d800 <memcpy>
    9214:	e51b2028 	ldr	r2, [fp, #-40]	; 0xffffffd8
    9218:	e5d23000 	ldrb	r3, [r2]
    921c:	e3833002 	orr	r3, r3, #2
    9220:	e5c23000 	strb	r3, [r2]
    9224:	e3a03000 	mov	r3, #0
    9228:	e1a00003 	mov	r0, r3
    922c:	e24bd004 	sub	sp, fp, #4
    9230:	e8bd8800 	pop	{fp, pc}

00009234 <ipc_serve_Ipc_close>:
IPC_SERVER_INTERFACE(Ipc_close, 1);
    9234:	e92d4800 	push	{fp, lr}
    9238:	e28db004 	add	fp, sp, #4
    923c:	e24dd028 	sub	sp, sp, #40	; 0x28
    9240:	e50b0028 	str	r0, [fp, #-40]	; 0xffffffd8
    9244:	e3a03000 	mov	r3, #0
    9248:	e50b3008 	str	r3, [fp, #-8]
    924c:	ea000014 	b	92a4 <ipc_serve_Ipc_close+0x70>
    9250:	e51b3028 	ldr	r3, [fp, #-40]	; 0xffffffd8
    9254:	e50b300c 	str	r3, [fp, #-12]
    9258:	e51b3008 	ldr	r3, [fp, #-8]
    925c:	e50b3010 	str	r3, [fp, #-16]
    return (void*)((char*)msg + IPCMSG_ARG_INFO(msg, arg_num)->offset);
    9260:	e51b3010 	ldr	r3, [fp, #-16]
    9264:	e2833003 	add	r3, r3, #3
    9268:	e1a03103 	lsl	r3, r3, #2
    926c:	e51b200c 	ldr	r2, [fp, #-12]
    9270:	e0823003 	add	r3, r2, r3
    9274:	e1d330b0 	ldrh	r3, [r3]
    9278:	e1a02003 	mov	r2, r3
    927c:	e51b300c 	ldr	r3, [fp, #-12]
    9280:	e0832002 	add	r2, r3, r2
    9284:	e51b3008 	ldr	r3, [fp, #-8]
    9288:	e1a03103 	lsl	r3, r3, #2
    928c:	e24b1004 	sub	r1, fp, #4
    9290:	e0813003 	add	r3, r1, r3
    9294:	e5032018 	str	r2, [r3, #-24]	; 0xffffffe8
    9298:	e51b3008 	ldr	r3, [fp, #-8]
    929c:	e2833001 	add	r3, r3, #1
    92a0:	e50b3008 	str	r3, [fp, #-8]
    92a4:	e51b3008 	ldr	r3, [fp, #-8]
    92a8:	e3530000 	cmp	r3, #0
    92ac:	daffffe7 	ble	9250 <ipc_serve_Ipc_close+0x1c>
    92b0:	e51b301c 	ldr	r3, [fp, #-28]	; 0xffffffe4
    92b4:	e1a00003 	mov	r0, r3
    92b8:	ebfffdc3 	bl	89cc <ipc_do_serve_Ipc_close>
    92bc:	e1a03000 	mov	r3, r0
    92c0:	e50b3020 	str	r3, [fp, #-32]	; 0xffffffe0
    92c4:	e51b3028 	ldr	r3, [fp, #-40]	; 0xffffffd8
    92c8:	e50b3014 	str	r3, [fp, #-20]	; 0xffffffec
    92cc:	e24b3020 	sub	r3, fp, #32
    92d0:	e50b3018 	str	r3, [fp, #-24]	; 0xffffffe8
    assert(msg->header.valid == 1);
    92d4:	e51b3014 	ldr	r3, [fp, #-20]	; 0xffffffec
    92d8:	e5d33000 	ldrb	r3, [r3]
    92dc:	e2033001 	and	r3, r3, #1
    92e0:	e6ef3073 	uxtb	r3, r3
    92e4:	e3530000 	cmp	r3, #0
    92e8:	1a000007 	bne	930c <ipc_serve_Ipc_close+0xd8>
    92ec:	e30239fc 	movw	r3, #10748	; 0x29fc
    92f0:	e3403001 	movt	r3, #1
    92f4:	e3022aa0 	movw	r2, #10912	; 0x2aa0
    92f8:	e3402001 	movt	r2, #1
    92fc:	e3a0107e 	mov	r1, #126	; 0x7e
    9300:	e3020a14 	movw	r0, #10772	; 0x2a14
    9304:	e3400001 	movt	r0, #1
    9308:	eb0010e8 	bl	d6b0 <__assert_func>
    memcpy(&msg->header.ret_val, ret_val, sizeof(msg->header.ret_val));
    930c:	e51b3014 	ldr	r3, [fp, #-20]	; 0xffffffec
    9310:	e2833008 	add	r3, r3, #8
    9314:	e3a02004 	mov	r2, #4
    9318:	e51b1018 	ldr	r1, [fp, #-24]	; 0xffffffe8
    931c:	e1a00003 	mov	r0, r3
    9320:	eb001136 	bl	d800 <memcpy>
    9324:	e51b2028 	ldr	r2, [fp, #-40]	; 0xffffffd8
    9328:	e5d23000 	ldrb	r3, [r2]
    932c:	e3833002 	orr	r3, r3, #2
    9330:	e5c23000 	strb	r3, [r2]
    9334:	e3a03000 	mov	r3, #0
    9338:	e1a00003 	mov	r0, r3
    933c:	e24bd004 	sub	sp, fp, #4
    9340:	e8bd8800 	pop	{fp, pc}

00009344 <ipc_serve_Ipc_read>:
IPC_SERVER_INTERFACE(Ipc_read, 4);
    9344:	e92d4800 	push	{fp, lr}
    9348:	e28db004 	add	fp, sp, #4
    934c:	e24dd030 	sub	sp, sp, #48	; 0x30
    9350:	e50b0030 	str	r0, [fp, #-48]	; 0xffffffd0
    9354:	e3a03000 	mov	r3, #0
    9358:	e50b3008 	str	r3, [fp, #-8]
    935c:	ea000014 	b	93b4 <ipc_serve_Ipc_read+0x70>
    9360:	e51b3030 	ldr	r3, [fp, #-48]	; 0xffffffd0
    9364:	e50b300c 	str	r3, [fp, #-12]
    9368:	e51b3008 	ldr	r3, [fp, #-8]
    936c:	e50b3010 	str	r3, [fp, #-16]
    return (void*)((char*)msg + IPCMSG_ARG_INFO(msg, arg_num)->offset);
    9370:	e51b3010 	ldr	r3, [fp, #-16]
    9374:	e2833003 	add	r3, r3, #3
    9378:	e1a03103 	lsl	r3, r3, #2
    937c:	e51b200c 	ldr	r2, [fp, #-12]
    9380:	e0823003 	add	r3, r2, r3
    9384:	e1d330b0 	ldrh	r3, [r3]
    9388:	e1a02003 	mov	r2, r3
    938c:	e51b300c 	ldr	r3, [fp, #-12]
    9390:	e0832002 	add	r2, r3, r2
    9394:	e51b3008 	ldr	r3, [fp, #-8]
    9398:	e1a03103 	lsl	r3, r3, #2
    939c:	e24b1004 	sub	r1, fp, #4
    93a0:	e0813003 	add	r3, r1, r3
    93a4:	e5032024 	str	r2, [r3, #-36]	; 0xffffffdc
    93a8:	e51b3008 	ldr	r3, [fp, #-8]
    93ac:	e2833001 	add	r3, r3, #1
    93b0:	e50b3008 	str	r3, [fp, #-8]
    93b4:	e51b3008 	ldr	r3, [fp, #-8]
    93b8:	e3530003 	cmp	r3, #3
    93bc:	daffffe7 	ble	9360 <ipc_serve_Ipc_read+0x1c>
    93c0:	e51b0028 	ldr	r0, [fp, #-40]	; 0xffffffd8
    93c4:	e51b1024 	ldr	r1, [fp, #-36]	; 0xffffffdc
    93c8:	e51b2020 	ldr	r2, [fp, #-32]	; 0xffffffe0
    93cc:	e51b301c 	ldr	r3, [fp, #-28]	; 0xffffffe4
    93d0:	ebfffda1 	bl	8a5c <ipc_do_serve_Ipc_read>
    93d4:	e1a03000 	mov	r3, r0
    93d8:	e50b302c 	str	r3, [fp, #-44]	; 0xffffffd4
    93dc:	e51b3030 	ldr	r3, [fp, #-48]	; 0xffffffd0
    93e0:	e50b3014 	str	r3, [fp, #-20]	; 0xffffffec
    93e4:	e24b302c 	sub	r3, fp, #44	; 0x2c
    93e8:	e50b3018 	str	r3, [fp, #-24]	; 0xffffffe8
    assert(msg->header.valid == 1);
    93ec:	e51b3014 	ldr	r3, [fp, #-20]	; 0xffffffec
    93f0:	e5d33000 	ldrb	r3, [r3]
    93f4:	e2033001 	and	r3, r3, #1
    93f8:	e6ef3073 	uxtb	r3, r3
    93fc:	e3530000 	cmp	r3, #0
    9400:	1a000007 	bne	9424 <ipc_serve_Ipc_read+0xe0>
    9404:	e30239fc 	movw	r3, #10748	; 0x29fc
    9408:	e3403001 	movt	r3, #1
    940c:	e3022aa0 	movw	r2, #10912	; 0x2aa0
    9410:	e3402001 	movt	r2, #1
    9414:	e3a0107e 	mov	r1, #126	; 0x7e
    9418:	e3020a14 	movw	r0, #10772	; 0x2a14
    941c:	e3400001 	movt	r0, #1
    9420:	eb0010a2 	bl	d6b0 <__assert_func>
    memcpy(&msg->header.ret_val, ret_val, sizeof(msg->header.ret_val));
    9424:	e51b3014 	ldr	r3, [fp, #-20]	; 0xffffffec
    9428:	e2833008 	add	r3, r3, #8
    942c:	e3a02004 	mov	r2, #4
    9430:	e51b1018 	ldr	r1, [fp, #-24]	; 0xffffffe8
    9434:	e1a00003 	mov	r0, r3
    9438:	eb0010f0 	bl	d800 <memcpy>
    943c:	e51b2030 	ldr	r2, [fp, #-48]	; 0xffffffd0
    9440:	e5d23000 	ldrb	r3, [r2]
    9444:	e3833002 	orr	r3, r3, #2
    9448:	e5c23000 	strb	r3, [r2]
    944c:	e3a03000 	mov	r3, #0
    9450:	e1a00003 	mov	r0, r3
    9454:	e24bd004 	sub	sp, fp, #4
    9458:	e8bd8800 	pop	{fp, pc}

0000945c <ipc_serve_Ipc_write>:
IPC_SERVER_INTERFACE(Ipc_write, 4);
    945c:	e92d4800 	push	{fp, lr}
    9460:	e28db004 	add	fp, sp, #4
    9464:	e24dd030 	sub	sp, sp, #48	; 0x30
    9468:	e50b0030 	str	r0, [fp, #-48]	; 0xffffffd0
    946c:	e3a03000 	mov	r3, #0
    9470:	e50b3008 	str	r3, [fp, #-8]
    9474:	ea000014 	b	94cc <ipc_serve_Ipc_write+0x70>
    9478:	e51b3030 	ldr	r3, [fp, #-48]	; 0xffffffd0
    947c:	e50b300c 	str	r3, [fp, #-12]
    9480:	e51b3008 	ldr	r3, [fp, #-8]
    9484:	e50b3010 	str	r3, [fp, #-16]
    return (void*)((char*)msg + IPCMSG_ARG_INFO(msg, arg_num)->offset);
    9488:	e51b3010 	ldr	r3, [fp, #-16]
    948c:	e2833003 	add	r3, r3, #3
    9490:	e1a03103 	lsl	r3, r3, #2
    9494:	e51b200c 	ldr	r2, [fp, #-12]
    9498:	e0823003 	add	r3, r2, r3
    949c:	e1d330b0 	ldrh	r3, [r3]
    94a0:	e1a02003 	mov	r2, r3
    94a4:	e51b300c 	ldr	r3, [fp, #-12]
    94a8:	e0832002 	add	r2, r3, r2
    94ac:	e51b3008 	ldr	r3, [fp, #-8]
    94b0:	e1a03103 	lsl	r3, r3, #2
    94b4:	e24b1004 	sub	r1, fp, #4
    94b8:	e0813003 	add	r3, r1, r3
    94bc:	e5032024 	str	r2, [r3, #-36]	; 0xffffffdc
    94c0:	e51b3008 	ldr	r3, [fp, #-8]
    94c4:	e2833001 	add	r3, r3, #1
    94c8:	e50b3008 	str	r3, [fp, #-8]
    94cc:	e51b3008 	ldr	r3, [fp, #-8]
    94d0:	e3530003 	cmp	r3, #3
    94d4:	daffffe7 	ble	9478 <ipc_serve_Ipc_write+0x1c>
    94d8:	e51b0028 	ldr	r0, [fp, #-40]	; 0xffffffd8
    94dc:	e51b1024 	ldr	r1, [fp, #-36]	; 0xffffffdc
    94e0:	e51b2020 	ldr	r2, [fp, #-32]	; 0xffffffe0
    94e4:	e51b301c 	ldr	r3, [fp, #-28]	; 0xffffffe4
    94e8:	ebfffd8a 	bl	8b18 <ipc_do_serve_Ipc_write>
    94ec:	e1a03000 	mov	r3, r0
    94f0:	e50b302c 	str	r3, [fp, #-44]	; 0xffffffd4
    94f4:	e51b3030 	ldr	r3, [fp, #-48]	; 0xffffffd0
    94f8:	e50b3014 	str	r3, [fp, #-20]	; 0xffffffec
    94fc:	e24b302c 	sub	r3, fp, #44	; 0x2c
    9500:	e50b3018 	str	r3, [fp, #-24]	; 0xffffffe8
    assert(msg->header.valid == 1);
    9504:	e51b3014 	ldr	r3, [fp, #-20]	; 0xffffffec
    9508:	e5d33000 	ldrb	r3, [r3]
    950c:	e2033001 	and	r3, r3, #1
    9510:	e6ef3073 	uxtb	r3, r3
    9514:	e3530000 	cmp	r3, #0
    9518:	1a000007 	bne	953c <ipc_serve_Ipc_write+0xe0>
    951c:	e30239fc 	movw	r3, #10748	; 0x29fc
    9520:	e3403001 	movt	r3, #1
    9524:	e3022aa0 	movw	r2, #10912	; 0x2aa0
    9528:	e3402001 	movt	r2, #1
    952c:	e3a0107e 	mov	r1, #126	; 0x7e
    9530:	e3020a14 	movw	r0, #10772	; 0x2a14
    9534:	e3400001 	movt	r0, #1
    9538:	eb00105c 	bl	d6b0 <__assert_func>
    memcpy(&msg->header.ret_val, ret_val, sizeof(msg->header.ret_val));
    953c:	e51b3014 	ldr	r3, [fp, #-20]	; 0xffffffec
    9540:	e2833008 	add	r3, r3, #8
    9544:	e3a02004 	mov	r2, #4
    9548:	e51b1018 	ldr	r1, [fp, #-24]	; 0xffffffe8
    954c:	e1a00003 	mov	r0, r3
    9550:	eb0010aa 	bl	d800 <memcpy>
    9554:	e51b2030 	ldr	r2, [fp, #-48]	; 0xffffffd0
    9558:	e5d23000 	ldrb	r3, [r2]
    955c:	e3833002 	orr	r3, r3, #2
    9560:	e5c23000 	strb	r3, [r2]
    9564:	e3a03000 	mov	r3, #0
    9568:	e1a00003 	mov	r0, r3
    956c:	e24bd004 	sub	sp, fp, #4
    9570:	e8bd8800 	pop	{fp, pc}

00009574 <main>:
    Ipc_close,
    Ipc_read,
    Ipc_write);

int main(int argc, char* argv[])
{
    9574:	e92d4800 	push	{fp, lr}
    9578:	e28db004 	add	fp, sp, #4
    957c:	e24dd018 	sub	sp, sp, #24
    9580:	e50b0018 	str	r0, [fp, #-24]	; 0xffffffe8
    9584:	e50b101c 	str	r1, [fp, #-28]	; 0xffffffe4
    sys_state_info info;
    get_memblock_info(&info);
    9588:	e24b3010 	sub	r3, fp, #16
    958c:	e1a00003 	mov	r0, r3
    9590:	eb000f36 	bl	d270 <get_memblock_info>

    int len = info.memblock_info.memblock_end - info.memblock_info.memblock_start;
    9594:	e51b200c 	ldr	r2, [fp, #-12]
    9598:	e51b3010 	ldr	r3, [fp, #-16]
    959c:	e0423003 	sub	r3, r2, r3
    95a0:	e50b3008 	str	r3, [fp, #-8]
    mmap(FS_IMG_ADDR, info.memblock_info.memblock_start, len, false);
    95a4:	e51b1010 	ldr	r1, [fp, #-16]
    95a8:	e3a03000 	mov	r3, #0
    95ac:	e51b2008 	ldr	r2, [fp, #-8]
    95b0:	e3a00206 	mov	r0, #1610612736	; 0x60000000
    95b4:	eb000f83 	bl	d3c8 <mmap>

    MemFsInit((uintptr_t)FS_IMG_ADDR, (uint32_t)len);
    95b8:	e51b3008 	ldr	r3, [fp, #-8]
    95bc:	e1a01003 	mov	r1, r3
    95c0:	e3a00206 	mov	r0, #1610612736	; 0x60000000
    95c4:	eb000545 	bl	aae0 <MemFsInit>

    if (register_server("MemFS") < 0) {
    95c8:	e3020a64 	movw	r0, #10852	; 0x2a64
    95cc:	e3400001 	movt	r0, #1
    95d0:	eb000ee6 	bl	d170 <register_server>
    95d4:	e1a03000 	mov	r3, r0
    95d8:	e3530000 	cmp	r3, #0
    95dc:	aa000005 	bge	95f8 <main+0x84>
        printf("register server name: %s failed.\n", "SimpleServer");
    95e0:	e3021a6c 	movw	r1, #10860	; 0x2a6c
    95e4:	e3401001 	movt	r1, #1
    95e8:	e3020a7c 	movw	r0, #10876	; 0x2a7c
    95ec:	e3400001 	movt	r0, #1
    95f0:	eb0009e2 	bl	bd80 <printf>
        exit();
    95f4:	eb000ec1 	bl	d100 <exit>
    }
    ipc_server_loop(&IpcFsServer);
    95f8:	e3030154 	movw	r0, #12628	; 0x3154
    95fc:	e3400001 	movt	r0, #1
    9600:	eb000bd3 	bl	c554 <ipc_server_loop>

    // never reached
    exit();
    9604:	eb000ebd 	bl	d100 <exit>
    9608:	e3a03000 	mov	r3, #0
}
    960c:	e1a00003 	mov	r0, r3
    9610:	e24bd004 	sub	sp, fp, #4
    9614:	e8bd8800 	pop	{fp, pc}

00009618 <ipc_call_copy_args_Ipc_ls>:
 * MERCHANTABILITY OR FIT FOR A PARTICULAR PURPOSE.
 * See the Mulan PSL v2 for more details.
 */
#include "libfs_to_client.h"

IPC_INTERFACE(Ipc_ls, 1, path, strlen(path) + 1);
    9618:	e92d4800 	push	{fp, lr}
    961c:	e28db004 	add	fp, sp, #4
    9620:	e24dd048 	sub	sp, sp, #72	; 0x48
    9624:	e50b0048 	str	r0, [fp, #-72]	; 0xffffffb8
    9628:	e50b104c 	str	r1, [fp, #-76]	; 0xffffffb4
    962c:	e51b3048 	ldr	r3, [fp, #-72]	; 0xffffffb8
    9630:	e3530000 	cmp	r3, #0
    9634:	1a000001 	bne	9640 <ipc_call_copy_args_Ipc_ls+0x28>
    9638:	e3e03000 	mvn	r3, #0
    963c:	ea00006d 	b	97f8 <ipc_call_copy_args_Ipc_ls+0x1e0>
    9640:	e51b3048 	ldr	r3, [fp, #-72]	; 0xffffffb8
    9644:	e50b3038 	str	r3, [fp, #-56]	; 0xffffffc8
    9648:	e51b304c 	ldr	r3, [fp, #-76]	; 0xffffffb4
    964c:	e50b303c 	str	r3, [fp, #-60]	; 0xffffffc4
    9650:	e51b003c 	ldr	r0, [fp, #-60]	; 0xffffffc4
    9654:	eb0011ce 	bl	dd94 <strlen>
    9658:	e1a03000 	mov	r3, r0
    965c:	e2833001 	add	r3, r3, #1
    9660:	e50b3044 	str	r3, [fp, #-68]	; 0xffffffbc
    9664:	e24b3044 	sub	r3, fp, #68	; 0x44
    9668:	e1a02003 	mov	r2, r3
    966c:	e3a01001 	mov	r1, #1
    9670:	e51b0038 	ldr	r0, [fp, #-56]	; 0xffffffc8
    9674:	eb000a4c 	bl	bfac <new_ipc_msg>
    9678:	e1a03000 	mov	r3, r0
    967c:	e50b3008 	str	r3, [fp, #-8]
    9680:	e51b3008 	ldr	r3, [fp, #-8]
    9684:	e50b3030 	str	r3, [fp, #-48]	; 0xffffffd0
    9688:	e51b304c 	ldr	r3, [fp, #-76]	; 0xffffffb4
    968c:	e50b3034 	str	r3, [fp, #-52]	; 0xffffffcc
    9690:	e51b0034 	ldr	r0, [fp, #-52]	; 0xffffffcc
    9694:	eb0011be 	bl	dd94 <strlen>
    9698:	e1a03000 	mov	r3, r0
    969c:	e2833001 	add	r3, r3, #1
    96a0:	e51b2034 	ldr	r2, [fp, #-52]	; 0xffffffcc
    96a4:	e3a01000 	mov	r1, #0
    96a8:	e51b0030 	ldr	r0, [fp, #-48]	; 0xffffffd0
    96ac:	eb000aab 	bl	c160 <ipc_msg_set_nth_arg>
    96b0:	e3a03001 	mov	r3, #1
    96b4:	e50b300c 	str	r3, [fp, #-12]
    96b8:	e51b3008 	ldr	r3, [fp, #-8]
    96bc:	e50b3028 	str	r3, [fp, #-40]	; 0xffffffd8
    96c0:	e3a03001 	mov	r3, #1
    96c4:	e50b302c 	str	r3, [fp, #-44]	; 0xffffffd4
/// @param msg
/// @param opcode
/// @return
__attribute__((__always_inline__)) static inline bool ipc_msg_set_opcode(struct IpcMsg* msg, int opcode)
{
    if (opcode < 0 || opcode > UINT8_MAX) {
    96c8:	e51b302c 	ldr	r3, [fp, #-44]	; 0xffffffd4
    96cc:	e3530000 	cmp	r3, #0
    96d0:	ba000002 	blt	96e0 <ipc_call_copy_args_Ipc_ls+0xc8>
    96d4:	e51b302c 	ldr	r3, [fp, #-44]	; 0xffffffd4
    96d8:	e35300ff 	cmp	r3, #255	; 0xff
    96dc:	da000001 	ble	96e8 <ipc_call_copy_args_Ipc_ls+0xd0>
        return false;
    96e0:	e3a03000 	mov	r3, #0
    96e4:	ea000004 	b	96fc <ipc_call_copy_args_Ipc_ls+0xe4>
    }
    msg->header.opcode = opcode;
    96e8:	e51b302c 	ldr	r3, [fp, #-44]	; 0xffffffd4
    96ec:	e6ef2073 	uxtb	r2, r3
    96f0:	e51b3028 	ldr	r3, [fp, #-40]	; 0xffffffd8
    96f4:	e5c32001 	strb	r2, [r3, #1]
    return true;
    96f8:	e3a03001 	mov	r3, #1
    96fc:	e50b300c 	str	r3, [fp, #-12]
    9700:	e51b0008 	ldr	r0, [fp, #-8]
    9704:	eb000b1d 	bl	c380 <ipc_msg_send_wait>
    9708:	e51b3008 	ldr	r3, [fp, #-8]
    970c:	e50b3020 	str	r3, [fp, #-32]	; 0xffffffe0
    9710:	e51b304c 	ldr	r3, [fp, #-76]	; 0xffffffb4
    9714:	e50b3024 	str	r3, [fp, #-36]	; 0xffffffdc
    9718:	e51b0024 	ldr	r0, [fp, #-36]	; 0xffffffdc
    971c:	eb00119c 	bl	dd94 <strlen>
    9720:	e1a03000 	mov	r3, r0
    9724:	e2833001 	add	r3, r3, #1
    9728:	e51b2024 	ldr	r2, [fp, #-36]	; 0xffffffdc
    972c:	e3a01000 	mov	r1, #0
    9730:	e51b0020 	ldr	r0, [fp, #-32]	; 0xffffffe0
    9734:	eb000ad1 	bl	c280 <ipc_msg_get_nth_arg>
    9738:	e3a03001 	mov	r3, #1
    973c:	e50b300c 	str	r3, [fp, #-12]
    9740:	e3a03000 	mov	r3, #0
    9744:	e50b3040 	str	r3, [fp, #-64]	; 0xffffffc0
    9748:	e51b3008 	ldr	r3, [fp, #-8]
    974c:	e50b3018 	str	r3, [fp, #-24]	; 0xffffffe8
    9750:	e24b3040 	sub	r3, fp, #64	; 0x40
    9754:	e50b301c 	str	r3, [fp, #-28]	; 0xffffffe4
    assert(msg->header.done == 1);
    9758:	e51b3018 	ldr	r3, [fp, #-24]	; 0xffffffe8
    975c:	e5d33000 	ldrb	r3, [r3]
    9760:	e2033002 	and	r3, r3, #2
    9764:	e6ef3073 	uxtb	r3, r3
    9768:	e3530000 	cmp	r3, #0
    976c:	1a000007 	bne	9790 <ipc_call_copy_args_Ipc_ls+0x178>
    9770:	e3023ab4 	movw	r3, #10932	; 0x2ab4
    9774:	e3403001 	movt	r3, #1
    9778:	e3022b1c 	movw	r2, #11036	; 0x2b1c
    977c:	e3402001 	movt	r2, #1
    9780:	e3a01074 	mov	r1, #116	; 0x74
    9784:	e3020acc 	movw	r0, #10956	; 0x2acc
    9788:	e3400001 	movt	r0, #1
    978c:	eb000fc7 	bl	d6b0 <__assert_func>
    memcpy(ret_val, &msg->header.ret_val, sizeof(msg->header.ret_val));
    9790:	e51b3018 	ldr	r3, [fp, #-24]	; 0xffffffe8
    9794:	e2833008 	add	r3, r3, #8
    9798:	e3a02004 	mov	r2, #4
    979c:	e1a01003 	mov	r1, r3
    97a0:	e51b001c 	ldr	r0, [fp, #-28]	; 0xffffffe4
    97a4:	eb001015 	bl	d800 <memcpy>
    97a8:	e51b3048 	ldr	r3, [fp, #-72]	; 0xffffffb8
    97ac:	e50b3010 	str	r3, [fp, #-16]
/// @brief delete first msg in session
/// @param session
/// @return
__attribute__((__always_inline__)) static inline bool ipc_session_forward(struct Session* session)
{
    struct IpcMsg* msg = IPCSESSION_MSG(session);
    97b0:	e51b3010 	ldr	r3, [fp, #-16]
    97b4:	e5933010 	ldr	r3, [r3, #16]
    97b8:	e51b2010 	ldr	r2, [fp, #-16]
    97bc:	e5922008 	ldr	r2, [r2, #8]
    97c0:	e0833002 	add	r3, r3, r2
    97c4:	e50b3014 	str	r3, [fp, #-20]	; 0xffffffec
    if (msg->header.init != 1) {
    97c8:	e51b3014 	ldr	r3, [fp, #-20]	; 0xffffffec
    97cc:	e5d33000 	ldrb	r3, [r3]
    97d0:	e2033004 	and	r3, r3, #4
    97d4:	e6ef3073 	uxtb	r3, r3
    97d8:	e3530000 	cmp	r3, #0
    97dc:	0a000004 	beq	97f4 <ipc_call_copy_args_Ipc_ls+0x1dc>
        return false;
    }
    return session_free_buf(session, msg->header.len);
    97e0:	e51b3014 	ldr	r3, [fp, #-20]	; 0xffffffec
    97e4:	e1d330b2 	ldrh	r3, [r3, #2]
    97e8:	e1a01003 	mov	r1, r3
    97ec:	e51b0010 	ldr	r0, [fp, #-16]
    97f0:	eb000cdc 	bl	cb68 <session_free_buf>
    97f4:	e51b3040 	ldr	r3, [fp, #-64]	; 0xffffffc0
    97f8:	e1a00003 	mov	r0, r3
    97fc:	e24bd004 	sub	sp, fp, #4
    9800:	e8bd8800 	pop	{fp, pc}

00009804 <ls>:
int ls(struct Session* session, char* path)
{
    9804:	e92d4800 	push	{fp, lr}
    9808:	e28db004 	add	fp, sp, #4
    980c:	e24dd008 	sub	sp, sp, #8
    9810:	e50b0008 	str	r0, [fp, #-8]
    9814:	e50b100c 	str	r1, [fp, #-12]
    return IPC_CALL(Ipc_ls)(session, path);
    9818:	e51b100c 	ldr	r1, [fp, #-12]
    981c:	e51b0008 	ldr	r0, [fp, #-8]
    9820:	ebffff7c 	bl	9618 <ipc_call_copy_args_Ipc_ls>
    9824:	e1a03000 	mov	r3, r0
}
    9828:	e1a00003 	mov	r0, r3
    982c:	e24bd004 	sub	sp, fp, #4
    9830:	e8bd8800 	pop	{fp, pc}

00009834 <ipc_call_copy_args_Ipc_cd>:

IPC_INTERFACE(Ipc_cd, 1, path, strlen(path) + 1);
    9834:	e92d4800 	push	{fp, lr}
    9838:	e28db004 	add	fp, sp, #4
    983c:	e24dd048 	sub	sp, sp, #72	; 0x48
    9840:	e50b0048 	str	r0, [fp, #-72]	; 0xffffffb8
    9844:	e50b104c 	str	r1, [fp, #-76]	; 0xffffffb4
    9848:	e51b3048 	ldr	r3, [fp, #-72]	; 0xffffffb8
    984c:	e3530000 	cmp	r3, #0
    9850:	1a000001 	bne	985c <ipc_call_copy_args_Ipc_cd+0x28>
    9854:	e3e03000 	mvn	r3, #0
    9858:	ea00006d 	b	9a14 <ipc_call_copy_args_Ipc_cd+0x1e0>
    985c:	e51b3048 	ldr	r3, [fp, #-72]	; 0xffffffb8
    9860:	e50b3038 	str	r3, [fp, #-56]	; 0xffffffc8
    9864:	e51b304c 	ldr	r3, [fp, #-76]	; 0xffffffb4
    9868:	e50b303c 	str	r3, [fp, #-60]	; 0xffffffc4
    986c:	e51b003c 	ldr	r0, [fp, #-60]	; 0xffffffc4
    9870:	eb001147 	bl	dd94 <strlen>
    9874:	e1a03000 	mov	r3, r0
    9878:	e2833001 	add	r3, r3, #1
    987c:	e50b3044 	str	r3, [fp, #-68]	; 0xffffffbc
    9880:	e24b3044 	sub	r3, fp, #68	; 0x44
    9884:	e1a02003 	mov	r2, r3
    9888:	e3a01001 	mov	r1, #1
    988c:	e51b0038 	ldr	r0, [fp, #-56]	; 0xffffffc8
    9890:	eb0009c5 	bl	bfac <new_ipc_msg>
    9894:	e1a03000 	mov	r3, r0
    9898:	e50b3008 	str	r3, [fp, #-8]
    989c:	e51b3008 	ldr	r3, [fp, #-8]
    98a0:	e50b3030 	str	r3, [fp, #-48]	; 0xffffffd0
    98a4:	e51b304c 	ldr	r3, [fp, #-76]	; 0xffffffb4
    98a8:	e50b3034 	str	r3, [fp, #-52]	; 0xffffffcc
    98ac:	e51b0034 	ldr	r0, [fp, #-52]	; 0xffffffcc
    98b0:	eb001137 	bl	dd94 <strlen>
    98b4:	e1a03000 	mov	r3, r0
    98b8:	e2833001 	add	r3, r3, #1
    98bc:	e51b2034 	ldr	r2, [fp, #-52]	; 0xffffffcc
    98c0:	e3a01000 	mov	r1, #0
    98c4:	e51b0030 	ldr	r0, [fp, #-48]	; 0xffffffd0
    98c8:	eb000a24 	bl	c160 <ipc_msg_set_nth_arg>
    98cc:	e3a03001 	mov	r3, #1
    98d0:	e50b300c 	str	r3, [fp, #-12]
    98d4:	e51b3008 	ldr	r3, [fp, #-8]
    98d8:	e50b3028 	str	r3, [fp, #-40]	; 0xffffffd8
    98dc:	e3a03002 	mov	r3, #2
    98e0:	e50b302c 	str	r3, [fp, #-44]	; 0xffffffd4
    if (opcode < 0 || opcode > UINT8_MAX) {
    98e4:	e51b302c 	ldr	r3, [fp, #-44]	; 0xffffffd4
    98e8:	e3530000 	cmp	r3, #0
    98ec:	ba000002 	blt	98fc <ipc_call_copy_args_Ipc_cd+0xc8>
    98f0:	e51b302c 	ldr	r3, [fp, #-44]	; 0xffffffd4
    98f4:	e35300ff 	cmp	r3, #255	; 0xff
    98f8:	da000001 	ble	9904 <ipc_call_copy_args_Ipc_cd+0xd0>
        return false;
    98fc:	e3a03000 	mov	r3, #0
    9900:	ea000004 	b	9918 <ipc_call_copy_args_Ipc_cd+0xe4>
    msg->header.opcode = opcode;
    9904:	e51b302c 	ldr	r3, [fp, #-44]	; 0xffffffd4
    9908:	e6ef2073 	uxtb	r2, r3
    990c:	e51b3028 	ldr	r3, [fp, #-40]	; 0xffffffd8
    9910:	e5c32001 	strb	r2, [r3, #1]
    return true;
    9914:	e3a03001 	mov	r3, #1
    9918:	e50b300c 	str	r3, [fp, #-12]
    991c:	e51b0008 	ldr	r0, [fp, #-8]
    9920:	eb000a96 	bl	c380 <ipc_msg_send_wait>
    9924:	e51b3008 	ldr	r3, [fp, #-8]
    9928:	e50b3020 	str	r3, [fp, #-32]	; 0xffffffe0
    992c:	e51b304c 	ldr	r3, [fp, #-76]	; 0xffffffb4
    9930:	e50b3024 	str	r3, [fp, #-36]	; 0xffffffdc
    9934:	e51b0024 	ldr	r0, [fp, #-36]	; 0xffffffdc
    9938:	eb001115 	bl	dd94 <strlen>
    993c:	e1a03000 	mov	r3, r0
    9940:	e2833001 	add	r3, r3, #1
    9944:	e51b2024 	ldr	r2, [fp, #-36]	; 0xffffffdc
    9948:	e3a01000 	mov	r1, #0
    994c:	e51b0020 	ldr	r0, [fp, #-32]	; 0xffffffe0
    9950:	eb000a4a 	bl	c280 <ipc_msg_get_nth_arg>
    9954:	e3a03001 	mov	r3, #1
    9958:	e50b300c 	str	r3, [fp, #-12]
    995c:	e3a03000 	mov	r3, #0
    9960:	e50b3040 	str	r3, [fp, #-64]	; 0xffffffc0
    9964:	e51b3008 	ldr	r3, [fp, #-8]
    9968:	e50b3018 	str	r3, [fp, #-24]	; 0xffffffe8
    996c:	e24b3040 	sub	r3, fp, #64	; 0x40
    9970:	e50b301c 	str	r3, [fp, #-28]	; 0xffffffe4
    assert(msg->header.done == 1);
    9974:	e51b3018 	ldr	r3, [fp, #-24]	; 0xffffffe8
    9978:	e5d33000 	ldrb	r3, [r3]
    997c:	e2033002 	and	r3, r3, #2
    9980:	e6ef3073 	uxtb	r3, r3
    9984:	e3530000 	cmp	r3, #0
    9988:	1a000007 	bne	99ac <ipc_call_copy_args_Ipc_cd+0x178>
    998c:	e3023ab4 	movw	r3, #10932	; 0x2ab4
    9990:	e3403001 	movt	r3, #1
    9994:	e3022b1c 	movw	r2, #11036	; 0x2b1c
    9998:	e3402001 	movt	r2, #1
    999c:	e3a01074 	mov	r1, #116	; 0x74
    99a0:	e3020acc 	movw	r0, #10956	; 0x2acc
    99a4:	e3400001 	movt	r0, #1
    99a8:	eb000f40 	bl	d6b0 <__assert_func>
    memcpy(ret_val, &msg->header.ret_val, sizeof(msg->header.ret_val));
    99ac:	e51b3018 	ldr	r3, [fp, #-24]	; 0xffffffe8
    99b0:	e2833008 	add	r3, r3, #8
    99b4:	e3a02004 	mov	r2, #4
    99b8:	e1a01003 	mov	r1, r3
    99bc:	e51b001c 	ldr	r0, [fp, #-28]	; 0xffffffe4
    99c0:	eb000f8e 	bl	d800 <memcpy>
    99c4:	e51b3048 	ldr	r3, [fp, #-72]	; 0xffffffb8
    99c8:	e50b3010 	str	r3, [fp, #-16]
    struct IpcMsg* msg = IPCSESSION_MSG(session);
    99cc:	e51b3010 	ldr	r3, [fp, #-16]
    99d0:	e5933010 	ldr	r3, [r3, #16]
    99d4:	e51b2010 	ldr	r2, [fp, #-16]
    99d8:	e5922008 	ldr	r2, [r2, #8]
    99dc:	e0833002 	add	r3, r3, r2
    99e0:	e50b3014 	str	r3, [fp, #-20]	; 0xffffffec
    if (msg->header.init != 1) {
    99e4:	e51b3014 	ldr	r3, [fp, #-20]	; 0xffffffec
    99e8:	e5d33000 	ldrb	r3, [r3]
    99ec:	e2033004 	and	r3, r3, #4
    99f0:	e6ef3073 	uxtb	r3, r3
    99f4:	e3530000 	cmp	r3, #0
    99f8:	0a000004 	beq	9a10 <ipc_call_copy_args_Ipc_cd+0x1dc>
    return session_free_buf(session, msg->header.len);
    99fc:	e51b3014 	ldr	r3, [fp, #-20]	; 0xffffffec
    9a00:	e1d330b2 	ldrh	r3, [r3, #2]
    9a04:	e1a01003 	mov	r1, r3
    9a08:	e51b0010 	ldr	r0, [fp, #-16]
    9a0c:	eb000c55 	bl	cb68 <session_free_buf>
    9a10:	e51b3040 	ldr	r3, [fp, #-64]	; 0xffffffc0
    9a14:	e1a00003 	mov	r0, r3
    9a18:	e24bd004 	sub	sp, fp, #4
    9a1c:	e8bd8800 	pop	{fp, pc}

00009a20 <cd>:
int cd(struct Session* session, char* path)
{
    9a20:	e92d4800 	push	{fp, lr}
    9a24:	e28db004 	add	fp, sp, #4
    9a28:	e24dd008 	sub	sp, sp, #8
    9a2c:	e50b0008 	str	r0, [fp, #-8]
    9a30:	e50b100c 	str	r1, [fp, #-12]
    return IPC_CALL(Ipc_cd)(session, path);
    9a34:	e51b100c 	ldr	r1, [fp, #-12]
    9a38:	e51b0008 	ldr	r0, [fp, #-8]
    9a3c:	ebffff7c 	bl	9834 <ipc_call_copy_args_Ipc_cd>
    9a40:	e1a03000 	mov	r3, r0
}
    9a44:	e1a00003 	mov	r0, r3
    9a48:	e24bd004 	sub	sp, fp, #4
    9a4c:	e8bd8800 	pop	{fp, pc}

00009a50 <ipc_call_copy_args_Ipc_mkdir>:

IPC_INTERFACE(Ipc_mkdir, 1, path, strlen(path) + 1);
    9a50:	e92d4800 	push	{fp, lr}
    9a54:	e28db004 	add	fp, sp, #4
    9a58:	e24dd048 	sub	sp, sp, #72	; 0x48
    9a5c:	e50b0048 	str	r0, [fp, #-72]	; 0xffffffb8
    9a60:	e50b104c 	str	r1, [fp, #-76]	; 0xffffffb4
    9a64:	e51b3048 	ldr	r3, [fp, #-72]	; 0xffffffb8
    9a68:	e3530000 	cmp	r3, #0
    9a6c:	1a000001 	bne	9a78 <ipc_call_copy_args_Ipc_mkdir+0x28>
    9a70:	e3e03000 	mvn	r3, #0
    9a74:	ea00006d 	b	9c30 <ipc_call_copy_args_Ipc_mkdir+0x1e0>
    9a78:	e51b3048 	ldr	r3, [fp, #-72]	; 0xffffffb8
    9a7c:	e50b3038 	str	r3, [fp, #-56]	; 0xffffffc8
    9a80:	e51b304c 	ldr	r3, [fp, #-76]	; 0xffffffb4
    9a84:	e50b303c 	str	r3, [fp, #-60]	; 0xffffffc4
    9a88:	e51b003c 	ldr	r0, [fp, #-60]	; 0xffffffc4
    9a8c:	eb0010c0 	bl	dd94 <strlen>
    9a90:	e1a03000 	mov	r3, r0
    9a94:	e2833001 	add	r3, r3, #1
    9a98:	e50b3044 	str	r3, [fp, #-68]	; 0xffffffbc
    9a9c:	e24b3044 	sub	r3, fp, #68	; 0x44
    9aa0:	e1a02003 	mov	r2, r3
    9aa4:	e3a01001 	mov	r1, #1
    9aa8:	e51b0038 	ldr	r0, [fp, #-56]	; 0xffffffc8
    9aac:	eb00093e 	bl	bfac <new_ipc_msg>
    9ab0:	e1a03000 	mov	r3, r0
    9ab4:	e50b3008 	str	r3, [fp, #-8]
    9ab8:	e51b3008 	ldr	r3, [fp, #-8]
    9abc:	e50b3030 	str	r3, [fp, #-48]	; 0xffffffd0
    9ac0:	e51b304c 	ldr	r3, [fp, #-76]	; 0xffffffb4
    9ac4:	e50b3034 	str	r3, [fp, #-52]	; 0xffffffcc
    9ac8:	e51b0034 	ldr	r0, [fp, #-52]	; 0xffffffcc
    9acc:	eb0010b0 	bl	dd94 <strlen>
    9ad0:	e1a03000 	mov	r3, r0
    9ad4:	e2833001 	add	r3, r3, #1
    9ad8:	e51b2034 	ldr	r2, [fp, #-52]	; 0xffffffcc
    9adc:	e3a01000 	mov	r1, #0
    9ae0:	e51b0030 	ldr	r0, [fp, #-48]	; 0xffffffd0
    9ae4:	eb00099d 	bl	c160 <ipc_msg_set_nth_arg>
    9ae8:	e3a03001 	mov	r3, #1
    9aec:	e50b300c 	str	r3, [fp, #-12]
    9af0:	e51b3008 	ldr	r3, [fp, #-8]
    9af4:	e50b3028 	str	r3, [fp, #-40]	; 0xffffffd8
    9af8:	e3a03003 	mov	r3, #3
    9afc:	e50b302c 	str	r3, [fp, #-44]	; 0xffffffd4
    if (opcode < 0 || opcode > UINT8_MAX) {
    9b00:	e51b302c 	ldr	r3, [fp, #-44]	; 0xffffffd4
    9b04:	e3530000 	cmp	r3, #0
    9b08:	ba000002 	blt	9b18 <ipc_call_copy_args_Ipc_mkdir+0xc8>
    9b0c:	e51b302c 	ldr	r3, [fp, #-44]	; 0xffffffd4
    9b10:	e35300ff 	cmp	r3, #255	; 0xff
    9b14:	da000001 	ble	9b20 <ipc_call_copy_args_Ipc_mkdir+0xd0>
        return false;
    9b18:	e3a03000 	mov	r3, #0
    9b1c:	ea000004 	b	9b34 <ipc_call_copy_args_Ipc_mkdir+0xe4>
    msg->header.opcode = opcode;
    9b20:	e51b302c 	ldr	r3, [fp, #-44]	; 0xffffffd4
    9b24:	e6ef2073 	uxtb	r2, r3
    9b28:	e51b3028 	ldr	r3, [fp, #-40]	; 0xffffffd8
    9b2c:	e5c32001 	strb	r2, [r3, #1]
    return true;
    9b30:	e3a03001 	mov	r3, #1
    9b34:	e50b300c 	str	r3, [fp, #-12]
    9b38:	e51b0008 	ldr	r0, [fp, #-8]
    9b3c:	eb000a0f 	bl	c380 <ipc_msg_send_wait>
    9b40:	e51b3008 	ldr	r3, [fp, #-8]
    9b44:	e50b3020 	str	r3, [fp, #-32]	; 0xffffffe0
    9b48:	e51b304c 	ldr	r3, [fp, #-76]	; 0xffffffb4
    9b4c:	e50b3024 	str	r3, [fp, #-36]	; 0xffffffdc
    9b50:	e51b0024 	ldr	r0, [fp, #-36]	; 0xffffffdc
    9b54:	eb00108e 	bl	dd94 <strlen>
    9b58:	e1a03000 	mov	r3, r0
    9b5c:	e2833001 	add	r3, r3, #1
    9b60:	e51b2024 	ldr	r2, [fp, #-36]	; 0xffffffdc
    9b64:	e3a01000 	mov	r1, #0
    9b68:	e51b0020 	ldr	r0, [fp, #-32]	; 0xffffffe0
    9b6c:	eb0009c3 	bl	c280 <ipc_msg_get_nth_arg>
    9b70:	e3a03001 	mov	r3, #1
    9b74:	e50b300c 	str	r3, [fp, #-12]
    9b78:	e3a03000 	mov	r3, #0
    9b7c:	e50b3040 	str	r3, [fp, #-64]	; 0xffffffc0
    9b80:	e51b3008 	ldr	r3, [fp, #-8]
    9b84:	e50b3018 	str	r3, [fp, #-24]	; 0xffffffe8
    9b88:	e24b3040 	sub	r3, fp, #64	; 0x40
    9b8c:	e50b301c 	str	r3, [fp, #-28]	; 0xffffffe4
    assert(msg->header.done == 1);
    9b90:	e51b3018 	ldr	r3, [fp, #-24]	; 0xffffffe8
    9b94:	e5d33000 	ldrb	r3, [r3]
    9b98:	e2033002 	and	r3, r3, #2
    9b9c:	e6ef3073 	uxtb	r3, r3
    9ba0:	e3530000 	cmp	r3, #0
    9ba4:	1a000007 	bne	9bc8 <ipc_call_copy_args_Ipc_mkdir+0x178>
    9ba8:	e3023ab4 	movw	r3, #10932	; 0x2ab4
    9bac:	e3403001 	movt	r3, #1
    9bb0:	e3022b1c 	movw	r2, #11036	; 0x2b1c
    9bb4:	e3402001 	movt	r2, #1
    9bb8:	e3a01074 	mov	r1, #116	; 0x74
    9bbc:	e3020acc 	movw	r0, #10956	; 0x2acc
    9bc0:	e3400001 	movt	r0, #1
    9bc4:	eb000eb9 	bl	d6b0 <__assert_func>
    memcpy(ret_val, &msg->header.ret_val, sizeof(msg->header.ret_val));
    9bc8:	e51b3018 	ldr	r3, [fp, #-24]	; 0xffffffe8
    9bcc:	e2833008 	add	r3, r3, #8
    9bd0:	e3a02004 	mov	r2, #4
    9bd4:	e1a01003 	mov	r1, r3
    9bd8:	e51b001c 	ldr	r0, [fp, #-28]	; 0xffffffe4
    9bdc:	eb000f07 	bl	d800 <memcpy>
    9be0:	e51b3048 	ldr	r3, [fp, #-72]	; 0xffffffb8
    9be4:	e50b3010 	str	r3, [fp, #-16]
    struct IpcMsg* msg = IPCSESSION_MSG(session);
    9be8:	e51b3010 	ldr	r3, [fp, #-16]
    9bec:	e5933010 	ldr	r3, [r3, #16]
    9bf0:	e51b2010 	ldr	r2, [fp, #-16]
    9bf4:	e5922008 	ldr	r2, [r2, #8]
    9bf8:	e0833002 	add	r3, r3, r2
    9bfc:	e50b3014 	str	r3, [fp, #-20]	; 0xffffffec
    if (msg->header.init != 1) {
    9c00:	e51b3014 	ldr	r3, [fp, #-20]	; 0xffffffec
    9c04:	e5d33000 	ldrb	r3, [r3]
    9c08:	e2033004 	and	r3, r3, #4
    9c0c:	e6ef3073 	uxtb	r3, r3
    9c10:	e3530000 	cmp	r3, #0
    9c14:	0a000004 	beq	9c2c <ipc_call_copy_args_Ipc_mkdir+0x1dc>
    return session_free_buf(session, msg->header.len);
    9c18:	e51b3014 	ldr	r3, [fp, #-20]	; 0xffffffec
    9c1c:	e1d330b2 	ldrh	r3, [r3, #2]
    9c20:	e1a01003 	mov	r1, r3
    9c24:	e51b0010 	ldr	r0, [fp, #-16]
    9c28:	eb000bce 	bl	cb68 <session_free_buf>
    9c2c:	e51b3040 	ldr	r3, [fp, #-64]	; 0xffffffc0
    9c30:	e1a00003 	mov	r0, r3
    9c34:	e24bd004 	sub	sp, fp, #4
    9c38:	e8bd8800 	pop	{fp, pc}

00009c3c <mkdir>:
int mkdir(struct Session* session, char* path)
{
    9c3c:	e92d4800 	push	{fp, lr}
    9c40:	e28db004 	add	fp, sp, #4
    9c44:	e24dd008 	sub	sp, sp, #8
    9c48:	e50b0008 	str	r0, [fp, #-8]
    9c4c:	e50b100c 	str	r1, [fp, #-12]
    return IPC_CALL(Ipc_mkdir)(session, path);
    9c50:	e51b100c 	ldr	r1, [fp, #-12]
    9c54:	e51b0008 	ldr	r0, [fp, #-8]
    9c58:	ebffff7c 	bl	9a50 <ipc_call_copy_args_Ipc_mkdir>
    9c5c:	e1a03000 	mov	r3, r0
}
    9c60:	e1a00003 	mov	r0, r3
    9c64:	e24bd004 	sub	sp, fp, #4
    9c68:	e8bd8800 	pop	{fp, pc}

00009c6c <ipc_call_copy_args_Ipc_delete>:

IPC_INTERFACE(Ipc_delete, 1, path, strlen(path) + 1);
    9c6c:	e92d4800 	push	{fp, lr}
    9c70:	e28db004 	add	fp, sp, #4
    9c74:	e24dd048 	sub	sp, sp, #72	; 0x48
    9c78:	e50b0048 	str	r0, [fp, #-72]	; 0xffffffb8
    9c7c:	e50b104c 	str	r1, [fp, #-76]	; 0xffffffb4
    9c80:	e51b3048 	ldr	r3, [fp, #-72]	; 0xffffffb8
    9c84:	e3530000 	cmp	r3, #0
    9c88:	1a000001 	bne	9c94 <ipc_call_copy_args_Ipc_delete+0x28>
    9c8c:	e3e03000 	mvn	r3, #0
    9c90:	ea00006d 	b	9e4c <ipc_call_copy_args_Ipc_delete+0x1e0>
    9c94:	e51b3048 	ldr	r3, [fp, #-72]	; 0xffffffb8
    9c98:	e50b3038 	str	r3, [fp, #-56]	; 0xffffffc8
    9c9c:	e51b304c 	ldr	r3, [fp, #-76]	; 0xffffffb4
    9ca0:	e50b303c 	str	r3, [fp, #-60]	; 0xffffffc4
    9ca4:	e51b003c 	ldr	r0, [fp, #-60]	; 0xffffffc4
    9ca8:	eb001039 	bl	dd94 <strlen>
    9cac:	e1a03000 	mov	r3, r0
    9cb0:	e2833001 	add	r3, r3, #1
    9cb4:	e50b3044 	str	r3, [fp, #-68]	; 0xffffffbc
    9cb8:	e24b3044 	sub	r3, fp, #68	; 0x44
    9cbc:	e1a02003 	mov	r2, r3
    9cc0:	e3a01001 	mov	r1, #1
    9cc4:	e51b0038 	ldr	r0, [fp, #-56]	; 0xffffffc8
    9cc8:	eb0008b7 	bl	bfac <new_ipc_msg>
    9ccc:	e1a03000 	mov	r3, r0
    9cd0:	e50b3008 	str	r3, [fp, #-8]
    9cd4:	e51b3008 	ldr	r3, [fp, #-8]
    9cd8:	e50b3030 	str	r3, [fp, #-48]	; 0xffffffd0
    9cdc:	e51b304c 	ldr	r3, [fp, #-76]	; 0xffffffb4
    9ce0:	e50b3034 	str	r3, [fp, #-52]	; 0xffffffcc
    9ce4:	e51b0034 	ldr	r0, [fp, #-52]	; 0xffffffcc
    9ce8:	eb001029 	bl	dd94 <strlen>
    9cec:	e1a03000 	mov	r3, r0
    9cf0:	e2833001 	add	r3, r3, #1
    9cf4:	e51b2034 	ldr	r2, [fp, #-52]	; 0xffffffcc
    9cf8:	e3a01000 	mov	r1, #0
    9cfc:	e51b0030 	ldr	r0, [fp, #-48]	; 0xffffffd0
    9d00:	eb000916 	bl	c160 <ipc_msg_set_nth_arg>
    9d04:	e3a03001 	mov	r3, #1
    9d08:	e50b300c 	str	r3, [fp, #-12]
    9d0c:	e51b3008 	ldr	r3, [fp, #-8]
    9d10:	e50b3028 	str	r3, [fp, #-40]	; 0xffffffd8
    9d14:	e3a03004 	mov	r3, #4
    9d18:	e50b302c 	str	r3, [fp, #-44]	; 0xffffffd4
    if (opcode < 0 || opcode > UINT8_MAX) {
    9d1c:	e51b302c 	ldr	r3, [fp, #-44]	; 0xffffffd4
    9d20:	e3530000 	cmp	r3, #0
    9d24:	ba000002 	blt	9d34 <ipc_call_copy_args_Ipc_delete+0xc8>
    9d28:	e51b302c 	ldr	r3, [fp, #-44]	; 0xffffffd4
    9d2c:	e35300ff 	cmp	r3, #255	; 0xff
    9d30:	da000001 	ble	9d3c <ipc_call_copy_args_Ipc_delete+0xd0>
        return false;
    9d34:	e3a03000 	mov	r3, #0
    9d38:	ea000004 	b	9d50 <ipc_call_copy_args_Ipc_delete+0xe4>
    msg->header.opcode = opcode;
    9d3c:	e51b302c 	ldr	r3, [fp, #-44]	; 0xffffffd4
    9d40:	e6ef2073 	uxtb	r2, r3
    9d44:	e51b3028 	ldr	r3, [fp, #-40]	; 0xffffffd8
    9d48:	e5c32001 	strb	r2, [r3, #1]
    return true;
    9d4c:	e3a03001 	mov	r3, #1
    9d50:	e50b300c 	str	r3, [fp, #-12]
    9d54:	e51b0008 	ldr	r0, [fp, #-8]
    9d58:	eb000988 	bl	c380 <ipc_msg_send_wait>
    9d5c:	e51b3008 	ldr	r3, [fp, #-8]
    9d60:	e50b3020 	str	r3, [fp, #-32]	; 0xffffffe0
    9d64:	e51b304c 	ldr	r3, [fp, #-76]	; 0xffffffb4
    9d68:	e50b3024 	str	r3, [fp, #-36]	; 0xffffffdc
    9d6c:	e51b0024 	ldr	r0, [fp, #-36]	; 0xffffffdc
    9d70:	eb001007 	bl	dd94 <strlen>
    9d74:	e1a03000 	mov	r3, r0
    9d78:	e2833001 	add	r3, r3, #1
    9d7c:	e51b2024 	ldr	r2, [fp, #-36]	; 0xffffffdc
    9d80:	e3a01000 	mov	r1, #0
    9d84:	e51b0020 	ldr	r0, [fp, #-32]	; 0xffffffe0
    9d88:	eb00093c 	bl	c280 <ipc_msg_get_nth_arg>
    9d8c:	e3a03001 	mov	r3, #1
    9d90:	e50b300c 	str	r3, [fp, #-12]
    9d94:	e3a03000 	mov	r3, #0
    9d98:	e50b3040 	str	r3, [fp, #-64]	; 0xffffffc0
    9d9c:	e51b3008 	ldr	r3, [fp, #-8]
    9da0:	e50b3018 	str	r3, [fp, #-24]	; 0xffffffe8
    9da4:	e24b3040 	sub	r3, fp, #64	; 0x40
    9da8:	e50b301c 	str	r3, [fp, #-28]	; 0xffffffe4
    assert(msg->header.done == 1);
    9dac:	e51b3018 	ldr	r3, [fp, #-24]	; 0xffffffe8
    9db0:	e5d33000 	ldrb	r3, [r3]
    9db4:	e2033002 	and	r3, r3, #2
    9db8:	e6ef3073 	uxtb	r3, r3
    9dbc:	e3530000 	cmp	r3, #0
    9dc0:	1a000007 	bne	9de4 <ipc_call_copy_args_Ipc_delete+0x178>
    9dc4:	e3023ab4 	movw	r3, #10932	; 0x2ab4
    9dc8:	e3403001 	movt	r3, #1
    9dcc:	e3022b1c 	movw	r2, #11036	; 0x2b1c
    9dd0:	e3402001 	movt	r2, #1
    9dd4:	e3a01074 	mov	r1, #116	; 0x74
    9dd8:	e3020acc 	movw	r0, #10956	; 0x2acc
    9ddc:	e3400001 	movt	r0, #1
    9de0:	eb000e32 	bl	d6b0 <__assert_func>
    memcpy(ret_val, &msg->header.ret_val, sizeof(msg->header.ret_val));
    9de4:	e51b3018 	ldr	r3, [fp, #-24]	; 0xffffffe8
    9de8:	e2833008 	add	r3, r3, #8
    9dec:	e3a02004 	mov	r2, #4
    9df0:	e1a01003 	mov	r1, r3
    9df4:	e51b001c 	ldr	r0, [fp, #-28]	; 0xffffffe4
    9df8:	eb000e80 	bl	d800 <memcpy>
    9dfc:	e51b3048 	ldr	r3, [fp, #-72]	; 0xffffffb8
    9e00:	e50b3010 	str	r3, [fp, #-16]
    struct IpcMsg* msg = IPCSESSION_MSG(session);
    9e04:	e51b3010 	ldr	r3, [fp, #-16]
    9e08:	e5933010 	ldr	r3, [r3, #16]
    9e0c:	e51b2010 	ldr	r2, [fp, #-16]
    9e10:	e5922008 	ldr	r2, [r2, #8]
    9e14:	e0833002 	add	r3, r3, r2
    9e18:	e50b3014 	str	r3, [fp, #-20]	; 0xffffffec
    if (msg->header.init != 1) {
    9e1c:	e51b3014 	ldr	r3, [fp, #-20]	; 0xffffffec
    9e20:	e5d33000 	ldrb	r3, [r3]
    9e24:	e2033004 	and	r3, r3, #4
    9e28:	e6ef3073 	uxtb	r3, r3
    9e2c:	e3530000 	cmp	r3, #0
    9e30:	0a000004 	beq	9e48 <ipc_call_copy_args_Ipc_delete+0x1dc>
    return session_free_buf(session, msg->header.len);
    9e34:	e51b3014 	ldr	r3, [fp, #-20]	; 0xffffffec
    9e38:	e1d330b2 	ldrh	r3, [r3, #2]
    9e3c:	e1a01003 	mov	r1, r3
    9e40:	e51b0010 	ldr	r0, [fp, #-16]
    9e44:	eb000b47 	bl	cb68 <session_free_buf>
    9e48:	e51b3040 	ldr	r3, [fp, #-64]	; 0xffffffc0
    9e4c:	e1a00003 	mov	r0, r3
    9e50:	e24bd004 	sub	sp, fp, #4
    9e54:	e8bd8800 	pop	{fp, pc}

00009e58 <rm>:
int rm(struct Session* session, char* path)
{
    9e58:	e92d4800 	push	{fp, lr}
    9e5c:	e28db004 	add	fp, sp, #4
    9e60:	e24dd008 	sub	sp, sp, #8
    9e64:	e50b0008 	str	r0, [fp, #-8]
    9e68:	e50b100c 	str	r1, [fp, #-12]
    return IPC_CALL(Ipc_delete)(session, path);
    9e6c:	e51b100c 	ldr	r1, [fp, #-12]
    9e70:	e51b0008 	ldr	r0, [fp, #-8]
    9e74:	ebffff7c 	bl	9c6c <ipc_call_copy_args_Ipc_delete>
    9e78:	e1a03000 	mov	r3, r0
}
    9e7c:	e1a00003 	mov	r0, r3
    9e80:	e24bd004 	sub	sp, fp, #4
    9e84:	e8bd8800 	pop	{fp, pc}

00009e88 <ipc_call_copy_args_Ipc_cat>:

IPC_INTERFACE(Ipc_cat, 1, path, strlen(path) + 1);
    9e88:	e92d4800 	push	{fp, lr}
    9e8c:	e28db004 	add	fp, sp, #4
    9e90:	e24dd048 	sub	sp, sp, #72	; 0x48
    9e94:	e50b0048 	str	r0, [fp, #-72]	; 0xffffffb8
    9e98:	e50b104c 	str	r1, [fp, #-76]	; 0xffffffb4
    9e9c:	e51b3048 	ldr	r3, [fp, #-72]	; 0xffffffb8
    9ea0:	e3530000 	cmp	r3, #0
    9ea4:	1a000001 	bne	9eb0 <ipc_call_copy_args_Ipc_cat+0x28>
    9ea8:	e3e03000 	mvn	r3, #0
    9eac:	ea00006d 	b	a068 <ipc_call_copy_args_Ipc_cat+0x1e0>
    9eb0:	e51b3048 	ldr	r3, [fp, #-72]	; 0xffffffb8
    9eb4:	e50b3038 	str	r3, [fp, #-56]	; 0xffffffc8
    9eb8:	e51b304c 	ldr	r3, [fp, #-76]	; 0xffffffb4
    9ebc:	e50b303c 	str	r3, [fp, #-60]	; 0xffffffc4
    9ec0:	e51b003c 	ldr	r0, [fp, #-60]	; 0xffffffc4
    9ec4:	eb000fb2 	bl	dd94 <strlen>
    9ec8:	e1a03000 	mov	r3, r0
    9ecc:	e2833001 	add	r3, r3, #1
    9ed0:	e50b3044 	str	r3, [fp, #-68]	; 0xffffffbc
    9ed4:	e24b3044 	sub	r3, fp, #68	; 0x44
    9ed8:	e1a02003 	mov	r2, r3
    9edc:	e3a01001 	mov	r1, #1
    9ee0:	e51b0038 	ldr	r0, [fp, #-56]	; 0xffffffc8
    9ee4:	eb000830 	bl	bfac <new_ipc_msg>
    9ee8:	e1a03000 	mov	r3, r0
    9eec:	e50b3008 	str	r3, [fp, #-8]
    9ef0:	e51b3008 	ldr	r3, [fp, #-8]
    9ef4:	e50b3030 	str	r3, [fp, #-48]	; 0xffffffd0
    9ef8:	e51b304c 	ldr	r3, [fp, #-76]	; 0xffffffb4
    9efc:	e50b3034 	str	r3, [fp, #-52]	; 0xffffffcc
    9f00:	e51b0034 	ldr	r0, [fp, #-52]	; 0xffffffcc
    9f04:	eb000fa2 	bl	dd94 <strlen>
    9f08:	e1a03000 	mov	r3, r0
    9f0c:	e2833001 	add	r3, r3, #1
    9f10:	e51b2034 	ldr	r2, [fp, #-52]	; 0xffffffcc
    9f14:	e3a01000 	mov	r1, #0
    9f18:	e51b0030 	ldr	r0, [fp, #-48]	; 0xffffffd0
    9f1c:	eb00088f 	bl	c160 <ipc_msg_set_nth_arg>
    9f20:	e3a03001 	mov	r3, #1
    9f24:	e50b300c 	str	r3, [fp, #-12]
    9f28:	e51b3008 	ldr	r3, [fp, #-8]
    9f2c:	e50b3028 	str	r3, [fp, #-40]	; 0xffffffd8
    9f30:	e3a03005 	mov	r3, #5
    9f34:	e50b302c 	str	r3, [fp, #-44]	; 0xffffffd4
    if (opcode < 0 || opcode > UINT8_MAX) {
    9f38:	e51b302c 	ldr	r3, [fp, #-44]	; 0xffffffd4
    9f3c:	e3530000 	cmp	r3, #0
    9f40:	ba000002 	blt	9f50 <ipc_call_copy_args_Ipc_cat+0xc8>
    9f44:	e51b302c 	ldr	r3, [fp, #-44]	; 0xffffffd4
    9f48:	e35300ff 	cmp	r3, #255	; 0xff
    9f4c:	da000001 	ble	9f58 <ipc_call_copy_args_Ipc_cat+0xd0>
        return false;
    9f50:	e3a03000 	mov	r3, #0
    9f54:	ea000004 	b	9f6c <ipc_call_copy_args_Ipc_cat+0xe4>
    msg->header.opcode = opcode;
    9f58:	e51b302c 	ldr	r3, [fp, #-44]	; 0xffffffd4
    9f5c:	e6ef2073 	uxtb	r2, r3
    9f60:	e51b3028 	ldr	r3, [fp, #-40]	; 0xffffffd8
    9f64:	e5c32001 	strb	r2, [r3, #1]
    return true;
    9f68:	e3a03001 	mov	r3, #1
    9f6c:	e50b300c 	str	r3, [fp, #-12]
    9f70:	e51b0008 	ldr	r0, [fp, #-8]
    9f74:	eb000901 	bl	c380 <ipc_msg_send_wait>
    9f78:	e51b3008 	ldr	r3, [fp, #-8]
    9f7c:	e50b3020 	str	r3, [fp, #-32]	; 0xffffffe0
    9f80:	e51b304c 	ldr	r3, [fp, #-76]	; 0xffffffb4
    9f84:	e50b3024 	str	r3, [fp, #-36]	; 0xffffffdc
    9f88:	e51b0024 	ldr	r0, [fp, #-36]	; 0xffffffdc
    9f8c:	eb000f80 	bl	dd94 <strlen>
    9f90:	e1a03000 	mov	r3, r0
    9f94:	e2833001 	add	r3, r3, #1
    9f98:	e51b2024 	ldr	r2, [fp, #-36]	; 0xffffffdc
    9f9c:	e3a01000 	mov	r1, #0
    9fa0:	e51b0020 	ldr	r0, [fp, #-32]	; 0xffffffe0
    9fa4:	eb0008b5 	bl	c280 <ipc_msg_get_nth_arg>
    9fa8:	e3a03001 	mov	r3, #1
    9fac:	e50b300c 	str	r3, [fp, #-12]
    9fb0:	e3a03000 	mov	r3, #0
    9fb4:	e50b3040 	str	r3, [fp, #-64]	; 0xffffffc0
    9fb8:	e51b3008 	ldr	r3, [fp, #-8]
    9fbc:	e50b3018 	str	r3, [fp, #-24]	; 0xffffffe8
    9fc0:	e24b3040 	sub	r3, fp, #64	; 0x40
    9fc4:	e50b301c 	str	r3, [fp, #-28]	; 0xffffffe4
    assert(msg->header.done == 1);
    9fc8:	e51b3018 	ldr	r3, [fp, #-24]	; 0xffffffe8
    9fcc:	e5d33000 	ldrb	r3, [r3]
    9fd0:	e2033002 	and	r3, r3, #2
    9fd4:	e6ef3073 	uxtb	r3, r3
    9fd8:	e3530000 	cmp	r3, #0
    9fdc:	1a000007 	bne	a000 <ipc_call_copy_args_Ipc_cat+0x178>
    9fe0:	e3023ab4 	movw	r3, #10932	; 0x2ab4
    9fe4:	e3403001 	movt	r3, #1
    9fe8:	e3022b1c 	movw	r2, #11036	; 0x2b1c
    9fec:	e3402001 	movt	r2, #1
    9ff0:	e3a01074 	mov	r1, #116	; 0x74
    9ff4:	e3020acc 	movw	r0, #10956	; 0x2acc
    9ff8:	e3400001 	movt	r0, #1
    9ffc:	eb000dab 	bl	d6b0 <__assert_func>
    memcpy(ret_val, &msg->header.ret_val, sizeof(msg->header.ret_val));
    a000:	e51b3018 	ldr	r3, [fp, #-24]	; 0xffffffe8
    a004:	e2833008 	add	r3, r3, #8
    a008:	e3a02004 	mov	r2, #4
    a00c:	e1a01003 	mov	r1, r3
    a010:	e51b001c 	ldr	r0, [fp, #-28]	; 0xffffffe4
    a014:	eb000df9 	bl	d800 <memcpy>
    a018:	e51b3048 	ldr	r3, [fp, #-72]	; 0xffffffb8
    a01c:	e50b3010 	str	r3, [fp, #-16]
    struct IpcMsg* msg = IPCSESSION_MSG(session);
    a020:	e51b3010 	ldr	r3, [fp, #-16]
    a024:	e5933010 	ldr	r3, [r3, #16]
    a028:	e51b2010 	ldr	r2, [fp, #-16]
    a02c:	e5922008 	ldr	r2, [r2, #8]
    a030:	e0833002 	add	r3, r3, r2
    a034:	e50b3014 	str	r3, [fp, #-20]	; 0xffffffec
    if (msg->header.init != 1) {
    a038:	e51b3014 	ldr	r3, [fp, #-20]	; 0xffffffec
    a03c:	e5d33000 	ldrb	r3, [r3]
    a040:	e2033004 	and	r3, r3, #4
    a044:	e6ef3073 	uxtb	r3, r3
    a048:	e3530000 	cmp	r3, #0
    a04c:	0a000004 	beq	a064 <ipc_call_copy_args_Ipc_cat+0x1dc>
    return session_free_buf(session, msg->header.len);
    a050:	e51b3014 	ldr	r3, [fp, #-20]	; 0xffffffec
    a054:	e1d330b2 	ldrh	r3, [r3, #2]
    a058:	e1a01003 	mov	r1, r3
    a05c:	e51b0010 	ldr	r0, [fp, #-16]
    a060:	eb000ac0 	bl	cb68 <session_free_buf>
    a064:	e51b3040 	ldr	r3, [fp, #-64]	; 0xffffffc0
    a068:	e1a00003 	mov	r0, r3
    a06c:	e24bd004 	sub	sp, fp, #4
    a070:	e8bd8800 	pop	{fp, pc}

0000a074 <cat>:
int cat(struct Session* session, char* path)
{
    a074:	e92d4800 	push	{fp, lr}
    a078:	e28db004 	add	fp, sp, #4
    a07c:	e24dd008 	sub	sp, sp, #8
    a080:	e50b0008 	str	r0, [fp, #-8]
    a084:	e50b100c 	str	r1, [fp, #-12]
    return IPC_CALL(Ipc_cat)(session, path);
    a088:	e51b100c 	ldr	r1, [fp, #-12]
    a08c:	e51b0008 	ldr	r0, [fp, #-8]
    a090:	ebffff7c 	bl	9e88 <ipc_call_copy_args_Ipc_cat>
    a094:	e1a03000 	mov	r3, r0
}
    a098:	e1a00003 	mov	r0, r3
    a09c:	e24bd004 	sub	sp, fp, #4
    a0a0:	e8bd8800 	pop	{fp, pc}

0000a0a4 <ipc_call_copy_args_Ipc_open>:

IPC_INTERFACE(Ipc_open, 1, path, strlen(path) + 1);
    a0a4:	e92d4800 	push	{fp, lr}
    a0a8:	e28db004 	add	fp, sp, #4
    a0ac:	e24dd048 	sub	sp, sp, #72	; 0x48
    a0b0:	e50b0048 	str	r0, [fp, #-72]	; 0xffffffb8
    a0b4:	e50b104c 	str	r1, [fp, #-76]	; 0xffffffb4
    a0b8:	e51b3048 	ldr	r3, [fp, #-72]	; 0xffffffb8
    a0bc:	e3530000 	cmp	r3, #0
    a0c0:	1a000001 	bne	a0cc <ipc_call_copy_args_Ipc_open+0x28>
    a0c4:	e3e03000 	mvn	r3, #0
    a0c8:	ea00006d 	b	a284 <ipc_call_copy_args_Ipc_open+0x1e0>
    a0cc:	e51b3048 	ldr	r3, [fp, #-72]	; 0xffffffb8
    a0d0:	e50b3038 	str	r3, [fp, #-56]	; 0xffffffc8
    a0d4:	e51b304c 	ldr	r3, [fp, #-76]	; 0xffffffb4
    a0d8:	e50b303c 	str	r3, [fp, #-60]	; 0xffffffc4
    a0dc:	e51b003c 	ldr	r0, [fp, #-60]	; 0xffffffc4
    a0e0:	eb000f2b 	bl	dd94 <strlen>
    a0e4:	e1a03000 	mov	r3, r0
    a0e8:	e2833001 	add	r3, r3, #1
    a0ec:	e50b3044 	str	r3, [fp, #-68]	; 0xffffffbc
    a0f0:	e24b3044 	sub	r3, fp, #68	; 0x44
    a0f4:	e1a02003 	mov	r2, r3
    a0f8:	e3a01001 	mov	r1, #1
    a0fc:	e51b0038 	ldr	r0, [fp, #-56]	; 0xffffffc8
    a100:	eb0007a9 	bl	bfac <new_ipc_msg>
    a104:	e1a03000 	mov	r3, r0
    a108:	e50b3008 	str	r3, [fp, #-8]
    a10c:	e51b3008 	ldr	r3, [fp, #-8]
    a110:	e50b3030 	str	r3, [fp, #-48]	; 0xffffffd0
    a114:	e51b304c 	ldr	r3, [fp, #-76]	; 0xffffffb4
    a118:	e50b3034 	str	r3, [fp, #-52]	; 0xffffffcc
    a11c:	e51b0034 	ldr	r0, [fp, #-52]	; 0xffffffcc
    a120:	eb000f1b 	bl	dd94 <strlen>
    a124:	e1a03000 	mov	r3, r0
    a128:	e2833001 	add	r3, r3, #1
    a12c:	e51b2034 	ldr	r2, [fp, #-52]	; 0xffffffcc
    a130:	e3a01000 	mov	r1, #0
    a134:	e51b0030 	ldr	r0, [fp, #-48]	; 0xffffffd0
    a138:	eb000808 	bl	c160 <ipc_msg_set_nth_arg>
    a13c:	e3a03001 	mov	r3, #1
    a140:	e50b300c 	str	r3, [fp, #-12]
    a144:	e51b3008 	ldr	r3, [fp, #-8]
    a148:	e50b3028 	str	r3, [fp, #-40]	; 0xffffffd8
    a14c:	e3a03006 	mov	r3, #6
    a150:	e50b302c 	str	r3, [fp, #-44]	; 0xffffffd4
    if (opcode < 0 || opcode > UINT8_MAX) {
    a154:	e51b302c 	ldr	r3, [fp, #-44]	; 0xffffffd4
    a158:	e3530000 	cmp	r3, #0
    a15c:	ba000002 	blt	a16c <ipc_call_copy_args_Ipc_open+0xc8>
    a160:	e51b302c 	ldr	r3, [fp, #-44]	; 0xffffffd4
    a164:	e35300ff 	cmp	r3, #255	; 0xff
    a168:	da000001 	ble	a174 <ipc_call_copy_args_Ipc_open+0xd0>
        return false;
    a16c:	e3a03000 	mov	r3, #0
    a170:	ea000004 	b	a188 <ipc_call_copy_args_Ipc_open+0xe4>
    msg->header.opcode = opcode;
    a174:	e51b302c 	ldr	r3, [fp, #-44]	; 0xffffffd4
    a178:	e6ef2073 	uxtb	r2, r3
    a17c:	e51b3028 	ldr	r3, [fp, #-40]	; 0xffffffd8
    a180:	e5c32001 	strb	r2, [r3, #1]
    return true;
    a184:	e3a03001 	mov	r3, #1
    a188:	e50b300c 	str	r3, [fp, #-12]
    a18c:	e51b0008 	ldr	r0, [fp, #-8]
    a190:	eb00087a 	bl	c380 <ipc_msg_send_wait>
    a194:	e51b3008 	ldr	r3, [fp, #-8]
    a198:	e50b3020 	str	r3, [fp, #-32]	; 0xffffffe0
    a19c:	e51b304c 	ldr	r3, [fp, #-76]	; 0xffffffb4
    a1a0:	e50b3024 	str	r3, [fp, #-36]	; 0xffffffdc
    a1a4:	e51b0024 	ldr	r0, [fp, #-36]	; 0xffffffdc
    a1a8:	eb000ef9 	bl	dd94 <strlen>
    a1ac:	e1a03000 	mov	r3, r0
    a1b0:	e2833001 	add	r3, r3, #1
    a1b4:	e51b2024 	ldr	r2, [fp, #-36]	; 0xffffffdc
    a1b8:	e3a01000 	mov	r1, #0
    a1bc:	e51b0020 	ldr	r0, [fp, #-32]	; 0xffffffe0
    a1c0:	eb00082e 	bl	c280 <ipc_msg_get_nth_arg>
    a1c4:	e3a03001 	mov	r3, #1
    a1c8:	e50b300c 	str	r3, [fp, #-12]
    a1cc:	e3a03000 	mov	r3, #0
    a1d0:	e50b3040 	str	r3, [fp, #-64]	; 0xffffffc0
    a1d4:	e51b3008 	ldr	r3, [fp, #-8]
    a1d8:	e50b3018 	str	r3, [fp, #-24]	; 0xffffffe8
    a1dc:	e24b3040 	sub	r3, fp, #64	; 0x40
    a1e0:	e50b301c 	str	r3, [fp, #-28]	; 0xffffffe4
    assert(msg->header.done == 1);
    a1e4:	e51b3018 	ldr	r3, [fp, #-24]	; 0xffffffe8
    a1e8:	e5d33000 	ldrb	r3, [r3]
    a1ec:	e2033002 	and	r3, r3, #2
    a1f0:	e6ef3073 	uxtb	r3, r3
    a1f4:	e3530000 	cmp	r3, #0
    a1f8:	1a000007 	bne	a21c <ipc_call_copy_args_Ipc_open+0x178>
    a1fc:	e3023ab4 	movw	r3, #10932	; 0x2ab4
    a200:	e3403001 	movt	r3, #1
    a204:	e3022b1c 	movw	r2, #11036	; 0x2b1c
    a208:	e3402001 	movt	r2, #1
    a20c:	e3a01074 	mov	r1, #116	; 0x74
    a210:	e3020acc 	movw	r0, #10956	; 0x2acc
    a214:	e3400001 	movt	r0, #1
    a218:	eb000d24 	bl	d6b0 <__assert_func>
    memcpy(ret_val, &msg->header.ret_val, sizeof(msg->header.ret_val));
    a21c:	e51b3018 	ldr	r3, [fp, #-24]	; 0xffffffe8
    a220:	e2833008 	add	r3, r3, #8
    a224:	e3a02004 	mov	r2, #4
    a228:	e1a01003 	mov	r1, r3
    a22c:	e51b001c 	ldr	r0, [fp, #-28]	; 0xffffffe4
    a230:	eb000d72 	bl	d800 <memcpy>
    a234:	e51b3048 	ldr	r3, [fp, #-72]	; 0xffffffb8
    a238:	e50b3010 	str	r3, [fp, #-16]
    struct IpcMsg* msg = IPCSESSION_MSG(session);
    a23c:	e51b3010 	ldr	r3, [fp, #-16]
    a240:	e5933010 	ldr	r3, [r3, #16]
    a244:	e51b2010 	ldr	r2, [fp, #-16]
    a248:	e5922008 	ldr	r2, [r2, #8]
    a24c:	e0833002 	add	r3, r3, r2
    a250:	e50b3014 	str	r3, [fp, #-20]	; 0xffffffec
    if (msg->header.init != 1) {
    a254:	e51b3014 	ldr	r3, [fp, #-20]	; 0xffffffec
    a258:	e5d33000 	ldrb	r3, [r3]
    a25c:	e2033004 	and	r3, r3, #4
    a260:	e6ef3073 	uxtb	r3, r3
    a264:	e3530000 	cmp	r3, #0
    a268:	0a000004 	beq	a280 <ipc_call_copy_args_Ipc_open+0x1dc>
    return session_free_buf(session, msg->header.len);
    a26c:	e51b3014 	ldr	r3, [fp, #-20]	; 0xffffffec
    a270:	e1d330b2 	ldrh	r3, [r3, #2]
    a274:	e1a01003 	mov	r1, r3
    a278:	e51b0010 	ldr	r0, [fp, #-16]
    a27c:	eb000a39 	bl	cb68 <session_free_buf>
    a280:	e51b3040 	ldr	r3, [fp, #-64]	; 0xffffffc0
    a284:	e1a00003 	mov	r0, r3
    a288:	e24bd004 	sub	sp, fp, #4
    a28c:	e8bd8800 	pop	{fp, pc}

0000a290 <open>:
int open(struct Session* session, char* path)
{
    a290:	e92d4800 	push	{fp, lr}
    a294:	e28db004 	add	fp, sp, #4
    a298:	e24dd008 	sub	sp, sp, #8
    a29c:	e50b0008 	str	r0, [fp, #-8]
    a2a0:	e50b100c 	str	r1, [fp, #-12]
    return IPC_CALL(Ipc_open)(session, path);
    a2a4:	e51b100c 	ldr	r1, [fp, #-12]
    a2a8:	e51b0008 	ldr	r0, [fp, #-8]
    a2ac:	ebffff7c 	bl	a0a4 <ipc_call_copy_args_Ipc_open>
    a2b0:	e1a03000 	mov	r3, r0
}
    a2b4:	e1a00003 	mov	r0, r3
    a2b8:	e24bd004 	sub	sp, fp, #4
    a2bc:	e8bd8800 	pop	{fp, pc}

0000a2c0 <ipc_call_copy_args_Ipc_close>:

IPC_INTERFACE(Ipc_close, 1, fd, sizeof(int));
    a2c0:	e92d4800 	push	{fp, lr}
    a2c4:	e28db004 	add	fp, sp, #4
    a2c8:	e24dd048 	sub	sp, sp, #72	; 0x48
    a2cc:	e50b0048 	str	r0, [fp, #-72]	; 0xffffffb8
    a2d0:	e50b104c 	str	r1, [fp, #-76]	; 0xffffffb4
    a2d4:	e51b3048 	ldr	r3, [fp, #-72]	; 0xffffffb8
    a2d8:	e3530000 	cmp	r3, #0
    a2dc:	1a000001 	bne	a2e8 <ipc_call_copy_args_Ipc_close+0x28>
    a2e0:	e3e03000 	mvn	r3, #0
    a2e4:	ea000064 	b	a47c <ipc_call_copy_args_Ipc_close+0x1bc>
    a2e8:	e51b3048 	ldr	r3, [fp, #-72]	; 0xffffffb8
    a2ec:	e50b3038 	str	r3, [fp, #-56]	; 0xffffffc8
    a2f0:	e51b304c 	ldr	r3, [fp, #-76]	; 0xffffffb4
    a2f4:	e50b303c 	str	r3, [fp, #-60]	; 0xffffffc4
    a2f8:	e3a03004 	mov	r3, #4
    a2fc:	e50b3044 	str	r3, [fp, #-68]	; 0xffffffbc
    a300:	e24b3044 	sub	r3, fp, #68	; 0x44
    a304:	e1a02003 	mov	r2, r3
    a308:	e3a01001 	mov	r1, #1
    a30c:	e51b0038 	ldr	r0, [fp, #-56]	; 0xffffffc8
    a310:	eb000725 	bl	bfac <new_ipc_msg>
    a314:	e1a03000 	mov	r3, r0
    a318:	e50b3008 	str	r3, [fp, #-8]
    a31c:	e51b3008 	ldr	r3, [fp, #-8]
    a320:	e50b3030 	str	r3, [fp, #-48]	; 0xffffffd0
    a324:	e51b304c 	ldr	r3, [fp, #-76]	; 0xffffffb4
    a328:	e50b3034 	str	r3, [fp, #-52]	; 0xffffffcc
    a32c:	e3a03004 	mov	r3, #4
    a330:	e51b2034 	ldr	r2, [fp, #-52]	; 0xffffffcc
    a334:	e3a01000 	mov	r1, #0
    a338:	e51b0030 	ldr	r0, [fp, #-48]	; 0xffffffd0
    a33c:	eb000787 	bl	c160 <ipc_msg_set_nth_arg>
    a340:	e3a03001 	mov	r3, #1
    a344:	e50b300c 	str	r3, [fp, #-12]
    a348:	e51b3008 	ldr	r3, [fp, #-8]
    a34c:	e50b3028 	str	r3, [fp, #-40]	; 0xffffffd8
    a350:	e3a03007 	mov	r3, #7
    a354:	e50b302c 	str	r3, [fp, #-44]	; 0xffffffd4
    if (opcode < 0 || opcode > UINT8_MAX) {
    a358:	e51b302c 	ldr	r3, [fp, #-44]	; 0xffffffd4
    a35c:	e3530000 	cmp	r3, #0
    a360:	ba000002 	blt	a370 <ipc_call_copy_args_Ipc_close+0xb0>
    a364:	e51b302c 	ldr	r3, [fp, #-44]	; 0xffffffd4
    a368:	e35300ff 	cmp	r3, #255	; 0xff
    a36c:	da000001 	ble	a378 <ipc_call_copy_args_Ipc_close+0xb8>
        return false;
    a370:	e3a03000 	mov	r3, #0
    a374:	ea000004 	b	a38c <ipc_call_copy_args_Ipc_close+0xcc>
    msg->header.opcode = opcode;
    a378:	e51b302c 	ldr	r3, [fp, #-44]	; 0xffffffd4
    a37c:	e6ef2073 	uxtb	r2, r3
    a380:	e51b3028 	ldr	r3, [fp, #-40]	; 0xffffffd8
    a384:	e5c32001 	strb	r2, [r3, #1]
    return true;
    a388:	e3a03001 	mov	r3, #1
    a38c:	e50b300c 	str	r3, [fp, #-12]
    a390:	e51b0008 	ldr	r0, [fp, #-8]
    a394:	eb0007f9 	bl	c380 <ipc_msg_send_wait>
    a398:	e51b3008 	ldr	r3, [fp, #-8]
    a39c:	e50b3020 	str	r3, [fp, #-32]	; 0xffffffe0
    a3a0:	e51b304c 	ldr	r3, [fp, #-76]	; 0xffffffb4
    a3a4:	e50b3024 	str	r3, [fp, #-36]	; 0xffffffdc
    a3a8:	e3a03004 	mov	r3, #4
    a3ac:	e51b2024 	ldr	r2, [fp, #-36]	; 0xffffffdc
    a3b0:	e3a01000 	mov	r1, #0
    a3b4:	e51b0020 	ldr	r0, [fp, #-32]	; 0xffffffe0
    a3b8:	eb0007b0 	bl	c280 <ipc_msg_get_nth_arg>
    a3bc:	e3a03001 	mov	r3, #1
    a3c0:	e50b300c 	str	r3, [fp, #-12]
    a3c4:	e3a03000 	mov	r3, #0
    a3c8:	e50b3040 	str	r3, [fp, #-64]	; 0xffffffc0
    a3cc:	e51b3008 	ldr	r3, [fp, #-8]
    a3d0:	e50b3018 	str	r3, [fp, #-24]	; 0xffffffe8
    a3d4:	e24b3040 	sub	r3, fp, #64	; 0x40
    a3d8:	e50b301c 	str	r3, [fp, #-28]	; 0xffffffe4
    assert(msg->header.done == 1);
    a3dc:	e51b3018 	ldr	r3, [fp, #-24]	; 0xffffffe8
    a3e0:	e5d33000 	ldrb	r3, [r3]
    a3e4:	e2033002 	and	r3, r3, #2
    a3e8:	e6ef3073 	uxtb	r3, r3
    a3ec:	e3530000 	cmp	r3, #0
    a3f0:	1a000007 	bne	a414 <ipc_call_copy_args_Ipc_close+0x154>
    a3f4:	e3023ab4 	movw	r3, #10932	; 0x2ab4
    a3f8:	e3403001 	movt	r3, #1
    a3fc:	e3022b1c 	movw	r2, #11036	; 0x2b1c
    a400:	e3402001 	movt	r2, #1
    a404:	e3a01074 	mov	r1, #116	; 0x74
    a408:	e3020acc 	movw	r0, #10956	; 0x2acc
    a40c:	e3400001 	movt	r0, #1
    a410:	eb000ca6 	bl	d6b0 <__assert_func>
    memcpy(ret_val, &msg->header.ret_val, sizeof(msg->header.ret_val));
    a414:	e51b3018 	ldr	r3, [fp, #-24]	; 0xffffffe8
    a418:	e2833008 	add	r3, r3, #8
    a41c:	e3a02004 	mov	r2, #4
    a420:	e1a01003 	mov	r1, r3
    a424:	e51b001c 	ldr	r0, [fp, #-28]	; 0xffffffe4
    a428:	eb000cf4 	bl	d800 <memcpy>
    a42c:	e51b3048 	ldr	r3, [fp, #-72]	; 0xffffffb8
    a430:	e50b3010 	str	r3, [fp, #-16]
    struct IpcMsg* msg = IPCSESSION_MSG(session);
    a434:	e51b3010 	ldr	r3, [fp, #-16]
    a438:	e5933010 	ldr	r3, [r3, #16]
    a43c:	e51b2010 	ldr	r2, [fp, #-16]
    a440:	e5922008 	ldr	r2, [r2, #8]
    a444:	e0833002 	add	r3, r3, r2
    a448:	e50b3014 	str	r3, [fp, #-20]	; 0xffffffec
    if (msg->header.init != 1) {
    a44c:	e51b3014 	ldr	r3, [fp, #-20]	; 0xffffffec
    a450:	e5d33000 	ldrb	r3, [r3]
    a454:	e2033004 	and	r3, r3, #4
    a458:	e6ef3073 	uxtb	r3, r3
    a45c:	e3530000 	cmp	r3, #0
    a460:	0a000004 	beq	a478 <ipc_call_copy_args_Ipc_close+0x1b8>
    return session_free_buf(session, msg->header.len);
    a464:	e51b3014 	ldr	r3, [fp, #-20]	; 0xffffffec
    a468:	e1d330b2 	ldrh	r3, [r3, #2]
    a46c:	e1a01003 	mov	r1, r3
    a470:	e51b0010 	ldr	r0, [fp, #-16]
    a474:	eb0009bb 	bl	cb68 <session_free_buf>
    a478:	e51b3040 	ldr	r3, [fp, #-64]	; 0xffffffc0
    a47c:	e1a00003 	mov	r0, r3
    a480:	e24bd004 	sub	sp, fp, #4
    a484:	e8bd8800 	pop	{fp, pc}

0000a488 <close>:
int close(struct Session* session, int fd)
{
    a488:	e92d4800 	push	{fp, lr}
    a48c:	e28db004 	add	fp, sp, #4
    a490:	e24dd008 	sub	sp, sp, #8
    a494:	e50b0008 	str	r0, [fp, #-8]
    a498:	e50b100c 	str	r1, [fp, #-12]
    return IPC_CALL(Ipc_close)(session, &fd);
    a49c:	e24b300c 	sub	r3, fp, #12
    a4a0:	e1a01003 	mov	r1, r3
    a4a4:	e51b0008 	ldr	r0, [fp, #-8]
    a4a8:	ebffff84 	bl	a2c0 <ipc_call_copy_args_Ipc_close>
    a4ac:	e1a03000 	mov	r3, r0
}
    a4b0:	e1a00003 	mov	r0, r3
    a4b4:	e24bd004 	sub	sp, fp, #4
    a4b8:	e8bd8800 	pop	{fp, pc}

0000a4bc <ipc_call_copy_args_Ipc_read>:

IPC_INTERFACE(Ipc_read, 4, fd, dst, offset, len, sizeof(int), *(int*)len, sizeof(int), sizeof(int));
    a4bc:	e92d4800 	push	{fp, lr}
    a4c0:	e28db004 	add	fp, sp, #4
    a4c4:	e24dd080 	sub	sp, sp, #128	; 0x80
    a4c8:	e50b0078 	str	r0, [fp, #-120]	; 0xffffff88
    a4cc:	e50b107c 	str	r1, [fp, #-124]	; 0xffffff84
    a4d0:	e50b2080 	str	r2, [fp, #-128]	; 0xffffff80
    a4d4:	e50b3084 	str	r3, [fp, #-132]	; 0xffffff7c
    a4d8:	e51b3078 	ldr	r3, [fp, #-120]	; 0xffffff88
    a4dc:	e3530000 	cmp	r3, #0
    a4e0:	1a000001 	bne	a4ec <ipc_call_copy_args_Ipc_read+0x30>
    a4e4:	e3e03000 	mvn	r3, #0
    a4e8:	ea00009d 	b	a764 <ipc_call_copy_args_Ipc_read+0x2a8>
    a4ec:	e51b3078 	ldr	r3, [fp, #-120]	; 0xffffff88
    a4f0:	e50b3050 	str	r3, [fp, #-80]	; 0xffffffb0
    a4f4:	e51b307c 	ldr	r3, [fp, #-124]	; 0xffffff84
    a4f8:	e50b3054 	str	r3, [fp, #-84]	; 0xffffffac
    a4fc:	e51b3080 	ldr	r3, [fp, #-128]	; 0xffffff80
    a500:	e50b3058 	str	r3, [fp, #-88]	; 0xffffffa8
    a504:	e51b3084 	ldr	r3, [fp, #-132]	; 0xffffff7c
    a508:	e50b305c 	str	r3, [fp, #-92]	; 0xffffffa4
    a50c:	e59b3004 	ldr	r3, [fp, #4]
    a510:	e50b3060 	str	r3, [fp, #-96]	; 0xffffffa0
    a514:	e3a03004 	mov	r3, #4
    a518:	e50b3074 	str	r3, [fp, #-116]	; 0xffffff8c
    a51c:	e51b3060 	ldr	r3, [fp, #-96]	; 0xffffffa0
    a520:	e5933000 	ldr	r3, [r3]
    a524:	e50b3070 	str	r3, [fp, #-112]	; 0xffffff90
    a528:	e3a03004 	mov	r3, #4
    a52c:	e50b306c 	str	r3, [fp, #-108]	; 0xffffff94
    a530:	e3a03004 	mov	r3, #4
    a534:	e50b3068 	str	r3, [fp, #-104]	; 0xffffff98
    a538:	e24b3074 	sub	r3, fp, #116	; 0x74
    a53c:	e1a02003 	mov	r2, r3
    a540:	e3a01004 	mov	r1, #4
    a544:	e51b0050 	ldr	r0, [fp, #-80]	; 0xffffffb0
    a548:	eb000697 	bl	bfac <new_ipc_msg>
    a54c:	e1a03000 	mov	r3, r0
    a550:	e50b3008 	str	r3, [fp, #-8]
    a554:	e51b3008 	ldr	r3, [fp, #-8]
    a558:	e50b303c 	str	r3, [fp, #-60]	; 0xffffffc4
    a55c:	e51b307c 	ldr	r3, [fp, #-124]	; 0xffffff84
    a560:	e50b3040 	str	r3, [fp, #-64]	; 0xffffffc0
    a564:	e51b3080 	ldr	r3, [fp, #-128]	; 0xffffff80
    a568:	e50b3044 	str	r3, [fp, #-68]	; 0xffffffbc
    a56c:	e51b3084 	ldr	r3, [fp, #-132]	; 0xffffff7c
    a570:	e50b3048 	str	r3, [fp, #-72]	; 0xffffffb8
    a574:	e59b3004 	ldr	r3, [fp, #4]
    a578:	e50b304c 	str	r3, [fp, #-76]	; 0xffffffb4
    a57c:	e3a03004 	mov	r3, #4
    a580:	e51b2040 	ldr	r2, [fp, #-64]	; 0xffffffc0
    a584:	e3a01000 	mov	r1, #0
    a588:	e51b003c 	ldr	r0, [fp, #-60]	; 0xffffffc4
    a58c:	eb0006f3 	bl	c160 <ipc_msg_set_nth_arg>
    a590:	e51b304c 	ldr	r3, [fp, #-76]	; 0xffffffb4
    a594:	e5933000 	ldr	r3, [r3]
    a598:	e51b2044 	ldr	r2, [fp, #-68]	; 0xffffffbc
    a59c:	e3a01001 	mov	r1, #1
    a5a0:	e51b003c 	ldr	r0, [fp, #-60]	; 0xffffffc4
    a5a4:	eb0006ed 	bl	c160 <ipc_msg_set_nth_arg>
    a5a8:	e3a03004 	mov	r3, #4
    a5ac:	e51b2048 	ldr	r2, [fp, #-72]	; 0xffffffb8
    a5b0:	e3a01002 	mov	r1, #2
    a5b4:	e51b003c 	ldr	r0, [fp, #-60]	; 0xffffffc4
    a5b8:	eb0006e8 	bl	c160 <ipc_msg_set_nth_arg>
    a5bc:	e3a03004 	mov	r3, #4
    a5c0:	e51b204c 	ldr	r2, [fp, #-76]	; 0xffffffb4
    a5c4:	e3a01003 	mov	r1, #3
    a5c8:	e51b003c 	ldr	r0, [fp, #-60]	; 0xffffffc4
    a5cc:	eb0006e3 	bl	c160 <ipc_msg_set_nth_arg>
    a5d0:	e3a03001 	mov	r3, #1
    a5d4:	e50b300c 	str	r3, [fp, #-12]
    a5d8:	e51b3008 	ldr	r3, [fp, #-8]
    a5dc:	e50b3034 	str	r3, [fp, #-52]	; 0xffffffcc
    a5e0:	e3a03008 	mov	r3, #8
    a5e4:	e50b3038 	str	r3, [fp, #-56]	; 0xffffffc8
    if (opcode < 0 || opcode > UINT8_MAX) {
    a5e8:	e51b3038 	ldr	r3, [fp, #-56]	; 0xffffffc8
    a5ec:	e3530000 	cmp	r3, #0
    a5f0:	ba000002 	blt	a600 <ipc_call_copy_args_Ipc_read+0x144>
    a5f4:	e51b3038 	ldr	r3, [fp, #-56]	; 0xffffffc8
    a5f8:	e35300ff 	cmp	r3, #255	; 0xff
    a5fc:	da000001 	ble	a608 <ipc_call_copy_args_Ipc_read+0x14c>
        return false;
    a600:	e3a03000 	mov	r3, #0
    a604:	ea000004 	b	a61c <ipc_call_copy_args_Ipc_read+0x160>
    msg->header.opcode = opcode;
    a608:	e51b3038 	ldr	r3, [fp, #-56]	; 0xffffffc8
    a60c:	e6ef2073 	uxtb	r2, r3
    a610:	e51b3034 	ldr	r3, [fp, #-52]	; 0xffffffcc
    a614:	e5c32001 	strb	r2, [r3, #1]
    return true;
    a618:	e3a03001 	mov	r3, #1
    a61c:	e50b300c 	str	r3, [fp, #-12]
    a620:	e51b0008 	ldr	r0, [fp, #-8]
    a624:	eb000755 	bl	c380 <ipc_msg_send_wait>
    a628:	e51b3008 	ldr	r3, [fp, #-8]
    a62c:	e50b3020 	str	r3, [fp, #-32]	; 0xffffffe0
    a630:	e51b307c 	ldr	r3, [fp, #-124]	; 0xffffff84
    a634:	e50b3024 	str	r3, [fp, #-36]	; 0xffffffdc
    a638:	e51b3080 	ldr	r3, [fp, #-128]	; 0xffffff80
    a63c:	e50b3028 	str	r3, [fp, #-40]	; 0xffffffd8
    a640:	e51b3084 	ldr	r3, [fp, #-132]	; 0xffffff7c
    a644:	e50b302c 	str	r3, [fp, #-44]	; 0xffffffd4
    a648:	e59b3004 	ldr	r3, [fp, #4]
    a64c:	e50b3030 	str	r3, [fp, #-48]	; 0xffffffd0
    a650:	e3a03004 	mov	r3, #4
    a654:	e51b2024 	ldr	r2, [fp, #-36]	; 0xffffffdc
    a658:	e3a01000 	mov	r1, #0
    a65c:	e51b0020 	ldr	r0, [fp, #-32]	; 0xffffffe0
    a660:	eb000706 	bl	c280 <ipc_msg_get_nth_arg>
    a664:	e51b3030 	ldr	r3, [fp, #-48]	; 0xffffffd0
    a668:	e5933000 	ldr	r3, [r3]
    a66c:	e51b2028 	ldr	r2, [fp, #-40]	; 0xffffffd8
    a670:	e3a01001 	mov	r1, #1
    a674:	e51b0020 	ldr	r0, [fp, #-32]	; 0xffffffe0
    a678:	eb000700 	bl	c280 <ipc_msg_get_nth_arg>
    a67c:	e3a03004 	mov	r3, #4
    a680:	e51b202c 	ldr	r2, [fp, #-44]	; 0xffffffd4
    a684:	e3a01002 	mov	r1, #2
    a688:	e51b0020 	ldr	r0, [fp, #-32]	; 0xffffffe0
    a68c:	eb0006fb 	bl	c280 <ipc_msg_get_nth_arg>
    a690:	e3a03004 	mov	r3, #4
    a694:	e51b2030 	ldr	r2, [fp, #-48]	; 0xffffffd0
    a698:	e3a01003 	mov	r1, #3
    a69c:	e51b0020 	ldr	r0, [fp, #-32]	; 0xffffffe0
    a6a0:	eb0006f6 	bl	c280 <ipc_msg_get_nth_arg>
    a6a4:	e3a03001 	mov	r3, #1
    a6a8:	e50b300c 	str	r3, [fp, #-12]
    a6ac:	e3a03000 	mov	r3, #0
    a6b0:	e50b3064 	str	r3, [fp, #-100]	; 0xffffff9c
    a6b4:	e51b3008 	ldr	r3, [fp, #-8]
    a6b8:	e50b3018 	str	r3, [fp, #-24]	; 0xffffffe8
    a6bc:	e24b3064 	sub	r3, fp, #100	; 0x64
    a6c0:	e50b301c 	str	r3, [fp, #-28]	; 0xffffffe4
    assert(msg->header.done == 1);
    a6c4:	e51b3018 	ldr	r3, [fp, #-24]	; 0xffffffe8
    a6c8:	e5d33000 	ldrb	r3, [r3]
    a6cc:	e2033002 	and	r3, r3, #2
    a6d0:	e6ef3073 	uxtb	r3, r3
    a6d4:	e3530000 	cmp	r3, #0
    a6d8:	1a000007 	bne	a6fc <ipc_call_copy_args_Ipc_read+0x240>
    a6dc:	e3023ab4 	movw	r3, #10932	; 0x2ab4
    a6e0:	e3403001 	movt	r3, #1
    a6e4:	e3022b1c 	movw	r2, #11036	; 0x2b1c
    a6e8:	e3402001 	movt	r2, #1
    a6ec:	e3a01074 	mov	r1, #116	; 0x74
    a6f0:	e3020acc 	movw	r0, #10956	; 0x2acc
    a6f4:	e3400001 	movt	r0, #1
    a6f8:	eb000bec 	bl	d6b0 <__assert_func>
    memcpy(ret_val, &msg->header.ret_val, sizeof(msg->header.ret_val));
    a6fc:	e51b3018 	ldr	r3, [fp, #-24]	; 0xffffffe8
    a700:	e2833008 	add	r3, r3, #8
    a704:	e3a02004 	mov	r2, #4
    a708:	e1a01003 	mov	r1, r3
    a70c:	e51b001c 	ldr	r0, [fp, #-28]	; 0xffffffe4
    a710:	eb000c3a 	bl	d800 <memcpy>
    a714:	e51b3078 	ldr	r3, [fp, #-120]	; 0xffffff88
    a718:	e50b3010 	str	r3, [fp, #-16]
    struct IpcMsg* msg = IPCSESSION_MSG(session);
    a71c:	e51b3010 	ldr	r3, [fp, #-16]
    a720:	e5933010 	ldr	r3, [r3, #16]
    a724:	e51b2010 	ldr	r2, [fp, #-16]
    a728:	e5922008 	ldr	r2, [r2, #8]
    a72c:	e0833002 	add	r3, r3, r2
    a730:	e50b3014 	str	r3, [fp, #-20]	; 0xffffffec
    if (msg->header.init != 1) {
    a734:	e51b3014 	ldr	r3, [fp, #-20]	; 0xffffffec
    a738:	e5d33000 	ldrb	r3, [r3]
    a73c:	e2033004 	and	r3, r3, #4
    a740:	e6ef3073 	uxtb	r3, r3
    a744:	e3530000 	cmp	r3, #0
    a748:	0a000004 	beq	a760 <ipc_call_copy_args_Ipc_read+0x2a4>
    return session_free_buf(session, msg->header.len);
    a74c:	e51b3014 	ldr	r3, [fp, #-20]	; 0xffffffec
    a750:	e1d330b2 	ldrh	r3, [r3, #2]
    a754:	e1a01003 	mov	r1, r3
    a758:	e51b0010 	ldr	r0, [fp, #-16]
    a75c:	eb000901 	bl	cb68 <session_free_buf>
    a760:	e51b3064 	ldr	r3, [fp, #-100]	; 0xffffff9c
    a764:	e1a00003 	mov	r0, r3
    a768:	e24bd004 	sub	sp, fp, #4
    a76c:	e8bd8800 	pop	{fp, pc}

0000a770 <read>:
int read(struct Session* session, int fd, char* dst, int offset, int len)
{
    a770:	e92d4800 	push	{fp, lr}
    a774:	e28db004 	add	fp, sp, #4
    a778:	e24dd018 	sub	sp, sp, #24
    a77c:	e50b0008 	str	r0, [fp, #-8]
    a780:	e50b100c 	str	r1, [fp, #-12]
    a784:	e50b2010 	str	r2, [fp, #-16]
    a788:	e50b3014 	str	r3, [fp, #-20]	; 0xffffffec
    return IPC_CALL(Ipc_read)(session, &fd, dst, &offset, &len);
    a78c:	e24b2014 	sub	r2, fp, #20
    a790:	e24b100c 	sub	r1, fp, #12
    a794:	e28b3004 	add	r3, fp, #4
    a798:	e58d3000 	str	r3, [sp]
    a79c:	e1a03002 	mov	r3, r2
    a7a0:	e51b2010 	ldr	r2, [fp, #-16]
    a7a4:	e51b0008 	ldr	r0, [fp, #-8]
    a7a8:	ebffff43 	bl	a4bc <ipc_call_copy_args_Ipc_read>
    a7ac:	e1a03000 	mov	r3, r0
}
    a7b0:	e1a00003 	mov	r0, r3
    a7b4:	e24bd004 	sub	sp, fp, #4
    a7b8:	e8bd8800 	pop	{fp, pc}

0000a7bc <ipc_call_copy_args_Ipc_write>:

IPC_INTERFACE(Ipc_write, 4, fd, src, offset, len, sizeof(int), *(int*)len, sizeof(int), sizeof(int));
    a7bc:	e92d4800 	push	{fp, lr}
    a7c0:	e28db004 	add	fp, sp, #4
    a7c4:	e24dd080 	sub	sp, sp, #128	; 0x80
    a7c8:	e50b0078 	str	r0, [fp, #-120]	; 0xffffff88
    a7cc:	e50b107c 	str	r1, [fp, #-124]	; 0xffffff84
    a7d0:	e50b2080 	str	r2, [fp, #-128]	; 0xffffff80
    a7d4:	e50b3084 	str	r3, [fp, #-132]	; 0xffffff7c
    a7d8:	e51b3078 	ldr	r3, [fp, #-120]	; 0xffffff88
    a7dc:	e3530000 	cmp	r3, #0
    a7e0:	1a000001 	bne	a7ec <ipc_call_copy_args_Ipc_write+0x30>
    a7e4:	e3e03000 	mvn	r3, #0
    a7e8:	ea00009d 	b	aa64 <ipc_call_copy_args_Ipc_write+0x2a8>
    a7ec:	e51b3078 	ldr	r3, [fp, #-120]	; 0xffffff88
    a7f0:	e50b3050 	str	r3, [fp, #-80]	; 0xffffffb0
    a7f4:	e51b307c 	ldr	r3, [fp, #-124]	; 0xffffff84
    a7f8:	e50b3054 	str	r3, [fp, #-84]	; 0xffffffac
    a7fc:	e51b3080 	ldr	r3, [fp, #-128]	; 0xffffff80
    a800:	e50b3058 	str	r3, [fp, #-88]	; 0xffffffa8
    a804:	e51b3084 	ldr	r3, [fp, #-132]	; 0xffffff7c
    a808:	e50b305c 	str	r3, [fp, #-92]	; 0xffffffa4
    a80c:	e59b3004 	ldr	r3, [fp, #4]
    a810:	e50b3060 	str	r3, [fp, #-96]	; 0xffffffa0
    a814:	e3a03004 	mov	r3, #4
    a818:	e50b3074 	str	r3, [fp, #-116]	; 0xffffff8c
    a81c:	e51b3060 	ldr	r3, [fp, #-96]	; 0xffffffa0
    a820:	e5933000 	ldr	r3, [r3]
    a824:	e50b3070 	str	r3, [fp, #-112]	; 0xffffff90
    a828:	e3a03004 	mov	r3, #4
    a82c:	e50b306c 	str	r3, [fp, #-108]	; 0xffffff94
    a830:	e3a03004 	mov	r3, #4
    a834:	e50b3068 	str	r3, [fp, #-104]	; 0xffffff98
    a838:	e24b3074 	sub	r3, fp, #116	; 0x74
    a83c:	e1a02003 	mov	r2, r3
    a840:	e3a01004 	mov	r1, #4
    a844:	e51b0050 	ldr	r0, [fp, #-80]	; 0xffffffb0
    a848:	eb0005d7 	bl	bfac <new_ipc_msg>
    a84c:	e1a03000 	mov	r3, r0
    a850:	e50b3008 	str	r3, [fp, #-8]
    a854:	e51b3008 	ldr	r3, [fp, #-8]
    a858:	e50b303c 	str	r3, [fp, #-60]	; 0xffffffc4
    a85c:	e51b307c 	ldr	r3, [fp, #-124]	; 0xffffff84
    a860:	e50b3040 	str	r3, [fp, #-64]	; 0xffffffc0
    a864:	e51b3080 	ldr	r3, [fp, #-128]	; 0xffffff80
    a868:	e50b3044 	str	r3, [fp, #-68]	; 0xffffffbc
    a86c:	e51b3084 	ldr	r3, [fp, #-132]	; 0xffffff7c
    a870:	e50b3048 	str	r3, [fp, #-72]	; 0xffffffb8
    a874:	e59b3004 	ldr	r3, [fp, #4]
    a878:	e50b304c 	str	r3, [fp, #-76]	; 0xffffffb4
    a87c:	e3a03004 	mov	r3, #4
    a880:	e51b2040 	ldr	r2, [fp, #-64]	; 0xffffffc0
    a884:	e3a01000 	mov	r1, #0
    a888:	e51b003c 	ldr	r0, [fp, #-60]	; 0xffffffc4
    a88c:	eb000633 	bl	c160 <ipc_msg_set_nth_arg>
    a890:	e51b304c 	ldr	r3, [fp, #-76]	; 0xffffffb4
    a894:	e5933000 	ldr	r3, [r3]
    a898:	e51b2044 	ldr	r2, [fp, #-68]	; 0xffffffbc
    a89c:	e3a01001 	mov	r1, #1
    a8a0:	e51b003c 	ldr	r0, [fp, #-60]	; 0xffffffc4
    a8a4:	eb00062d 	bl	c160 <ipc_msg_set_nth_arg>
    a8a8:	e3a03004 	mov	r3, #4
    a8ac:	e51b2048 	ldr	r2, [fp, #-72]	; 0xffffffb8
    a8b0:	e3a01002 	mov	r1, #2
    a8b4:	e51b003c 	ldr	r0, [fp, #-60]	; 0xffffffc4
    a8b8:	eb000628 	bl	c160 <ipc_msg_set_nth_arg>
    a8bc:	e3a03004 	mov	r3, #4
    a8c0:	e51b204c 	ldr	r2, [fp, #-76]	; 0xffffffb4
    a8c4:	e3a01003 	mov	r1, #3
    a8c8:	e51b003c 	ldr	r0, [fp, #-60]	; 0xffffffc4
    a8cc:	eb000623 	bl	c160 <ipc_msg_set_nth_arg>
    a8d0:	e3a03001 	mov	r3, #1
    a8d4:	e50b300c 	str	r3, [fp, #-12]
    a8d8:	e51b3008 	ldr	r3, [fp, #-8]
    a8dc:	e50b3034 	str	r3, [fp, #-52]	; 0xffffffcc
    a8e0:	e3a03009 	mov	r3, #9
    a8e4:	e50b3038 	str	r3, [fp, #-56]	; 0xffffffc8
    if (opcode < 0 || opcode > UINT8_MAX) {
    a8e8:	e51b3038 	ldr	r3, [fp, #-56]	; 0xffffffc8
    a8ec:	e3530000 	cmp	r3, #0
    a8f0:	ba000002 	blt	a900 <ipc_call_copy_args_Ipc_write+0x144>
    a8f4:	e51b3038 	ldr	r3, [fp, #-56]	; 0xffffffc8
    a8f8:	e35300ff 	cmp	r3, #255	; 0xff
    a8fc:	da000001 	ble	a908 <ipc_call_copy_args_Ipc_write+0x14c>
        return false;
    a900:	e3a03000 	mov	r3, #0
    a904:	ea000004 	b	a91c <ipc_call_copy_args_Ipc_write+0x160>
    msg->header.opcode = opcode;
    a908:	e51b3038 	ldr	r3, [fp, #-56]	; 0xffffffc8
    a90c:	e6ef2073 	uxtb	r2, r3
    a910:	e51b3034 	ldr	r3, [fp, #-52]	; 0xffffffcc
    a914:	e5c32001 	strb	r2, [r3, #1]
    return true;
    a918:	e3a03001 	mov	r3, #1
    a91c:	e50b300c 	str	r3, [fp, #-12]
    a920:	e51b0008 	ldr	r0, [fp, #-8]
    a924:	eb000695 	bl	c380 <ipc_msg_send_wait>
    a928:	e51b3008 	ldr	r3, [fp, #-8]
    a92c:	e50b3020 	str	r3, [fp, #-32]	; 0xffffffe0
    a930:	e51b307c 	ldr	r3, [fp, #-124]	; 0xffffff84
    a934:	e50b3024 	str	r3, [fp, #-36]	; 0xffffffdc
    a938:	e51b3080 	ldr	r3, [fp, #-128]	; 0xffffff80
    a93c:	e50b3028 	str	r3, [fp, #-40]	; 0xffffffd8
    a940:	e51b3084 	ldr	r3, [fp, #-132]	; 0xffffff7c
    a944:	e50b302c 	str	r3, [fp, #-44]	; 0xffffffd4
    a948:	e59b3004 	ldr	r3, [fp, #4]
    a94c:	e50b3030 	str	r3, [fp, #-48]	; 0xffffffd0
    a950:	e3a03004 	mov	r3, #4
    a954:	e51b2024 	ldr	r2, [fp, #-36]	; 0xffffffdc
    a958:	e3a01000 	mov	r1, #0
    a95c:	e51b0020 	ldr	r0, [fp, #-32]	; 0xffffffe0
    a960:	eb000646 	bl	c280 <ipc_msg_get_nth_arg>
    a964:	e51b3030 	ldr	r3, [fp, #-48]	; 0xffffffd0
    a968:	e5933000 	ldr	r3, [r3]
    a96c:	e51b2028 	ldr	r2, [fp, #-40]	; 0xffffffd8
    a970:	e3a01001 	mov	r1, #1
    a974:	e51b0020 	ldr	r0, [fp, #-32]	; 0xffffffe0
    a978:	eb000640 	bl	c280 <ipc_msg_get_nth_arg>
    a97c:	e3a03004 	mov	r3, #4
    a980:	e51b202c 	ldr	r2, [fp, #-44]	; 0xffffffd4
    a984:	e3a01002 	mov	r1, #2
    a988:	e51b0020 	ldr	r0, [fp, #-32]	; 0xffffffe0
    a98c:	eb00063b 	bl	c280 <ipc_msg_get_nth_arg>
    a990:	e3a03004 	mov	r3, #4
    a994:	e51b2030 	ldr	r2, [fp, #-48]	; 0xffffffd0
    a998:	e3a01003 	mov	r1, #3
    a99c:	e51b0020 	ldr	r0, [fp, #-32]	; 0xffffffe0
    a9a0:	eb000636 	bl	c280 <ipc_msg_get_nth_arg>
    a9a4:	e3a03001 	mov	r3, #1
    a9a8:	e50b300c 	str	r3, [fp, #-12]
    a9ac:	e3a03000 	mov	r3, #0
    a9b0:	e50b3064 	str	r3, [fp, #-100]	; 0xffffff9c
    a9b4:	e51b3008 	ldr	r3, [fp, #-8]
    a9b8:	e50b3018 	str	r3, [fp, #-24]	; 0xffffffe8
    a9bc:	e24b3064 	sub	r3, fp, #100	; 0x64
    a9c0:	e50b301c 	str	r3, [fp, #-28]	; 0xffffffe4
    assert(msg->header.done == 1);
    a9c4:	e51b3018 	ldr	r3, [fp, #-24]	; 0xffffffe8
    a9c8:	e5d33000 	ldrb	r3, [r3]
    a9cc:	e2033002 	and	r3, r3, #2
    a9d0:	e6ef3073 	uxtb	r3, r3
    a9d4:	e3530000 	cmp	r3, #0
    a9d8:	1a000007 	bne	a9fc <ipc_call_copy_args_Ipc_write+0x240>
    a9dc:	e3023ab4 	movw	r3, #10932	; 0x2ab4
    a9e0:	e3403001 	movt	r3, #1
    a9e4:	e3022b1c 	movw	r2, #11036	; 0x2b1c
    a9e8:	e3402001 	movt	r2, #1
    a9ec:	e3a01074 	mov	r1, #116	; 0x74
    a9f0:	e3020acc 	movw	r0, #10956	; 0x2acc
    a9f4:	e3400001 	movt	r0, #1
    a9f8:	eb000b2c 	bl	d6b0 <__assert_func>
    memcpy(ret_val, &msg->header.ret_val, sizeof(msg->header.ret_val));
    a9fc:	e51b3018 	ldr	r3, [fp, #-24]	; 0xffffffe8
    aa00:	e2833008 	add	r3, r3, #8
    aa04:	e3a02004 	mov	r2, #4
    aa08:	e1a01003 	mov	r1, r3
    aa0c:	e51b001c 	ldr	r0, [fp, #-28]	; 0xffffffe4
    aa10:	eb000b7a 	bl	d800 <memcpy>
    aa14:	e51b3078 	ldr	r3, [fp, #-120]	; 0xffffff88
    aa18:	e50b3010 	str	r3, [fp, #-16]
    struct IpcMsg* msg = IPCSESSION_MSG(session);
    aa1c:	e51b3010 	ldr	r3, [fp, #-16]
    aa20:	e5933010 	ldr	r3, [r3, #16]
    aa24:	e51b2010 	ldr	r2, [fp, #-16]
    aa28:	e5922008 	ldr	r2, [r2, #8]
    aa2c:	e0833002 	add	r3, r3, r2
    aa30:	e50b3014 	str	r3, [fp, #-20]	; 0xffffffec
    if (msg->header.init != 1) {
    aa34:	e51b3014 	ldr	r3, [fp, #-20]	; 0xffffffec
    aa38:	e5d33000 	ldrb	r3, [r3]
    aa3c:	e2033004 	and	r3, r3, #4
    aa40:	e6ef3073 	uxtb	r3, r3
    aa44:	e3530000 	cmp	r3, #0
    aa48:	0a000004 	beq	aa60 <ipc_call_copy_args_Ipc_write+0x2a4>
    return session_free_buf(session, msg->header.len);
    aa4c:	e51b3014 	ldr	r3, [fp, #-20]	; 0xffffffec
    aa50:	e1d330b2 	ldrh	r3, [r3, #2]
    aa54:	e1a01003 	mov	r1, r3
    aa58:	e51b0010 	ldr	r0, [fp, #-16]
    aa5c:	eb000841 	bl	cb68 <session_free_buf>
    aa60:	e51b3064 	ldr	r3, [fp, #-100]	; 0xffffff9c
    aa64:	e1a00003 	mov	r0, r3
    aa68:	e24bd004 	sub	sp, fp, #4
    aa6c:	e8bd8800 	pop	{fp, pc}

0000aa70 <write>:
int write(struct Session* session, int fd, char* src, int offset, int len)
{
    aa70:	e92d4800 	push	{fp, lr}
    aa74:	e28db004 	add	fp, sp, #4
    aa78:	e24dd018 	sub	sp, sp, #24
    aa7c:	e50b0008 	str	r0, [fp, #-8]
    aa80:	e50b100c 	str	r1, [fp, #-12]
    aa84:	e50b2010 	str	r2, [fp, #-16]
    aa88:	e50b3014 	str	r3, [fp, #-20]	; 0xffffffec
    return IPC_CALL(Ipc_write)(session, &fd, src, &offset, &len);
    aa8c:	e24b2014 	sub	r2, fp, #20
    aa90:	e24b100c 	sub	r1, fp, #12
    aa94:	e28b3004 	add	r3, fp, #4
    aa98:	e58d3000 	str	r3, [sp]
    aa9c:	e1a03002 	mov	r3, r2
    aaa0:	e51b2010 	ldr	r2, [fp, #-16]
    aaa4:	e51b0008 	ldr	r0, [fp, #-8]
    aaa8:	ebffff43 	bl	a7bc <ipc_call_copy_args_Ipc_write>
    aaac:	e1a03000 	mov	r3, r0
    aab0:	e1a00003 	mov	r0, r3
    aab4:	e24bd004 	sub	sp, fp, #4
    aab8:	e8bd8800 	pop	{fp, pc}

0000aabc <Error>:
#include "block_io.h"
#include "fs.h"
#include "libserial.h"

static void Error(char* s)
{
    aabc:	e92d4800 	push	{fp, lr}
    aac0:	e28db004 	add	fp, sp, #4
    aac4:	e24dd008 	sub	sp, sp, #8
    aac8:	e50b0008 	str	r0, [fp, #-8]
    printf("Error: %s\n", s);
    aacc:	e51b1008 	ldr	r1, [fp, #-8]
    aad0:	e3020b30 	movw	r0, #11056	; 0x2b30
    aad4:	e3400001 	movt	r0, #1
    aad8:	eb0004a8 	bl	bd80 <printf>
    for (;;)
    aadc:	eafffffe 	b	aadc <Error+0x20>

0000aae0 <MemFsInit>:

struct MemFsRange MemFsRange;

/// @brief Using syscall to get fs.img real location in the memory
void MemFsInit(uintptr_t _binary_fs_img_start, uint32_t fs_img_len)
{
    aae0:	e52db004 	push	{fp}		; (str fp, [sp, #-4]!)
    aae4:	e28db000 	add	fp, sp, #0
    aae8:	e24dd00c 	sub	sp, sp, #12
    aaec:	e50b0008 	str	r0, [fp, #-8]
    aaf0:	e50b100c 	str	r1, [fp, #-12]
    MemFsRange.memfs_start = _binary_fs_img_start;
    aaf4:	e30c3178 	movw	r3, #49528	; 0xc178
    aaf8:	e3403003 	movt	r3, #3
    aafc:	e51b2008 	ldr	r2, [fp, #-8]
    ab00:	e5832000 	str	r2, [r3]
    MemFsRange.memfs_nr_blocks = fs_img_len / BLOCK_SIZE;
    ab04:	e51b300c 	ldr	r3, [fp, #-12]
    ab08:	e1a024a3 	lsr	r2, r3, #9
    ab0c:	e30c3178 	movw	r3, #49528	; 0xc178
    ab10:	e3403003 	movt	r3, #3
    ab14:	e5832004 	str	r2, [r3, #4]
}
    ab18:	e320f000 	nop	{0}
    ab1c:	e28bd000 	add	sp, fp, #0
    ab20:	e49db004 	pop	{fp}		; (ldr fp, [sp], #4)
    ab24:	e12fff1e 	bx	lr

0000ab28 <ReadSuperBlock>:

/// @brief Read the super block.
void ReadSuperBlock(struct SuperBlock* sb)
{
    ab28:	e92d4800 	push	{fp, lr}
    ab2c:	e28db004 	add	fp, sp, #4
    ab30:	e24dd010 	sub	sp, sp, #16
    ab34:	e50b0010 	str	r0, [fp, #-16]
    uint8_t* data = BlockRead(ROOT_INUM);
    ab38:	e3a00001 	mov	r0, #1
    ab3c:	eb000862 	bl	cccc <BlockRead>
    ab40:	e50b0008 	str	r0, [fp, #-8]
    memmove(sb, data, sizeof(*sb));
    ab44:	e3a0200c 	mov	r2, #12
    ab48:	e51b1008 	ldr	r1, [fp, #-8]
    ab4c:	e51b0010 	ldr	r0, [fp, #-16]
    ab50:	eb000b6f 	bl	d914 <memmove>
}
    ab54:	e320f000 	nop	{0}
    ab58:	e24bd004 	sub	sp, fp, #4
    ab5c:	e8bd8800 	pop	{fp, pc}

0000ab60 <InodeGet>:

/// @brief Get a existed Inode by inum
struct Inode* InodeGet(uint32_t inum)
{
    ab60:	e92d4800 	push	{fp, lr}
    ab64:	e28db004 	add	fp, sp, #4
    ab68:	e24dd010 	sub	sp, sp, #16
    ab6c:	e50b0010 	str	r0, [fp, #-16]
    struct Inode* ip;
    uint8_t* data = BlockRead(BLOCK_INDEX(inum));
    ab70:	e51b3010 	ldr	r3, [fp, #-16]
    ab74:	e1a031a3 	lsr	r3, r3, #3
    ab78:	e2833002 	add	r3, r3, #2
    ab7c:	e1a00003 	mov	r0, r3
    ab80:	eb000851 	bl	cccc <BlockRead>
    ab84:	e50b0008 	str	r0, [fp, #-8]
    ip = (struct Inode*)data + INODE_INDEX(inum);
    ab88:	e51b3010 	ldr	r3, [fp, #-16]
    ab8c:	e2033007 	and	r3, r3, #7
    ab90:	e1a03303 	lsl	r3, r3, #6
    ab94:	e51b2008 	ldr	r2, [fp, #-8]
    ab98:	e0823003 	add	r3, r2, r3
    ab9c:	e50b300c 	str	r3, [fp, #-12]
    return ip;
    aba0:	e51b300c 	ldr	r3, [fp, #-12]
}
    aba4:	e1a00003 	mov	r0, r3
    aba8:	e24bd004 	sub	sp, fp, #4
    abac:	e8bd8800 	pop	{fp, pc}

0000abb0 <InodeAlloc>:

/// @brief Alloc a new Inode using type
static struct Inode* InodeAlloc(short type)
{
    abb0:	e92d4800 	push	{fp, lr}
    abb4:	e28db004 	add	fp, sp, #4
    abb8:	e24dd020 	sub	sp, sp, #32
    abbc:	e1a03000 	mov	r3, r0
    abc0:	e14b31be 	strh	r3, [fp, #-30]	; 0xffffffe2
    int inum;
    struct Inode* ip;
    struct SuperBlock sb;

    ReadSuperBlock(&sb);
    abc4:	e24b301c 	sub	r3, fp, #28
    abc8:	e1a00003 	mov	r0, r3
    abcc:	ebffffd5 	bl	ab28 <ReadSuperBlock>
    for (inum = 1; inum < sb.ninodes; inum++) {
    abd0:	e3a03001 	mov	r3, #1
    abd4:	e50b3008 	str	r3, [fp, #-8]
    abd8:	ea000024 	b	ac70 <InodeAlloc+0xc0>
        uint8_t* data = BlockRead(BLOCK_INDEX(inum));
    abdc:	e51b3008 	ldr	r3, [fp, #-8]
    abe0:	e1a031a3 	lsr	r3, r3, #3
    abe4:	e2833002 	add	r3, r3, #2
    abe8:	e1a00003 	mov	r0, r3
    abec:	eb000836 	bl	cccc <BlockRead>
    abf0:	e50b000c 	str	r0, [fp, #-12]
        ip = (struct Inode*)data + INODE_INDEX(inum);
    abf4:	e51b3008 	ldr	r3, [fp, #-8]
    abf8:	e2033007 	and	r3, r3, #7
    abfc:	e1a03303 	lsl	r3, r3, #6
    ac00:	e51b200c 	ldr	r2, [fp, #-12]
    ac04:	e0823003 	add	r3, r2, r3
    ac08:	e50b3010 	str	r3, [fp, #-16]
        if (ip->type == 0) {
    ac0c:	e51b3010 	ldr	r3, [fp, #-16]
    ac10:	e1d330f4 	ldrsh	r3, [r3, #4]
    ac14:	e3530000 	cmp	r3, #0
    ac18:	1a000011 	bne	ac64 <InodeAlloc+0xb4>
            memset(ip, 0, sizeof(*ip));
    ac1c:	e3a02040 	mov	r2, #64	; 0x40
    ac20:	e3a01000 	mov	r1, #0
    ac24:	e51b0010 	ldr	r0, [fp, #-16]
    ac28:	eb000b8b 	bl	da5c <memset>
            ip->inum = inum;
    ac2c:	e51b2008 	ldr	r2, [fp, #-8]
    ac30:	e51b3010 	ldr	r3, [fp, #-16]
    ac34:	e5832000 	str	r2, [r3]
            ip->type = type;
    ac38:	e51b3010 	ldr	r3, [fp, #-16]
    ac3c:	e15b21be 	ldrh	r2, [fp, #-30]	; 0xffffffe2
    ac40:	e1c320b4 	strh	r2, [r3, #4]
            ip->nlink = 1;
    ac44:	e51b3010 	ldr	r3, [fp, #-16]
    ac48:	e3a02001 	mov	r2, #1
    ac4c:	e1c320b6 	strh	r2, [r3, #6]
            ip->size = 0;
    ac50:	e51b3010 	ldr	r3, [fp, #-16]
    ac54:	e3a02000 	mov	r2, #0
    ac58:	e5832008 	str	r2, [r3, #8]
            return ip;
    ac5c:	e51b3010 	ldr	r3, [fp, #-16]
    ac60:	ea00000a 	b	ac90 <InodeAlloc+0xe0>
    for (inum = 1; inum < sb.ninodes; inum++) {
    ac64:	e51b3008 	ldr	r3, [fp, #-8]
    ac68:	e2833001 	add	r3, r3, #1
    ac6c:	e50b3008 	str	r3, [fp, #-8]
    ac70:	e51b2014 	ldr	r2, [fp, #-20]	; 0xffffffec
    ac74:	e51b3008 	ldr	r3, [fp, #-8]
    ac78:	e1520003 	cmp	r2, r3
    ac7c:	8affffd6 	bhi	abdc <InodeAlloc+0x2c>
        }
    }

    Error("InodeAlloc: no inodes");
    ac80:	e3020b3c 	movw	r0, #11068	; 0x2b3c
    ac84:	e3400001 	movt	r0, #1
    ac88:	ebffff8b 	bl	aabc <Error>
    return NULL;
    ac8c:	e3a03000 	mov	r3, #0
}
    ac90:	e1a00003 	mov	r0, r3
    ac94:	e24bd004 	sub	sp, fp, #4
    ac98:	e8bd8800 	pop	{fp, pc}

0000ac9c <InodeFree>:

/// @brief Free the existed Inode
static int InodeFree(struct Inode* ip)
{
    ac9c:	e92d4800 	push	{fp, lr}
    aca0:	e28db004 	add	fp, sp, #4
    aca4:	e24dd010 	sub	sp, sp, #16
    aca8:	e50b0010 	str	r0, [fp, #-16]
    uint8_t* data = BlockRead(BLOCK_INDEX(ip->inum));
    acac:	e51b3010 	ldr	r3, [fp, #-16]
    acb0:	e5933000 	ldr	r3, [r3]
    acb4:	e1a031a3 	lsr	r3, r3, #3
    acb8:	e2833002 	add	r3, r3, #2
    acbc:	e1a00003 	mov	r0, r3
    acc0:	eb000801 	bl	cccc <BlockRead>
    acc4:	e50b0008 	str	r0, [fp, #-8]
    struct Inode* dip = (struct Inode*)data + INODE_INDEX(ip->inum);
    acc8:	e51b3010 	ldr	r3, [fp, #-16]
    accc:	e5933000 	ldr	r3, [r3]
    acd0:	e2033007 	and	r3, r3, #7
    acd4:	e1a03303 	lsl	r3, r3, #6
    acd8:	e51b2008 	ldr	r2, [fp, #-8]
    acdc:	e0823003 	add	r3, r2, r3
    ace0:	e50b300c 	str	r3, [fp, #-12]
    dip->type = 0;
    ace4:	e51b300c 	ldr	r3, [fp, #-12]
    ace8:	e3a02000 	mov	r2, #0
    acec:	e1c320b4 	strh	r2, [r3, #4]

    return 0;
    acf0:	e3a03000 	mov	r3, #0
}
    acf4:	e1a00003 	mov	r0, r3
    acf8:	e24bd004 	sub	sp, fp, #4
    acfc:	e8bd8800 	pop	{fp, pc}

0000ad00 <InodeFreeRecursive>:

/// @brief Delete the dir and all files or dirs under the dir.
static int InodeFreeRecursive(struct Inode* dp)
{
    ad00:	e92d4800 	push	{fp, lr}
    ad04:	e28db004 	add	fp, sp, #4
    ad08:	e24dd020 	sub	sp, sp, #32
    ad0c:	e50b0020 	str	r0, [fp, #-32]	; 0xffffffe0
    uint32_t off;
    struct Inode* ip;
    struct DirectEntry de;

    for (off = 0; off < dp->size; off += sizeof(de)) {
    ad10:	e3a03000 	mov	r3, #0
    ad14:	e50b3008 	str	r3, [fp, #-8]
    ad18:	ea000047 	b	ae3c <InodeFreeRecursive+0x13c>
        if (InodeRead(dp, (char*)&de, off, sizeof(de)) != sizeof(de)) {
    ad1c:	e51b2008 	ldr	r2, [fp, #-8]
    ad20:	e24b101c 	sub	r1, fp, #28
    ad24:	e3a03010 	mov	r3, #16
    ad28:	e51b0020 	ldr	r0, [fp, #-32]	; 0xffffffe0
    ad2c:	eb000214 	bl	b584 <InodeRead>
    ad30:	e1a03000 	mov	r3, r0
    ad34:	e3530010 	cmp	r3, #16
    ad38:	0a000002 	beq	ad48 <InodeFreeRecursive+0x48>
            Error("inode_delete_dir failed: read directory entry failed");
    ad3c:	e3020b54 	movw	r0, #11092	; 0x2b54
    ad40:	e3400001 	movt	r0, #1
    ad44:	ebffff5c 	bl	aabc <Error>
        }

        // unlink dir
        if (de.inum == 0 || strcmp(de.name, "..") == 0 || strcmp(de.name, ".") == 0) {
    ad48:	e15b31bc 	ldrh	r3, [fp, #-28]	; 0xffffffe4
    ad4c:	e3530000 	cmp	r3, #0
    ad50:	0a000035 	beq	ae2c <InodeFreeRecursive+0x12c>
    ad54:	e24b301c 	sub	r3, fp, #28
    ad58:	e2833002 	add	r3, r3, #2
    ad5c:	e3021b8c 	movw	r1, #11148	; 0x2b8c
    ad60:	e3401001 	movt	r1, #1
    ad64:	e1a00003 	mov	r0, r3
    ad68:	eb000b80 	bl	db70 <strcmp>
    ad6c:	e1a03000 	mov	r3, r0
    ad70:	e3530000 	cmp	r3, #0
    ad74:	0a00002c 	beq	ae2c <InodeFreeRecursive+0x12c>
    ad78:	e24b301c 	sub	r3, fp, #28
    ad7c:	e2833002 	add	r3, r3, #2
    ad80:	e3021b90 	movw	r1, #11152	; 0x2b90
    ad84:	e3401001 	movt	r1, #1
    ad88:	e1a00003 	mov	r0, r3
    ad8c:	eb000b77 	bl	db70 <strcmp>
    ad90:	e1a03000 	mov	r3, r0
    ad94:	e3530000 	cmp	r3, #0
    ad98:	0a000023 	beq	ae2c <InodeFreeRecursive+0x12c>
            continue;
        }

        ip = InodeGet(de.inum);
    ad9c:	e15b31bc 	ldrh	r3, [fp, #-28]	; 0xffffffe4
    ada0:	e1a00003 	mov	r0, r3
    ada4:	ebffff6d 	bl	ab60 <InodeGet>
    ada8:	e50b000c 	str	r0, [fp, #-12]
        if (ip->type == T_DIR) {
    adac:	e51b300c 	ldr	r3, [fp, #-12]
    adb0:	e1d330f4 	ldrsh	r3, [r3, #4]
    adb4:	e3530001 	cmp	r3, #1
    adb8:	1a000006 	bne	add8 <InodeFreeRecursive+0xd8>
            if (InodeFreeRecursive(ip) < 0) {
    adbc:	e51b000c 	ldr	r0, [fp, #-12]
    adc0:	ebffffce 	bl	ad00 <InodeFreeRecursive>
    adc4:	e1a03000 	mov	r3, r0
    adc8:	e3530000 	cmp	r3, #0
    adcc:	aa000007 	bge	adf0 <InodeFreeRecursive+0xf0>
                return -1;
    add0:	e3e03000 	mvn	r3, #0
    add4:	ea00001e 	b	ae54 <InodeFreeRecursive+0x154>
            }
        } else if (ip->type == T_FILE) {
    add8:	e51b300c 	ldr	r3, [fp, #-12]
    addc:	e1d330f4 	ldrsh	r3, [r3, #4]
    ade0:	e3530002 	cmp	r3, #2
    ade4:	1a000001 	bne	adf0 <InodeFreeRecursive+0xf0>
            InodeFree(ip);
    ade8:	e51b000c 	ldr	r0, [fp, #-12]
    adec:	ebffffaa 	bl	ac9c <InodeFree>
        }

        // delete the dir entry
        de.inum = 0;
    adf0:	e3a03000 	mov	r3, #0
    adf4:	e14b31bc 	strh	r3, [fp, #-28]	; 0xffffffe4
        if (InodeWrite(dp, (char*)&de, off, sizeof(de)) != sizeof(de)) {
    adf8:	e24b101c 	sub	r1, fp, #28
    adfc:	e3a03010 	mov	r3, #16
    ae00:	e51b2008 	ldr	r2, [fp, #-8]
    ae04:	e51b0020 	ldr	r0, [fp, #-32]	; 0xffffffe0
    ae08:	eb00023d 	bl	b704 <InodeWrite>
    ae0c:	e1a03000 	mov	r3, r0
    ae10:	e3530010 	cmp	r3, #16
    ae14:	0a000005 	beq	ae30 <InodeFreeRecursive+0x130>
            printf("InodeDelete failed: clear directory entry failed");
    ae18:	e3020b94 	movw	r0, #11156	; 0x2b94
    ae1c:	e3400001 	movt	r0, #1
    ae20:	eb0003d6 	bl	bd80 <printf>
            return -1;
    ae24:	e3e03000 	mvn	r3, #0
    ae28:	ea000009 	b	ae54 <InodeFreeRecursive+0x154>
            continue;
    ae2c:	e320f000 	nop	{0}
    for (off = 0; off < dp->size; off += sizeof(de)) {
    ae30:	e51b3008 	ldr	r3, [fp, #-8]
    ae34:	e2833010 	add	r3, r3, #16
    ae38:	e50b3008 	str	r3, [fp, #-8]
    ae3c:	e51b3020 	ldr	r3, [fp, #-32]	; 0xffffffe0
    ae40:	e5932008 	ldr	r2, [r3, #8]
    ae44:	e51b3008 	ldr	r3, [fp, #-8]
    ae48:	e1520003 	cmp	r2, r3
    ae4c:	8affffb2 	bhi	ad1c <InodeFreeRecursive+0x1c>
        }
    }
    return 0;
    ae50:	e3a03000 	mov	r3, #0
}
    ae54:	e1a00003 	mov	r0, r3
    ae58:	e24bd004 	sub	sp, fp, #4
    ae5c:	e8bd8800 	pop	{fp, pc}

0000ae60 <InodeDelete>:

/// @brief Delete a file Inode or a dir Inode
int InodeDelete(struct Inode* dp, char* name)
{
    ae60:	e92d4800 	push	{fp, lr}
    ae64:	e28db004 	add	fp, sp, #4
    ae68:	e24dd020 	sub	sp, sp, #32
    ae6c:	e50b0020 	str	r0, [fp, #-32]	; 0xffffffe0
    ae70:	e50b1024 	str	r1, [fp, #-36]	; 0xffffffdc
    uint32_t off;
    struct Inode* ip;
    struct DirectEntry de;

    if ((ip = DirInodeLookup(dp, name, &off)) == 0) {
    ae74:	e24b300c 	sub	r3, fp, #12
    ae78:	e1a02003 	mov	r2, r3
    ae7c:	e51b1024 	ldr	r1, [fp, #-36]	; 0xffffffdc
    ae80:	e51b0020 	ldr	r0, [fp, #-32]	; 0xffffffe0
    ae84:	eb0000de 	bl	b204 <DirInodeLookup>
    ae88:	e50b0008 	str	r0, [fp, #-8]
    ae8c:	e51b3008 	ldr	r3, [fp, #-8]
    ae90:	e3530000 	cmp	r3, #0
    ae94:	1a000004 	bne	aeac <InodeDelete+0x4c>
        Error("Inode delete failed, file not exsit");
    ae98:	e3020bc8 	movw	r0, #11208	; 0x2bc8
    ae9c:	e3400001 	movt	r0, #1
    aea0:	ebffff05 	bl	aabc <Error>
        return -1;
    aea4:	e3e03000 	mvn	r3, #0
    aea8:	ea00001c 	b	af20 <InodeDelete+0xc0>
    }

    InodeFree(ip);
    aeac:	e51b0008 	ldr	r0, [fp, #-8]
    aeb0:	ebffff79 	bl	ac9c <InodeFree>
    if (ip->type == T_DIR) {
    aeb4:	e51b3008 	ldr	r3, [fp, #-8]
    aeb8:	e1d330f4 	ldrsh	r3, [r3, #4]
    aebc:	e3530001 	cmp	r3, #1
    aec0:	1a000006 	bne	aee0 <InodeDelete+0x80>
        // recursive free alloced Inode
        if (InodeFreeRecursive(ip) < 0) {
    aec4:	e51b0008 	ldr	r0, [fp, #-8]
    aec8:	ebffff8c 	bl	ad00 <InodeFreeRecursive>
    aecc:	e1a03000 	mov	r3, r0
    aed0:	e3530000 	cmp	r3, #0
    aed4:	aa000001 	bge	aee0 <InodeDelete+0x80>
            return -1;
    aed8:	e3e03000 	mvn	r3, #0
    aedc:	ea00000f 	b	af20 <InodeDelete+0xc0>
        }
    }

    // delete the dir entry
    de.inum = 0;
    aee0:	e3a03000 	mov	r3, #0
    aee4:	e14b31bc 	strh	r3, [fp, #-28]	; 0xffffffe4
    if (InodeWrite(dp, (char*)&de, off, sizeof(de)) != sizeof(de)) {
    aee8:	e51b200c 	ldr	r2, [fp, #-12]
    aeec:	e24b101c 	sub	r1, fp, #28
    aef0:	e3a03010 	mov	r3, #16
    aef4:	e51b0020 	ldr	r0, [fp, #-32]	; 0xffffffe0
    aef8:	eb000201 	bl	b704 <InodeWrite>
    aefc:	e1a03000 	mov	r3, r0
    af00:	e3530010 	cmp	r3, #16
    af04:	0a000004 	beq	af1c <InodeDelete+0xbc>
        printf("InodeDelete failed: clear directory entry failed");
    af08:	e3020b94 	movw	r0, #11156	; 0x2b94
    af0c:	e3400001 	movt	r0, #1
    af10:	eb00039a 	bl	bd80 <printf>
        return -1;
    af14:	e3e03000 	mvn	r3, #0
    af18:	ea000000 	b	af20 <InodeDelete+0xc0>
    }
    return 0;
    af1c:	e3a03000 	mov	r3, #0
}
    af20:	e1a00003 	mov	r0, r3
    af24:	e24bd004 	sub	sp, fp, #4
    af28:	e8bd8800 	pop	{fp, pc}

0000af2c <InodeCreate>:

/// @brief Create a new Inode under the parent Inode
struct Inode* InodeCreate(struct Inode* dp, char* name, short type, short major, short minor)
{
    af2c:	e92d4800 	push	{fp, lr}
    af30:	e28db004 	add	fp, sp, #4
    af34:	e24dd018 	sub	sp, sp, #24
    af38:	e50b0010 	str	r0, [fp, #-16]
    af3c:	e50b1014 	str	r1, [fp, #-20]	; 0xffffffec
    af40:	e14b21b6 	strh	r2, [fp, #-22]	; 0xffffffea
    af44:	e14b31b8 	strh	r3, [fp, #-24]	; 0xffffffe8
    uint32_t off;
    struct Inode* ip;

    if ((ip = DirInodeLookup(dp, name, &off)) != 0) {
    af48:	e24b300c 	sub	r3, fp, #12
    af4c:	e1a02003 	mov	r2, r3
    af50:	e51b1014 	ldr	r1, [fp, #-20]	; 0xffffffec
    af54:	e51b0010 	ldr	r0, [fp, #-16]
    af58:	eb0000a9 	bl	b204 <DirInodeLookup>
    af5c:	e50b0008 	str	r0, [fp, #-8]
    af60:	e51b3008 	ldr	r3, [fp, #-8]
    af64:	e3530000 	cmp	r3, #0
    af68:	0a00000a 	beq	af98 <InodeCreate+0x6c>
        if (type == T_FILE && ip->type == T_FILE) {
    af6c:	e15b31f6 	ldrsh	r3, [fp, #-22]	; 0xffffffea
    af70:	e3530002 	cmp	r3, #2
    af74:	1a000005 	bne	af90 <InodeCreate+0x64>
    af78:	e51b3008 	ldr	r3, [fp, #-8]
    af7c:	e1d330f4 	ldrsh	r3, [r3, #4]
    af80:	e3530002 	cmp	r3, #2
    af84:	1a000001 	bne	af90 <InodeCreate+0x64>
            return ip;
    af88:	e51b3008 	ldr	r3, [fp, #-8]
    af8c:	ea00003a 	b	b07c <InodeCreate+0x150>
        }
        return 0;
    af90:	e3a03000 	mov	r3, #0
    af94:	ea000038 	b	b07c <InodeCreate+0x150>
    }

    if ((ip = InodeAlloc(type)) == 0) {
    af98:	e15b31f6 	ldrsh	r3, [fp, #-22]	; 0xffffffea
    af9c:	e1a00003 	mov	r0, r3
    afa0:	ebffff02 	bl	abb0 <InodeAlloc>
    afa4:	e50b0008 	str	r0, [fp, #-8]
    afa8:	e51b3008 	ldr	r3, [fp, #-8]
    afac:	e3530000 	cmp	r3, #0
    afb0:	1a000002 	bne	afc0 <InodeCreate+0x94>
        Error("InodeCreate: create Inode failed\n");
    afb4:	e3020bec 	movw	r0, #11244	; 0x2bec
    afb8:	e3400001 	movt	r0, #1
    afbc:	ebfffebe 	bl	aabc <Error>
    }

    if (type == T_DIR) {
    afc0:	e15b31f6 	ldrsh	r3, [fp, #-22]	; 0xffffffea
    afc4:	e3530001 	cmp	r3, #1
    afc8:	1a00001e 	bne	b048 <InodeCreate+0x11c>
        dp->nlink++;
    afcc:	e51b3010 	ldr	r3, [fp, #-16]
    afd0:	e1d330f6 	ldrsh	r3, [r3, #6]
    afd4:	e6ff3073 	uxth	r3, r3
    afd8:	e2833001 	add	r3, r3, #1
    afdc:	e6ff3073 	uxth	r3, r3
    afe0:	e6bf2073 	sxth	r2, r3
    afe4:	e51b3010 	ldr	r3, [fp, #-16]
    afe8:	e1c320b6 	strh	r2, [r3, #6]
        if (DirInodeAddEntry(ip, ".", ip->inum) < 0 || DirInodeAddEntry(ip, "..", dp->inum) < 0) {
    afec:	e51b3008 	ldr	r3, [fp, #-8]
    aff0:	e5933000 	ldr	r3, [r3]
    aff4:	e1a02003 	mov	r2, r3
    aff8:	e3021b90 	movw	r1, #11152	; 0x2b90
    affc:	e3401001 	movt	r1, #1
    b000:	e51b0008 	ldr	r0, [fp, #-8]
    b004:	eb0000be 	bl	b304 <DirInodeAddEntry>
    b008:	e1a03000 	mov	r3, r0
    b00c:	e3530000 	cmp	r3, #0
    b010:	ba000009 	blt	b03c <InodeCreate+0x110>
    b014:	e51b3010 	ldr	r3, [fp, #-16]
    b018:	e5933000 	ldr	r3, [r3]
    b01c:	e1a02003 	mov	r2, r3
    b020:	e3021b8c 	movw	r1, #11148	; 0x2b8c
    b024:	e3401001 	movt	r1, #1
    b028:	e51b0008 	ldr	r0, [fp, #-8]
    b02c:	eb0000b4 	bl	b304 <DirInodeAddEntry>
    b030:	e1a03000 	mov	r3, r0
    b034:	e3530000 	cmp	r3, #0
    b038:	aa000002 	bge	b048 <InodeCreate+0x11c>
            Error("InodeCreate: create dots");
    b03c:	e3020c10 	movw	r0, #11280	; 0x2c10
    b040:	e3400001 	movt	r0, #1
    b044:	ebfffe9c 	bl	aabc <Error>
        }
    }

    if (DirInodeAddEntry(dp, name, ip->inum) < 0) {
    b048:	e51b3008 	ldr	r3, [fp, #-8]
    b04c:	e5933000 	ldr	r3, [r3]
    b050:	e1a02003 	mov	r2, r3
    b054:	e51b1014 	ldr	r1, [fp, #-20]	; 0xffffffec
    b058:	e51b0010 	ldr	r0, [fp, #-16]
    b05c:	eb0000a8 	bl	b304 <DirInodeAddEntry>
    b060:	e1a03000 	mov	r3, r0
    b064:	e3530000 	cmp	r3, #0
    b068:	aa000002 	bge	b078 <InodeCreate+0x14c>
        Error("InodeCreate: DirInodeAddEntry failed");
    b06c:	e3020c2c 	movw	r0, #11308	; 0x2c2c
    b070:	e3400001 	movt	r0, #1
    b074:	ebfffe90 	bl	aabc <Error>
    }

    return ip;
    b078:	e51b3008 	ldr	r3, [fp, #-8]
}
    b07c:	e1a00003 	mov	r0, r3
    b080:	e24bd004 	sub	sp, fp, #4
    b084:	e8bd8800 	pop	{fp, pc}

0000b088 <InodeBlockMapping>:

/// @brief Mapping the direct block addrs or indirect block addrs of the Inode using the block_num
static uint32_t InodeBlockMapping(struct Inode* ip, uint32_t block_num)
{
    b088:	e92d4810 	push	{r4, fp, lr}
    b08c:	e28db008 	add	fp, sp, #8
    b090:	e24dd01c 	sub	sp, sp, #28
    b094:	e50b0020 	str	r0, [fp, #-32]	; 0xffffffe0
    b098:	e50b1024 	str	r1, [fp, #-36]	; 0xffffffdc
    uint32_t addr;
    // block is in range of direct mapping
    if (block_num < NR_DIRECT_BLOCKS) {
    b09c:	e51b3024 	ldr	r3, [fp, #-36]	; 0xffffffdc
    b0a0:	e3530004 	cmp	r3, #4
    b0a4:	8a000014 	bhi	b0fc <InodeBlockMapping+0x74>
        if ((addr = ip->addrs[block_num]) == 0) {
    b0a8:	e51b2020 	ldr	r2, [fp, #-32]	; 0xffffffe0
    b0ac:	e51b3024 	ldr	r3, [fp, #-36]	; 0xffffffdc
    b0b0:	e2833002 	add	r3, r3, #2
    b0b4:	e1a03103 	lsl	r3, r3, #2
    b0b8:	e0823003 	add	r3, r2, r3
    b0bc:	e5933004 	ldr	r3, [r3, #4]
    b0c0:	e50b3010 	str	r3, [fp, #-16]
    b0c4:	e51b3010 	ldr	r3, [fp, #-16]
    b0c8:	e3530000 	cmp	r3, #0
    b0cc:	1a000008 	bne	b0f4 <InodeBlockMapping+0x6c>
            ip->addrs[block_num] = addr = BlockAlloc();
    b0d0:	eb00071c 	bl	cd48 <BlockAlloc>
    b0d4:	e50b0010 	str	r0, [fp, #-16]
    b0d8:	e51b2020 	ldr	r2, [fp, #-32]	; 0xffffffe0
    b0dc:	e51b3024 	ldr	r3, [fp, #-36]	; 0xffffffdc
    b0e0:	e2833002 	add	r3, r3, #2
    b0e4:	e1a03103 	lsl	r3, r3, #2
    b0e8:	e0823003 	add	r3, r2, r3
    b0ec:	e51b2010 	ldr	r2, [fp, #-16]
    b0f0:	e5832004 	str	r2, [r3, #4]
        }
        return addr;
    b0f4:	e51b3010 	ldr	r3, [fp, #-16]
    b0f8:	ea00003e 	b	b1f8 <InodeBlockMapping+0x170>
    }

    // alloc a new indirect indexing block
    block_num -= NR_DIRECT_BLOCKS;
    b0fc:	e51b3024 	ldr	r3, [fp, #-36]	; 0xffffffdc
    b100:	e2433005 	sub	r3, r3, #5
    b104:	e50b3024 	str	r3, [fp, #-36]	; 0xffffffdc
    int indirect_block_id = block_num / MAX_INDIRECT_BLOCKS;
    b108:	e51b3024 	ldr	r3, [fp, #-36]	; 0xffffffdc
    b10c:	e1a033a3 	lsr	r3, r3, #7
    b110:	e50b3014 	str	r3, [fp, #-20]	; 0xffffffec
    if (indirect_block_id < NR_INDIRECT_BLOCKS) {
    b114:	e51b3014 	ldr	r3, [fp, #-20]	; 0xffffffec
    b118:	e3530007 	cmp	r3, #7
    b11c:	ca000027 	bgt	b1c0 <InodeBlockMapping+0x138>
        if ((addr = ip->addrs[NR_DIRECT_BLOCKS + indirect_block_id]) == 0) {
    b120:	e51b3014 	ldr	r3, [fp, #-20]	; 0xffffffec
    b124:	e2833005 	add	r3, r3, #5
    b128:	e51b2020 	ldr	r2, [fp, #-32]	; 0xffffffe0
    b12c:	e2833002 	add	r3, r3, #2
    b130:	e1a03103 	lsl	r3, r3, #2
    b134:	e0823003 	add	r3, r2, r3
    b138:	e5933004 	ldr	r3, [r3, #4]
    b13c:	e50b3010 	str	r3, [fp, #-16]
    b140:	e51b3010 	ldr	r3, [fp, #-16]
    b144:	e3530000 	cmp	r3, #0
    b148:	1a000009 	bne	b174 <InodeBlockMapping+0xec>
            ip->addrs[NR_DIRECT_BLOCKS + indirect_block_id] = addr = BlockAlloc();
    b14c:	e51b3014 	ldr	r3, [fp, #-20]	; 0xffffffec
    b150:	e2834005 	add	r4, r3, #5
    b154:	eb0006fb 	bl	cd48 <BlockAlloc>
    b158:	e50b0010 	str	r0, [fp, #-16]
    b15c:	e51b2020 	ldr	r2, [fp, #-32]	; 0xffffffe0
    b160:	e2843002 	add	r3, r4, #2
    b164:	e1a03103 	lsl	r3, r3, #2
    b168:	e0823003 	add	r3, r2, r3
    b16c:	e51b2010 	ldr	r2, [fp, #-16]
    b170:	e5832004 	str	r2, [r3, #4]
        }
        block_num -= indirect_block_id * MAX_INDIRECT_BLOCKS;
    b174:	e51b3014 	ldr	r3, [fp, #-20]	; 0xffffffec
    b178:	e1a03383 	lsl	r3, r3, #7
    b17c:	e51b2024 	ldr	r2, [fp, #-36]	; 0xffffffdc
    b180:	e0423003 	sub	r3, r2, r3
    b184:	e50b3024 	str	r3, [fp, #-36]	; 0xffffffdc
        Error("InodeBlockMapping: out of range");
        return 0;
    }

    // alloc a new indirect block
    uint32_t* indirect_block = (uint32_t*)BlockRead(addr);
    b188:	e51b3010 	ldr	r3, [fp, #-16]
    b18c:	e1a00003 	mov	r0, r3
    b190:	eb0006cd 	bl	cccc <BlockRead>
    b194:	e50b0018 	str	r0, [fp, #-24]	; 0xffffffe8
    if ((addr = indirect_block[block_num]) == 0) {
    b198:	e51b3024 	ldr	r3, [fp, #-36]	; 0xffffffdc
    b19c:	e1a03103 	lsl	r3, r3, #2
    b1a0:	e51b2018 	ldr	r2, [fp, #-24]	; 0xffffffe8
    b1a4:	e0823003 	add	r3, r2, r3
    b1a8:	e5933000 	ldr	r3, [r3]
    b1ac:	e50b3010 	str	r3, [fp, #-16]
    b1b0:	e51b3010 	ldr	r3, [fp, #-16]
    b1b4:	e3530000 	cmp	r3, #0
    b1b8:	1a00000d 	bne	b1f4 <InodeBlockMapping+0x16c>
    b1bc:	ea000004 	b	b1d4 <InodeBlockMapping+0x14c>
        Error("InodeBlockMapping: out of range");
    b1c0:	e3020c54 	movw	r0, #11348	; 0x2c54
    b1c4:	e3400001 	movt	r0, #1
    b1c8:	ebfffe3b 	bl	aabc <Error>
        return 0;
    b1cc:	e3a03000 	mov	r3, #0
    b1d0:	ea000008 	b	b1f8 <InodeBlockMapping+0x170>
        indirect_block[block_num] = addr = BlockAlloc();
    b1d4:	e51b3024 	ldr	r3, [fp, #-36]	; 0xffffffdc
    b1d8:	e1a03103 	lsl	r3, r3, #2
    b1dc:	e51b2018 	ldr	r2, [fp, #-24]	; 0xffffffe8
    b1e0:	e0824003 	add	r4, r2, r3
    b1e4:	eb0006d7 	bl	cd48 <BlockAlloc>
    b1e8:	e50b0010 	str	r0, [fp, #-16]
    b1ec:	e51b3010 	ldr	r3, [fp, #-16]
    b1f0:	e5843000 	str	r3, [r4]
    }

    return addr;
    b1f4:	e51b3010 	ldr	r3, [fp, #-16]
}
    b1f8:	e1a00003 	mov	r0, r3
    b1fc:	e24bd008 	sub	sp, fp, #8
    b200:	e8bd8810 	pop	{r4, fp, pc}

0000b204 <DirInodeLookup>:

/// @brief Look up the directory Inode for searching the target Inode
static struct Inode* DirInodeLookup(struct Inode* dp, char* name, uint32_t* poff)
{
    b204:	e92d4800 	push	{fp, lr}
    b208:	e28db004 	add	fp, sp, #4
    b20c:	e24dd028 	sub	sp, sp, #40	; 0x28
    b210:	e50b0020 	str	r0, [fp, #-32]	; 0xffffffe0
    b214:	e50b1024 	str	r1, [fp, #-36]	; 0xffffffdc
    b218:	e50b2028 	str	r2, [fp, #-40]	; 0xffffffd8
    uint32_t off, inum;
    struct DirectEntry de;

    if (dp->type != T_DIR) {
    b21c:	e51b3020 	ldr	r3, [fp, #-32]	; 0xffffffe0
    b220:	e1d330f4 	ldrsh	r3, [r3, #4]
    b224:	e3530001 	cmp	r3, #1
    b228:	0a000002 	beq	b238 <DirInodeLookup+0x34>
        Error("DirInodeLookup not DIR");
    b22c:	e3020c74 	movw	r0, #11380	; 0x2c74
    b230:	e3400001 	movt	r0, #1
    b234:	ebfffe20 	bl	aabc <Error>
    }

    for (off = 0; off < dp->size; off += sizeof(de)) {
    b238:	e3a03000 	mov	r3, #0
    b23c:	e50b3008 	str	r3, [fp, #-8]
    b240:	ea000026 	b	b2e0 <DirInodeLookup+0xdc>
        if (InodeRead(dp, (char*)&de, off, sizeof(de)) != sizeof(de)) {
    b244:	e51b2008 	ldr	r2, [fp, #-8]
    b248:	e24b101c 	sub	r1, fp, #28
    b24c:	e3a03010 	mov	r3, #16
    b250:	e51b0020 	ldr	r0, [fp, #-32]	; 0xffffffe0
    b254:	eb0000ca 	bl	b584 <InodeRead>
    b258:	e1a03000 	mov	r3, r0
    b25c:	e3530010 	cmp	r3, #16
    b260:	0a000002 	beq	b270 <DirInodeLookup+0x6c>
            Error("DirInodeAddEntry read");
    b264:	e3020c8c 	movw	r0, #11404	; 0x2c8c
    b268:	e3400001 	movt	r0, #1
    b26c:	ebfffe12 	bl	aabc <Error>
        }

        if (de.inum == 0) {
    b270:	e15b31bc 	ldrh	r3, [fp, #-28]	; 0xffffffe4
    b274:	e3530000 	cmp	r3, #0
    b278:	0a000014 	beq	b2d0 <DirInodeLookup+0xcc>
            continue;
        }

        if (strncmp((const char*)name, (const char*)de.name, DIR_NAME_SIZE) == 0) {
    b27c:	e24b301c 	sub	r3, fp, #28
    b280:	e2833002 	add	r3, r3, #2
    b284:	e3a0200e 	mov	r2, #14
    b288:	e1a01003 	mov	r1, r3
    b28c:	e51b0024 	ldr	r0, [fp, #-36]	; 0xffffffdc
    b290:	eb000ad7 	bl	ddf4 <strncmp>
    b294:	e1a03000 	mov	r3, r0
    b298:	e3530000 	cmp	r3, #0
    b29c:	1a00000c 	bne	b2d4 <DirInodeLookup+0xd0>
            if (poff) {
    b2a0:	e51b3028 	ldr	r3, [fp, #-40]	; 0xffffffd8
    b2a4:	e3530000 	cmp	r3, #0
    b2a8:	0a000002 	beq	b2b8 <DirInodeLookup+0xb4>
                *poff = off;
    b2ac:	e51b3028 	ldr	r3, [fp, #-40]	; 0xffffffd8
    b2b0:	e51b2008 	ldr	r2, [fp, #-8]
    b2b4:	e5832000 	str	r2, [r3]
            }
            inum = de.inum;
    b2b8:	e15b31bc 	ldrh	r3, [fp, #-28]	; 0xffffffe4
    b2bc:	e50b300c 	str	r3, [fp, #-12]
            return InodeGet(inum);
    b2c0:	e51b000c 	ldr	r0, [fp, #-12]
    b2c4:	ebfffe25 	bl	ab60 <InodeGet>
    b2c8:	e1a03000 	mov	r3, r0
    b2cc:	ea000009 	b	b2f8 <DirInodeLookup+0xf4>
            continue;
    b2d0:	e320f000 	nop	{0}
    for (off = 0; off < dp->size; off += sizeof(de)) {
    b2d4:	e51b3008 	ldr	r3, [fp, #-8]
    b2d8:	e2833010 	add	r3, r3, #16
    b2dc:	e50b3008 	str	r3, [fp, #-8]
    b2e0:	e51b3020 	ldr	r3, [fp, #-32]	; 0xffffffe0
    b2e4:	e5932008 	ldr	r2, [r3, #8]
    b2e8:	e51b3008 	ldr	r3, [fp, #-8]
    b2ec:	e1520003 	cmp	r2, r3
    b2f0:	8affffd3 	bhi	b244 <DirInodeLookup+0x40>
        }
    }

    return 0;
    b2f4:	e3a03000 	mov	r3, #0
}
    b2f8:	e1a00003 	mov	r0, r3
    b2fc:	e24bd004 	sub	sp, fp, #4
    b300:	e8bd8800 	pop	{fp, pc}

0000b304 <DirInodeAddEntry>:

/// @brief Add a new directory entry for dir Inode
static int DirInodeAddEntry(struct Inode* dp, char* name, uint32_t inum)
{
    b304:	e92d4800 	push	{fp, lr}
    b308:	e28db004 	add	fp, sp, #4
    b30c:	e24dd028 	sub	sp, sp, #40	; 0x28
    b310:	e50b0020 	str	r0, [fp, #-32]	; 0xffffffe0
    b314:	e50b1024 	str	r1, [fp, #-36]	; 0xffffffdc
    b318:	e50b2028 	str	r2, [fp, #-40]	; 0xffffffd8
    int off;
    struct DirectEntry de;
    struct Inode* ip;

    // Check that direct entry is existed.
    if ((ip = DirInodeLookup(dp, name, 0)) != 0) {
    b31c:	e3a02000 	mov	r2, #0
    b320:	e51b1024 	ldr	r1, [fp, #-36]	; 0xffffffdc
    b324:	e51b0020 	ldr	r0, [fp, #-32]	; 0xffffffe0
    b328:	ebffffb5 	bl	b204 <DirInodeLookup>
    b32c:	e50b000c 	str	r0, [fp, #-12]
    b330:	e51b300c 	ldr	r3, [fp, #-12]
    b334:	e3530000 	cmp	r3, #0
    b338:	0a000001 	beq	b344 <DirInodeAddEntry+0x40>
        return -1;
    b33c:	e3e03000 	mvn	r3, #0
    b340:	ea00002f 	b	b404 <DirInodeAddEntry+0x100>
    }

    // Look for an empty dir entry.
    for (off = 0; off < dp->size; off += sizeof(de)) {
    b344:	e3a03000 	mov	r3, #0
    b348:	e50b3008 	str	r3, [fp, #-8]
    b34c:	ea000010 	b	b394 <DirInodeAddEntry+0x90>
        if (InodeRead(dp, (char*)&de, off, sizeof(de)) != sizeof(de)) {
    b350:	e24b101c 	sub	r1, fp, #28
    b354:	e3a03010 	mov	r3, #16
    b358:	e51b2008 	ldr	r2, [fp, #-8]
    b35c:	e51b0020 	ldr	r0, [fp, #-32]	; 0xffffffe0
    b360:	eb000087 	bl	b584 <InodeRead>
    b364:	e1a03000 	mov	r3, r0
    b368:	e3530010 	cmp	r3, #16
    b36c:	0a000002 	beq	b37c <DirInodeAddEntry+0x78>
            Error("DirInodeAddEntry: read failed");
    b370:	e3020ca4 	movw	r0, #11428	; 0x2ca4
    b374:	e3400001 	movt	r0, #1
    b378:	ebfffdcf 	bl	aabc <Error>
        }

        if (de.inum == 0) {
    b37c:	e15b31bc 	ldrh	r3, [fp, #-28]	; 0xffffffe4
    b380:	e3530000 	cmp	r3, #0
    b384:	0a000008 	beq	b3ac <DirInodeAddEntry+0xa8>
    for (off = 0; off < dp->size; off += sizeof(de)) {
    b388:	e51b3008 	ldr	r3, [fp, #-8]
    b38c:	e2833010 	add	r3, r3, #16
    b390:	e50b3008 	str	r3, [fp, #-8]
    b394:	e51b3020 	ldr	r3, [fp, #-32]	; 0xffffffe0
    b398:	e5932008 	ldr	r2, [r3, #8]
    b39c:	e51b3008 	ldr	r3, [fp, #-8]
    b3a0:	e1520003 	cmp	r2, r3
    b3a4:	8affffe9 	bhi	b350 <DirInodeAddEntry+0x4c>
    b3a8:	ea000000 	b	b3b0 <DirInodeAddEntry+0xac>
            break;
    b3ac:	e320f000 	nop	{0}
        }
    }

    // build a new direct entry.
    strncpy(de.name, name, DIR_NAME_SIZE);
    b3b0:	e24b301c 	sub	r3, fp, #28
    b3b4:	e2833002 	add	r3, r3, #2
    b3b8:	e3a0200e 	mov	r2, #14
    b3bc:	e51b1024 	ldr	r1, [fp, #-36]	; 0xffffffdc
    b3c0:	e1a00003 	mov	r0, r3
    b3c4:	eb000ace 	bl	df04 <strncpy>
    de.inum = inum;
    b3c8:	e51b3028 	ldr	r3, [fp, #-40]	; 0xffffffd8
    b3cc:	e6ff3073 	uxth	r3, r3
    b3d0:	e14b31bc 	strh	r3, [fp, #-28]	; 0xffffffe4
    if (InodeWrite(dp, (char*)&de, off, sizeof(de)) != sizeof(de)) {
    b3d4:	e51b2008 	ldr	r2, [fp, #-8]
    b3d8:	e24b101c 	sub	r1, fp, #28
    b3dc:	e3a03010 	mov	r3, #16
    b3e0:	e51b0020 	ldr	r0, [fp, #-32]	; 0xffffffe0
    b3e4:	eb0000c6 	bl	b704 <InodeWrite>
    b3e8:	e1a03000 	mov	r3, r0
    b3ec:	e3530010 	cmp	r3, #16
    b3f0:	0a000002 	beq	b400 <DirInodeAddEntry+0xfc>
        Error("DirInodeAddEntry: write failed");
    b3f4:	e3020cc4 	movw	r0, #11460	; 0x2cc4
    b3f8:	e3400001 	movt	r0, #1
    b3fc:	ebfffdae 	bl	aabc <Error>
    }

    return 0;
    b400:	e3a03000 	mov	r3, #0
}
    b404:	e1a00003 	mov	r0, r3
    b408:	e24bd004 	sub	sp, fp, #4
    b40c:	e8bd8800 	pop	{fp, pc}

0000b410 <Seek>:

static struct Inode* Seek(struct Inode* ip, char* path, int nameiparent, char* name)
{
    b410:	e92d4800 	push	{fp, lr}
    b414:	e28db004 	add	fp, sp, #4
    b418:	e24dd018 	sub	sp, sp, #24
    b41c:	e50b0010 	str	r0, [fp, #-16]
    b420:	e50b1014 	str	r1, [fp, #-20]	; 0xffffffec
    b424:	e50b2018 	str	r2, [fp, #-24]	; 0xffffffe8
    b428:	e50b301c 	str	r3, [fp, #-28]	; 0xffffffe4
    if (ip->size == 0) {
    b42c:	e51b3010 	ldr	r3, [fp, #-16]
    b430:	e5933008 	ldr	r3, [r3, #8]
    b434:	e3530000 	cmp	r3, #0
    b438:	1a00001e 	bne	b4b8 <Seek+0xa8>
        Error("Inode is not sync\n");
    b43c:	e3020ce4 	movw	r0, #11492	; 0x2ce4
    b440:	e3400001 	movt	r0, #1
    b444:	ebfffd9c 	bl	aabc <Error>
    }

    struct Inode* next;
    while ((path = PathElementExtract(path, name)) != 0) {
    b448:	ea00001a 	b	b4b8 <Seek+0xa8>
        if (ip->type != T_DIR) {
    b44c:	e51b3010 	ldr	r3, [fp, #-16]
    b450:	e1d330f4 	ldrsh	r3, [r3, #4]
    b454:	e3530001 	cmp	r3, #1
    b458:	0a000001 	beq	b464 <Seek+0x54>
            return NULL;
    b45c:	e3a03000 	mov	r3, #0
    b460:	ea000021 	b	b4ec <Seek+0xdc>
        }
        if (nameiparent && *path == '\0') {
    b464:	e51b3018 	ldr	r3, [fp, #-24]	; 0xffffffe8
    b468:	e3530000 	cmp	r3, #0
    b46c:	0a000005 	beq	b488 <Seek+0x78>
    b470:	e51b3014 	ldr	r3, [fp, #-20]	; 0xffffffec
    b474:	e5d33000 	ldrb	r3, [r3]
    b478:	e3530000 	cmp	r3, #0
    b47c:	1a000001 	bne	b488 <Seek+0x78>
            return ip;
    b480:	e51b3010 	ldr	r3, [fp, #-16]
    b484:	ea000018 	b	b4ec <Seek+0xdc>
        }
        if ((next = DirInodeLookup(ip, name, 0)) == 0) {
    b488:	e3a02000 	mov	r2, #0
    b48c:	e51b101c 	ldr	r1, [fp, #-28]	; 0xffffffe4
    b490:	e51b0010 	ldr	r0, [fp, #-16]
    b494:	ebffff5a 	bl	b204 <DirInodeLookup>
    b498:	e50b0008 	str	r0, [fp, #-8]
    b49c:	e51b3008 	ldr	r3, [fp, #-8]
    b4a0:	e3530000 	cmp	r3, #0
    b4a4:	1a000001 	bne	b4b0 <Seek+0xa0>
            return NULL;
    b4a8:	e3a03000 	mov	r3, #0
    b4ac:	ea00000e 	b	b4ec <Seek+0xdc>
        }
        ip = next;
    b4b0:	e51b3008 	ldr	r3, [fp, #-8]
    b4b4:	e50b3010 	str	r3, [fp, #-16]
    while ((path = PathElementExtract(path, name)) != 0) {
    b4b8:	e51b101c 	ldr	r1, [fp, #-28]	; 0xffffffe4
    b4bc:	e51b0014 	ldr	r0, [fp, #-20]	; 0xffffffec
    b4c0:	eb0000e9 	bl	b86c <PathElementExtract>
    b4c4:	e50b0014 	str	r0, [fp, #-20]	; 0xffffffec
    b4c8:	e51b3014 	ldr	r3, [fp, #-20]	; 0xffffffec
    b4cc:	e3530000 	cmp	r3, #0
    b4d0:	1affffdd 	bne	b44c <Seek+0x3c>
    }

    if (nameiparent) {
    b4d4:	e51b3018 	ldr	r3, [fp, #-24]	; 0xffffffe8
    b4d8:	e3530000 	cmp	r3, #0
    b4dc:	0a000001 	beq	b4e8 <Seek+0xd8>
        return NULL;
    b4e0:	e3a03000 	mov	r3, #0
    b4e4:	ea000000 	b	b4ec <Seek+0xdc>
    }
    return ip;
    b4e8:	e51b3010 	ldr	r3, [fp, #-16]
}
    b4ec:	e1a00003 	mov	r0, r3
    b4f0:	e24bd004 	sub	sp, fp, #4
    b4f4:	e8bd8800 	pop	{fp, pc}

0000b4f8 <InodeSeek>:

/// @brief Find target Inode from source Inode
struct Inode* InodeSeek(struct Inode* source, char* path)
{
    b4f8:	e92d4800 	push	{fp, lr}
    b4fc:	e28db004 	add	fp, sp, #4
    b500:	e24dd018 	sub	sp, sp, #24
    b504:	e50b0018 	str	r0, [fp, #-24]	; 0xffffffe8
    b508:	e50b101c 	str	r1, [fp, #-28]	; 0xffffffe4
    char name[DIR_NAME_SIZE] = { 0 };
    b50c:	e24b3014 	sub	r3, fp, #20
    b510:	e3a02000 	mov	r2, #0
    b514:	e5832000 	str	r2, [r3]
    b518:	e5832004 	str	r2, [r3, #4]
    b51c:	e5832008 	str	r2, [r3, #8]
    b520:	e1c320bc 	strh	r2, [r3, #12]
    return Seek(source, path, 0, name);
    b524:	e24b3014 	sub	r3, fp, #20
    b528:	e3a02000 	mov	r2, #0
    b52c:	e51b101c 	ldr	r1, [fp, #-28]	; 0xffffffe4
    b530:	e51b0018 	ldr	r0, [fp, #-24]	; 0xffffffe8
    b534:	ebffffb5 	bl	b410 <Seek>
    b538:	e1a03000 	mov	r3, r0
}
    b53c:	e1a00003 	mov	r0, r3
    b540:	e24bd004 	sub	sp, fp, #4
    b544:	e8bd8800 	pop	{fp, pc}

0000b548 <InodeParentSeek>:

/// @brief Find target parent Inode from source Inode
struct Inode* InodeParentSeek(struct Inode* source, char* path, char* name)
{
    b548:	e92d4800 	push	{fp, lr}
    b54c:	e28db004 	add	fp, sp, #4
    b550:	e24dd010 	sub	sp, sp, #16
    b554:	e50b0008 	str	r0, [fp, #-8]
    b558:	e50b100c 	str	r1, [fp, #-12]
    b55c:	e50b2010 	str	r2, [fp, #-16]
    return Seek(source, path, 1, name);
    b560:	e51b3010 	ldr	r3, [fp, #-16]
    b564:	e3a02001 	mov	r2, #1
    b568:	e51b100c 	ldr	r1, [fp, #-12]
    b56c:	e51b0008 	ldr	r0, [fp, #-8]
    b570:	ebffffa6 	bl	b410 <Seek>
    b574:	e1a03000 	mov	r3, r0
}
    b578:	e1a00003 	mov	r0, r3
    b57c:	e24bd004 	sub	sp, fp, #4
    b580:	e8bd8800 	pop	{fp, pc}

0000b584 <InodeRead>:

/// @brief Read data from the Inode to the dst buffer.
int InodeRead(struct Inode* ip, char* dst, int off, int n)
{
    b584:	e92d4800 	push	{fp, lr}
    b588:	e28db004 	add	fp, sp, #4
    b58c:	e24dd020 	sub	sp, sp, #32
    b590:	e50b0018 	str	r0, [fp, #-24]	; 0xffffffe8
    b594:	e50b101c 	str	r1, [fp, #-28]	; 0xffffffe4
    b598:	e50b2020 	str	r2, [fp, #-32]	; 0xffffffe0
    b59c:	e50b3024 	str	r3, [fp, #-36]	; 0xffffffdc
    uint32_t tot, m;

    if (off > ip->size || off + n < off) {
    b5a0:	e51b3018 	ldr	r3, [fp, #-24]	; 0xffffffe8
    b5a4:	e5932008 	ldr	r2, [r3, #8]
    b5a8:	e51b3020 	ldr	r3, [fp, #-32]	; 0xffffffe0
    b5ac:	e1520003 	cmp	r2, r3
    b5b0:	3a000005 	bcc	b5cc <InodeRead+0x48>
    b5b4:	e51b2020 	ldr	r2, [fp, #-32]	; 0xffffffe0
    b5b8:	e51b3024 	ldr	r3, [fp, #-36]	; 0xffffffdc
    b5bc:	e0822003 	add	r2, r2, r3
    b5c0:	e51b3020 	ldr	r3, [fp, #-32]	; 0xffffffe0
    b5c4:	e1520003 	cmp	r2, r3
    b5c8:	aa000001 	bge	b5d4 <InodeRead+0x50>
        return -1;
    b5cc:	e3e03000 	mvn	r3, #0
    b5d0:	ea000048 	b	b6f8 <InodeRead+0x174>
    }

    if (off + n > ip->size) {
    b5d4:	e51b2020 	ldr	r2, [fp, #-32]	; 0xffffffe0
    b5d8:	e51b3024 	ldr	r3, [fp, #-36]	; 0xffffffdc
    b5dc:	e0823003 	add	r3, r2, r3
    b5e0:	e1a02003 	mov	r2, r3
    b5e4:	e51b3018 	ldr	r3, [fp, #-24]	; 0xffffffe8
    b5e8:	e5933008 	ldr	r3, [r3, #8]
    b5ec:	e1520003 	cmp	r2, r3
    b5f0:	9a000004 	bls	b608 <InodeRead+0x84>
        n = ip->size - off;
    b5f4:	e51b3018 	ldr	r3, [fp, #-24]	; 0xffffffe8
    b5f8:	e5932008 	ldr	r2, [r3, #8]
    b5fc:	e51b3020 	ldr	r3, [fp, #-32]	; 0xffffffe0
    b600:	e0423003 	sub	r3, r2, r3
    b604:	e50b3024 	str	r3, [fp, #-36]	; 0xffffffdc
    }

    for (tot = 0; tot < n; tot += m, off += m, dst += m) {
    b608:	e3a03000 	mov	r3, #0
    b60c:	e50b3008 	str	r3, [fp, #-8]
    b610:	ea000033 	b	b6e4 <InodeRead+0x160>
        uint8_t* data = BlockRead(InodeBlockMapping(ip, off / BLOCK_SIZE));
    b614:	e51b3020 	ldr	r3, [fp, #-32]	; 0xffffffe0
    b618:	e2832f7f 	add	r2, r3, #508	; 0x1fc
    b61c:	e2822003 	add	r2, r2, #3
    b620:	e3530000 	cmp	r3, #0
    b624:	b1a03002 	movlt	r3, r2
    b628:	a1a03003 	movge	r3, r3
    b62c:	e1a034c3 	asr	r3, r3, #9
    b630:	e1a01003 	mov	r1, r3
    b634:	e51b0018 	ldr	r0, [fp, #-24]	; 0xffffffe8
    b638:	ebfffe92 	bl	b088 <InodeBlockMapping>
    b63c:	e1a03000 	mov	r3, r0
    b640:	e1a00003 	mov	r0, r3
    b644:	eb0005a0 	bl	cccc <BlockRead>
    b648:	e50b000c 	str	r0, [fp, #-12]
        m = min(n - tot, BLOCK_SIZE - off % BLOCK_SIZE);
    b64c:	e51b3020 	ldr	r3, [fp, #-32]	; 0xffffffe0
    b650:	e2732000 	rsbs	r2, r3, #0
    b654:	e7e83053 	ubfx	r3, r3, #0, #9
    b658:	e7e82052 	ubfx	r2, r2, #0, #9
    b65c:	52623000 	rsbpl	r3, r2, #0
    b660:	e2633c02 	rsb	r3, r3, #512	; 0x200
    b664:	e1a02003 	mov	r2, r3
    b668:	e51b1024 	ldr	r1, [fp, #-36]	; 0xffffffdc
    b66c:	e51b3008 	ldr	r3, [fp, #-8]
    b670:	e0413003 	sub	r3, r1, r3
    b674:	e1520003 	cmp	r2, r3
    b678:	31a03002 	movcc	r3, r2
    b67c:	21a03003 	movcs	r3, r3
    b680:	e50b3010 	str	r3, [fp, #-16]
        memmove(dst, data + off % BLOCK_SIZE, m);
    b684:	e51b3020 	ldr	r3, [fp, #-32]	; 0xffffffe0
    b688:	e2732000 	rsbs	r2, r3, #0
    b68c:	e7e83053 	ubfx	r3, r3, #0, #9
    b690:	e7e82052 	ubfx	r2, r2, #0, #9
    b694:	52623000 	rsbpl	r3, r2, #0
    b698:	e1a02003 	mov	r2, r3
    b69c:	e51b300c 	ldr	r3, [fp, #-12]
    b6a0:	e0833002 	add	r3, r3, r2
    b6a4:	e51b2010 	ldr	r2, [fp, #-16]
    b6a8:	e1a01003 	mov	r1, r3
    b6ac:	e51b001c 	ldr	r0, [fp, #-28]	; 0xffffffe4
    b6b0:	eb000897 	bl	d914 <memmove>
    for (tot = 0; tot < n; tot += m, off += m, dst += m) {
    b6b4:	e51b2008 	ldr	r2, [fp, #-8]
    b6b8:	e51b3010 	ldr	r3, [fp, #-16]
    b6bc:	e0823003 	add	r3, r2, r3
    b6c0:	e50b3008 	str	r3, [fp, #-8]
    b6c4:	e51b2020 	ldr	r2, [fp, #-32]	; 0xffffffe0
    b6c8:	e51b3010 	ldr	r3, [fp, #-16]
    b6cc:	e0823003 	add	r3, r2, r3
    b6d0:	e50b3020 	str	r3, [fp, #-32]	; 0xffffffe0
    b6d4:	e51b201c 	ldr	r2, [fp, #-28]	; 0xffffffe4
    b6d8:	e51b3010 	ldr	r3, [fp, #-16]
    b6dc:	e0823003 	add	r3, r2, r3
    b6e0:	e50b301c 	str	r3, [fp, #-28]	; 0xffffffe4
    b6e4:	e51b3024 	ldr	r3, [fp, #-36]	; 0xffffffdc
    b6e8:	e51b2008 	ldr	r2, [fp, #-8]
    b6ec:	e1520003 	cmp	r2, r3
    b6f0:	3affffc7 	bcc	b614 <InodeRead+0x90>
    }

    return n;
    b6f4:	e51b3024 	ldr	r3, [fp, #-36]	; 0xffffffdc
}
    b6f8:	e1a00003 	mov	r0, r3
    b6fc:	e24bd004 	sub	sp, fp, #4
    b700:	e8bd8800 	pop	{fp, pc}

0000b704 <InodeWrite>:

/// @brief Write data from src buffer to the Inode, then increase the Inode size if neccessary.
int InodeWrite(struct Inode* ip, char* src, uint32_t off, uint32_t n)
{
    b704:	e92d4800 	push	{fp, lr}
    b708:	e28db004 	add	fp, sp, #4
    b70c:	e24dd020 	sub	sp, sp, #32
    b710:	e50b0018 	str	r0, [fp, #-24]	; 0xffffffe8
    b714:	e50b101c 	str	r1, [fp, #-28]	; 0xffffffe4
    b718:	e50b2020 	str	r2, [fp, #-32]	; 0xffffffe0
    b71c:	e50b3024 	str	r3, [fp, #-36]	; 0xffffffdc
    uint32_t tot, m;

    if (off > ip->size || off + n < off) {
    b720:	e51b3018 	ldr	r3, [fp, #-24]	; 0xffffffe8
    b724:	e5932008 	ldr	r2, [r3, #8]
    b728:	e51b3020 	ldr	r3, [fp, #-32]	; 0xffffffe0
    b72c:	e1520003 	cmp	r2, r3
    b730:	3a000005 	bcc	b74c <InodeWrite+0x48>
    b734:	e51b2020 	ldr	r2, [fp, #-32]	; 0xffffffe0
    b738:	e51b3024 	ldr	r3, [fp, #-36]	; 0xffffffdc
    b73c:	e0822003 	add	r2, r2, r3
    b740:	e51b3020 	ldr	r3, [fp, #-32]	; 0xffffffe0
    b744:	e1520003 	cmp	r2, r3
    b748:	2a000001 	bcs	b754 <InodeWrite+0x50>
        return -1;
    b74c:	e3e03000 	mvn	r3, #0
    b750:	ea000042 	b	b860 <InodeWrite+0x15c>
    }

    if (off + n > MAX_FILE_SIZE * BLOCK_SIZE) {
    b754:	e51b2020 	ldr	r2, [fp, #-32]	; 0xffffffe0
    b758:	e51b3024 	ldr	r3, [fp, #-36]	; 0xffffffdc
    b75c:	e0822003 	add	r2, r2, r3
    b760:	e3a03c0a 	mov	r3, #2560	; 0xa00
    b764:	e3403008 	movt	r3, #8
    b768:	e1520003 	cmp	r2, r3
    b76c:	9a000001 	bls	b778 <InodeWrite+0x74>
        return -1;
    b770:	e3e03000 	mvn	r3, #0
    b774:	ea000039 	b	b860 <InodeWrite+0x15c>
    }

    for (tot = 0; tot < n; tot += m, off += m, src += m) {
    b778:	e3a03000 	mov	r3, #0
    b77c:	e50b3008 	str	r3, [fp, #-8]
    b780:	ea000026 	b	b820 <InodeWrite+0x11c>
        uint8_t* data = BlockRead(InodeBlockMapping(ip, off / BLOCK_SIZE));
    b784:	e51b3020 	ldr	r3, [fp, #-32]	; 0xffffffe0
    b788:	e1a034a3 	lsr	r3, r3, #9
    b78c:	e1a01003 	mov	r1, r3
    b790:	e51b0018 	ldr	r0, [fp, #-24]	; 0xffffffe8
    b794:	ebfffe3b 	bl	b088 <InodeBlockMapping>
    b798:	e1a03000 	mov	r3, r0
    b79c:	e1a00003 	mov	r0, r3
    b7a0:	eb000549 	bl	cccc <BlockRead>
    b7a4:	e50b000c 	str	r0, [fp, #-12]
        m = min(n - tot, BLOCK_SIZE - off % BLOCK_SIZE);
    b7a8:	e51b3020 	ldr	r3, [fp, #-32]	; 0xffffffe0
    b7ac:	e7e83053 	ubfx	r3, r3, #0, #9
    b7b0:	e2632c02 	rsb	r2, r3, #512	; 0x200
    b7b4:	e51b1024 	ldr	r1, [fp, #-36]	; 0xffffffdc
    b7b8:	e51b3008 	ldr	r3, [fp, #-8]
    b7bc:	e0413003 	sub	r3, r1, r3
    b7c0:	e1520003 	cmp	r2, r3
    b7c4:	31a03002 	movcc	r3, r2
    b7c8:	21a03003 	movcs	r3, r3
    b7cc:	e50b3010 	str	r3, [fp, #-16]
        memmove(data + off % BLOCK_SIZE, src, m);
    b7d0:	e51b3020 	ldr	r3, [fp, #-32]	; 0xffffffe0
    b7d4:	e7e83053 	ubfx	r3, r3, #0, #9
    b7d8:	e51b200c 	ldr	r2, [fp, #-12]
    b7dc:	e0823003 	add	r3, r2, r3
    b7e0:	e51b2010 	ldr	r2, [fp, #-16]
    b7e4:	e51b101c 	ldr	r1, [fp, #-28]	; 0xffffffe4
    b7e8:	e1a00003 	mov	r0, r3
    b7ec:	eb000848 	bl	d914 <memmove>
    for (tot = 0; tot < n; tot += m, off += m, src += m) {
    b7f0:	e51b2008 	ldr	r2, [fp, #-8]
    b7f4:	e51b3010 	ldr	r3, [fp, #-16]
    b7f8:	e0823003 	add	r3, r2, r3
    b7fc:	e50b3008 	str	r3, [fp, #-8]
    b800:	e51b2020 	ldr	r2, [fp, #-32]	; 0xffffffe0
    b804:	e51b3010 	ldr	r3, [fp, #-16]
    b808:	e0823003 	add	r3, r2, r3
    b80c:	e50b3020 	str	r3, [fp, #-32]	; 0xffffffe0
    b810:	e51b201c 	ldr	r2, [fp, #-28]	; 0xffffffe4
    b814:	e51b3010 	ldr	r3, [fp, #-16]
    b818:	e0823003 	add	r3, r2, r3
    b81c:	e50b301c 	str	r3, [fp, #-28]	; 0xffffffe4
    b820:	e51b2008 	ldr	r2, [fp, #-8]
    b824:	e51b3024 	ldr	r3, [fp, #-36]	; 0xffffffdc
    b828:	e1520003 	cmp	r2, r3
    b82c:	3affffd4 	bcc	b784 <InodeWrite+0x80>
    }

    if (n > 0 && off > ip->size) {
    b830:	e51b3024 	ldr	r3, [fp, #-36]	; 0xffffffdc
    b834:	e3530000 	cmp	r3, #0
    b838:	0a000007 	beq	b85c <InodeWrite+0x158>
    b83c:	e51b3018 	ldr	r3, [fp, #-24]	; 0xffffffe8
    b840:	e5932008 	ldr	r2, [r3, #8]
    b844:	e51b3020 	ldr	r3, [fp, #-32]	; 0xffffffe0
    b848:	e1520003 	cmp	r2, r3
    b84c:	2a000002 	bcs	b85c <InodeWrite+0x158>
        ip->size = off;
    b850:	e51b3018 	ldr	r3, [fp, #-24]	; 0xffffffe8
    b854:	e51b2020 	ldr	r2, [fp, #-32]	; 0xffffffe0
    b858:	e5832008 	str	r2, [r3, #8]
    }

    return n;
    b85c:	e51b3024 	ldr	r3, [fp, #-36]	; 0xffffffdc
}
    b860:	e1a00003 	mov	r0, r3
    b864:	e24bd004 	sub	sp, fp, #4
    b868:	e8bd8800 	pop	{fp, pc}

0000b86c <PathElementExtract>:

// Paths process
static char* PathElementExtract(char* path, char* name)
{
    b86c:	e92d4800 	push	{fp, lr}
    b870:	e28db004 	add	fp, sp, #4
    b874:	e24dd010 	sub	sp, sp, #16
    b878:	e50b0010 	str	r0, [fp, #-16]
    b87c:	e50b1014 	str	r1, [fp, #-20]	; 0xffffffec
    // Skip leading slashes
    while (*path == '/')
    b880:	ea000002 	b	b890 <PathElementExtract+0x24>
        path++;
    b884:	e51b3010 	ldr	r3, [fp, #-16]
    b888:	e2833001 	add	r3, r3, #1
    b88c:	e50b3010 	str	r3, [fp, #-16]
    while (*path == '/')
    b890:	e51b3010 	ldr	r3, [fp, #-16]
    b894:	e5d33000 	ldrb	r3, [r3]
    b898:	e353002f 	cmp	r3, #47	; 0x2f
    b89c:	0afffff8 	beq	b884 <PathElementExtract+0x18>

    // Check for end of path
    if (*path == 0)
    b8a0:	e51b3010 	ldr	r3, [fp, #-16]
    b8a4:	e5d33000 	ldrb	r3, [r3]
    b8a8:	e3530000 	cmp	r3, #0
    b8ac:	1a000001 	bne	b8b8 <PathElementExtract+0x4c>
        return NULL;
    b8b0:	e3a03000 	mov	r3, #0
    b8b4:	ea000029 	b	b960 <PathElementExtract+0xf4>

    // Extract element
    char* start = path;
    b8b8:	e51b3010 	ldr	r3, [fp, #-16]
    b8bc:	e50b300c 	str	r3, [fp, #-12]
    while (*path != '/' && *path != 0)
    b8c0:	ea000002 	b	b8d0 <PathElementExtract+0x64>
        path++;
    b8c4:	e51b3010 	ldr	r3, [fp, #-16]
    b8c8:	e2833001 	add	r3, r3, #1
    b8cc:	e50b3010 	str	r3, [fp, #-16]
    while (*path != '/' && *path != 0)
    b8d0:	e51b3010 	ldr	r3, [fp, #-16]
    b8d4:	e5d33000 	ldrb	r3, [r3]
    b8d8:	e353002f 	cmp	r3, #47	; 0x2f
    b8dc:	0a000003 	beq	b8f0 <PathElementExtract+0x84>
    b8e0:	e51b3010 	ldr	r3, [fp, #-16]
    b8e4:	e5d33000 	ldrb	r3, [r3]
    b8e8:	e3530000 	cmp	r3, #0
    b8ec:	1afffff4 	bne	b8c4 <PathElementExtract+0x58>

    // Calculate length and copy to 'name'
    int len = path - start;
    b8f0:	e51b2010 	ldr	r2, [fp, #-16]
    b8f4:	e51b300c 	ldr	r3, [fp, #-12]
    b8f8:	e0423003 	sub	r3, r2, r3
    b8fc:	e50b3008 	str	r3, [fp, #-8]
    if (len >= DIR_NAME_SIZE)
    b900:	e51b3008 	ldr	r3, [fp, #-8]
    b904:	e353000d 	cmp	r3, #13
    b908:	da000001 	ble	b914 <PathElementExtract+0xa8>
        len = DIR_NAME_SIZE - 1;
    b90c:	e3a0300d 	mov	r3, #13
    b910:	e50b3008 	str	r3, [fp, #-8]
    strncpy(name, start, len);
    b914:	e51b3008 	ldr	r3, [fp, #-8]
    b918:	e1a02003 	mov	r2, r3
    b91c:	e51b100c 	ldr	r1, [fp, #-12]
    b920:	e51b0014 	ldr	r0, [fp, #-20]	; 0xffffffec
    b924:	eb000976 	bl	df04 <strncpy>
    name[len] = 0;
    b928:	e51b3008 	ldr	r3, [fp, #-8]
    b92c:	e51b2014 	ldr	r2, [fp, #-20]	; 0xffffffec
    b930:	e0823003 	add	r3, r2, r3
    b934:	e3a02000 	mov	r2, #0
    b938:	e5c32000 	strb	r2, [r3]

    // Skip trailing slashes
    while (*path == '/')
    b93c:	ea000002 	b	b94c <PathElementExtract+0xe0>
        path++;
    b940:	e51b3010 	ldr	r3, [fp, #-16]
    b944:	e2833001 	add	r3, r3, #1
    b948:	e50b3010 	str	r3, [fp, #-16]
    while (*path == '/')
    b94c:	e51b3010 	ldr	r3, [fp, #-16]
    b950:	e5d33000 	ldrb	r3, [r3]
    b954:	e353002f 	cmp	r3, #47	; 0x2f
    b958:	0afffff8 	beq	b940 <PathElementExtract+0xd4>

    return path;
    b95c:	e51b3010 	ldr	r3, [fp, #-16]
}
    b960:	e1a00003 	mov	r0, r3
    b964:	e24bd004 	sub	sp, fp, #4
    b968:	e8bd8800 	pop	{fp, pc}

0000b96c <GetFileDescriptor>:

struct FileDescriptor* GetFileDescriptor(int fd)
{
    b96c:	e92d4800 	push	{fp, lr}
    b970:	e28db004 	add	fp, sp, #4
    b974:	e24dd008 	sub	sp, sp, #8
    b978:	e50b0008 	str	r0, [fp, #-8]
    if (fd < 0 || fd > MAX_SUPPORT_FD) {
    b97c:	e51b3008 	ldr	r3, [fp, #-8]
    b980:	e3530000 	cmp	r3, #0
    b984:	ba000002 	blt	b994 <GetFileDescriptor+0x28>
    b988:	e51b3008 	ldr	r3, [fp, #-8]
    b98c:	e3530b01 	cmp	r3, #1024	; 0x400
    b990:	da000004 	ble	b9a8 <GetFileDescriptor+0x3c>
        printf("fd invlid.\n");
    b994:	e3020cf8 	movw	r0, #11512	; 0x2cf8
    b998:	e3400001 	movt	r0, #1
    b99c:	eb0000f7 	bl	bd80 <printf>
        return NULL;
    b9a0:	e3a03000 	mov	r3, #0
    b9a4:	ea000005 	b	b9c0 <GetFileDescriptor+0x54>
    }
    return &fd_table[fd];
    b9a8:	e51b3008 	ldr	r3, [fp, #-8]
    b9ac:	e3a02098 	mov	r2, #152	; 0x98
    b9b0:	e0020392 	mul	r2, r2, r3
    b9b4:	e3063134 	movw	r3, #24884	; 0x6134
    b9b8:	e3403001 	movt	r3, #1
    b9bc:	e0823003 	add	r3, r2, r3
}
    b9c0:	e1a00003 	mov	r0, r3
    b9c4:	e24bd004 	sub	sp, fp, #4
    b9c8:	e8bd8800 	pop	{fp, pc}

0000b9cc <FreeFileDescriptor>:

void FreeFileDescriptor(int fd)
{
    b9cc:	e92d4800 	push	{fp, lr}
    b9d0:	e28db004 	add	fp, sp, #4
    b9d4:	e24dd008 	sub	sp, sp, #8
    b9d8:	e50b0008 	str	r0, [fp, #-8]
    if (fd < 0 || fd > MAX_SUPPORT_FD) {
    b9dc:	e51b3008 	ldr	r3, [fp, #-8]
    b9e0:	e3530000 	cmp	r3, #0
    b9e4:	ba000002 	blt	b9f4 <FreeFileDescriptor+0x28>
    b9e8:	e51b3008 	ldr	r3, [fp, #-8]
    b9ec:	e3530b01 	cmp	r3, #1024	; 0x400
    b9f0:	da000003 	ble	ba04 <FreeFileDescriptor+0x38>
        printf("fd invlid.\n");
    b9f4:	e3020cf8 	movw	r0, #11512	; 0x2cf8
    b9f8:	e3400001 	movt	r0, #1
    b9fc:	eb0000df 	bl	bd80 <printf>
        return;
    ba00:	ea000009 	b	ba2c <FreeFileDescriptor+0x60>
    }
    fd_table[fd].data = 0;
    ba04:	e3063134 	movw	r3, #24884	; 0x6134
    ba08:	e3403001 	movt	r3, #1
    ba0c:	e51b2008 	ldr	r2, [fp, #-8]
    ba10:	e3a01098 	mov	r1, #152	; 0x98
    ba14:	e0020291 	mul	r2, r1, r2
    ba18:	e0833002 	add	r3, r3, r2
    ba1c:	e2833080 	add	r3, r3, #128	; 0x80
    ba20:	e3a02000 	mov	r2, #0
    ba24:	e5832000 	str	r2, [r3]
    return;
    ba28:	e320f000 	nop	{0}
}
    ba2c:	e24bd004 	sub	sp, fp, #4
    ba30:	e8bd8800 	pop	{fp, pc}

0000ba34 <AllocFileDescriptor>:

int AllocFileDescriptor(void)
{
    ba34:	e52db004 	push	{fp}		; (str fp, [sp, #-4]!)
    ba38:	e28db000 	add	fp, sp, #0
    ba3c:	e24dd00c 	sub	sp, sp, #12
    int free_idx = -1;
    ba40:	e3e03000 	mvn	r3, #0
    ba44:	e50b3008 	str	r3, [fp, #-8]
    for (int i = 0; i < MAX_SUPPORT_FD; i++) {
    ba48:	e3a03000 	mov	r3, #0
    ba4c:	e50b300c 	str	r3, [fp, #-12]
    ba50:	ea000011 	b	ba9c <AllocFileDescriptor+0x68>
        // found free fd
        if (free_idx == -1 && fd_table[i].data == 0) {
    ba54:	e51b3008 	ldr	r3, [fp, #-8]
    ba58:	e3730001 	cmn	r3, #1
    ba5c:	1a00000b 	bne	ba90 <AllocFileDescriptor+0x5c>
    ba60:	e3063134 	movw	r3, #24884	; 0x6134
    ba64:	e3403001 	movt	r3, #1
    ba68:	e51b200c 	ldr	r2, [fp, #-12]
    ba6c:	e3a01098 	mov	r1, #152	; 0x98
    ba70:	e0020291 	mul	r2, r1, r2
    ba74:	e0833002 	add	r3, r3, r2
    ba78:	e2833080 	add	r3, r3, #128	; 0x80
    ba7c:	e5933000 	ldr	r3, [r3]
    ba80:	e3530000 	cmp	r3, #0
    ba84:	1a000001 	bne	ba90 <AllocFileDescriptor+0x5c>
            free_idx = i;
    ba88:	e51b300c 	ldr	r3, [fp, #-12]
    ba8c:	e50b3008 	str	r3, [fp, #-8]
    for (int i = 0; i < MAX_SUPPORT_FD; i++) {
    ba90:	e51b300c 	ldr	r3, [fp, #-12]
    ba94:	e2833001 	add	r3, r3, #1
    ba98:	e50b300c 	str	r3, [fp, #-12]
    ba9c:	e51b300c 	ldr	r3, [fp, #-12]
    baa0:	e3530b01 	cmp	r3, #1024	; 0x400
    baa4:	baffffea 	blt	ba54 <AllocFileDescriptor+0x20>
        }
    }
    if (free_idx == -1) {
    baa8:	e51b3008 	ldr	r3, [fp, #-8]
    baac:	e3730001 	cmn	r3, #1
    bab0:	1a000001 	bne	babc <AllocFileDescriptor+0x88>
        return -1;
    bab4:	e3e03000 	mvn	r3, #0
    bab8:	ea000000 	b	bac0 <AllocFileDescriptor+0x8c>
    }
    return free_idx;
    babc:	e51b3008 	ldr	r3, [fp, #-8]
}
    bac0:	e1a00003 	mov	r0, r3
    bac4:	e28bd000 	add	sp, fp, #0
    bac8:	e49db004 	pop	{fp}		; (ldr fp, [sp], #4)
    bacc:	e12fff1e 	bx	lr

0000bad0 <init_uart_mmio>:

#define USER_UART_BASE 0x6FFFF000
// #define USER_UART_BASE 0x621e8000

static bool init_uart_mmio()
{
    bad0:	e92d4800 	push	{fp, lr}
    bad4:	e28db004 	add	fp, sp, #4
    static int mapped = 0;
    if (mapped == 0) {
    bad8:	e30c3134 	movw	r3, #49460	; 0xc134
    badc:	e3403003 	movt	r3, #3
    bae0:	e5933000 	ldr	r3, [r3]
    bae4:	e3530000 	cmp	r3, #0
    bae8:	1a00000f 	bne	bb2c <init_uart_mmio+0x5c>
        if (-1 == mmap(USER_UART_BASE, 0x021e8000, 4096, true)) {
    baec:	e3a03001 	mov	r3, #1
    baf0:	e3a02a01 	mov	r2, #4096	; 0x1000
    baf4:	e3a01902 	mov	r1, #32768	; 0x8000
    baf8:	e340121e 	movt	r1, #542	; 0x21e
    bafc:	e3a00a0f 	mov	r0, #61440	; 0xf000
    bb00:	e3460fff 	movt	r0, #28671	; 0x6fff
    bb04:	eb00062f 	bl	d3c8 <mmap>
    bb08:	e1a03000 	mov	r3, r0
    bb0c:	e3730001 	cmn	r3, #1
    bb10:	1a000001 	bne	bb1c <init_uart_mmio+0x4c>
            return false;
    bb14:	e3a03000 	mov	r3, #0
    bb18:	ea000004 	b	bb30 <init_uart_mmio+0x60>
        }
        mapped = 1;
    bb1c:	e30c3134 	movw	r3, #49460	; 0xc134
    bb20:	e3403003 	movt	r3, #3
    bb24:	e3a02001 	mov	r2, #1
    bb28:	e5832000 	str	r2, [r3]
    }
    return true;
    bb2c:	e3a03001 	mov	r3, #1
}
    bb30:	e1a00003 	mov	r0, r3
    bb34:	e8bd8800 	pop	{fp, pc}

0000bb38 <putc>:

static void putc(char c)
{
    bb38:	e52db004 	push	{fp}		; (str fp, [sp, #-4]!)
    bb3c:	e28db000 	add	fp, sp, #0
    bb40:	e24dd00c 	sub	sp, sp, #12
    bb44:	e1a03000 	mov	r3, r0
    bb48:	e54b3005 	strb	r3, [fp, #-5]
    while ((*(volatile hw_uart_uts_t*)(USER_UART_BASE + 0xb4)).B.TXFULL)
    bb4c:	e320f000 	nop	{0}
    bb50:	e30f30b4 	movw	r3, #61620	; 0xf0b4
    bb54:	e3463fff 	movt	r3, #28671	; 0x6fff
    bb58:	e5933000 	ldr	r3, [r3]
    bb5c:	e7e03253 	ubfx	r3, r3, #4, #1
    bb60:	e6ef3073 	uxtb	r3, r3
    bb64:	e3530000 	cmp	r3, #0
    bb68:	1afffff8 	bne	bb50 <putc+0x18>
        ;

    if (c == '\n') {
    bb6c:	e55b3005 	ldrb	r3, [fp, #-5]
    bb70:	e353000a 	cmp	r3, #10
    bb74:	1a00000b 	bne	bba8 <putc+0x70>
        ((*(volatile hw_uart_utxd_t*)(USER_UART_BASE + 0x40)).U = ('\r'));
    bb78:	e30f3040 	movw	r3, #61504	; 0xf040
    bb7c:	e3463fff 	movt	r3, #28671	; 0x6fff
    bb80:	e3a0200d 	mov	r2, #13
    bb84:	e5832000 	str	r2, [r3]
        while ((*(volatile hw_uart_uts_t*)(USER_UART_BASE + 0xb4)).B.TXFULL)
    bb88:	e320f000 	nop	{0}
    bb8c:	e30f30b4 	movw	r3, #61620	; 0xf0b4
    bb90:	e3463fff 	movt	r3, #28671	; 0x6fff
    bb94:	e5933000 	ldr	r3, [r3]
    bb98:	e7e03253 	ubfx	r3, r3, #4, #1
    bb9c:	e6ef3073 	uxtb	r3, r3
    bba0:	e3530000 	cmp	r3, #0
    bba4:	1afffff8 	bne	bb8c <putc+0x54>
            ;
    }
    ((*(volatile hw_uart_utxd_t*)(USER_UART_BASE + 0x40)).U = (c));
    bba8:	e30f3040 	movw	r3, #61504	; 0xf040
    bbac:	e3463fff 	movt	r3, #28671	; 0x6fff
    bbb0:	e55b2005 	ldrb	r2, [fp, #-5]
    bbb4:	e5832000 	str	r2, [r3]
}
    bbb8:	e320f000 	nop	{0}
    bbbc:	e28bd000 	add	sp, fp, #0
    bbc0:	e49db004 	pop	{fp}		; (ldr fp, [sp], #4)
    bbc4:	e12fff1e 	bx	lr

0000bbc8 <getc>:

char getc(void)
{
    bbc8:	e92d4800 	push	{fp, lr}
    bbcc:	e28db004 	add	fp, sp, #4
    bbd0:	e24dd008 	sub	sp, sp, #8
    if (!init_uart_mmio()) {
    bbd4:	ebffffbd 	bl	bad0 <init_uart_mmio>
    bbd8:	e1a03000 	mov	r3, r0
    bbdc:	e2233001 	eor	r3, r3, #1
    bbe0:	e6ef3073 	uxtb	r3, r3
    bbe4:	e3530000 	cmp	r3, #0
    bbe8:	0a000001 	beq	bbf4 <getc+0x2c>
        return 0xFF;
    bbec:	e3a030ff 	mov	r3, #255	; 0xff
    bbf0:	ea000014 	b	bc48 <getc+0x80>
    }
    uint32_t read_data;

    /* If Rx FIFO has no data ready */
    if (!(*(volatile hw_uart_usr2_t*)(USER_UART_BASE + 0x98)).B.RDR) {
    bbf4:	e30f3098 	movw	r3, #61592	; 0xf098
    bbf8:	e3463fff 	movt	r3, #28671	; 0x6fff
    bbfc:	e5933000 	ldr	r3, [r3]
    bc00:	e7e03053 	ubfx	r3, r3, #0, #1
    bc04:	e6ef3073 	uxtb	r3, r3
    bc08:	e3530000 	cmp	r3, #0
    bc0c:	1a000001 	bne	bc18 <getc+0x50>
        return 0xFF;
    bc10:	e3a030ff 	mov	r3, #255	; 0xff
    bc14:	ea00000b 	b	bc48 <getc+0x80>
    }

    read_data = ((*(volatile hw_uart_urxd_t*)(USER_UART_BASE + 0x0)).U);
    bc18:	e3a03a0f 	mov	r3, #61440	; 0xf000
    bc1c:	e3463fff 	movt	r3, #28671	; 0x6fff
    bc20:	e5933000 	ldr	r3, [r3]
    bc24:	e50b3008 	str	r3, [fp, #-8]

    /* If error are detected */
    if (read_data & 0x7C00)
    bc28:	e51b3008 	ldr	r3, [fp, #-8]
    bc2c:	e2033b1f 	and	r3, r3, #31744	; 0x7c00
    bc30:	e3530000 	cmp	r3, #0
    bc34:	0a000001 	beq	bc40 <getc+0x78>
        return 0xFF;
    bc38:	e3a030ff 	mov	r3, #255	; 0xff
    bc3c:	ea000001 	b	bc48 <getc+0x80>

    return (char)read_data;
    bc40:	e51b3008 	ldr	r3, [fp, #-8]
    bc44:	e6ef3073 	uxtb	r3, r3
}
    bc48:	e1a00003 	mov	r0, r3
    bc4c:	e24bd004 	sub	sp, fp, #4
    bc50:	e8bd8800 	pop	{fp, pc}

0000bc54 <printint>:

static void printint(int xx, int base, int sgn)
{
    bc54:	e92d4810 	push	{r4, fp, lr}
    bc58:	e28db008 	add	fp, sp, #8
    bc5c:	e24dd034 	sub	sp, sp, #52	; 0x34
    bc60:	e50b0030 	str	r0, [fp, #-48]	; 0xffffffd0
    bc64:	e50b1034 	str	r1, [fp, #-52]	; 0xffffffcc
    bc68:	e50b2038 	str	r2, [fp, #-56]	; 0xffffffc8
    static char digits[] = "0123456789ABCDEF";
    char buf[16];
    int i, neg;
    uint32_t x;

    neg = 0;
    bc6c:	e3a03000 	mov	r3, #0
    bc70:	e50b3014 	str	r3, [fp, #-20]	; 0xffffffec
    if (sgn && xx < 0) {
    bc74:	e51b3038 	ldr	r3, [fp, #-56]	; 0xffffffc8
    bc78:	e3530000 	cmp	r3, #0
    bc7c:	0a000008 	beq	bca4 <printint+0x50>
    bc80:	e51b3030 	ldr	r3, [fp, #-48]	; 0xffffffd0
    bc84:	e3530000 	cmp	r3, #0
    bc88:	aa000005 	bge	bca4 <printint+0x50>
        neg = 1;
    bc8c:	e3a03001 	mov	r3, #1
    bc90:	e50b3014 	str	r3, [fp, #-20]	; 0xffffffec
        x = -xx;
    bc94:	e51b3030 	ldr	r3, [fp, #-48]	; 0xffffffd0
    bc98:	e2633000 	rsb	r3, r3, #0
    bc9c:	e50b3018 	str	r3, [fp, #-24]	; 0xffffffe8
    bca0:	ea000001 	b	bcac <printint+0x58>
    } else {
        x = xx;
    bca4:	e51b3030 	ldr	r3, [fp, #-48]	; 0xffffffd0
    bca8:	e50b3018 	str	r3, [fp, #-24]	; 0xffffffe8
    }

    i = 0;
    bcac:	e3a03000 	mov	r3, #0
    bcb0:	e50b3010 	str	r3, [fp, #-16]
    do {
        buf[i++] = digits[x % base];
    bcb4:	e51b4010 	ldr	r4, [fp, #-16]
    bcb8:	e2843001 	add	r3, r4, #1
    bcbc:	e50b3010 	str	r3, [fp, #-16]
    bcc0:	e51b2034 	ldr	r2, [fp, #-52]	; 0xffffffcc
    bcc4:	e51b3018 	ldr	r3, [fp, #-24]	; 0xffffffe8
    bcc8:	e1a01002 	mov	r1, r2
    bccc:	e1a00003 	mov	r0, r3
    bcd0:	eb00061b 	bl	d544 <__aeabi_uidivmod>
    bcd4:	e1a03001 	mov	r3, r1
    bcd8:	e1a02003 	mov	r2, r3
    bcdc:	e3033554 	movw	r3, #13652	; 0x3554
    bce0:	e3403001 	movt	r3, #1
    bce4:	e7d32002 	ldrb	r2, [r3, r2]
    bce8:	e24b300c 	sub	r3, fp, #12
    bcec:	e0833004 	add	r3, r3, r4
    bcf0:	e543201c 	strb	r2, [r3, #-28]	; 0xffffffe4
    } while ((x /= base) != 0);
    bcf4:	e51b3034 	ldr	r3, [fp, #-52]	; 0xffffffcc
    bcf8:	e1a01003 	mov	r1, r3
    bcfc:	e51b0018 	ldr	r0, [fp, #-24]	; 0xffffffe8
    bd00:	eb0005d2 	bl	d450 <__udivsi3>
    bd04:	e1a03000 	mov	r3, r0
    bd08:	e50b3018 	str	r3, [fp, #-24]	; 0xffffffe8
    bd0c:	e51b3018 	ldr	r3, [fp, #-24]	; 0xffffffe8
    bd10:	e3530000 	cmp	r3, #0
    bd14:	1affffe6 	bne	bcb4 <printint+0x60>
    if (neg)
    bd18:	e51b3014 	ldr	r3, [fp, #-20]	; 0xffffffec
    bd1c:	e3530000 	cmp	r3, #0
    bd20:	0a00000d 	beq	bd5c <printint+0x108>
        buf[i++] = '-';
    bd24:	e51b3010 	ldr	r3, [fp, #-16]
    bd28:	e2832001 	add	r2, r3, #1
    bd2c:	e50b2010 	str	r2, [fp, #-16]
    bd30:	e24b200c 	sub	r2, fp, #12
    bd34:	e0823003 	add	r3, r2, r3
    bd38:	e3a0202d 	mov	r2, #45	; 0x2d
    bd3c:	e543201c 	strb	r2, [r3, #-28]	; 0xffffffe4

    while (--i >= 0)
    bd40:	ea000005 	b	bd5c <printint+0x108>
        putc(buf[i]);
    bd44:	e24b2028 	sub	r2, fp, #40	; 0x28
    bd48:	e51b3010 	ldr	r3, [fp, #-16]
    bd4c:	e0823003 	add	r3, r2, r3
    bd50:	e5d33000 	ldrb	r3, [r3]
    bd54:	e1a00003 	mov	r0, r3
    bd58:	ebffff76 	bl	bb38 <putc>
    while (--i >= 0)
    bd5c:	e51b3010 	ldr	r3, [fp, #-16]
    bd60:	e2433001 	sub	r3, r3, #1
    bd64:	e50b3010 	str	r3, [fp, #-16]
    bd68:	e51b3010 	ldr	r3, [fp, #-16]
    bd6c:	e3530000 	cmp	r3, #0
    bd70:	aafffff3 	bge	bd44 <printint+0xf0>
}
    bd74:	e320f000 	nop	{0}
    bd78:	e24bd008 	sub	sp, fp, #8
    bd7c:	e8bd8810 	pop	{r4, fp, pc}

0000bd80 <printf>:

// Print to usart. Only understands %d, %x, %p, %s.
void printf(char* fmt, ...)
{
    bd80:	e92d000f 	push	{r0, r1, r2, r3}
    bd84:	e92d4800 	push	{fp, lr}
    bd88:	e28db004 	add	fp, sp, #4
    bd8c:	e24dd018 	sub	sp, sp, #24
    if (!init_uart_mmio()) {
    bd90:	ebffff4e 	bl	bad0 <init_uart_mmio>
    bd94:	e1a03000 	mov	r3, r0
    bd98:	e2233001 	eor	r3, r3, #1
    bd9c:	e6ef3073 	uxtb	r3, r3
    bda0:	e3530000 	cmp	r3, #0
    bda4:	1a00007b 	bne	bf98 <printf+0x218>
    }
    char* s;
    int c, i, state;
    uint32_t* ap;

    state = 0;
    bda8:	e3a03000 	mov	r3, #0
    bdac:	e50b3010 	str	r3, [fp, #-16]
    ap = (uint32_t*)(void*)&fmt + 1;
    bdb0:	e28b3008 	add	r3, fp, #8
    bdb4:	e50b3014 	str	r3, [fp, #-20]	; 0xffffffec
    for (i = 0; fmt[i]; i++) {
    bdb8:	e3a03000 	mov	r3, #0
    bdbc:	e50b300c 	str	r3, [fp, #-12]
    bdc0:	ea00006d 	b	bf7c <printf+0x1fc>
        c = fmt[i] & 0xff;
    bdc4:	e59b2004 	ldr	r2, [fp, #4]
    bdc8:	e51b300c 	ldr	r3, [fp, #-12]
    bdcc:	e0823003 	add	r3, r2, r3
    bdd0:	e5d33000 	ldrb	r3, [r3]
    bdd4:	e50b3018 	str	r3, [fp, #-24]	; 0xffffffe8
        if (state == 0) {
    bdd8:	e51b3010 	ldr	r3, [fp, #-16]
    bddc:	e3530000 	cmp	r3, #0
    bde0:	1a00000a 	bne	be10 <printf+0x90>
            if (c == '%') {
    bde4:	e51b3018 	ldr	r3, [fp, #-24]	; 0xffffffe8
    bde8:	e3530025 	cmp	r3, #37	; 0x25
    bdec:	1a000002 	bne	bdfc <printf+0x7c>
                state = '%';
    bdf0:	e3a03025 	mov	r3, #37	; 0x25
    bdf4:	e50b3010 	str	r3, [fp, #-16]
    bdf8:	ea00005c 	b	bf70 <printf+0x1f0>
            } else {
                putc(c);
    bdfc:	e51b3018 	ldr	r3, [fp, #-24]	; 0xffffffe8
    be00:	e6ef3073 	uxtb	r3, r3
    be04:	e1a00003 	mov	r0, r3
    be08:	ebffff4a 	bl	bb38 <putc>
    be0c:	ea000057 	b	bf70 <printf+0x1f0>
            }
        } else if (state == '%') {
    be10:	e51b3010 	ldr	r3, [fp, #-16]
    be14:	e3530025 	cmp	r3, #37	; 0x25
    be18:	1a000054 	bne	bf70 <printf+0x1f0>
            if (c == 'd') {
    be1c:	e51b3018 	ldr	r3, [fp, #-24]	; 0xffffffe8
    be20:	e3530064 	cmp	r3, #100	; 0x64
    be24:	1a000009 	bne	be50 <printf+0xd0>
                printint(*ap, 10, 1);
    be28:	e51b3014 	ldr	r3, [fp, #-20]	; 0xffffffec
    be2c:	e5933000 	ldr	r3, [r3]
    be30:	e3a02001 	mov	r2, #1
    be34:	e3a0100a 	mov	r1, #10
    be38:	e1a00003 	mov	r0, r3
    be3c:	ebffff84 	bl	bc54 <printint>
                ap++;
    be40:	e51b3014 	ldr	r3, [fp, #-20]	; 0xffffffec
    be44:	e2833004 	add	r3, r3, #4
    be48:	e50b3014 	str	r3, [fp, #-20]	; 0xffffffec
    be4c:	ea000045 	b	bf68 <printf+0x1e8>
            } else if (c == 'x' || c == 'p') {
    be50:	e51b3018 	ldr	r3, [fp, #-24]	; 0xffffffe8
    be54:	e3530078 	cmp	r3, #120	; 0x78
    be58:	0a000002 	beq	be68 <printf+0xe8>
    be5c:	e51b3018 	ldr	r3, [fp, #-24]	; 0xffffffe8
    be60:	e3530070 	cmp	r3, #112	; 0x70
    be64:	1a000009 	bne	be90 <printf+0x110>
                printint(*ap, 16, 0);
    be68:	e51b3014 	ldr	r3, [fp, #-20]	; 0xffffffec
    be6c:	e5933000 	ldr	r3, [r3]
    be70:	e3a02000 	mov	r2, #0
    be74:	e3a01010 	mov	r1, #16
    be78:	e1a00003 	mov	r0, r3
    be7c:	ebffff74 	bl	bc54 <printint>
                ap++;
    be80:	e51b3014 	ldr	r3, [fp, #-20]	; 0xffffffec
    be84:	e2833004 	add	r3, r3, #4
    be88:	e50b3014 	str	r3, [fp, #-20]	; 0xffffffec
    be8c:	ea000035 	b	bf68 <printf+0x1e8>
            } else if (c == 's') {
    be90:	e51b3018 	ldr	r3, [fp, #-24]	; 0xffffffe8
    be94:	e3530073 	cmp	r3, #115	; 0x73
    be98:	1a000018 	bne	bf00 <printf+0x180>
                s = (char*)*ap;
    be9c:	e51b3014 	ldr	r3, [fp, #-20]	; 0xffffffec
    bea0:	e5933000 	ldr	r3, [r3]
    bea4:	e50b3008 	str	r3, [fp, #-8]
                ap++;
    bea8:	e51b3014 	ldr	r3, [fp, #-20]	; 0xffffffec
    beac:	e2833004 	add	r3, r3, #4
    beb0:	e50b3014 	str	r3, [fp, #-20]	; 0xffffffec
                if (s == 0)
    beb4:	e51b3008 	ldr	r3, [fp, #-8]
    beb8:	e3530000 	cmp	r3, #0
    bebc:	1a00000a 	bne	beec <printf+0x16c>
                    s = "(null)";
    bec0:	e3023d04 	movw	r3, #11524	; 0x2d04
    bec4:	e3403001 	movt	r3, #1
    bec8:	e50b3008 	str	r3, [fp, #-8]
                while (*s != 0) {
    becc:	ea000006 	b	beec <printf+0x16c>
                    putc(*s);
    bed0:	e51b3008 	ldr	r3, [fp, #-8]
    bed4:	e5d33000 	ldrb	r3, [r3]
    bed8:	e1a00003 	mov	r0, r3
    bedc:	ebffff15 	bl	bb38 <putc>
                    s++;
    bee0:	e51b3008 	ldr	r3, [fp, #-8]
    bee4:	e2833001 	add	r3, r3, #1
    bee8:	e50b3008 	str	r3, [fp, #-8]
                while (*s != 0) {
    beec:	e51b3008 	ldr	r3, [fp, #-8]
    bef0:	e5d33000 	ldrb	r3, [r3]
    bef4:	e3530000 	cmp	r3, #0
    bef8:	1afffff4 	bne	bed0 <printf+0x150>
    befc:	ea000019 	b	bf68 <printf+0x1e8>
                }
            } else if (c == 'c') {
    bf00:	e51b3018 	ldr	r3, [fp, #-24]	; 0xffffffe8
    bf04:	e3530063 	cmp	r3, #99	; 0x63
    bf08:	1a000008 	bne	bf30 <printf+0x1b0>
                putc(*ap);
    bf0c:	e51b3014 	ldr	r3, [fp, #-20]	; 0xffffffec
    bf10:	e5933000 	ldr	r3, [r3]
    bf14:	e6ef3073 	uxtb	r3, r3
    bf18:	e1a00003 	mov	r0, r3
    bf1c:	ebffff05 	bl	bb38 <putc>
                ap++;
    bf20:	e51b3014 	ldr	r3, [fp, #-20]	; 0xffffffec
    bf24:	e2833004 	add	r3, r3, #4
    bf28:	e50b3014 	str	r3, [fp, #-20]	; 0xffffffec
    bf2c:	ea00000d 	b	bf68 <printf+0x1e8>
            } else if (c == '%') {
    bf30:	e51b3018 	ldr	r3, [fp, #-24]	; 0xffffffe8
    bf34:	e3530025 	cmp	r3, #37	; 0x25
    bf38:	1a000004 	bne	bf50 <printf+0x1d0>
                putc(c);
    bf3c:	e51b3018 	ldr	r3, [fp, #-24]	; 0xffffffe8
    bf40:	e6ef3073 	uxtb	r3, r3
    bf44:	e1a00003 	mov	r0, r3
    bf48:	ebfffefa 	bl	bb38 <putc>
    bf4c:	ea000005 	b	bf68 <printf+0x1e8>
            } else {
                // Unknown % sequence.  Print it to draw attention.
                putc('%');
    bf50:	e3a00025 	mov	r0, #37	; 0x25
    bf54:	ebfffef7 	bl	bb38 <putc>
                putc(c);
    bf58:	e51b3018 	ldr	r3, [fp, #-24]	; 0xffffffe8
    bf5c:	e6ef3073 	uxtb	r3, r3
    bf60:	e1a00003 	mov	r0, r3
    bf64:	ebfffef3 	bl	bb38 <putc>
            }
            state = 0;
    bf68:	e3a03000 	mov	r3, #0
    bf6c:	e50b3010 	str	r3, [fp, #-16]
    for (i = 0; fmt[i]; i++) {
    bf70:	e51b300c 	ldr	r3, [fp, #-12]
    bf74:	e2833001 	add	r3, r3, #1
    bf78:	e50b300c 	str	r3, [fp, #-12]
    bf7c:	e59b2004 	ldr	r2, [fp, #4]
    bf80:	e51b300c 	ldr	r3, [fp, #-12]
    bf84:	e0823003 	add	r3, r2, r3
    bf88:	e5d33000 	ldrb	r3, [r3]
    bf8c:	e3530000 	cmp	r3, #0
    bf90:	1affff8b 	bne	bdc4 <printf+0x44>
    bf94:	ea000000 	b	bf9c <printf+0x21c>
        return;
    bf98:	e320f000 	nop	{0}
        }
    }
    bf9c:	e24bd004 	sub	sp, fp, #4
    bfa0:	e8bd4800 	pop	{fp, lr}
    bfa4:	e28dd010 	add	sp, sp, #16
    bfa8:	e12fff1e 	bx	lr

0000bfac <new_ipc_msg>:
/// @warning this file doesnt support multi threads

/// ipc part

struct IpcMsg* new_ipc_msg(struct Session* session, const int argc, const int* arg_size)
{
    bfac:	e92d4800 	push	{fp, lr}
    bfb0:	e28db004 	add	fp, sp, #4
    bfb4:	e24dd030 	sub	sp, sp, #48	; 0x30
    bfb8:	e50b0028 	str	r0, [fp, #-40]	; 0xffffffd8
    bfbc:	e50b102c 	str	r1, [fp, #-44]	; 0xffffffd4
    bfc0:	e50b2030 	str	r2, [fp, #-48]	; 0xffffffd0
    int len = IPC_ARG_INFO_BASE_OFFSET;
    bfc4:	e3a0300c 	mov	r3, #12
    bfc8:	e50b3008 	str	r3, [fp, #-8]

    int arg_info_offset = len; // start of arg info
    bfcc:	e51b3008 	ldr	r3, [fp, #-8]
    bfd0:	e50b300c 	str	r3, [fp, #-12]
    len += argc * sizeof(struct IpcArgInfo);
    bfd4:	e51b302c 	ldr	r3, [fp, #-44]	; 0xffffffd4
    bfd8:	e1a02103 	lsl	r2, r3, #2
    bfdc:	e51b3008 	ldr	r3, [fp, #-8]
    bfe0:	e0823003 	add	r3, r2, r3
    bfe4:	e50b3008 	str	r3, [fp, #-8]

    int arg_buf_offset = len; // start of arg buffer
    bfe8:	e51b3008 	ldr	r3, [fp, #-8]
    bfec:	e50b3010 	str	r3, [fp, #-16]
    for (int i = 0; i < argc; i++) {
    bff0:	e3a03000 	mov	r3, #0
    bff4:	e50b3014 	str	r3, [fp, #-20]	; 0xffffffec
    bff8:	ea00000a 	b	c028 <new_ipc_msg+0x7c>
        len += arg_size[i];
    bffc:	e51b3014 	ldr	r3, [fp, #-20]	; 0xffffffec
    c000:	e1a03103 	lsl	r3, r3, #2
    c004:	e51b2030 	ldr	r2, [fp, #-48]	; 0xffffffd0
    c008:	e0823003 	add	r3, r2, r3
    c00c:	e5933000 	ldr	r3, [r3]
    c010:	e51b2008 	ldr	r2, [fp, #-8]
    c014:	e0823003 	add	r3, r2, r3
    c018:	e50b3008 	str	r3, [fp, #-8]
    for (int i = 0; i < argc; i++) {
    c01c:	e51b3014 	ldr	r3, [fp, #-20]	; 0xffffffec
    c020:	e2833001 	add	r3, r3, #1
    c024:	e50b3014 	str	r3, [fp, #-20]	; 0xffffffec
    c028:	e51b2014 	ldr	r2, [fp, #-20]	; 0xffffffec
    c02c:	e51b302c 	ldr	r3, [fp, #-44]	; 0xffffffd4
    c030:	e1520003 	cmp	r2, r3
    c034:	bafffff0 	blt	bffc <new_ipc_msg+0x50>
    }
    struct IpcMsg* buf = session_alloc_buf(session, len);
    c038:	e51b1008 	ldr	r1, [fp, #-8]
    c03c:	e51b0028 	ldr	r0, [fp, #-40]	; 0xffffffd8
    c040:	eb00026d 	bl	c9fc <session_alloc_buf>
    c044:	e50b001c 	str	r0, [fp, #-28]	; 0xffffffe4
    if (buf == NULL) {
    c048:	e51b301c 	ldr	r3, [fp, #-28]	; 0xffffffe4
    c04c:	e3530000 	cmp	r3, #0
    c050:	1a000001 	bne	c05c <new_ipc_msg+0xb0>
        return NULL;
    c054:	e3a03000 	mov	r3, #0
    c058:	ea00003d 	b	c154 <new_ipc_msg+0x1a8>
    }
    buf->header.len = len;
    c05c:	e51b3008 	ldr	r3, [fp, #-8]
    c060:	e6ff2073 	uxth	r2, r3
    c064:	e51b301c 	ldr	r3, [fp, #-28]	; 0xffffffe4
    c068:	e1c320b2 	strh	r2, [r3, #2]
    buf->header.done = 0;
    c06c:	e51b201c 	ldr	r2, [fp, #-28]	; 0xffffffe4
    c070:	e5d23000 	ldrb	r3, [r2]
    c074:	e7c1309f 	bfc	r3, #1, #1
    c078:	e5c23000 	strb	r3, [r2]
    buf->header.valid = 0;
    c07c:	e51b201c 	ldr	r2, [fp, #-28]	; 0xffffffe4
    c080:	e5d23000 	ldrb	r3, [r2]
    c084:	e7c0301f 	bfc	r3, #0, #1
    c088:	e5c23000 	strb	r3, [r2]

    for (int i = 0; i < argc; i++) {
    c08c:	e3a03000 	mov	r3, #0
    c090:	e50b3018 	str	r3, [fp, #-24]	; 0xffffffe8
    c094:	ea00001d 	b	c110 <new_ipc_msg+0x164>
        struct IpcArgInfo* arg_info = (struct IpcArgInfo*)((char*)buf + arg_info_offset);
    c098:	e51b300c 	ldr	r3, [fp, #-12]
    c09c:	e51b201c 	ldr	r2, [fp, #-28]	; 0xffffffe4
    c0a0:	e0823003 	add	r3, r2, r3
    c0a4:	e50b3020 	str	r3, [fp, #-32]	; 0xffffffe0
        arg_info->len = arg_size[i];
    c0a8:	e51b3018 	ldr	r3, [fp, #-24]	; 0xffffffe8
    c0ac:	e1a03103 	lsl	r3, r3, #2
    c0b0:	e51b2030 	ldr	r2, [fp, #-48]	; 0xffffffd0
    c0b4:	e0823003 	add	r3, r2, r3
    c0b8:	e5933000 	ldr	r3, [r3]
    c0bc:	e6ff2073 	uxth	r2, r3
    c0c0:	e51b3020 	ldr	r3, [fp, #-32]	; 0xffffffe0
    c0c4:	e1c320b2 	strh	r2, [r3, #2]
        arg_info->offset = arg_buf_offset;
    c0c8:	e51b3010 	ldr	r3, [fp, #-16]
    c0cc:	e6ff2073 	uxth	r2, r3
    c0d0:	e51b3020 	ldr	r3, [fp, #-32]	; 0xffffffe0
    c0d4:	e1c320b0 	strh	r2, [r3]

        // update arg_info_offset and arg_buf_offset
        arg_info_offset += sizeof(struct IpcArgInfo);
    c0d8:	e51b300c 	ldr	r3, [fp, #-12]
    c0dc:	e2833004 	add	r3, r3, #4
    c0e0:	e50b300c 	str	r3, [fp, #-12]
        arg_buf_offset += arg_size[i];
    c0e4:	e51b3018 	ldr	r3, [fp, #-24]	; 0xffffffe8
    c0e8:	e1a03103 	lsl	r3, r3, #2
    c0ec:	e51b2030 	ldr	r2, [fp, #-48]	; 0xffffffd0
    c0f0:	e0823003 	add	r3, r2, r3
    c0f4:	e5933000 	ldr	r3, [r3]
    c0f8:	e51b2010 	ldr	r2, [fp, #-16]
    c0fc:	e0823003 	add	r3, r2, r3
    c100:	e50b3010 	str	r3, [fp, #-16]
    for (int i = 0; i < argc; i++) {
    c104:	e51b3018 	ldr	r3, [fp, #-24]	; 0xffffffe8
    c108:	e2833001 	add	r3, r3, #1
    c10c:	e50b3018 	str	r3, [fp, #-24]	; 0xffffffe8
    c110:	e51b2018 	ldr	r2, [fp, #-24]	; 0xffffffe8
    c114:	e51b302c 	ldr	r3, [fp, #-44]	; 0xffffffd4
    c118:	e1520003 	cmp	r2, r3
    c11c:	baffffdd 	blt	c098 <new_ipc_msg+0xec>
    }
    buf->header.nr_args = argc;
    c120:	e51b302c 	ldr	r3, [fp, #-44]	; 0xffffffd4
    c124:	e6ef3073 	uxtb	r3, r3
    c128:	e203300f 	and	r3, r3, #15
    c12c:	e6ef1073 	uxtb	r1, r3
    c130:	e51b201c 	ldr	r2, [fp, #-28]	; 0xffffffe4
    c134:	e5d23000 	ldrb	r3, [r2]
    c138:	e7c73211 	bfi	r3, r1, #4, #4
    c13c:	e5c23000 	strb	r3, [r2]
    buf->header.init = 1;
    c140:	e51b201c 	ldr	r2, [fp, #-28]	; 0xffffffe4
    c144:	e5d23000 	ldrb	r3, [r2]
    c148:	e3833004 	orr	r3, r3, #4
    c14c:	e5c23000 	strb	r3, [r2]
    return buf;
    c150:	e51b301c 	ldr	r3, [fp, #-28]	; 0xffffffe4
}
    c154:	e1a00003 	mov	r0, r3
    c158:	e24bd004 	sub	sp, fp, #4
    c15c:	e8bd8800 	pop	{fp, pc}

0000c160 <ipc_msg_set_nth_arg>:
/// @param arg_num start with 0 for first arg
/// @param data
/// @param len data buffer len
/// @return
bool ipc_msg_set_nth_arg(struct IpcMsg* msg, const int arg_num, const void* const data, const int len)
{
    c160:	e92d4800 	push	{fp, lr}
    c164:	e28db004 	add	fp, sp, #4
    c168:	e24dd020 	sub	sp, sp, #32
    c16c:	e50b0018 	str	r0, [fp, #-24]	; 0xffffffe8
    c170:	e50b101c 	str	r1, [fp, #-28]	; 0xffffffe4
    c174:	e50b2020 	str	r2, [fp, #-32]	; 0xffffffe0
    c178:	e50b3024 	str	r3, [fp, #-36]	; 0xffffffdc
    if (arg_num >= msg->header.nr_args) {
    c17c:	e51b3018 	ldr	r3, [fp, #-24]	; 0xffffffe8
    c180:	e5d33000 	ldrb	r3, [r3]
    c184:	e7e33253 	ubfx	r3, r3, #4, #4
    c188:	e6ef3073 	uxtb	r3, r3
    c18c:	e1a02003 	mov	r2, r3
    c190:	e51b301c 	ldr	r3, [fp, #-28]	; 0xffffffe4
    c194:	e1520003 	cmp	r2, r3
    c198:	ca00000b 	bgt	c1cc <ipc_msg_set_nth_arg+0x6c>
        printf("[%s] IPC: arg_num out of msg range, arg_num: %d, nr_args: %d\n", __func__, arg_num, msg->header.nr_args);
    c19c:	e51b3018 	ldr	r3, [fp, #-24]	; 0xffffffe8
    c1a0:	e5d33000 	ldrb	r3, [r3]
    c1a4:	e7e33253 	ubfx	r3, r3, #4, #4
    c1a8:	e6ef3073 	uxtb	r3, r3
    c1ac:	e51b201c 	ldr	r2, [fp, #-28]	; 0xffffffe4
    c1b0:	e3021e74 	movw	r1, #11892	; 0x2e74
    c1b4:	e3401001 	movt	r1, #1
    c1b8:	e3020d0c 	movw	r0, #11532	; 0x2d0c
    c1bc:	e3400001 	movt	r0, #1
    c1c0:	ebfffeee 	bl	bd80 <printf>
        return false;
    c1c4:	e3a03000 	mov	r3, #0
    c1c8:	ea000029 	b	c274 <ipc_msg_set_nth_arg+0x114>
    }
    struct IpcArgInfo* nth_arg_info = IPCMSG_ARG_INFO(msg, arg_num);
    c1cc:	e51b301c 	ldr	r3, [fp, #-28]	; 0xffffffe4
    c1d0:	e2833003 	add	r3, r3, #3
    c1d4:	e1a03103 	lsl	r3, r3, #2
    c1d8:	e51b2018 	ldr	r2, [fp, #-24]	; 0xffffffe8
    c1dc:	e0823003 	add	r3, r2, r3
    c1e0:	e50b3008 	str	r3, [fp, #-8]
    if (len > nth_arg_info->len) {
    c1e4:	e51b3008 	ldr	r3, [fp, #-8]
    c1e8:	e1d330b2 	ldrh	r3, [r3, #2]
    c1ec:	e1a02003 	mov	r2, r3
    c1f0:	e51b3024 	ldr	r3, [fp, #-36]	; 0xffffffdc
    c1f4:	e1520003 	cmp	r2, r3
    c1f8:	aa000009 	bge	c224 <ipc_msg_set_nth_arg+0xc4>
        printf("[%s] IPC: size of arg out of buffer range, given len: %d, len %d\n", __func__, len, nth_arg_info->len);
    c1fc:	e51b3008 	ldr	r3, [fp, #-8]
    c200:	e1d330b2 	ldrh	r3, [r3, #2]
    c204:	e51b2024 	ldr	r2, [fp, #-36]	; 0xffffffdc
    c208:	e3021e74 	movw	r1, #11892	; 0x2e74
    c20c:	e3401001 	movt	r1, #1
    c210:	e3020d4c 	movw	r0, #11596	; 0x2d4c
    c214:	e3400001 	movt	r0, #1
    c218:	ebfffed8 	bl	bd80 <printf>
        return false;
    c21c:	e3a03000 	mov	r3, #0
    c220:	ea000013 	b	c274 <ipc_msg_set_nth_arg+0x114>
    c224:	e51b3018 	ldr	r3, [fp, #-24]	; 0xffffffe8
    c228:	e50b3010 	str	r3, [fp, #-16]
    c22c:	e51b301c 	ldr	r3, [fp, #-28]	; 0xffffffe4
    c230:	e50b3014 	str	r3, [fp, #-20]	; 0xffffffec
    return (void*)((char*)msg + IPCMSG_ARG_INFO(msg, arg_num)->offset);
    c234:	e51b3014 	ldr	r3, [fp, #-20]	; 0xffffffec
    c238:	e2833003 	add	r3, r3, #3
    c23c:	e1a03103 	lsl	r3, r3, #2
    c240:	e51b2010 	ldr	r2, [fp, #-16]
    c244:	e0823003 	add	r3, r2, r3
    c248:	e1d330b0 	ldrh	r3, [r3]
    c24c:	e1a02003 	mov	r2, r3
    c250:	e51b3010 	ldr	r3, [fp, #-16]
    c254:	e0833002 	add	r3, r3, r2
    }
    void* buf = ipc_msg_get_nth_arg_buf(msg, arg_num);
    c258:	e50b300c 	str	r3, [fp, #-12]
    memmove(buf, data, len);
    c25c:	e51b3024 	ldr	r3, [fp, #-36]	; 0xffffffdc
    c260:	e1a02003 	mov	r2, r3
    c264:	e51b1020 	ldr	r1, [fp, #-32]	; 0xffffffe0
    c268:	e51b000c 	ldr	r0, [fp, #-12]
    c26c:	eb0005a8 	bl	d914 <memmove>
    return true;
    c270:	e3a03001 	mov	r3, #1
}
    c274:	e1a00003 	mov	r0, r3
    c278:	e24bd004 	sub	sp, fp, #4
    c27c:	e8bd8800 	pop	{fp, pc}

0000c280 <ipc_msg_get_nth_arg>:
/// @param arg_num start with 0 for first arg
/// @param data
/// @param len data buffer len
/// @return
bool ipc_msg_get_nth_arg(struct IpcMsg* msg, const int arg_num, void* data, const int len)
{
    c280:	e92d4800 	push	{fp, lr}
    c284:	e28db004 	add	fp, sp, #4
    c288:	e24dd020 	sub	sp, sp, #32
    c28c:	e50b0018 	str	r0, [fp, #-24]	; 0xffffffe8
    c290:	e50b101c 	str	r1, [fp, #-28]	; 0xffffffe4
    c294:	e50b2020 	str	r2, [fp, #-32]	; 0xffffffe0
    c298:	e50b3024 	str	r3, [fp, #-36]	; 0xffffffdc
    if (arg_num >= msg->header.nr_args) {
    c29c:	e51b3018 	ldr	r3, [fp, #-24]	; 0xffffffe8
    c2a0:	e5d33000 	ldrb	r3, [r3]
    c2a4:	e7e33253 	ubfx	r3, r3, #4, #4
    c2a8:	e6ef3073 	uxtb	r3, r3
    c2ac:	e1a02003 	mov	r2, r3
    c2b0:	e51b301c 	ldr	r3, [fp, #-28]	; 0xffffffe4
    c2b4:	e1520003 	cmp	r2, r3
    c2b8:	ca000006 	bgt	c2d8 <ipc_msg_get_nth_arg+0x58>
        printf("[%s] IPC: arg_num out of msg range", __func__);
    c2bc:	e3021e88 	movw	r1, #11912	; 0x2e88
    c2c0:	e3401001 	movt	r1, #1
    c2c4:	e3020d90 	movw	r0, #11664	; 0x2d90
    c2c8:	e3400001 	movt	r0, #1
    c2cc:	ebfffeab 	bl	bd80 <printf>
        return false;
    c2d0:	e3a03000 	mov	r3, #0
    c2d4:	ea000026 	b	c374 <ipc_msg_get_nth_arg+0xf4>
    }
    struct IpcArgInfo* nth_arg_info = IPCMSG_ARG_INFO(msg, arg_num);
    c2d8:	e51b301c 	ldr	r3, [fp, #-28]	; 0xffffffe4
    c2dc:	e2833003 	add	r3, r3, #3
    c2e0:	e1a03103 	lsl	r3, r3, #2
    c2e4:	e51b2018 	ldr	r2, [fp, #-24]	; 0xffffffe8
    c2e8:	e0823003 	add	r3, r2, r3
    c2ec:	e50b3008 	str	r3, [fp, #-8]
    if (len > nth_arg_info->len) {
    c2f0:	e51b3008 	ldr	r3, [fp, #-8]
    c2f4:	e1d330b2 	ldrh	r3, [r3, #2]
    c2f8:	e1a02003 	mov	r2, r3
    c2fc:	e51b3024 	ldr	r3, [fp, #-36]	; 0xffffffdc
    c300:	e1520003 	cmp	r2, r3
    c304:	aa000006 	bge	c324 <ipc_msg_get_nth_arg+0xa4>
        printf("[%s] IPC: size of arg out of buffer range", __func__);
    c308:	e3021e88 	movw	r1, #11912	; 0x2e88
    c30c:	e3401001 	movt	r1, #1
    c310:	e3020db4 	movw	r0, #11700	; 0x2db4
    c314:	e3400001 	movt	r0, #1
    c318:	ebfffe98 	bl	bd80 <printf>
        return false;
    c31c:	e3a03000 	mov	r3, #0
    c320:	ea000013 	b	c374 <ipc_msg_get_nth_arg+0xf4>
    c324:	e51b3018 	ldr	r3, [fp, #-24]	; 0xffffffe8
    c328:	e50b3010 	str	r3, [fp, #-16]
    c32c:	e51b301c 	ldr	r3, [fp, #-28]	; 0xffffffe4
    c330:	e50b3014 	str	r3, [fp, #-20]	; 0xffffffec
    c334:	e51b3014 	ldr	r3, [fp, #-20]	; 0xffffffec
    c338:	e2833003 	add	r3, r3, #3
    c33c:	e1a03103 	lsl	r3, r3, #2
    c340:	e51b2010 	ldr	r2, [fp, #-16]
    c344:	e0823003 	add	r3, r2, r3
    c348:	e1d330b0 	ldrh	r3, [r3]
    c34c:	e1a02003 	mov	r2, r3
    c350:	e51b3010 	ldr	r3, [fp, #-16]
    c354:	e0833002 	add	r3, r3, r2
    }
    void* buf = ipc_msg_get_nth_arg_buf(msg, arg_num);
    c358:	e50b300c 	str	r3, [fp, #-12]
    memmove(data, buf, len);
    c35c:	e51b3024 	ldr	r3, [fp, #-36]	; 0xffffffdc
    c360:	e1a02003 	mov	r2, r3
    c364:	e51b100c 	ldr	r1, [fp, #-12]
    c368:	e51b0020 	ldr	r0, [fp, #-32]	; 0xffffffe0
    c36c:	eb000568 	bl	d914 <memmove>
    return true;
    c370:	e3a03001 	mov	r3, #1
}
    c374:	e1a00003 	mov	r0, r3
    c378:	e24bd004 	sub	sp, fp, #4
    c37c:	e8bd8800 	pop	{fp, pc}

0000c380 <ipc_msg_send_wait>:

void ipc_msg_send_wait(struct IpcMsg* msg)
{
    c380:	e92d4800 	push	{fp, lr}
    c384:	e28db004 	add	fp, sp, #4
    c388:	e24dd008 	sub	sp, sp, #8
    c38c:	e50b0008 	str	r0, [fp, #-8]
    msg->header.magic = IPC_MSG_MAGIC;
    c390:	e51b2008 	ldr	r2, [fp, #-8]
    c394:	e30d3cba 	movw	r3, #56506	; 0xdcba
    c398:	e34a3bcd 	movt	r3, #43981	; 0xabcd
    c39c:	e5823004 	str	r3, [r2, #4]
    msg->header.valid = 1;
    c3a0:	e51b2008 	ldr	r2, [fp, #-8]
    c3a4:	e5d23000 	ldrb	r3, [r2]
    c3a8:	e3833001 	orr	r3, r3, #1
    c3ac:	e5c23000 	strb	r3, [r2]
    msg->header.done = 0;
    c3b0:	e51b2008 	ldr	r2, [fp, #-8]
    c3b4:	e5d23000 	ldrb	r3, [r2]
    c3b8:	e7c1309f 	bfc	r3, #1, #1
    c3bc:	e5c23000 	strb	r3, [r2]
    while (msg->header.done == 0) {
    c3c0:	ea000000 	b	c3c8 <ipc_msg_send_wait+0x48>
        /// @todo syscall yield with prio decrease
        yield();
    c3c4:	eb00035b 	bl	d138 <yield>
    while (msg->header.done == 0) {
    c3c8:	e51b3008 	ldr	r3, [fp, #-8]
    c3cc:	e5d33000 	ldrb	r3, [r3]
    c3d0:	e2033002 	and	r3, r3, #2
    c3d4:	e6ef3073 	uxtb	r3, r3
    c3d8:	e3530000 	cmp	r3, #0
    c3dc:	0afffff8 	beq	c3c4 <ipc_msg_send_wait+0x44>
    }
    assert(msg->header.done == 1);
    c3e0:	e51b3008 	ldr	r3, [fp, #-8]
    c3e4:	e5d33000 	ldrb	r3, [r3]
    c3e8:	e2033002 	and	r3, r3, #2
    c3ec:	e6ef3073 	uxtb	r3, r3
    c3f0:	e3530000 	cmp	r3, #0
    c3f4:	1a000007 	bne	c418 <ipc_msg_send_wait+0x98>
    c3f8:	e3023de0 	movw	r3, #11744	; 0x2de0
    c3fc:	e3403001 	movt	r3, #1
    c400:	e3022e9c 	movw	r2, #11932	; 0x2e9c
    c404:	e3402001 	movt	r2, #1
    c408:	e3a0107e 	mov	r1, #126	; 0x7e
    c40c:	e3020df8 	movw	r0, #11768	; 0x2df8
    c410:	e3400001 	movt	r0, #1
    c414:	eb0004a5 	bl	d6b0 <__assert_func>
}
    c418:	e320f000 	nop	{0}
    c41c:	e24bd004 	sub	sp, fp, #4
    c420:	e8bd8800 	pop	{fp, pc}

0000c424 <ipc_msg_send_nowait>:

void ipc_msg_send_nowait(struct IpcMsg* msg)
{
    c424:	e52db004 	push	{fp}		; (str fp, [sp, #-4]!)
    c428:	e28db000 	add	fp, sp, #0
    c42c:	e24dd00c 	sub	sp, sp, #12
    c430:	e50b0008 	str	r0, [fp, #-8]
    msg->header.magic = IPC_MSG_MAGIC;
    c434:	e51b2008 	ldr	r2, [fp, #-8]
    c438:	e30d3cba 	movw	r3, #56506	; 0xdcba
    c43c:	e34a3bcd 	movt	r3, #43981	; 0xabcd
    c440:	e5823004 	str	r3, [r2, #4]
    msg->header.valid = 1;
    c444:	e51b2008 	ldr	r2, [fp, #-8]
    c448:	e5d23000 	ldrb	r3, [r2]
    c44c:	e3833001 	orr	r3, r3, #1
    c450:	e5c23000 	strb	r3, [r2]
    msg->header.done = 0;
    c454:	e51b2008 	ldr	r2, [fp, #-8]
    c458:	e5d23000 	ldrb	r3, [r2]
    c45c:	e7c1309f 	bfc	r3, #1, #1
    c460:	e5c23000 	strb	r3, [r2]
}
    c464:	e320f000 	nop	{0}
    c468:	e28bd000 	add	sp, fp, #0
    c46c:	e49db004 	pop	{fp}		; (ldr fp, [sp], #4)
    c470:	e12fff1e 	bx	lr

0000c474 <ipc_session_wait>:

int ipc_session_wait(struct Session* session)
{
    c474:	e92d4800 	push	{fp, lr}
    c478:	e28db004 	add	fp, sp, #4
    c47c:	e24dd010 	sub	sp, sp, #16
    c480:	e50b0010 	str	r0, [fp, #-16]
    struct IpcMsg* msg = IPCSESSION_MSG(session);
    c484:	e51b3010 	ldr	r3, [fp, #-16]
    c488:	e5933010 	ldr	r3, [r3, #16]
    c48c:	e51b2010 	ldr	r2, [fp, #-16]
    c490:	e5922008 	ldr	r2, [r2, #8]
    c494:	e0833002 	add	r3, r3, r2
    c498:	e50b3008 	str	r3, [fp, #-8]
    while (msg->header.done == 0) {
    c49c:	ea000000 	b	c4a4 <ipc_session_wait+0x30>
        /// @todo syscall yield with prio decrease
        yield();
    c4a0:	eb000324 	bl	d138 <yield>
    while (msg->header.done == 0) {
    c4a4:	e51b3008 	ldr	r3, [fp, #-8]
    c4a8:	e5d33000 	ldrb	r3, [r3]
    c4ac:	e2033002 	and	r3, r3, #2
    c4b0:	e6ef3073 	uxtb	r3, r3
    c4b4:	e3530000 	cmp	r3, #0
    c4b8:	0afffff8 	beq	c4a0 <ipc_session_wait+0x2c>
    }
    assert(msg->header.done == 1);
    c4bc:	e51b3008 	ldr	r3, [fp, #-8]
    c4c0:	e5d33000 	ldrb	r3, [r3]
    c4c4:	e2033002 	and	r3, r3, #2
    c4c8:	e6ef3073 	uxtb	r3, r3
    c4cc:	e3530000 	cmp	r3, #0
    c4d0:	1a000007 	bne	c4f4 <ipc_session_wait+0x80>
    c4d4:	e3023de0 	movw	r3, #11744	; 0x2de0
    c4d8:	e3403001 	movt	r3, #1
    c4dc:	e3022eb0 	movw	r2, #11952	; 0x2eb0
    c4e0:	e3402001 	movt	r2, #1
    c4e4:	e3a0108f 	mov	r1, #143	; 0x8f
    c4e8:	e3020df8 	movw	r0, #11768	; 0x2df8
    c4ec:	e3400001 	movt	r0, #1
    c4f0:	eb00046e 	bl	d6b0 <__assert_func>
    return msg->header.ret_val;
    c4f4:	e51b3008 	ldr	r3, [fp, #-8]
    c4f8:	e5933008 	ldr	r3, [r3, #8]
}
    c4fc:	e1a00003 	mov	r0, r3
    c500:	e24bd004 	sub	sp, fp, #4
    c504:	e8bd8800 	pop	{fp, pc}

0000c508 <cur_session_id>:

static int cur_sess_id = -1;
int cur_session_id(void)
{
    c508:	e52db004 	push	{fp}		; (str fp, [sp, #-4]!)
    c50c:	e28db000 	add	fp, sp, #0
    return cur_sess_id;
    c510:	e3033568 	movw	r3, #13672	; 0x3568
    c514:	e3403001 	movt	r3, #1
    c518:	e5933000 	ldr	r3, [r3]
}
    c51c:	e1a00003 	mov	r0, r3
    c520:	e28bd000 	add	sp, fp, #0
    c524:	e49db004 	pop	{fp}		; (ldr fp, [sp], #4)
    c528:	e12fff1e 	bx	lr

0000c52c <delay_session>:

static bool session_delayed = false;
void delay_session(void)
{
    c52c:	e52db004 	push	{fp}		; (str fp, [sp, #-4]!)
    c530:	e28db000 	add	fp, sp, #0
    session_delayed = true;
    c534:	e30c3138 	movw	r3, #49464	; 0xc138
    c538:	e3403003 	movt	r3, #3
    c53c:	e3a02001 	mov	r2, #1
    c540:	e5c32000 	strb	r2, [r3]
}
    c544:	e320f000 	nop	{0}
    c548:	e28bd000 	add	sp, fp, #0
    c54c:	e49db004 	pop	{fp}		; (ldr fp, [sp], #4)
    c550:	e12fff1e 	bx	lr

0000c554 <ipc_server_loop>:

void ipc_server_loop(struct IpcNode* ipc_node)
{
    c554:	e92d4810 	push	{r4, fp, lr}
    c558:	e28db008 	add	fp, sp, #8
    c55c:	e24ddf5d 	sub	sp, sp, #372	; 0x174
    c560:	e50b0178 	str	r0, [fp, #-376]	; 0xfffffe88
        /* if connect sessions are greater than NR_MAX_SESSION,
            a full round will require multiple polls.
            Eg.(3 polls to with 6 sessions and NR_MAX_SESSION = 4):
                [0, 1, 2, 3], [4, 5, 0, 1], [2, 3, 4, 5]
        */
        poll_session(session_list, NR_MAX_SESSION);
    c564:	e24b3e17 	sub	r3, fp, #368	; 0x170
    c568:	e3a01010 	mov	r1, #16
    c56c:	e1a00003 	mov	r0, r3
    c570:	eb00031f 	bl	d1f4 <poll_session>
        /* handle each session */
        for (int i = 0; i < NR_MAX_SESSION; i++) {
    c574:	e3a03000 	mov	r3, #0
    c578:	e50b3010 	str	r3, [fp, #-16]
    c57c:	ea000102 	b	c98c <ipc_server_loop+0x438>
            if (session_list[i].buf == NULL) {
    c580:	e51b2010 	ldr	r2, [fp, #-16]
    c584:	e1a03002 	mov	r3, r2
    c588:	e1a03103 	lsl	r3, r3, #2
    c58c:	e0833002 	add	r3, r3, r2
    c590:	e1a03103 	lsl	r3, r3, #2
    c594:	e24b200c 	sub	r2, fp, #12
    c598:	e0823003 	add	r3, r2, r3
    c59c:	e2433f55 	sub	r3, r3, #340	; 0x154
    c5a0:	e5933000 	ldr	r3, [r3]
    c5a4:	e3530000 	cmp	r3, #0
    c5a8:	1a000001 	bne	c5b4 <ipc_server_loop+0x60>
                yield();
    c5ac:	eb0002e1 	bl	d138 <yield>
                break;
    c5b0:	ea0000f8 	b	c998 <ipc_server_loop+0x444>
            }
            cur_sess_id = session_list[i].id;
    c5b4:	e51b2010 	ldr	r2, [fp, #-16]
    c5b8:	e1a03002 	mov	r3, r2
    c5bc:	e1a03103 	lsl	r3, r3, #2
    c5c0:	e0833002 	add	r3, r3, r2
    c5c4:	e1a03103 	lsl	r3, r3, #2
    c5c8:	e24b200c 	sub	r2, fp, #12
    c5cc:	e0823003 	add	r3, r2, r3
    c5d0:	e2433f59 	sub	r3, r3, #356	; 0x164
    c5d4:	e5932000 	ldr	r2, [r3]
    c5d8:	e3033568 	movw	r3, #13672	; 0x3568
    c5dc:	e3403001 	movt	r3, #1
    c5e0:	e5832000 	str	r2, [r3]
            struct IpcMsg* msg = IPCSESSION_MSG(&session_list[i]);
    c5e4:	e51b2010 	ldr	r2, [fp, #-16]
    c5e8:	e1a03002 	mov	r3, r2
    c5ec:	e1a03103 	lsl	r3, r3, #2
    c5f0:	e0833002 	add	r3, r3, r2
    c5f4:	e1a03103 	lsl	r3, r3, #2
    c5f8:	e24b200c 	sub	r2, fp, #12
    c5fc:	e0823003 	add	r3, r2, r3
    c600:	e2433f55 	sub	r3, r3, #340	; 0x154
    c604:	e5931000 	ldr	r1, [r3]
    c608:	e51b2010 	ldr	r2, [fp, #-16]
    c60c:	e1a03002 	mov	r3, r2
    c610:	e1a03103 	lsl	r3, r3, #2
    c614:	e0833002 	add	r3, r3, r2
    c618:	e1a03103 	lsl	r3, r3, #2
    c61c:	e24b200c 	sub	r2, fp, #12
    c620:	e0823003 	add	r3, r2, r3
    c624:	e2433f57 	sub	r3, r3, #348	; 0x15c
    c628:	e5933000 	ldr	r3, [r3]
    c62c:	e0813003 	add	r3, r1, r3
    c630:	e50b3014 	str	r3, [fp, #-20]	; 0xffffffec
            /* handle every message in current session
                a session could be delay in case one of its message(current message) needs to wait for an interrupt message's arrival
                interfaces[opcode] should explicitly call delay_session() and return to delay this session
            */
            while (msg->header.magic == IPC_MSG_MAGIC && msg->header.valid == 1 && msg->header.done != 1) {
    c634:	ea0000b9 	b	c920 <ipc_server_loop+0x3cc>
                // printf("session %d [%d, %d]\n", session_list[i].id, session_list[i].head, session_list[i].tail);
                if (session_used_size(&session_list[i]) == 0 && session_forward_tail(&session_list[i], msg->header.len) < 0) {
    c638:	e24b1e17 	sub	r1, fp, #368	; 0x170
    c63c:	e51b2010 	ldr	r2, [fp, #-16]
    c640:	e1a03002 	mov	r3, r2
    c644:	e1a03103 	lsl	r3, r3, #2
    c648:	e0833002 	add	r3, r3, r2
    c64c:	e1a03103 	lsl	r3, r3, #2
    c650:	e0813003 	add	r3, r1, r3
    c654:	e50b3018 	str	r3, [fp, #-24]	; 0xffffffe8
    void* buf;
};

__attribute__((__always_inline__)) static inline int session_used_size(struct Session* session)
{
    return ((session->tail + session->capacity) - session->head) % session->capacity;
    c658:	e51b3018 	ldr	r3, [fp, #-24]	; 0xffffffe8
    c65c:	e593200c 	ldr	r2, [r3, #12]
    c660:	e51b3018 	ldr	r3, [fp, #-24]	; 0xffffffe8
    c664:	e5933004 	ldr	r3, [r3, #4]
    c668:	e0822003 	add	r2, r2, r3
    c66c:	e51b3018 	ldr	r3, [fp, #-24]	; 0xffffffe8
    c670:	e5933008 	ldr	r3, [r3, #8]
    c674:	e0422003 	sub	r2, r2, r3
    c678:	e51b3018 	ldr	r3, [fp, #-24]	; 0xffffffe8
    c67c:	e5933004 	ldr	r3, [r3, #4]
    c680:	e1a01003 	mov	r1, r3
    c684:	e1a00002 	mov	r0, r2
    c688:	eb0003ff 	bl	d68c <__aeabi_idivmod>
    c68c:	e1a03001 	mov	r3, r1
    c690:	e3530000 	cmp	r3, #0
    c694:	1a000038 	bne	c77c <ipc_server_loop+0x228>
    c698:	e24b1e17 	sub	r1, fp, #368	; 0x170
    c69c:	e51b2010 	ldr	r2, [fp, #-16]
    c6a0:	e1a03002 	mov	r3, r2
    c6a4:	e1a03103 	lsl	r3, r3, #2
    c6a8:	e0833002 	add	r3, r3, r2
    c6ac:	e1a03103 	lsl	r3, r3, #2
    c6b0:	e0813003 	add	r3, r1, r3
    c6b4:	e51b2014 	ldr	r2, [fp, #-20]	; 0xffffffec
    c6b8:	e1d220b2 	ldrh	r2, [r2, #2]
    c6bc:	e50b301c 	str	r3, [fp, #-28]	; 0xffffffe4
    c6c0:	e50b2020 	str	r2, [fp, #-32]	; 0xffffffe0
    c6c4:	e51b301c 	ldr	r3, [fp, #-28]	; 0xffffffe4
    c6c8:	e50b3024 	str	r3, [fp, #-36]	; 0xffffffdc
}

__attribute__((__always_inline__)) static inline int session_remain_capacity(struct Session* session)
{
    return session->capacity - session_used_size(session);
    c6cc:	e51b3024 	ldr	r3, [fp, #-36]	; 0xffffffdc
    c6d0:	e5934004 	ldr	r4, [r3, #4]
    c6d4:	e51b3024 	ldr	r3, [fp, #-36]	; 0xffffffdc
    c6d8:	e50b3028 	str	r3, [fp, #-40]	; 0xffffffd8
    return ((session->tail + session->capacity) - session->head) % session->capacity;
    c6dc:	e51b3028 	ldr	r3, [fp, #-40]	; 0xffffffd8
    c6e0:	e593200c 	ldr	r2, [r3, #12]
    c6e4:	e51b3028 	ldr	r3, [fp, #-40]	; 0xffffffd8
    c6e8:	e5933004 	ldr	r3, [r3, #4]
    c6ec:	e0822003 	add	r2, r2, r3
    c6f0:	e51b3028 	ldr	r3, [fp, #-40]	; 0xffffffd8
    c6f4:	e5933008 	ldr	r3, [r3, #8]
    c6f8:	e0422003 	sub	r2, r2, r3
    c6fc:	e51b3028 	ldr	r3, [fp, #-40]	; 0xffffffd8
    c700:	e5933004 	ldr	r3, [r3, #4]
    c704:	e1a01003 	mov	r1, r3
    c708:	e1a00002 	mov	r0, r2
    c70c:	eb0003de 	bl	d68c <__aeabi_idivmod>
    c710:	e1a03001 	mov	r3, r1
    return session->capacity - session_used_size(session);
    c714:	e0443003 	sub	r3, r4, r3
    return session->head;
}

__attribute__((__always_inline__)) static inline int session_forward_tail(struct Session* session, int len)
{
    if (len > session_remain_capacity(session)) {
    c718:	e51b2020 	ldr	r2, [fp, #-32]	; 0xffffffe0
    c71c:	e1520003 	cmp	r2, r3
    c720:	da000004 	ble	c738 <ipc_server_loop+0x1e4>
        printf("forward tail with too much size\n");
    c724:	e3020e04 	movw	r0, #11780	; 0x2e04
    c728:	e3400001 	movt	r0, #1
    c72c:	ebfffd93 	bl	bd80 <printf>
        return -1;
    c730:	e3e03000 	mvn	r3, #0
    c734:	ea00000e 	b	c774 <ipc_server_loop+0x220>
    }
    session->tail = (session->tail + len) % session->capacity;
    c738:	e51b301c 	ldr	r3, [fp, #-28]	; 0xffffffe4
    c73c:	e593200c 	ldr	r2, [r3, #12]
    c740:	e51b3020 	ldr	r3, [fp, #-32]	; 0xffffffe0
    c744:	e0822003 	add	r2, r2, r3
    c748:	e51b301c 	ldr	r3, [fp, #-28]	; 0xffffffe4
    c74c:	e5933004 	ldr	r3, [r3, #4]
    c750:	e1a01003 	mov	r1, r3
    c754:	e1a00002 	mov	r0, r2
    c758:	eb0003cb 	bl	d68c <__aeabi_idivmod>
    c75c:	e1a03001 	mov	r3, r1
    c760:	e1a02003 	mov	r2, r3
    c764:	e51b301c 	ldr	r3, [fp, #-28]	; 0xffffffe4
    c768:	e583200c 	str	r2, [r3, #12]
    return session->tail;
    c76c:	e51b301c 	ldr	r3, [fp, #-28]	; 0xffffffe4
    c770:	e593300c 	ldr	r3, [r3, #12]
    c774:	e3530000 	cmp	r3, #0
    c778:	ba00007b 	blt	c96c <ipc_server_loop+0x418>
                    break;
                }
                if (ipc_node->interfaces[msg->header.opcode]) {
    c77c:	e51b3014 	ldr	r3, [fp, #-20]	; 0xffffffec
    c780:	e5d33001 	ldrb	r3, [r3, #1]
    c784:	e51b2178 	ldr	r2, [fp, #-376]	; 0xfffffe88
    c788:	e1a03103 	lsl	r3, r3, #2
    c78c:	e0823003 	add	r3, r2, r3
    c790:	e5933004 	ldr	r3, [r3, #4]
    c794:	e3530000 	cmp	r3, #0
    c798:	0a000011 	beq	c7e4 <ipc_server_loop+0x290>
                    ipc_node->interfaces[msg->header.opcode](msg);
    c79c:	e51b3014 	ldr	r3, [fp, #-20]	; 0xffffffec
    c7a0:	e5d33001 	ldrb	r3, [r3, #1]
    c7a4:	e51b2178 	ldr	r2, [fp, #-376]	; 0xfffffe88
    c7a8:	e1a03103 	lsl	r3, r3, #2
    c7ac:	e0823003 	add	r3, r2, r3
    c7b0:	e5933004 	ldr	r3, [r3, #4]
    c7b4:	e51b0014 	ldr	r0, [fp, #-20]	; 0xffffffec
    c7b8:	e12fff33 	blx	r3
                    // check if this session is delayed by op handler, all messages after the delayed message in current session is blocked.
                    if (session_delayed) {
    c7bc:	e30c3138 	movw	r3, #49464	; 0xc138
    c7c0:	e3403003 	movt	r3, #3
    c7c4:	e5d33000 	ldrb	r3, [r3]
    c7c8:	e3530000 	cmp	r3, #0
    c7cc:	0a00000f 	beq	c810 <ipc_server_loop+0x2bc>
                        session_delayed = false;
    c7d0:	e30c3138 	movw	r3, #49464	; 0xc138
    c7d4:	e3403003 	movt	r3, #3
    c7d8:	e3a02000 	mov	r2, #0
    c7dc:	e5c32000 	strb	r2, [r3]
                        break;
    c7e0:	ea000062 	b	c970 <ipc_server_loop+0x41c>
                    }
                } else {
                    printf("Unsupport opcode(%d) for server: %s\n", msg->header.opcode, ipc_node->name);
    c7e4:	e51b3014 	ldr	r3, [fp, #-20]	; 0xffffffec
    c7e8:	e5d33001 	ldrb	r3, [r3, #1]
    c7ec:	e1a01003 	mov	r1, r3
    c7f0:	e51b3178 	ldr	r3, [fp, #-376]	; 0xfffffe88
    c7f4:	e5933000 	ldr	r3, [r3]
    c7f8:	e1a02003 	mov	r2, r3
    c7fc:	e3020e28 	movw	r0, #11816	; 0x2e28
    c800:	e3400001 	movt	r0, #1
    c804:	ebfffd5d 	bl	bd80 <printf>
                }
                // finish this message in server's perspective
                while (session_forward_head(&session_list[i], msg->header.len) < 0) {
    c808:	ea000000 	b	c810 <ipc_server_loop+0x2bc>
                    yield();
    c80c:	eb000249 	bl	d138 <yield>
                while (session_forward_head(&session_list[i], msg->header.len) < 0) {
    c810:	e24b1e17 	sub	r1, fp, #368	; 0x170
    c814:	e51b2010 	ldr	r2, [fp, #-16]
    c818:	e1a03002 	mov	r3, r2
    c81c:	e1a03103 	lsl	r3, r3, #2
    c820:	e0833002 	add	r3, r3, r2
    c824:	e1a03103 	lsl	r3, r3, #2
    c828:	e0813003 	add	r3, r1, r3
    c82c:	e51b2014 	ldr	r2, [fp, #-20]	; 0xffffffec
    c830:	e1d220b2 	ldrh	r2, [r2, #2]
    c834:	e50b302c 	str	r3, [fp, #-44]	; 0xffffffd4
    c838:	e50b2030 	str	r2, [fp, #-48]	; 0xffffffd0
    if (((session->head + len) % session->capacity) > session->tail) {
    c83c:	e51b302c 	ldr	r3, [fp, #-44]	; 0xffffffd4
    c840:	e5932008 	ldr	r2, [r3, #8]
    c844:	e51b3030 	ldr	r3, [fp, #-48]	; 0xffffffd0
    c848:	e0822003 	add	r2, r2, r3
    c84c:	e51b302c 	ldr	r3, [fp, #-44]	; 0xffffffd4
    c850:	e5933004 	ldr	r3, [r3, #4]
    c854:	e1a01003 	mov	r1, r3
    c858:	e1a00002 	mov	r0, r2
    c85c:	eb00038a 	bl	d68c <__aeabi_idivmod>
    c860:	e1a03001 	mov	r3, r1
    c864:	e1a02003 	mov	r2, r3
    c868:	e51b302c 	ldr	r3, [fp, #-44]	; 0xffffffd4
    c86c:	e593300c 	ldr	r3, [r3, #12]
    c870:	e1520003 	cmp	r2, r3
    c874:	da000004 	ble	c88c <ipc_server_loop+0x338>
        printf("forward head with too much size\n");
    c878:	e3020e50 	movw	r0, #11856	; 0x2e50
    c87c:	e3400001 	movt	r0, #1
    c880:	ebfffd3e 	bl	bd80 <printf>
        return -1;
    c884:	e3e03000 	mvn	r3, #0
    c888:	ea00000e 	b	c8c8 <ipc_server_loop+0x374>
    session->head = (session->head + len) % session->capacity;
    c88c:	e51b302c 	ldr	r3, [fp, #-44]	; 0xffffffd4
    c890:	e5932008 	ldr	r2, [r3, #8]
    c894:	e51b3030 	ldr	r3, [fp, #-48]	; 0xffffffd0
    c898:	e0822003 	add	r2, r2, r3
    c89c:	e51b302c 	ldr	r3, [fp, #-44]	; 0xffffffd4
    c8a0:	e5933004 	ldr	r3, [r3, #4]
    c8a4:	e1a01003 	mov	r1, r3
    c8a8:	e1a00002 	mov	r0, r2
    c8ac:	eb000376 	bl	d68c <__aeabi_idivmod>
    c8b0:	e1a03001 	mov	r3, r1
    c8b4:	e1a02003 	mov	r2, r3
    c8b8:	e51b302c 	ldr	r3, [fp, #-44]	; 0xffffffd4
    c8bc:	e5832008 	str	r2, [r3, #8]
    return session->head;
    c8c0:	e51b302c 	ldr	r3, [fp, #-44]	; 0xffffffd4
    c8c4:	e5933008 	ldr	r3, [r3, #8]
    c8c8:	e3530000 	cmp	r3, #0
    c8cc:	baffffce 	blt	c80c <ipc_server_loop+0x2b8>
                }
                msg = IPCSESSION_MSG(&session_list[i]);
    c8d0:	e51b2010 	ldr	r2, [fp, #-16]
    c8d4:	e1a03002 	mov	r3, r2
    c8d8:	e1a03103 	lsl	r3, r3, #2
    c8dc:	e0833002 	add	r3, r3, r2
    c8e0:	e1a03103 	lsl	r3, r3, #2
    c8e4:	e24b200c 	sub	r2, fp, #12
    c8e8:	e0823003 	add	r3, r2, r3
    c8ec:	e2433f55 	sub	r3, r3, #340	; 0x154
    c8f0:	e5931000 	ldr	r1, [r3]
    c8f4:	e51b2010 	ldr	r2, [fp, #-16]
    c8f8:	e1a03002 	mov	r3, r2
    c8fc:	e1a03103 	lsl	r3, r3, #2
    c900:	e0833002 	add	r3, r3, r2
    c904:	e1a03103 	lsl	r3, r3, #2
    c908:	e24b200c 	sub	r2, fp, #12
    c90c:	e0823003 	add	r3, r2, r3
    c910:	e2433f57 	sub	r3, r3, #348	; 0x15c
    c914:	e5933000 	ldr	r3, [r3]
    c918:	e0813003 	add	r3, r1, r3
    c91c:	e50b3014 	str	r3, [fp, #-20]	; 0xffffffec
            while (msg->header.magic == IPC_MSG_MAGIC && msg->header.valid == 1 && msg->header.done != 1) {
    c920:	e51b3014 	ldr	r3, [fp, #-20]	; 0xffffffec
    c924:	e5932004 	ldr	r2, [r3, #4]
    c928:	e30d3cba 	movw	r3, #56506	; 0xdcba
    c92c:	e34a3bcd 	movt	r3, #43981	; 0xabcd
    c930:	e1520003 	cmp	r2, r3
    c934:	1a00000d 	bne	c970 <ipc_server_loop+0x41c>
    c938:	e51b3014 	ldr	r3, [fp, #-20]	; 0xffffffec
    c93c:	e5d33000 	ldrb	r3, [r3]
    c940:	e2033001 	and	r3, r3, #1
    c944:	e6ef3073 	uxtb	r3, r3
    c948:	e3530000 	cmp	r3, #0
    c94c:	0a000007 	beq	c970 <ipc_server_loop+0x41c>
    c950:	e51b3014 	ldr	r3, [fp, #-20]	; 0xffffffec
    c954:	e5d33000 	ldrb	r3, [r3]
    c958:	e2033002 	and	r3, r3, #2
    c95c:	e6ef3073 	uxtb	r3, r3
    c960:	e3530000 	cmp	r3, #0
    c964:	0affff33 	beq	c638 <ipc_server_loop+0xe4>
    c968:	ea000000 	b	c970 <ipc_server_loop+0x41c>
                    break;
    c96c:	e320f000 	nop	{0}
            }
            // stop handle this session
            cur_sess_id = -1;
    c970:	e3033568 	movw	r3, #13672	; 0x3568
    c974:	e3403001 	movt	r3, #1
    c978:	e3e02000 	mvn	r2, #0
    c97c:	e5832000 	str	r2, [r3]
        for (int i = 0; i < NR_MAX_SESSION; i++) {
    c980:	e51b3010 	ldr	r3, [fp, #-16]
    c984:	e2833001 	add	r3, r3, #1
    c988:	e50b3010 	str	r3, [fp, #-16]
    c98c:	e51b3010 	ldr	r3, [fp, #-16]
    c990:	e353000f 	cmp	r3, #15
    c994:	dafffef9 	ble	c580 <ipc_server_loop+0x2c>
        poll_session(session_list, NR_MAX_SESSION);
    c998:	eafffef1 	b	c564 <ipc_server_loop+0x10>

0000c99c <connect_session>:

#include "session.h"
#include "usyscall.h"

int connect_session(struct Session* _session, char* _path, int _capacity)
{
    c99c:	e92d4800 	push	{fp, lr}
    c9a0:	e28db004 	add	fp, sp, #4
    c9a4:	e24dd010 	sub	sp, sp, #16
    c9a8:	e50b0008 	str	r0, [fp, #-8]
    c9ac:	e50b100c 	str	r1, [fp, #-12]
    c9b0:	e50b2010 	str	r2, [fp, #-16]
    return session(_path, _capacity, _session);
    c9b4:	e51b2008 	ldr	r2, [fp, #-8]
    c9b8:	e51b1010 	ldr	r1, [fp, #-16]
    c9bc:	e51b000c 	ldr	r0, [fp, #-12]
    c9c0:	eb0001f9 	bl	d1ac <session>
    c9c4:	e1a03000 	mov	r3, r0
}
    c9c8:	e1a00003 	mov	r0, r3
    c9cc:	e24bd004 	sub	sp, fp, #4
    c9d0:	e8bd8800 	pop	{fp, pc}

0000c9d4 <free_session>:

int free_session(struct Session* session)
{
    c9d4:	e92d4800 	push	{fp, lr}
    c9d8:	e28db004 	add	fp, sp, #4
    c9dc:	e24dd008 	sub	sp, sp, #8
    c9e0:	e50b0008 	str	r0, [fp, #-8]
    return close_session(session);
    c9e4:	e51b0008 	ldr	r0, [fp, #-8]
    c9e8:	eb000211 	bl	d234 <close_session>
    c9ec:	e1a03000 	mov	r3, r0
}
    c9f0:	e1a00003 	mov	r0, r3
    c9f4:	e24bd004 	sub	sp, fp, #4
    c9f8:	e8bd8800 	pop	{fp, pc}

0000c9fc <session_alloc_buf>:

// ipc_msg alloc_buffer(ipc_session)

void* session_alloc_buf(struct Session* session, int len)
{
    c9fc:	e92d4810 	push	{r4, fp, lr}
    ca00:	e28db008 	add	fp, sp, #8
    ca04:	e24dd02c 	sub	sp, sp, #44	; 0x2c
    ca08:	e50b0030 	str	r0, [fp, #-48]	; 0xffffffd0
    ca0c:	e50b1034 	str	r1, [fp, #-52]	; 0xffffffcc
    ca10:	e51b3030 	ldr	r3, [fp, #-48]	; 0xffffffd0
    ca14:	e50b3014 	str	r3, [fp, #-20]	; 0xffffffec
    return session->capacity - session_used_size(session);
    ca18:	e51b3014 	ldr	r3, [fp, #-20]	; 0xffffffec
    ca1c:	e5934004 	ldr	r4, [r3, #4]
    ca20:	e51b3014 	ldr	r3, [fp, #-20]	; 0xffffffec
    ca24:	e50b3018 	str	r3, [fp, #-24]	; 0xffffffe8
    return ((session->tail + session->capacity) - session->head) % session->capacity;
    ca28:	e51b3018 	ldr	r3, [fp, #-24]	; 0xffffffe8
    ca2c:	e593200c 	ldr	r2, [r3, #12]
    ca30:	e51b3018 	ldr	r3, [fp, #-24]	; 0xffffffe8
    ca34:	e5933004 	ldr	r3, [r3, #4]
    ca38:	e0822003 	add	r2, r2, r3
    ca3c:	e51b3018 	ldr	r3, [fp, #-24]	; 0xffffffe8
    ca40:	e5933008 	ldr	r3, [r3, #8]
    ca44:	e0422003 	sub	r2, r2, r3
    ca48:	e51b3018 	ldr	r3, [fp, #-24]	; 0xffffffe8
    ca4c:	e5933004 	ldr	r3, [r3, #4]
    ca50:	e1a01003 	mov	r1, r3
    ca54:	e1a00002 	mov	r0, r2
    ca58:	eb00030b 	bl	d68c <__aeabi_idivmod>
    ca5c:	e1a03001 	mov	r3, r1
    return session->capacity - session_used_size(session);
    ca60:	e0442003 	sub	r2, r4, r3
    if (len > session_remain_capacity(session)) {
    ca64:	e51b3034 	ldr	r3, [fp, #-52]	; 0xffffffcc
    ca68:	e1520003 	cmp	r2, r3
    ca6c:	aa000001 	bge	ca78 <session_alloc_buf+0x7c>
        return NULL;
    ca70:	e3a03000 	mov	r3, #0
    ca74:	ea000038 	b	cb5c <session_alloc_buf+0x160>
    }
    void* buf = session->buf + session->tail;
    ca78:	e51b3030 	ldr	r3, [fp, #-48]	; 0xffffffd0
    ca7c:	e5933010 	ldr	r3, [r3, #16]
    ca80:	e51b2030 	ldr	r2, [fp, #-48]	; 0xffffffd0
    ca84:	e592200c 	ldr	r2, [r2, #12]
    ca88:	e0833002 	add	r3, r3, r2
    ca8c:	e50b3010 	str	r3, [fp, #-16]
    // we mapped double size of page, so it's ok to write buffer directly
    memset(buf, 0, len);
    ca90:	e51b3034 	ldr	r3, [fp, #-52]	; 0xffffffcc
    ca94:	e1a02003 	mov	r2, r3
    ca98:	e3a01000 	mov	r1, #0
    ca9c:	e51b0010 	ldr	r0, [fp, #-16]
    caa0:	eb0003ed 	bl	da5c <memset>
    caa4:	e51b3030 	ldr	r3, [fp, #-48]	; 0xffffffd0
    caa8:	e50b301c 	str	r3, [fp, #-28]	; 0xffffffe4
    caac:	e51b3034 	ldr	r3, [fp, #-52]	; 0xffffffcc
    cab0:	e50b3020 	str	r3, [fp, #-32]	; 0xffffffe0
    cab4:	e51b301c 	ldr	r3, [fp, #-28]	; 0xffffffe4
    cab8:	e50b3024 	str	r3, [fp, #-36]	; 0xffffffdc
    cabc:	e51b3024 	ldr	r3, [fp, #-36]	; 0xffffffdc
    cac0:	e5934004 	ldr	r4, [r3, #4]
    cac4:	e51b3024 	ldr	r3, [fp, #-36]	; 0xffffffdc
    cac8:	e50b3028 	str	r3, [fp, #-40]	; 0xffffffd8
    return ((session->tail + session->capacity) - session->head) % session->capacity;
    cacc:	e51b3028 	ldr	r3, [fp, #-40]	; 0xffffffd8
    cad0:	e593200c 	ldr	r2, [r3, #12]
    cad4:	e51b3028 	ldr	r3, [fp, #-40]	; 0xffffffd8
    cad8:	e5933004 	ldr	r3, [r3, #4]
    cadc:	e0822003 	add	r2, r2, r3
    cae0:	e51b3028 	ldr	r3, [fp, #-40]	; 0xffffffd8
    cae4:	e5933008 	ldr	r3, [r3, #8]
    cae8:	e0422003 	sub	r2, r2, r3
    caec:	e51b3028 	ldr	r3, [fp, #-40]	; 0xffffffd8
    caf0:	e5933004 	ldr	r3, [r3, #4]
    caf4:	e1a01003 	mov	r1, r3
    caf8:	e1a00002 	mov	r0, r2
    cafc:	eb0002e2 	bl	d68c <__aeabi_idivmod>
    cb00:	e1a03001 	mov	r3, r1
    return session->capacity - session_used_size(session);
    cb04:	e0443003 	sub	r3, r4, r3
    if (len > session_remain_capacity(session)) {
    cb08:	e51b2020 	ldr	r2, [fp, #-32]	; 0xffffffe0
    cb0c:	e1520003 	cmp	r2, r3
    cb10:	da000003 	ble	cb24 <session_alloc_buf+0x128>
        printf("forward tail with too much size\n");
    cb14:	e3020ec4 	movw	r0, #11972	; 0x2ec4
    cb18:	e3400001 	movt	r0, #1
    cb1c:	ebfffc97 	bl	bd80 <printf>
    cb20:	ea00000c 	b	cb58 <session_alloc_buf+0x15c>
    session->tail = (session->tail + len) % session->capacity;
    cb24:	e51b301c 	ldr	r3, [fp, #-28]	; 0xffffffe4
    cb28:	e593200c 	ldr	r2, [r3, #12]
    cb2c:	e51b3020 	ldr	r3, [fp, #-32]	; 0xffffffe0
    cb30:	e0822003 	add	r2, r2, r3
    cb34:	e51b301c 	ldr	r3, [fp, #-28]	; 0xffffffe4
    cb38:	e5933004 	ldr	r3, [r3, #4]
    cb3c:	e1a01003 	mov	r1, r3
    cb40:	e1a00002 	mov	r0, r2
    cb44:	eb0002d0 	bl	d68c <__aeabi_idivmod>
    cb48:	e1a03001 	mov	r3, r1
    cb4c:	e1a02003 	mov	r2, r3
    cb50:	e51b301c 	ldr	r3, [fp, #-28]	; 0xffffffe4
    cb54:	e583200c 	str	r2, [r3, #12]
    session_forward_tail(session, len);
    return buf;
    cb58:	e51b3010 	ldr	r3, [fp, #-16]
}
    cb5c:	e1a00003 	mov	r0, r3
    cb60:	e24bd008 	sub	sp, fp, #8
    cb64:	e8bd8810 	pop	{r4, fp, pc}

0000cb68 <session_free_buf>:

bool session_free_buf(struct Session* session, int len)
{
    cb68:	e92d4800 	push	{fp, lr}
    cb6c:	e28db004 	add	fp, sp, #4
    cb70:	e24dd018 	sub	sp, sp, #24
    cb74:	e50b0018 	str	r0, [fp, #-24]	; 0xffffffe8
    cb78:	e50b101c 	str	r1, [fp, #-28]	; 0xffffffe4
    cb7c:	e51b3018 	ldr	r3, [fp, #-24]	; 0xffffffe8
    cb80:	e50b3008 	str	r3, [fp, #-8]
    return ((session->tail + session->capacity) - session->head) % session->capacity;
    cb84:	e51b3008 	ldr	r3, [fp, #-8]
    cb88:	e593200c 	ldr	r2, [r3, #12]
    cb8c:	e51b3008 	ldr	r3, [fp, #-8]
    cb90:	e5933004 	ldr	r3, [r3, #4]
    cb94:	e0822003 	add	r2, r2, r3
    cb98:	e51b3008 	ldr	r3, [fp, #-8]
    cb9c:	e5933008 	ldr	r3, [r3, #8]
    cba0:	e0422003 	sub	r2, r2, r3
    cba4:	e51b3008 	ldr	r3, [fp, #-8]
    cba8:	e5933004 	ldr	r3, [r3, #4]
    cbac:	e1a01003 	mov	r1, r3
    cbb0:	e1a00002 	mov	r0, r2
    cbb4:	eb0002b4 	bl	d68c <__aeabi_idivmod>
    cbb8:	e1a03001 	mov	r3, r1
    cbbc:	e1a02003 	mov	r2, r3
    if (len > session_used_size(session)) {
    cbc0:	e51b301c 	ldr	r3, [fp, #-28]	; 0xffffffe4
    cbc4:	e1520003 	cmp	r2, r3
    cbc8:	aa000001 	bge	cbd4 <session_free_buf+0x6c>
        return false;
    cbcc:	e3a03000 	mov	r3, #0
    cbd0:	ea000031 	b	cc9c <session_free_buf+0x134>
    cbd4:	e51b3018 	ldr	r3, [fp, #-24]	; 0xffffffe8
    cbd8:	e50b300c 	str	r3, [fp, #-12]
    cbdc:	e51b301c 	ldr	r3, [fp, #-28]	; 0xffffffe4
    cbe0:	e50b3010 	str	r3, [fp, #-16]
    if (((session->head + len) % session->capacity) > session->tail) {
    cbe4:	e51b300c 	ldr	r3, [fp, #-12]
    cbe8:	e5932008 	ldr	r2, [r3, #8]
    cbec:	e51b3010 	ldr	r3, [fp, #-16]
    cbf0:	e0822003 	add	r2, r2, r3
    cbf4:	e51b300c 	ldr	r3, [fp, #-12]
    cbf8:	e5933004 	ldr	r3, [r3, #4]
    cbfc:	e1a01003 	mov	r1, r3
    cc00:	e1a00002 	mov	r0, r2
    cc04:	eb0002a0 	bl	d68c <__aeabi_idivmod>
    cc08:	e1a03001 	mov	r3, r1
    cc0c:	e1a02003 	mov	r2, r3
    cc10:	e51b300c 	ldr	r3, [fp, #-12]
    cc14:	e593300c 	ldr	r3, [r3, #12]
    cc18:	e1520003 	cmp	r2, r3
    cc1c:	da000004 	ble	cc34 <session_free_buf+0xcc>
        printf("forward head with too much size\n");
    cc20:	e3020ee8 	movw	r0, #12008	; 0x2ee8
    cc24:	e3400001 	movt	r0, #1
    cc28:	ebfffc54 	bl	bd80 <printf>
        return -1;
    cc2c:	e3e03000 	mvn	r3, #0
    cc30:	ea00000e 	b	cc70 <session_free_buf+0x108>
    session->head = (session->head + len) % session->capacity;
    cc34:	e51b300c 	ldr	r3, [fp, #-12]
    cc38:	e5932008 	ldr	r2, [r3, #8]
    cc3c:	e51b3010 	ldr	r3, [fp, #-16]
    cc40:	e0822003 	add	r2, r2, r3
    cc44:	e51b300c 	ldr	r3, [fp, #-12]
    cc48:	e5933004 	ldr	r3, [r3, #4]
    cc4c:	e1a01003 	mov	r1, r3
    cc50:	e1a00002 	mov	r0, r2
    cc54:	eb00028c 	bl	d68c <__aeabi_idivmod>
    cc58:	e1a03001 	mov	r3, r1
    cc5c:	e1a02003 	mov	r2, r3
    cc60:	e51b300c 	ldr	r3, [fp, #-12]
    cc64:	e5832008 	str	r2, [r3, #8]
    return session->head;
    cc68:	e51b300c 	ldr	r3, [fp, #-12]
    cc6c:	e5933008 	ldr	r3, [r3, #8]
    }
    assert(session_forward_head(session, len) != 1);
    cc70:	e3530001 	cmp	r3, #1
    cc74:	1a000007 	bne	cc98 <session_free_buf+0x130>
    cc78:	e3023f0c 	movw	r3, #12044	; 0x2f0c
    cc7c:	e3403001 	movt	r3, #1
    cc80:	e3022f40 	movw	r2, #12096	; 0x2f40
    cc84:	e3402001 	movt	r2, #1
    cc88:	e3a01040 	mov	r1, #64	; 0x40
    cc8c:	e3020f34 	movw	r0, #12084	; 0x2f34
    cc90:	e3400001 	movt	r0, #1
    cc94:	eb000285 	bl	d6b0 <__assert_func>
    return true;
    cc98:	e3a03001 	mov	r3, #1
}
    cc9c:	e1a00003 	mov	r0, r3
    cca0:	e24bd004 	sub	sp, fp, #4
    cca4:	e8bd8800 	pop	{fp, pc}

0000cca8 <Error>:
#include "libserial.h"
#include "fs.h"
#include "list.h"

static void Error(char* s)
{
    cca8:	e92d4800 	push	{fp, lr}
    ccac:	e28db004 	add	fp, sp, #4
    ccb0:	e24dd008 	sub	sp, sp, #8
    ccb4:	e50b0008 	str	r0, [fp, #-8]
    printf("Error: %s\n", s);
    ccb8:	e51b1008 	ldr	r1, [fp, #-8]
    ccbc:	e3020f54 	movw	r0, #12116	; 0x2f54
    ccc0:	e3400001 	movt	r0, #1
    ccc4:	ebfffc2d 	bl	bd80 <printf>
    for (;;)
    ccc8:	eafffffe 	b	ccc8 <Error+0x20>

0000cccc <BlockRead>:
        ;
}

// Locate the data block using block_num
uint8_t* BlockRead(int block_num)
{
    cccc:	e52db004 	push	{fp}		; (str fp, [sp, #-4]!)
    ccd0:	e28db000 	add	fp, sp, #0
    ccd4:	e24dd014 	sub	sp, sp, #20
    ccd8:	e50b0010 	str	r0, [fp, #-16]
    uint8_t* data = (uint8_t*)MemFsRange.memfs_start + block_num * BLOCK_SIZE;
    ccdc:	e51b3010 	ldr	r3, [fp, #-16]
    cce0:	e1a03483 	lsl	r3, r3, #9
    cce4:	e1a02003 	mov	r2, r3
    cce8:	e30c3178 	movw	r3, #49528	; 0xc178
    ccec:	e3403003 	movt	r3, #3
    ccf0:	e5933000 	ldr	r3, [r3]
    ccf4:	e0823003 	add	r3, r2, r3
    ccf8:	e50b3008 	str	r3, [fp, #-8]
    return data;
    ccfc:	e51b3008 	ldr	r3, [fp, #-8]
}
    cd00:	e1a00003 	mov	r0, r3
    cd04:	e28bd000 	add	sp, fp, #0
    cd08:	e49db004 	pop	{fp}		; (ldr fp, [sp], #4)
    cd0c:	e12fff1e 	bx	lr

0000cd10 <BlockClear>:

// Zero a block.
static void BlockClear(int block_num)
{
    cd10:	e92d4800 	push	{fp, lr}
    cd14:	e28db004 	add	fp, sp, #4
    cd18:	e24dd010 	sub	sp, sp, #16
    cd1c:	e50b0010 	str	r0, [fp, #-16]
    uint8_t* data = BlockRead(block_num);
    cd20:	e51b0010 	ldr	r0, [fp, #-16]
    cd24:	ebffffe8 	bl	cccc <BlockRead>
    cd28:	e50b0008 	str	r0, [fp, #-8]
    memset(data, 0, BLOCK_SIZE);
    cd2c:	e3a02c02 	mov	r2, #512	; 0x200
    cd30:	e3a01000 	mov	r1, #0
    cd34:	e51b0008 	ldr	r0, [fp, #-8]
    cd38:	eb000347 	bl	da5c <memset>
}
    cd3c:	e320f000 	nop	{0}
    cd40:	e24bd004 	sub	sp, fp, #4
    cd44:	e8bd8800 	pop	{fp, pc}

0000cd48 <BlockAlloc>:

// Allocate a zeroed disk block.
uint32_t BlockAlloc()
{
    cd48:	e92d4800 	push	{fp, lr}
    cd4c:	e28db004 	add	fp, sp, #4
    cd50:	e24dd020 	sub	sp, sp, #32
    int bit_index, block_index, bit_mark;

    struct SuperBlock sb;

    ReadSuperBlock(&sb);
    cd54:	e24b3020 	sub	r3, fp, #32
    cd58:	e1a00003 	mov	r0, r3
    cd5c:	ebfff771 	bl	ab28 <ReadSuperBlock>

    for (bit_index = 0; bit_index < sb.size; bit_index += BITMAP_SIZE) {
    cd60:	e3a03000 	mov	r3, #0
    cd64:	e50b3008 	str	r3, [fp, #-8]
    cd68:	ea000055 	b	cec4 <BlockAlloc+0x17c>

        uint8_t* data = BlockRead(BLOCK_BIT_INDEX(bit_index, sb.ninodes));
    cd6c:	e51b3008 	ldr	r3, [fp, #-8]
    cd70:	e2832eff 	add	r2, r3, #4080	; 0xff0
    cd74:	e282200f 	add	r2, r2, #15
    cd78:	e3530000 	cmp	r3, #0
    cd7c:	b1a03002 	movlt	r3, r2
    cd80:	a1a03003 	movge	r3, r3
    cd84:	e1a03643 	asr	r3, r3, #12
    cd88:	e1a02003 	mov	r2, r3
    cd8c:	e51b3018 	ldr	r3, [fp, #-24]	; 0xffffffe8
    cd90:	e1a031a3 	lsr	r3, r3, #3
    cd94:	e0823003 	add	r3, r2, r3
    cd98:	e2833003 	add	r3, r3, #3
    cd9c:	e1a00003 	mov	r0, r3
    cda0:	ebffffc9 	bl	cccc <BlockRead>
    cda4:	e50b0010 	str	r0, [fp, #-16]

        for (block_index = 0; block_index < BITMAP_SIZE && bit_index + block_index < sb.size; block_index++) {
    cda8:	e3a03000 	mov	r3, #0
    cdac:	e50b300c 	str	r3, [fp, #-12]
    cdb0:	ea000036 	b	ce90 <BlockAlloc+0x148>
            bit_mark = 1 << (block_index % 8);
    cdb4:	e51b300c 	ldr	r3, [fp, #-12]
    cdb8:	e2732000 	rsbs	r2, r3, #0
    cdbc:	e2033007 	and	r3, r3, #7
    cdc0:	e2022007 	and	r2, r2, #7
    cdc4:	52623000 	rsbpl	r3, r2, #0
    cdc8:	e3a02001 	mov	r2, #1
    cdcc:	e1a03312 	lsl	r3, r2, r3
    cdd0:	e50b3014 	str	r3, [fp, #-20]	; 0xffffffec

            if ((data[block_index / 8] & bit_mark) == 0) {
    cdd4:	e51b300c 	ldr	r3, [fp, #-12]
    cdd8:	e2832007 	add	r2, r3, #7
    cddc:	e3530000 	cmp	r3, #0
    cde0:	b1a03002 	movlt	r3, r2
    cde4:	a1a03003 	movge	r3, r3
    cde8:	e1a031c3 	asr	r3, r3, #3
    cdec:	e1a02003 	mov	r2, r3
    cdf0:	e51b3010 	ldr	r3, [fp, #-16]
    cdf4:	e0833002 	add	r3, r3, r2
    cdf8:	e5d33000 	ldrb	r3, [r3]
    cdfc:	e1a02003 	mov	r2, r3
    ce00:	e51b3014 	ldr	r3, [fp, #-20]	; 0xffffffec
    ce04:	e0033002 	and	r3, r3, r2
    ce08:	e3530000 	cmp	r3, #0
    ce0c:	1a00001c 	bne	ce84 <BlockAlloc+0x13c>
                data[block_index / 8] |= bit_mark;
    ce10:	e51b300c 	ldr	r3, [fp, #-12]
    ce14:	e2832007 	add	r2, r3, #7
    ce18:	e3530000 	cmp	r3, #0
    ce1c:	b1a03002 	movlt	r3, r2
    ce20:	a1a03003 	movge	r3, r3
    ce24:	e1a031c3 	asr	r3, r3, #3
    ce28:	e1a01003 	mov	r1, r3
    ce2c:	e1a02001 	mov	r2, r1
    ce30:	e51b3010 	ldr	r3, [fp, #-16]
    ce34:	e0833002 	add	r3, r3, r2
    ce38:	e51b2010 	ldr	r2, [fp, #-16]
    ce3c:	e0822001 	add	r2, r2, r1
    ce40:	e5d22000 	ldrb	r2, [r2]
    ce44:	e6af1072 	sxtb	r1, r2
    ce48:	e51b2014 	ldr	r2, [fp, #-20]	; 0xffffffec
    ce4c:	e6af2072 	sxtb	r2, r2
    ce50:	e1812002 	orr	r2, r1, r2
    ce54:	e6af2072 	sxtb	r2, r2
    ce58:	e6ef2072 	uxtb	r2, r2
    ce5c:	e5c32000 	strb	r2, [r3]

                BlockClear(bit_index + block_index);
    ce60:	e51b2008 	ldr	r2, [fp, #-8]
    ce64:	e51b300c 	ldr	r3, [fp, #-12]
    ce68:	e0823003 	add	r3, r2, r3
    ce6c:	e1a00003 	mov	r0, r3
    ce70:	ebffffa6 	bl	cd10 <BlockClear>
                return bit_index + block_index;
    ce74:	e51b2008 	ldr	r2, [fp, #-8]
    ce78:	e51b300c 	ldr	r3, [fp, #-12]
    ce7c:	e0823003 	add	r3, r2, r3
    ce80:	ea000017 	b	cee4 <BlockAlloc+0x19c>
        for (block_index = 0; block_index < BITMAP_SIZE && bit_index + block_index < sb.size; block_index++) {
    ce84:	e51b300c 	ldr	r3, [fp, #-12]
    ce88:	e2833001 	add	r3, r3, #1
    ce8c:	e50b300c 	str	r3, [fp, #-12]
    ce90:	e51b300c 	ldr	r3, [fp, #-12]
    ce94:	e3530a01 	cmp	r3, #4096	; 0x1000
    ce98:	aa000006 	bge	ceb8 <BlockAlloc+0x170>
    ce9c:	e51b2008 	ldr	r2, [fp, #-8]
    cea0:	e51b300c 	ldr	r3, [fp, #-12]
    cea4:	e0823003 	add	r3, r2, r3
    cea8:	e1a02003 	mov	r2, r3
    ceac:	e51b3020 	ldr	r3, [fp, #-32]	; 0xffffffe0
    ceb0:	e1520003 	cmp	r2, r3
    ceb4:	3affffbe 	bcc	cdb4 <BlockAlloc+0x6c>
    for (bit_index = 0; bit_index < sb.size; bit_index += BITMAP_SIZE) {
    ceb8:	e51b3008 	ldr	r3, [fp, #-8]
    cebc:	e2833a01 	add	r3, r3, #4096	; 0x1000
    cec0:	e50b3008 	str	r3, [fp, #-8]
    cec4:	e51b2020 	ldr	r2, [fp, #-32]	; 0xffffffe0
    cec8:	e51b3008 	ldr	r3, [fp, #-8]
    cecc:	e1520003 	cmp	r2, r3
    ced0:	8affffa5 	bhi	cd6c <BlockAlloc+0x24>
            }
        }
    }

    Error("BlockAlloc: out of blocks");
    ced4:	e3020f60 	movw	r0, #12128	; 0x2f60
    ced8:	e3400001 	movt	r0, #1
    cedc:	ebffff71 	bl	cca8 <Error>
    return 0;
    cee0:	e3a03000 	mov	r3, #0
}
    cee4:	e1a00003 	mov	r0, r3
    cee8:	e24bd004 	sub	sp, fp, #4
    ceec:	e8bd8800 	pop	{fp, pc}

0000cef0 <BlockFree>:

// Free a disk block.
void BlockFree(int block_num)
{
    cef0:	e92d4800 	push	{fp, lr}
    cef4:	e28db004 	add	fp, sp, #4
    cef8:	e24dd020 	sub	sp, sp, #32
    cefc:	e50b0020 	str	r0, [fp, #-32]	; 0xffffffe0
    struct SuperBlock sb;
    int block_index, bit_mark;

    ReadSuperBlock(&sb);
    cf00:	e24b301c 	sub	r3, fp, #28
    cf04:	e1a00003 	mov	r0, r3
    cf08:	ebfff706 	bl	ab28 <ReadSuperBlock>

    uint8_t* data = BlockRead(BLOCK_BIT_INDEX(block_num, sb.ninodes));
    cf0c:	e51b3020 	ldr	r3, [fp, #-32]	; 0xffffffe0
    cf10:	e2832eff 	add	r2, r3, #4080	; 0xff0
    cf14:	e282200f 	add	r2, r2, #15
    cf18:	e3530000 	cmp	r3, #0
    cf1c:	b1a03002 	movlt	r3, r2
    cf20:	a1a03003 	movge	r3, r3
    cf24:	e1a03643 	asr	r3, r3, #12
    cf28:	e1a02003 	mov	r2, r3
    cf2c:	e51b3014 	ldr	r3, [fp, #-20]	; 0xffffffec
    cf30:	e1a031a3 	lsr	r3, r3, #3
    cf34:	e0823003 	add	r3, r2, r3
    cf38:	e2833003 	add	r3, r3, #3
    cf3c:	e1a00003 	mov	r0, r3
    cf40:	ebffff61 	bl	cccc <BlockRead>
    cf44:	e50b0008 	str	r0, [fp, #-8]

    block_index = block_num % BITMAP_SIZE;
    cf48:	e51b3020 	ldr	r3, [fp, #-32]	; 0xffffffe0
    cf4c:	e2732000 	rsbs	r2, r3, #0
    cf50:	e7eb3053 	ubfx	r3, r3, #0, #12
    cf54:	e7eb2052 	ubfx	r2, r2, #0, #12
    cf58:	52623000 	rsbpl	r3, r2, #0
    cf5c:	e50b300c 	str	r3, [fp, #-12]
    bit_mark = 1 << (block_index % 8);
    cf60:	e51b300c 	ldr	r3, [fp, #-12]
    cf64:	e2732000 	rsbs	r2, r3, #0
    cf68:	e2033007 	and	r3, r3, #7
    cf6c:	e2022007 	and	r2, r2, #7
    cf70:	52623000 	rsbpl	r3, r2, #0
    cf74:	e3a02001 	mov	r2, #1
    cf78:	e1a03312 	lsl	r3, r2, r3
    cf7c:	e50b3010 	str	r3, [fp, #-16]

    if ((data[block_index / 8] & bit_mark) == 0) {
    cf80:	e51b300c 	ldr	r3, [fp, #-12]
    cf84:	e2832007 	add	r2, r3, #7
    cf88:	e3530000 	cmp	r3, #0
    cf8c:	b1a03002 	movlt	r3, r2
    cf90:	a1a03003 	movge	r3, r3
    cf94:	e1a031c3 	asr	r3, r3, #3
    cf98:	e1a02003 	mov	r2, r3
    cf9c:	e51b3008 	ldr	r3, [fp, #-8]
    cfa0:	e0833002 	add	r3, r3, r2
    cfa4:	e5d33000 	ldrb	r3, [r3]
    cfa8:	e1a02003 	mov	r2, r3
    cfac:	e51b3010 	ldr	r3, [fp, #-16]
    cfb0:	e0033002 	and	r3, r3, r2
    cfb4:	e3530000 	cmp	r3, #0
    cfb8:	1a000002 	bne	cfc8 <BlockFree+0xd8>
        Error("freeing free block");
    cfbc:	e3020f7c 	movw	r0, #12156	; 0x2f7c
    cfc0:	e3400001 	movt	r0, #1
    cfc4:	ebffff37 	bl	cca8 <Error>
    }

    data[block_index / 8] &= ~bit_mark;
    cfc8:	e51b300c 	ldr	r3, [fp, #-12]
    cfcc:	e2832007 	add	r2, r3, #7
    cfd0:	e3530000 	cmp	r3, #0
    cfd4:	b1a03002 	movlt	r3, r2
    cfd8:	a1a03003 	movge	r3, r3
    cfdc:	e1a031c3 	asr	r3, r3, #3
    cfe0:	e1a01003 	mov	r1, r3
    cfe4:	e1a02001 	mov	r2, r1
    cfe8:	e51b3008 	ldr	r3, [fp, #-8]
    cfec:	e0833002 	add	r3, r3, r2
    cff0:	e51b2008 	ldr	r2, [fp, #-8]
    cff4:	e0822001 	add	r2, r2, r1
    cff8:	e5d22000 	ldrb	r2, [r2]
    cffc:	e6af1072 	sxtb	r1, r2
    d000:	e51b2010 	ldr	r2, [fp, #-16]
    d004:	e6af2072 	sxtb	r2, r2
    d008:	e1e02002 	mvn	r2, r2
    d00c:	e6af2072 	sxtb	r2, r2
    d010:	e0022001 	and	r2, r2, r1
    d014:	e6af2072 	sxtb	r2, r2
    d018:	e6ef2072 	uxtb	r2, r2
    d01c:	e5c32000 	strb	r2, [r3]
}
    d020:	e320f000 	nop	{0}
    d024:	e24bd004 	sub	sp, fp, #4
    d028:	e8bd8800 	pop	{fp, pc}

0000d02c <syscall>:
 */
#include "usyscall.h"

static int
syscall(int sys_num, intptr_t a1, intptr_t a2, intptr_t a3, intptr_t a4)
{
    d02c:	e92d48f0 	push	{r4, r5, r6, r7, fp, lr}
    d030:	e28db014 	add	fp, sp, #20
    d034:	e24dd018 	sub	sp, sp, #24
    d038:	e50b0020 	str	r0, [fp, #-32]	; 0xffffffe0
    d03c:	e50b1024 	str	r1, [fp, #-36]	; 0xffffffdc
